 AtaBusDxe

 Timestamp is 6725e48a (Sat Nov  2 16:36:26 2024)

 Preferred load address is 0000000000000000

 Start         Length     Name                   Class
 0001:00000000 000001d8H .text                   CODE
 0001:000001d8 0000515bH .text$mn                CODE
 0002:00000000 00001dd8H .rdata                  DATA
 0002:00001dd8 00000038H .rdata$voltmd           DATA
 0002:00001e10 00000158H .rdata$zzzdbg           DATA
 0003:00000000 00000390H .data                   DATA
 0003:00000390 00000068H .bss                    DATA
 0004:00000000 000003ccH .pdata                  DATA
 0005:00000000 0000029cH .xdata                  DATA

  Address         Publics by Value              Rva+Base               Lib:Object

 0000:00000000       __x64_code_ranges_to_entry_points_count 0000000000000000     <absolute>
 0000:00000000       __guard_iat_table          0000000000000000     <absolute>
 0000:00000000       __guard_iat_count          0000000000000000     <absolute>
 0000:00000000       __guard_longjmp_count      0000000000000000     <absolute>
 0000:00000000       __guard_longjmp_table      0000000000000000     <absolute>
 0000:00000000       __dynamic_value_reloc_table 0000000000000000     <absolute>
 0000:00000000       __x64_code_ranges_to_entry_points 0000000000000000     <absolute>
 0000:00000000       __hybrid_auxiliary_iat     0000000000000000     <absolute>
 0000:00000000       __guard_fids_count         0000000000000000     <absolute>
 0000:00000000       __hybrid_auxiliary_iat_copy 0000000000000000     <absolute>
 0000:00000000       __arm64x_redirection_metadata 0000000000000000     <absolute>
 0000:00000000       __arm64x_extra_rfe_table   0000000000000000     <absolute>
 0000:00000000       __AbsoluteZero             0000000000000000     <absolute>
 0000:00000000       __guard_check_icall_a64n_fptr 0000000000000000     <absolute>
 0000:00000000       __hybrid_code_map          0000000000000000     <absolute>
 0000:00000000       __hybrid_code_map_count    0000000000000000     <absolute>
 0000:00000000       __arm64x_extra_rfe_table_size 0000000000000000     <absolute>
 0000:00000000       __guard_fids_table         0000000000000000     <absolute>
 0000:00000000       __guard_flags              0000000000000000     <absolute>
 0000:00000000       __guard_eh_cont_count      0000000000000000     <absolute>
 0000:00000000       __arm64x_redirection_metadata_count 0000000000000000     <absolute>
 0000:00000000       __enclave_config           0000000000000000     <absolute>
 0000:00000000       __guard_eh_cont_table      0000000000000000     <absolute>
 0000:00000000       __arm64x_native_entrypoint 0000000000000000     <absolute>
 0000:00000000       __ImageBase                0000000000000000     <linker-defined>
 0001:00000000       InternalMemCopyMem         00000000000002c0     BaseMemoryLibRepStr:CopyMem.obj
 0001:00000040       InternalMemZeroMem         0000000000000300     BaseMemoryLibRepStr:ZeroMem.obj
 0001:00000060       CpuPause                   0000000000000320     BaseLib:CpuPause.obj
 0001:00000070       InternalMemSetMem          0000000000000330     BaseMemoryLibRepStr:SetMem.obj
 0001:00000090       InternalMemSetMem64        0000000000000350     BaseMemoryLibRepStr:SetMem64.obj
 0001:000000b0       InternalMemSetMem32        0000000000000370     BaseMemoryLibRepStr:SetMem32.obj
 0001:000000d0       TdVmCall                   0000000000000390     BaseLib:TdVmcall.obj
 0001:00000150       EnableInterrupts           0000000000000410     BaseLib:EnableInterrupts.obj
 0001:00000160       DisableInterrupts          0000000000000420     BaseLib:DisableInterrupts.obj
 0001:00000170       AsmReadEflags              0000000000000430     BaseLib:ReadEflags.obj
 0001:00000180       TdCall                     0000000000000440     BaseLib:TdCall.obj
 0001:000001d8       _ModuleEntryPoint          0000000000000498 f   UefiDriverEntryPoint:DriverEntryPoint.obj
 0001:000001f4       ProcessLibraryConstructorList 00000000000004b4 f   AtaBusDxe:AutoGen.obj
 0001:00000590       ProcessModuleEntryPointList 0000000000000850 f   AtaBusDxe:AutoGen.obj
 0001:00000668       FreeAlignedBuffer          0000000000000928 f   AtaBusDxe:AtaBus.obj
 0001:000006fc       ReleaseAtaResources        00000000000009bc f   AtaBusDxe:AtaBus.obj
 0001:0000088c       RegisterAtaDevice          0000000000000b4c f   AtaBusDxe:AtaBus.obj
 0001:00000c38       UnregisterAtaDevice        0000000000000ef8 f   AtaBusDxe:AtaBus.obj
 0001:00000e70       AtaBusDriverBindingSupported 0000000000001130 f   AtaBusDxe:AtaBus.obj
 0001:00000f9c       AtaBusDriverBindingStart   000000000000125c f   AtaBusDxe:AtaBus.obj
 0001:00001228       AtaBusDriverBindingStop    00000000000014e8 f   AtaBusDxe:AtaBus.obj
 0001:00001324       AtaBlockIoReset            00000000000015e4 f   AtaBusDxe:AtaBus.obj
 0001:000013a4       BlockIoReadWrite           0000000000001664 f   AtaBusDxe:AtaBus.obj
 0001:00001508       AtaBlockIoReadBlocks       00000000000017c8 f   AtaBusDxe:AtaBus.obj
 0001:00001534       AtaBlockIoWriteBlocks      00000000000017f4 f   AtaBusDxe:AtaBus.obj
 0001:00001560       AtaBlockIoFlushBlocks      0000000000001820 f   AtaBusDxe:AtaBus.obj
 0001:00001564       AtaBlockIoResetEx          0000000000001824 f   AtaBusDxe:AtaBus.obj
 0001:00001740       AtaBlockIoReadBlocksEx     0000000000001a00 f   AtaBusDxe:AtaBus.obj
 0001:0000176c       AtaBlockIoWriteBlocksEx    0000000000001a2c f   AtaBusDxe:AtaBus.obj
 0001:00001798       AtaBlockIoFlushBlocksEx    0000000000001a58 f   AtaBusDxe:AtaBus.obj
 0001:000017c0       AtaDiskInfoSenseData       0000000000001a80 f   AtaBusDxe:AtaBus.obj
 0001:000017c0       AtaDiskInfoInquiry         0000000000001a80 f   AtaBusDxe:AtaBus.obj
 0001:000017cc       AtaDiskInfoIdentify        0000000000001a8c f   AtaBusDxe:AtaBus.obj
 0001:0000185c       AtaDiskInfoWhichIde        0000000000001b1c f   AtaBusDxe:AtaBus.obj
 0001:000018c4       AtaStorageSecurityReceiveData 0000000000001b84 f   AtaBusDxe:AtaBus.obj
 0001:000019ec       AtaStorageSecuritySendData 0000000000001cac f   AtaBusDxe:AtaBus.obj
 0001:00001af4       AtaDevicePassThru          0000000000001db4 f   AtaBusDxe:AtaPassThruExecute.obj
 0001:00001c0c       ResetAtaDevice             0000000000001ecc f   AtaBusDxe:AtaPassThruExecute.obj
 0001:00001c54       IdentifyAtaDevice          0000000000001f14 f   AtaBusDxe:AtaPassThruExecute.obj
 0001:00001e34       DiscoverAtaDevice          00000000000020f4 f   AtaBusDxe:AtaPassThruExecute.obj
 0001:00001edc       TransferAtaDevice          000000000000219c f   AtaBusDxe:AtaPassThruExecute.obj
 0001:000020e8       FreeAtaSubTask             00000000000023a8 f   AtaBusDxe:AtaPassThruExecute.obj
 0001:00002120       AtaNonBlockingCallBack     00000000000023e0 f   AtaBusDxe:AtaPassThruExecute.obj
 0001:0000236c       AccessAtaDevice            000000000000262c f   AtaBusDxe:AtaPassThruExecute.obj
 0001:000027f4       TrustTransferAtaDevice     0000000000002ab4 f   AtaBusDxe:AtaPassThruExecute.obj
 0001:00002a1c       AtaBusComponentNameGetDriverName 0000000000002cdc f   AtaBusDxe:ComponentName.obj
 0001:00002a50       AtaBusComponentNameGetControllerName 0000000000002d10 f   AtaBusDxe:ComponentName.obj
 0001:00002c14       InternalBaseLibIsListValid 0000000000002ed4 f   BaseLib:LinkedList.obj
 0001:00002c80       InsertTailList             0000000000002f40 f   BaseLib:LinkedList.obj
 0001:00002cd4       IsListEmpty                0000000000002f94 f   BaseLib:LinkedList.obj
 0001:00002d0c       RemoveEntryList            0000000000002fcc f   BaseLib:LinkedList.obj
 0001:00002d54       LShiftU64                  0000000000003014 f   BaseLib:LShiftU64.obj
 0001:00002d98       CopyGuid                   0000000000003058 f   BaseMemoryLibRepStr:MemLibGuid.obj
 0001:00002e48       CompareGuid                0000000000003108 f   BaseMemoryLibRepStr:MemLibGuid.obj
 0001:00002f0c       CopyMem                    00000000000031cc f   BaseMemoryLibRepStr:CopyMemWrapper.obj
 0001:00002fa8       ZeroMem                    0000000000003268 f   BaseMemoryLibRepStr:ZeroMemWrapper.obj
 0001:00003018       DebugPrint                 00000000000032d8 f   BaseDebugLibSerialPort:DebugLib.obj
 0001:0000303c       DebugPrintMarker           00000000000032fc f   BaseDebugLibSerialPort:DebugLib.obj
 0001:000030c8       DebugAssert                0000000000003388 f   BaseDebugLibSerialPort:DebugLib.obj
 0001:00003144       InternalAllocateAlignedPages 0000000000003404 f   UefiMemoryAllocationLib:MemoryAllocationLib.obj
 0001:000032ec       InternalAllocatePool       00000000000035ac f   UefiMemoryAllocationLib:MemoryAllocationLib.obj
 0001:0000331c       InternalAllocateCopyPool   00000000000035dc f   UefiMemoryAllocationLib:MemoryAllocationLib.obj
 0001:00003394       FreePool                   0000000000003654 f   UefiMemoryAllocationLib:MemoryAllocationLib.obj
 0001:000033d8       IsDevicePathEnd            0000000000003698 f   UefiDevicePathLibDevicePathProtocol:UefiDevicePathLib.obj
 0001:00003450       IsLanguageSupported        0000000000003710 f   UefiLib:UefiLib.obj
 0001:000034d8       LookupUnicodeString2       0000000000003798 f   UefiLib:UefiLib.obj
 0001:000035cc       AddUnicodeString2          000000000000388c f   UefiLib:UefiLib.obj
 0001:000037b4       GetHobList                 0000000000003a74 f   DxeHobLib:HobLib.obj
 0001:00003894       InternalAcpiDelay          0000000000003b54 f   DxeAcpiTimerLib:AcpiTimerLib.obj
 0001:000038f8       InternalReportStatusCode   0000000000003bb8 f   DxeReportStatusCodeLib:ReportStatusCodeLib.obj
 0001:00003994       ReportStatusCodeWithDevicePath 0000000000003c54 f   DxeReportStatusCodeLib:ReportStatusCodeLib.obj
 0001:00003b94       GetPcdProtocol             0000000000003e54 f   DxePcdLib:DxePcdLib.obj
 0001:00003c20       StrSize                    0000000000003ee0 f   BaseLib:String.obj
 0001:00003cac       AsciiStrLen                0000000000003f6c f   BaseLib:String.obj
 0001:00003d18       AsciiStrnCmp               0000000000003fd8 f   BaseLib:String.obj
 0001:00003de4       DivU64x32Remainder         00000000000040a4 f   BaseLib:DivU64x32Remainder.obj
 0001:00003e44       StrnLenS                   0000000000004104 f   BaseLib:SafeString.obj
 0001:00003e9c       IoRead8                    000000000000415c f   BaseIoLibIntrinsicSev:IoLibMsc.obj
 0001:00003ec0       IoRead32                   0000000000004180 f   BaseIoLibIntrinsicSev:IoLibMsc.obj
 0001:00003f08       IoWrite32                  00000000000041c8 f   BaseIoLibIntrinsicSev:IoLibMsc.obj
 0001:00003f34       IsTdxGuest                 00000000000041f4 f   BaseIoLibIntrinsicSev:IoLibInternalTdx.obj
 0001:00003f60       TdIoRead8                  0000000000004220 f   BaseIoLibIntrinsicSev:IoLibInternalTdx.obj
 0001:00003fb8       TdIoRead32                 0000000000004278 f   BaseIoLibIntrinsicSev:IoLibInternalTdx.obj
 0001:0000402c       TdIoWrite8                 00000000000042ec f   BaseIoLibIntrinsicSev:IoLibInternalTdx.obj
 0001:0000407c       TdIoWrite32                000000000000433c f   BaseIoLibIntrinsicSev:IoLibInternalTdx.obj
 0001:000040d0       AsciiSPrint                0000000000004390 f   BasePrintLib:PrintLib.obj
 0001:000040fc       BasePrintLibFillBuffer     00000000000043bc f   BasePrintLib:PrintLibInternal.obj
 0001:00004130       BasePrintLibValueToString  00000000000043f0 f   BasePrintLib:PrintLibInternal.obj
 0001:00004180       BasePrintLibSPrintMarker   0000000000004440 f   BasePrintLib:PrintLibInternal.obj
 0001:0000508c       BasePrintLibSPrint         000000000000534c f   BasePrintLib:PrintLibInternal.obj
 0001:000050b0       SerialPortWrite            0000000000005370 f   PcAtSerialPortLib:SerialPortLib.obj
 0001:00005120       PciExpressRead32           00000000000053e0 f   BasePciExpressLib:PciExpressLib.obj
 0001:00005170       PciCf8Read32               0000000000005430 f   BasePciCf8Lib:PciCf8Lib.obj
 0001:0000520c       SaveAndDisableInterrupts   00000000000054cc f   BaseLib:Cpu.obj
 0001:00005230       GetTdInfo                  00000000000054f0 f   TdxLib:TdInfo.obj
 0001:00005294       TdSharedPageMask           0000000000005554 f   TdxLib:TdInfo.obj
 0001:000052c0       MmioRead32                 0000000000005580 f   BaseIoLibIntrinsicSev:IoLib.obj
 0002:00000000       ??_C@_0CB@DMEJJJHA@?6ASSERT_EFI_ERROR?5?$CIStatus?5?$DN?5?$CFr?$CJ@ 0000000000005600     UefiDriverEntryPoint:DriverEntryPoint.obj
 0002:00000028       ??_C@_0CH@BBNBJKHK@?$CB?$CI?$CI?$CIINTN?$CJ?$CIRETURN_STATUS?$CJ?$CIStatus@ 0000000000005628     UefiDriverEntryPoint:DriverEntryPoint.obj
 0002:00000050       ??_C@_09LMBEMCLG@AtaBusDxe@ 0000000000005650     AtaBusDxe:AutoGen.obj
 0002:00000060       ??_C@_0CE@IBFOBMLB@?6ASSERT_RETURN_ERROR?5?$CIStatus?5?$DN?5@ 0000000000005660     AtaBusDxe:AutoGen.obj
 0002:00000090       ??_C@_0IA@CMGBADLO@d?3?2uefi_specs_personal_collecti@ 0000000000005690     AtaBusDxe:AutoGen.obj
 0002:00000110       ??_C@_0BF@NDBIKIKC@CR?5has?5Bad?5Signature@ 0000000000005710     AtaBusDxe:AtaBus.obj
 0002:00000130       ??_C@_0FA@IKBENNDA@D?3?2uefi_specs_personal_collecti@ 0000000000005730     AtaBusDxe:AtaBus.obj
 0002:00000180       ??_C@_03LKLGDMJI@eng@      0000000000005780     AtaBusDxe:AtaBus.obj
 0002:00000184       ??_C@_02LFNMGJAP@en@       0000000000005784     AtaBusDxe:AtaBus.obj
 0002:00000188       ??_C@_0DE@MGCKPGMC@Found?5TCG?5support?5in?5Port?5?$CFx?5Po@ 0000000000005788     AtaBusDxe:AtaBus.obj
 0002:000001c0       ??_C@_0EC@GALDLFJP@Successfully?5Install?5Storage?5Se@ 00000000000057c0     AtaBusDxe:AtaBus.obj
 0002:00000210       ??_C@_0EB@HNKFOLGA@Failed?5to?5initialize?5Port?5?$CFx?5Po@ 0000000000005810     AtaBusDxe:AtaBus.obj
 0002:00000258       ??_C@_0BJ@JAHIIKBL@BlockIo2?5?$CB?$DN?5?$CI?$CIvoid?5?$CK?$CJ?50?$CJ@ 0000000000005858     AtaBusDxe:AtaBus.obj
 0002:00000278       ??_C@_0CG@GLFCOFBN@EFI?5Storage?5Security?5Protocol?5?9@ 0000000000005878     AtaBusDxe:AtaBus.obj
 0002:000002a0       ??_C@_0CG@PIGNCGOO@EFI?5Storage?5Security?5Protocol?5?9@ 00000000000058a0     AtaBusDxe:AtaBus.obj
 0002:000002c8       ??_C@_0DJ@DDMAIDEC@Status?5?$CB?$DN?5?$CI?$CIRETURN_STATUS?$CJ?$CI0x80@ 00000000000058c8     AtaBusDxe:AtaPassThruExecute.obj
 0002:00000310       ??_C@_0FM@NLHBPKDN@D?3?2uefi_specs_personal_collecti@ 0000000000005910     AtaBusDxe:AtaPassThruExecute.obj
 0002:00000370       ??_C@_0DJ@LMIAHGOC@Status?5?$CB?$DN?5?$CI?$CIRETURN_STATUS?$CJ?$CI0x80@ 0000000000005970     AtaBusDxe:AtaPassThruExecute.obj
 0002:000003b0       ??_C@_0DJ@JMJCDJFH@AtaBus?5?9?5Identify?5Device?3?5Port?5@ 00000000000059b0     AtaBusDxe:AtaPassThruExecute.obj
 0002:000003f0       ??_C@_0CA@EBFAJMAE@?$CIUINTN?$CJAtaDevice?9?$DOUdmaValid?5?$DM?52@ 00000000000059f0     AtaBusDxe:AtaPassThruExecute.obj
 0002:00000410       ??_C@_0BP@MBOFNODK@?$CIUINTN?$CJAtaDevice?9?$DOLba48Bit?5?$DM?52@ 0000000000005a10     AtaBusDxe:AtaPassThruExecute.obj
 0002:00000430       ??_C@_0BD@JMAKPHOH@?$CIUINTN?$CJIsWrite?5?$DM?52@ 0000000000005a30     AtaBusDxe:AtaPassThruExecute.obj
 0002:00000448       ??_C@_0CL@IAGCNCKA@NON?9BLOCKING?5EVENT?5FINISHED?$CB?9?5S@ 0000000000005a48     AtaBusDxe:AtaPassThruExecute.obj
 0002:00000478       ??_C@_0BM@GNPFIKGA@UnsignalledEventCount?5?$DN?5?$CFd?6@ 0000000000005a78     AtaBusDxe:AtaPassThruExecute.obj
 0002:00000498       ??_C@_0BP@OKBLJIEE@Signal?5the?5upper?5layer?5event?$CB?6@ 0000000000005a98     AtaBusDxe:AtaPassThruExecute.obj
 0002:000004b8       ??_C@_0CA@CGKDLAGF@Start?5to?5embark?5a?5new?5Ata?5Task?6@ 0000000000005ab8     AtaBusDxe:AtaPassThruExecute.obj
 0002:000004d8       ??_C@_0DB@LGLOIHAJ@AtaTask?9?$DONumberOfBlocks?5?$DN?5?$CFx?$DL?5A@ 0000000000005ad8     AtaBusDxe:AtaPassThruExecute.obj
 0002:00000510       ??_C@_17FGJJPDOI@?$AAY?$AAE?$AAS@ 0000000000005b10     AtaBusDxe:AtaPassThruExecute.obj
 0002:00000518       ??_C@_15LIBIHNCL@?$AAN?$AAO@ 0000000000005b18     AtaBusDxe:AtaPassThruExecute.obj
 0002:00000520       ??_C@_0FF@POBEEKHM@PACKET?5INFO?3?5Write?$DN?$CFs?0?5Length?$DN?$CF@ 0000000000005b20     AtaBusDxe:AtaPassThruExecute.obj
 0002:00000578       ??_C@_0BM@GLJBMBKA@Allocation?5IsError?5Addr?$DN?$CFx?6@ 0000000000005b78     AtaBusDxe:AtaPassThruExecute.obj
 0002:00000598       ??_C@_0CE@IMHHAGMP@AccessAtaDevice?0?5NumberOfBlocks@ 0000000000005b98     AtaBusDxe:AtaPassThruExecute.obj
 0002:000005c0       ??_C@_0CM@PNOKAHHP@AccessAtaDevice?0?5MaxTransferBlo@ 0000000000005bc0     AtaBusDxe:AtaPassThruExecute.obj
 0002:000005f0       ??_C@_0CA@BBCNEPCA@AccessAtaDevice?0?5EventCount?$DN?$CFx?6@ 0000000000005bf0     AtaBusDxe:AtaPassThruExecute.obj
 0002:00000610       ??_C@_0EB@GGBPHNLI@Blocking?5AccessAtaDevice?0?5Trans@ 0000000000005c10     AtaBusDxe:AtaPassThruExecute.obj
 0002:00000658       ??_C@_0BH@IPPENJHN@?$CIUINTN?$CJIsTrustSend?5?$DM?52@ 0000000000005c58     AtaBusDxe:AtaPassThruExecute.obj
 0002:00000670       mMaxTransferBlockNumber    0000000000005c70     AtaBusDxe:AtaPassThruExecute.obj
 0002:00000680       mAtaPassThruCmdProtocols   0000000000005c80     AtaBusDxe:AtaPassThruExecute.obj
 0002:00000688       mAtaCommands               0000000000005c88     AtaBusDxe:AtaPassThruExecute.obj
 0002:00000690       mAtaTrustCommands          0000000000005c90     AtaBusDxe:AtaPassThruExecute.obj
 0002:00000694       ??_C@_06DALJLGPG@eng?$DLen@ 0000000000005c94     AtaBusDxe:ComponentName.obj
 0002:000006a0       ??_C@_1BO@MJNPMME@?$AAA?$AAT?$AAA?$AA?5?$AAB?$AAu?$AAs?$AA?5?$AAD?$AAr?$AAi?$AAv?$AAe?$AAr@ 0000000000005ca0     AtaBusDxe:ComponentName.obj
 0002:000006c0       ??_C@_1BO@KHPHIBLI@?$AAA?$AAT?$AAA?$AA?5?$AAC?$AAo?$AAn?$AAt?$AAr?$AAo?$AAl?$AAl?$AAe?$AAr@ 0000000000005cc0     AtaBusDxe:ComponentName.obj
 0002:000006e0       ??_C@_0FH@LLCGCFIG@D?3?2uefi_specs_personal_collecti@ 0000000000005ce0     AtaBusDxe:ComponentName.obj
 0002:00000738       ??_C@_0BF@NJNGJMPC@List?5?$CB?$DN?5?$CI?$CIvoid?5?$CK?$CJ?50?$CJ@ 0000000000005d38     BaseLib:LinkedList.obj
 0002:00000750       ??_C@_0EM@NCJPOFNN@D?3?2uefi_specs_personal_collecti@ 0000000000005d50     BaseLib:LinkedList.obj
 0002:000007a0       ??_C@_0CC@KDLPLAED@List?9?$DOForwardLink?5?$CB?$DN?5?$CI?$CIvoid?5?$CK?$CJ?5@ 0000000000005da0     BaseLib:LinkedList.obj
 0002:000007c8       ??_C@_0BP@IJJCCMAK@List?9?$DOBackLink?5?$CB?$DN?5?$CI?$CIvoid?5?$CK?$CJ?50?$CJ@ 0000000000005dc8     BaseLib:LinkedList.obj
 0002:000007e8       ??_C@_0BJ@NJABNCDK@ListHead?5?$CB?$DN?5?$CI?$CIvoid?5?$CK?$CJ?50?$CJ@ 0000000000005de8     BaseLib:LinkedList.obj
 0002:00000808       ??_C@_0CG@LGIALJFK@InternalBaseLibIsListValid?5?$CILis@ 0000000000005e08     BaseLib:LinkedList.obj
 0002:00000830       ??_C@_0CC@JLDICICM@InternalBaseLibIsListValid?5?$CILis@ 0000000000005e30     BaseLib:LinkedList.obj
 0002:00000858       ??_C@_0BF@NMBJJECB@?$CBIsListEmpty?5?$CIEntry?$CJ@ 0000000000005e58     BaseLib:LinkedList.obj
 0002:00000870       ??_C@_0N@KGHEHMDL@Divisor?5?$CB?$DN?50@ 0000000000005e70     BaseLib:DivU64x32.obj
 0002:00000880       ??_C@_0L@MEMPDLHB@Count?5?$DM?564@ 0000000000005e80     BaseLib:LShiftU64.obj
 0002:00000890       ??_C@_0EL@PKACDBFD@D?3?2uefi_specs_personal_collecti@ 0000000000005e90     BaseLib:LShiftU64.obj
 0002:000008e0       ??_C@_0DG@EEENIGGL@Length?5?$DM?$DN?5?$CI0xFFFFFFFFFFFFFFFFUL@ 0000000000005ee0     BaseMemoryLibRepStr:MemLibGuid.obj
 0002:00000920       ??_C@_0ED@MKGCMJG@?$CILength?5?9?51?$CJ?5?$DM?$DN?5?$CI0xFFFFFFFFFFFF@ 0000000000005f20     BaseMemoryLibRepStr:CopyMemWrapper.obj
 0002:00000970       ??_C@_0FM@IDPIEKJH@D?3?2uefi_specs_personal_collecti@ 0000000000005f70     BaseMemoryLibRepStr:CopyMemWrapper.obj
 0002:000009d0       ??_C@_0DO@MAOBOFEG@?$CILength?5?9?51?$CJ?5?$DM?$DN?5?$CI0xFFFFFFFFFFFF@ 0000000000005fd0     BaseMemoryLibRepStr:CopyMemWrapper.obj
 0002:00000a10       ??_C@_0BH@IACGKAP@Buffer?5?$CB?$DN?5?$CI?$CIvoid?5?$CK?$CJ?50?$CJ@ 0000000000006010     BaseMemoryLibRepStr:ZeroMemWrapper.obj
 0002:00000a30       ??_C@_0FM@DHFKCLFA@D?3?2uefi_specs_personal_collecti@ 0000000000006030     BaseMemoryLibRepStr:ZeroMemWrapper.obj
 0002:00000a90       ??_C@_0BH@LKMBFCBF@Format?5?$CB?$DN?5?$CI?$CIvoid?5?$CK?$CJ?50?$CJ@ 0000000000006090     BaseDebugLibSerialPort:DebugLib.obj
 0002:00000ab0       ??_C@_0FJ@BNNHJMAJ@D?3?2uefi_specs_personal_collecti@ 00000000000060b0     BaseDebugLibSerialPort:DebugLib.obj
 0002:00000b10       ??_C@_0BI@NOCKJDBJ@ASSERT?5?$FL?$CFa?$FN?5?$CFa?$CI?$CFd?$CJ?3?5?$CFa?6@ 0000000000006110     BaseDebugLibSerialPort:DebugLib.obj
 0002:00000b28       ??_C@_0BN@COECPDCC@gImageHandle?5?$CB?$DN?5?$CI?$CIvoid?5?$CK?$CJ?50?$CJ@ 0000000000006128     UefiBootServicesTableLib:UefiBootServicesTableLib.obj
 0002:00000b50       ??_C@_0GL@PJCPJLGM@D?3?2uefi_specs_personal_collecti@ 0000000000006150     UefiBootServicesTableLib:UefiBootServicesTableLib.obj
 0002:00000bc0       ??_C@_0BE@DGNHAHIL@gST?5?$CB?$DN?5?$CI?$CIvoid?5?$CK?$CJ?50?$CJ@ 00000000000061c0     UefiBootServicesTableLib:UefiBootServicesTableLib.obj
 0002:00000bd8       ??_C@_0BE@BDFJLGLN@gBS?5?$CB?$DN?5?$CI?$CIvoid?5?$CK?$CJ?50?$CJ@ 00000000000061d8     UefiBootServicesTableLib:UefiBootServicesTableLib.obj
 0002:00000bf0       ??_C@_0L@LBCNCHJA@Pages?5?$CB?$DN?50@ 00000000000061f0     UefiMemoryAllocationLib:MemoryAllocationLib.obj
 0002:00000c00       ??_C@_0GF@KMHDEKMA@D?3?2uefi_specs_personal_collecti@ 0000000000006200     UefiMemoryAllocationLib:MemoryAllocationLib.obj
 0002:00000c68       ??_C@_0CD@GECBLADO@?$CIAlignment?5?$CG?5?$CIAlignment?5?9?51?$CJ?$CJ?5?$DN@ 0000000000006268     UefiMemoryAllocationLib:MemoryAllocationLib.obj
 0002:00000c90       ??_C@_0BC@BDMGDFME@RealPages?5?$DO?5Pages@ 0000000000006290     UefiMemoryAllocationLib:MemoryAllocationLib.obj
 0002:00000ca8       ??_C@_0DO@GEEICOOO@AllocationSize?5?$DM?$DN?5?$CI0xFFFFFFFFFF@ 00000000000062a8     UefiMemoryAllocationLib:MemoryAllocationLib.obj
 0002:00000ce8       ??_C@_0BE@OBDFIHND@gRT?5?$CB?$DN?5?$CI?$CIvoid?5?$CK?$CJ?50?$CJ@ 00000000000062e8     UefiRuntimeServicesTableLib:UefiRuntimeServicesTableLib.obj
 0002:00000d00       ??_C@_0HB@NCAPNEDO@D?3?2uefi_specs_personal_collecti@ 0000000000006300     UefiRuntimeServicesTableLib:UefiRuntimeServicesTableLib.obj
 0002:00000d80       ??_C@_0GP@HEOOPGAM@D?3?2uefi_specs_personal_collecti@ 0000000000006380     UefiDevicePathLibDevicePathProtocol:UefiDevicePathLib.obj
 0002:00000df0       ??_C@_0DC@CNNBPJA@mDevicePathLibDevicePathUtiliti@ 00000000000063f0     UefiDevicePathLibDevicePathProtocol:UefiDevicePathLib.obj
 0002:00000e28       ??_C@_0BL@JFODOCGB@DevicePath?5?$CB?$DN?5?$CI?$CIvoid?5?$CK?$CJ?50?$CJ@ 0000000000006428     UefiDevicePathLibDevicePathProtocol:UefiDevicePathLib.obj
 0002:00000e48       ??_C@_0BF@CBLMFKOC@Node?5?$CB?$DN?5?$CI?$CIvoid?5?$CK?$CJ?50?$CJ@ 0000000000006448     UefiDevicePathLibDevicePathProtocol:UefiDevicePathLib.obj
 0002:00000e60       ??_C@_0FB@KFBGMLJM@D?3?2uefi_specs_personal_collecti@ 0000000000006460     UefiLib:UefiDriverModel.obj
 0002:00000ec0       ??_C@_0EK@CGIIDOCH@D?3?2uefi_specs_personal_collecti@ 00000000000064c0     DxeHobLib:HobLib.obj
 0002:00000f10       ??_C@_0BJ@OBFMLLDO@mHobList?5?$CB?$DN?5?$CI?$CIvoid?5?$CK?$CJ?50?$CJ@ 0000000000006510     DxeHobLib:HobLib.obj
 0002:00000f30       ??_C@_0BJ@NOLLDKJB@HobStart?5?$CB?$DN?5?$CI?$CIvoid?5?$CK?$CJ?50?$CJ@ 0000000000006530     DxeHobLib:HobLib.obj
 0002:00000f50       ??_C@_0BC@FEDIJHFF@?$CI?$CIBOOLEAN?$CJ?$CI0?$DN?$DN1?$CJ?$CJ@ 0000000000006550     DxeHobLib:HobLib.obj
 0002:00000f68       ??_C@_0BP@LHBKJBMC@PlatformInfoHob?5is?5not?5found?4?6@ 0000000000006568     DxeAcpiTimerLib:DxeAcpiTimerLib.obj
 0002:00000f90       ??_C@_0FH@PGONMIHN@D?3?2uefi_specs_personal_collecti@ 0000000000006590     DxeAcpiTimerLib:DxeAcpiTimerLib.obj
 0002:00000fe8       ??_C@_0BI@HAGPDMHJ@AcpiTimerLibConstructor@ 00000000000065e8     DxeAcpiTimerLib:DxeAcpiTimerLib.obj
 0002:00001000       ??_C@_0CL@DGCOIACG@?$CFa?3?5Unknown?5Host?5Bridge?5Device?5@ 0000000000006600     DxeAcpiTimerLib:DxeAcpiTimerLib.obj
 0002:00001030       ??_C@_0GK@HIFHPALF@D?3?2uefi_specs_personal_collecti@ 0000000000006630     DxeReportStatusCodeLib:ReportStatusCodeLib.obj
 0002:000010a0       ??_C@_0BN@HMHGLLOO@ExtendedData?5?$CB?$DN?5?$CI?$CIvoid?5?$CK?$CJ?50?$CJ@ 00000000000066a0     DxeReportStatusCodeLib:ReportStatusCodeLib.obj
 0002:000010c0       ??_C@_0BG@BPIKKLEE@ExtendedDataSize?5?$CB?$DN?50@ 00000000000066c0     DxeReportStatusCodeLib:ReportStatusCodeLib.obj
 0002:000010d8       ??_C@_0DN@HHIHPHHB@?$CB?$CI?$CIExtendedData?5?$DN?$DN?5?$CI?$CIvoid?5?$CK?$CJ?50?$CJ@ 00000000000066d8     DxeReportStatusCodeLib:ReportStatusCodeLib.obj
 0002:00001118       ??_C@_0DN@BBBIFINB@?$CB?$CI?$CIExtendedData?5?$CB?$DN?5?$CI?$CIvoid?5?$CK?$CJ?50?$CJ@ 0000000000006718     DxeReportStatusCodeLib:ReportStatusCodeLib.obj
 0002:00001160       ??_C@_0EN@ENFGNHA@D?3?2uefi_specs_personal_collecti@ 0000000000006760     DxePcdLib:DxePcdLib.obj
 0002:000011b0       ??_C@_0BF@OOKDELHM@mPcd?5?$CB?$DN?5?$CI?$CIvoid?5?$CK?$CJ?50?$CJ@ 00000000000067b0     DxePcdLib:DxePcdLib.obj
 0002:000011d0       ??_C@_0EL@GLNKFHII@D?3?2uefi_specs_personal_collecti@ 00000000000067d0     BaseLib:Unaligned.obj
 0002:00001220       ??_C@_0BH@MAAHKCPC@String?5?$CB?$DN?5?$CI?$CIvoid?5?$CK?$CJ?50?$CJ@ 0000000000006820     BaseLib:String.obj
 0002:00001240       ??_C@_0EI@LOLLHGDK@D?3?2uefi_specs_personal_collecti@ 0000000000006840     BaseLib:String.obj
 0002:00001288       ??_C@_0CC@GFNLNIOC@?$CI?$CIUINTN?$CJString?5?$CG?50x00000001?$CJ?5?$DN?$DN@ 0000000000006888     BaseLib:String.obj
 0002:000012b0       ??_C@_0DK@EOJCOAME@Length?5?$DM?5_gPcd_FixedAtBuild_Pcd@ 00000000000068b0     BaseLib:String.obj
 0002:000012f0       ??_C@_0DI@MDIKFADO@Length?5?$DM?5_gPcd_FixedAtBuild_Pcd@ 00000000000068f0     BaseLib:String.obj
 0002:00001328       ??_C@_0BL@IKFBNFIL@AsciiStrSize?5?$CIFirstString?$CJ@ 0000000000006928     BaseLib:String.obj
 0002:00001348       ??_C@_0BM@EDNOKLLE@AsciiStrSize?5?$CISecondString?$CJ@ 0000000000006948     BaseLib:String.obj
 0002:00001368       ??_C@_0DJ@JJHGIFMP@Length?5?$DM?$DN?5_gPcd_FixedAtBuild_Pc@ 0000000000006968     BaseLib:String.obj
 0002:000013b0       ??_C@_0FE@LIGPAOFO@D?3?2uefi_specs_personal_collecti@ 00000000000069b0     BaseLib:DivU64x32Remainder.obj
 0002:00001410       ??_C@_0EM@OAPOMMAE@D?3?2uefi_specs_personal_collecti@ 0000000000006a10     BaseLib:SafeString.obj
 0002:00001460       ??_C@_0BJ@CNKJJNE@?$CIBuffer?5?$CB?$DN?5?$CI?$CIvoid?5?$CK?$CJ?50?$CJ?$CJ@ 0000000000006a60     BaseLib:SafeString.obj
 0002:00001480       ??_C@_0FF@GCKLFLDF@D?3?2uefi_specs_personal_collecti@ 0000000000006a80     BaseIoLibIntrinsicSev:IoLibMsc.obj
 0002:000014d8       ??_C@_0BA@HCECIDGN@?$CIPort?5?$CG?53?$CJ?5?$DN?$DN?50@ 0000000000006ad8     BaseIoLibIntrinsicSev:IoLibMsc.obj
 0002:000014f0       ??_C@_0FN@DOAHIAPG@D?3?2uefi_specs_personal_collecti@ 0000000000006af0     BaseIoLibIntrinsicSev:IoLibInternalTdx.obj
 0002:00001550       ??_C@_0BD@OMMAJMCK@?$CIAddress?5?$CG?53?$CJ?5?$DN?$DN?50@ 0000000000006b50     BaseIoLibIntrinsicSev:IoLibInternalTdx.obj
 0002:00001570       ??_C@_0FH@MODEAFEI@D?3?2uefi_specs_personal_collecti@ 0000000000006b70     BasePrintLib:PrintLibInternal.obj
 0002:000015d0       ??_C@_0EB@HDGIDCIO@?$CIBufferSize?5?$DM?$DN?5?$CI_gPcd_FixedAtBu@ 0000000000006bd0     BasePrintLib:PrintLibInternal.obj
 0002:00001618       ??_C@_0BJ@PPAKKDJG@?$CIFormat?5?$CB?$DN?5?$CI?$CIvoid?5?$CK?$CJ?50?$CJ?$CJ@ 0000000000006c18     BasePrintLib:PrintLibInternal.obj
 0002:00001640       ??_C@_0ED@LPDDCECB@?$CIBufferSize?5?$DM?$DN?5?$CI_gPcd_FixedAtBu@ 0000000000006c40     BasePrintLib:PrintLibInternal.obj
 0002:00001690       ??_C@_0IM@BFJJFLGB@?$CIStrnLenS?5?$CI?$CICHAR16?5?$CK?$CJFormat?0?5?$CI_@ 0000000000006c90     BasePrintLib:PrintLibInternal.obj
 0002:00001720       ??_C@_0ID@PLGJGION@?$CIAsciiStrnLenS?5?$CIFormat?0?5?$CI_gPcd_@ 0000000000006d20     BasePrintLib:PrintLibInternal.obj
 0002:000017a8       ??_C@_0O@MLOLIMFM@?$DMnull?5string?$DO@ 0000000000006da8     BasePrintLib:PrintLibInternal.obj
 0002:000017b8       ??_C@_0M@BJJDNPHK@?$DMnull?5guid?$DO@ 0000000000006db8     BasePrintLib:PrintLibInternal.obj
 0002:000017c8       ??_C@_0DB@PMLHLBMO@?$CF08x?9?$CF04x?9?$CF04x?9?$CF02x?$CF02x?9?$CF02x?$CF02@ 0000000000006dc8     BasePrintLib:PrintLibInternal.obj
 0002:00001800       ??_C@_0M@LHGBCIKM@?$DMnull?5time?$DO@ 0000000000006e00     BasePrintLib:PrintLibInternal.obj
 0002:00001810       ??_C@_0BK@FCPKCIDD@?$CF02d?1?$CF02d?1?$CF04d?5?5?$CF02d?3?$CF02d@ 0000000000006e10     BasePrintLib:PrintLibInternal.obj
 0002:0000182c       ??_C@_04JIMNDDED@?$CF08X@  0000000000006e2c     BasePrintLib:PrintLibInternal.obj
 0002:00001834       ??_C@_02PCIJFNDE@?$AN?6@   0000000000006e34     BasePrintLib:PrintLibInternal.obj
 0002:00001838       ??_C@_01LIIJDEN@?$AN@      0000000000006e38     BasePrintLib:PrintLibInternal.obj
 0002:00001840       mWarningString             0000000000006e40     BasePrintLib:PrintLibInternal.obj
 0002:00001910       mErrorString               0000000000006f10     BasePrintLib:PrintLibInternal.obj
 0002:00001bf0       mHexStr                    00000000000071f0     BasePrintLib:PrintLibInternal.obj
 0002:00001c00       ??_C@_0BO@BAKALPJK@?$CI?$CIAddress?$CJ?5?$CG?5?$HO0xfffffff?$CJ?5?$DN?$DN?50@ 0000000000007200     BasePciExpressLib:PciExpressLib.obj
 0002:00001c20       ??_C@_0FJ@LPMKGGAK@D?3?2uefi_specs_personal_collecti@ 0000000000007220     BasePciExpressLib:PciExpressLib.obj
 0002:00001c80       ??_C@_0FB@PDIKDBMH@D?3?2uefi_specs_personal_collecti@ 0000000000007280     BasePciCf8Lib:PciCf8Lib.obj
 0002:00001cd8       ??_C@_0CG@EDKLCMBO@?$CI?$CIAddress?$CJ?5?$CG?5?$CI?$HO0xffff0ff?5?$HM?5?$CI3?$CJ?$CJ@ 00000000000072d8     BasePciCf8Lib:PciCf8Lib.obj
 0002:00001d00       ??_C@_0CB@GEABOFIF@Failed?5call?5TDCALL_TDINFO?4?5?$CFllx@ 0000000000007300     TdxLib:TdInfo.obj
 0002:00001d30       ??_C@_0FC@MAJHMCGF@D?3?2uefi_specs_personal_collecti@ 0000000000007330     BaseIoLibIntrinsicSev:IoLib.obj
 0002:00001dd8       __volatile_metadata        00000000000073d8     <linker-defined>
 0003:00000000       gEfiStatusCodeSpecificDataGuid 0000000000007580     AtaBusDxe:AutoGen.obj
 0003:00000010       gEfiStatusCodeRuntimeProtocolGuid 0000000000007590     AtaBusDxe:AutoGen.obj
 0003:00000020       gEfiDiskInfoProtocolGuid   00000000000075a0     AtaBusDxe:AutoGen.obj
 0003:00000030       gEfiAtaPassThruProtocolGuid 00000000000075b0     AtaBusDxe:AutoGen.obj
 0003:00000040       gEfiComponentName2ProtocolGuid 00000000000075c0     AtaBusDxe:AutoGen.obj
 0003:00000050       gEfiBlockIo2ProtocolGuid   00000000000075d0     AtaBusDxe:AutoGen.obj
 0003:00000060       gPcdProtocolGuid           00000000000075e0     AtaBusDxe:AutoGen.obj
 0003:00000070       gEfiDevicePathProtocolGuid 00000000000075f0     AtaBusDxe:AutoGen.obj
 0003:00000080       gEfiDiskInfoAhciInterfaceGuid 0000000000007600     AtaBusDxe:AutoGen.obj
 0003:00000090       gUefiOvmfPkgPlatformInfoGuid 0000000000007610     AtaBusDxe:AutoGen.obj
 0003:000000a0       gEfiDevicePathUtilitiesProtocolGuid 0000000000007620     AtaBusDxe:AutoGen.obj
 0003:000000b0       gEfiHobListGuid            0000000000007630     AtaBusDxe:AutoGen.obj
 0003:000000c0       gEfiDriverBindingProtocolGuid 0000000000007640     AtaBusDxe:AutoGen.obj
 0003:000000d0       gEfiStorageSecurityCommandProtocolGuid 0000000000007650     AtaBusDxe:AutoGen.obj
 0003:000000e0       gEfiComponentNameProtocolGuid 0000000000007660     AtaBusDxe:AutoGen.obj
 0003:000000f0       gEfiBlockIoProtocolGuid    0000000000007670     AtaBusDxe:AutoGen.obj
 0003:00000100       gEfiCallerIdGuid           0000000000007680     AtaBusDxe:AutoGen.obj
 0003:00000110       gAtaBusDriverBinding       0000000000007690     AtaBusDxe:AtaBus.obj
 0003:00000140       gAtaDeviceTemplate         00000000000076c0     AtaBusDxe:AtaBus.obj
 0003:00000320       gAtaBusComponentName2      00000000000078a0     AtaBusDxe:ComponentName.obj
 0003:00000338       gAtaBusComponentName       00000000000078b8     AtaBusDxe:ComponentName.obj
 0003:00000350       mAtaBusControllerNameTable 00000000000078d0     AtaBusDxe:ComponentName.obj
 0003:00000370       mAtaBusDriverNameTable     00000000000078f0     AtaBusDxe:ComponentName.obj
 0003:00000398       gST                        0000000000007918     UefiBootServicesTableLib:UefiBootServicesTableLib.obj
 0003:000003a0       gBS                        0000000000007920     UefiBootServicesTableLib:UefiBootServicesTableLib.obj
 0003:000003a8       gImageHandle               0000000000007928     UefiBootServicesTableLib:UefiBootServicesTableLib.obj
 0003:000003b0       gRT                        0000000000007930     UefiRuntimeServicesTableLib:UefiRuntimeServicesTableLib.obj
 0003:000003b8       mDevicePathLibDevicePathUtilities 0000000000007938     UefiDevicePathLibDevicePathProtocol:UefiDevicePathLib.obj
 0003:000003c0       mHobList                   0000000000007940     DxeHobLib:HobLib.obj
 0003:000003c8       mReportStatusCodeLibStatusCodeProtocol 0000000000007948     DxeReportStatusCodeLib:ReportStatusCodeLib.obj
 0003:000003d0       mPcd                       0000000000007950     DxePcdLib:DxePcdLib.obj
 0003:000003e0       gParity                    0000000000007960     PcAtSerialPortLib:SerialPortLib.obj
 0003:000003e1       gBreakSet                  0000000000007961     PcAtSerialPortLib:SerialPortLib.obj
 0003:000003e2       mTdDataReturned            0000000000007962     TdxLib:TdInfo.obj
 0003:000003e8       mTdSharedPageMask          0000000000007968     TdxLib:TdInfo.obj

 entry point at        0001:000001d8

 Static symbols

 0001:0000001a       InternalMemCopyMem.0       00000000000002da     BaseMemoryLibRepStr:CopyMem.obj
 0001:0000002a       @CopyBackward              00000000000002ea     BaseMemoryLibRepStr:CopyMem.obj
 0001:00000033       @CopyBytes                 00000000000002f3     BaseMemoryLibRepStr:CopyMem.obj
 0001:00000129       TdVmCall.no_return_data    00000000000003e9     BaseLib:TdVmcall.obj
 0001:000001cb       TdCall.exit                000000000000048b     BaseLib:TdCall.obj
 0003:00000390       mCcProbeGuestType          0000000000007910     DxeCcProbeLib:DxeCcProbeLib.obj
 0003:00000391       mCcProbed                  0000000000007911     DxeCcProbeLib:DxeCcProbeLib.obj
 0003:000003d8       mDeadLoopComparator        0000000000007958     BaseLib:CpuDeadLoop.obj
 0003:000003f0       mRunningOnQ35              0000000000007970     DxePciLibI440FxQ35:PciLib.obj
 0003:000003f4       mAcpiTimerIoAddr           0000000000007974     DxeAcpiTimerLib:DxeAcpiTimerLib.obj
 0005:00000000       $unwind$FreeAtaSubTask     0000000000007d60     AtaBusDxe:AtaPassThruExecute.obj
 0005:00000000       $unwind$IoRead32           0000000000007d60     BaseIoLibIntrinsicSev:IoLibMsc.obj
 0005:00000000       $unwind$IoWrite32          0000000000007d60     BaseIoLibIntrinsicSev:IoLibMsc.obj
 0005:00000000       $unwind$SaveAndDisableInterrupts 0000000000007d60     BaseLib:Cpu.obj
 0005:00000000       $unwind$InternalBaseLibIsListValid 0000000000007d60     BaseLib:LinkedList.obj
 0005:00000000       $unwind$IsListEmpty        0000000000007d60     BaseLib:LinkedList.obj
 0005:00000000       $unwind$RemoveEntryList    0000000000007d60     BaseLib:LinkedList.obj
 0005:00000000       $unwind$StrnLenS           0000000000007d60     BaseLib:SafeString.obj
 0005:00000000       $unwind$PciExpressRead32   0000000000007d60     BasePciExpressLib:PciExpressLib.obj
 0005:00000000       $unwind$_ModuleEntryPoint  0000000000007d60     UefiDriverEntryPoint:DriverEntryPoint.obj
 0005:00000008       $unwind$ProcessLibraryConstructorList 0000000000007d68     AtaBusDxe:AutoGen.obj
 0005:00000008       $unwind$LookupUnicodeString2 0000000000007d68     UefiLib:UefiLib.obj
 0005:00000020       $unwind$ProcessModuleEntryPointList 0000000000007d80     AtaBusDxe:AutoGen.obj
 0005:0000002c       $unwind$FreeAlignedBuffer  0000000000007d8c     AtaBusDxe:AtaBus.obj
 0005:00000038       $unwind$ReleaseAtaResources 0000000000007d98     AtaBusDxe:AtaBus.obj
 0005:00000038       $unwind$IdentifyAtaDevice  0000000000007d98     AtaBusDxe:AtaPassThruExecute.obj
 0005:00000050       $unwind$RegisterAtaDevice  0000000000007db0     AtaBusDxe:AtaBus.obj
 0005:00000068       $unwind$UnregisterAtaDevice 0000000000007dc8     AtaBusDxe:AtaBus.obj
 0005:0000007c       $unwind$AtaBusDriverBindingSupported 0000000000007ddc     AtaBusDxe:AtaBus.obj
 0005:0000008c       $unwind$AtaBusDriverBindingStart 0000000000007dec     AtaBusDxe:AtaBus.obj
 0005:0000009c       $unwind$AtaBusDriverBindingStop 0000000000007dfc     AtaBusDxe:AtaBus.obj
 0005:000000b4       $unwind$AtaBlockIoReset    0000000000007e14     AtaBusDxe:AtaBus.obj
 0005:000000b4       $unwind$DiscoverAtaDevice  0000000000007e14     AtaBusDxe:AtaPassThruExecute.obj
 0005:000000b4       $unwind$ResetAtaDevice     0000000000007e14     AtaBusDxe:AtaPassThruExecute.obj
 0005:000000b4       $unwind$LShiftU64          0000000000007e14     BaseLib:LShiftU64.obj
 0005:000000b4       $unwind$InsertTailList     0000000000007e14     BaseLib:LinkedList.obj
 0005:000000b4       $unwind$AsciiStrLen        0000000000007e14     BaseLib:String.obj
 0005:000000b4       $unwind$ZeroMem            0000000000007e14     BaseMemoryLibRepStr:ZeroMemWrapper.obj
 0005:000000b4       $unwind$IsDevicePathEnd    0000000000007e14     UefiDevicePathLibDevicePathProtocol:UefiDevicePathLib.obj
 0005:000000b4       $unwind$InternalAllocateCopyPool 0000000000007e14     UefiMemoryAllocationLib:MemoryAllocationLib.obj
 0005:000000c0       $unwind$BlockIoReadWrite   0000000000007e20     AtaBusDxe:AtaBus.obj
 0005:000000d8       $unwind$AtaBlockIoReadBlocks 0000000000007e38     AtaBusDxe:AtaBus.obj
 0005:000000d8       $unwind$AtaBlockIoReadBlocksEx 0000000000007e38     AtaBusDxe:AtaBus.obj
 0005:000000d8       $unwind$AtaBlockIoWriteBlocks 0000000000007e38     AtaBusDxe:AtaBus.obj
 0005:000000d8       $unwind$AtaBlockIoWriteBlocksEx 0000000000007e38     AtaBusDxe:AtaBus.obj
 0005:000000e0       $unwind$AtaBlockIoResetEx  0000000000007e40     AtaBusDxe:AtaBus.obj
 0005:000000fc       $unwind$AtaBlockIoFlushBlocksEx 0000000000007e5c     AtaBusDxe:AtaBus.obj
 0005:000000fc       $unwind$IoRead8            0000000000007e5c     BaseIoLibIntrinsicSev:IoLibMsc.obj
 0005:000000fc       $unwind$GetPcdProtocol     0000000000007e5c     DxePcdLib:DxePcdLib.obj
 0005:000000fc       $unwind$TdSharedPageMask   0000000000007e5c     TdxLib:TdInfo.obj
 0005:000000fc       $unwind$FreePool           0000000000007e5c     UefiMemoryAllocationLib:MemoryAllocationLib.obj
 0005:000000fc       $unwind$InternalAllocatePool 0000000000007e5c     UefiMemoryAllocationLib:MemoryAllocationLib.obj
 0005:00000104       $unwind$AtaDiskInfoIdentify 0000000000007e64     AtaBusDxe:AtaBus.obj
 0005:00000104       $unwind$CopyMem            0000000000007e64     BaseMemoryLibRepStr:CopyMemWrapper.obj
 0005:00000118       $unwind$AtaDiskInfoWhichIde 0000000000007e78     AtaBusDxe:AtaBus.obj
 0005:00000118       $unwind$DivU64x32Remainder 0000000000007e78     BaseLib:DivU64x32Remainder.obj
 0005:00000118       $unwind$AsciiStrnCmp       0000000000007e78     BaseLib:String.obj
 0005:00000118       $unwind$StrSize            0000000000007e78     BaseLib:String.obj
 0005:00000118       $unwind$CopyGuid           0000000000007e78     BaseMemoryLibRepStr:MemLibGuid.obj
 0005:00000118       $unwind$PciCf8Read32       0000000000007e78     BasePciCf8Lib:PciCf8Lib.obj
 0005:00000118       $unwind$GetHobList         0000000000007e78     DxeHobLib:HobLib.obj
 0005:00000118       $unwind$IsLanguageSupported 0000000000007e78     UefiLib:UefiLib.obj
 0005:00000118       $unwind$InternalAcpiDelay  0000000000007e78     DxeAcpiTimerLib:AcpiTimerLib.obj
 0005:00000118       $unwind$SerialPortWrite    0000000000007e78     PcAtSerialPortLib:SerialPortLib.obj
 0005:00000128       $unwind$AtaStorageSecurityReceiveData 0000000000007e88     AtaBusDxe:AtaBus.obj
 0005:00000140       $unwind$AtaStorageSecuritySendData 0000000000007ea0     AtaBusDxe:AtaBus.obj
 0005:00000158       $unwind$AtaDevicePassThru  0000000000007eb8     AtaBusDxe:AtaPassThruExecute.obj
 0005:00000158       $unwind$InternalReportStatusCode 0000000000007eb8     DxeReportStatusCodeLib:ReportStatusCodeLib.obj
 0005:00000168       $unwind$TransferAtaDevice  0000000000007ec8     AtaBusDxe:AtaPassThruExecute.obj
 0005:00000184       $unwind$AtaNonBlockingCallBack 0000000000007ee4     AtaBusDxe:AtaPassThruExecute.obj
 0005:00000198       $unwind$AccessAtaDevice    0000000000007ef8     AtaBusDxe:AtaPassThruExecute.obj
 0005:000001b0       $unwind$TrustTransferAtaDevice 0000000000007f10     AtaBusDxe:AtaPassThruExecute.obj
 0005:000001b0       $unwind$AddUnicodeString2  0000000000007f10     UefiLib:UefiLib.obj
 0005:000001cc       $unwind$AtaBusComponentNameGetDriverName 0000000000007f2c     AtaBusDxe:ComponentName.obj
 0005:000001d4       $unwind$AtaBusComponentNameGetControllerName 0000000000007f34     AtaBusDxe:ComponentName.obj
 0005:000001ec       $unwind$CompareGuid        0000000000007f4c     BaseMemoryLibRepStr:MemLibGuid.obj
 0005:00000204       $unwind$DebugPrint         0000000000007f64     BaseDebugLibSerialPort:DebugLib.obj
 0005:0000020c       $unwind$DebugPrintMarker   0000000000007f6c     BaseDebugLibSerialPort:DebugLib.obj
 0005:00000220       $unwind$DebugAssert        0000000000007f80     BaseDebugLibSerialPort:DebugLib.obj
 0005:00000228       $unwind$InternalAllocateAlignedPages 0000000000007f88     UefiMemoryAllocationLib:MemoryAllocationLib.obj
 0005:0000023c       $unwind$ReportStatusCodeWithDevicePath 0000000000007f9c     DxeReportStatusCodeLib:ReportStatusCodeLib.obj
 0005:00000254       $unwind$TdIoRead8          0000000000007fb4     BaseIoLibIntrinsicSev:IoLibInternalTdx.obj
 0005:00000254       $unwind$BasePrintLibSPrint 0000000000007fb4     BasePrintLib:PrintLibInternal.obj
 0005:0000025c       $unwind$MmioRead32         0000000000007fbc     BaseIoLibIntrinsicSev:IoLib.obj
 0005:0000025c       $unwind$TdIoRead32         0000000000007fbc     BaseIoLibIntrinsicSev:IoLibInternalTdx.obj
 0005:0000025c       $unwind$TdIoWrite32        0000000000007fbc     BaseIoLibIntrinsicSev:IoLibInternalTdx.obj
 0005:0000025c       $unwind$TdIoWrite8         0000000000007fbc     BaseIoLibIntrinsicSev:IoLibInternalTdx.obj
 0005:00000264       $unwind$AsciiSPrint        0000000000007fc4     BasePrintLib:PrintLib.obj
 0005:0000026c       $unwind$BasePrintLibValueToString 0000000000007fcc     BasePrintLib:PrintLibInternal.obj
 0005:00000278       $unwind$BasePrintLibSPrintMarker 0000000000007fd8     BasePrintLib:PrintLibInternal.obj
 0005:00000294       $unwind$GetTdInfo          0000000000007ff4     TdxLib:TdInfo.obj
