 MyHelloWorldAppProtocol

 Timestamp is 6725e48c (Sat Nov  2 16:36:28 2024)

 Preferred load address is 0000000000000000

 Start         Length     Name                   Class
 0001:00000000 000001a8H .text                   CODE
 0001:000001a8 00001824H .text$mn                CODE
 0002:00000000 00001088H .rdata                  DATA
 0002:00001088 00000030H .rdata$voltmd           DATA
 0002:000010b8 00000178H .rdata$zzzdbg           DATA
 0003:00000000 00000020H .data                   DATA
 0003:00000020 00000042H .bss                    DATA
 0004:00000000 000000e4H .pdata                  DATA
 0005:00000000 000000bcH .xdata                  DATA

  Address         Publics by Value              Rva+Base               Lib:Object

 0000:00000000       __guard_longjmp_table      0000000000000000     <absolute>
 0000:00000000       __guard_fids_count         0000000000000000     <absolute>
 0000:00000000       __x64_code_ranges_to_entry_points_count 0000000000000000     <absolute>
 0000:00000000       __arm64x_extra_rfe_table   0000000000000000     <absolute>
 0000:00000000       __arm64x_redirection_metadata 0000000000000000     <absolute>
 0000:00000000       __guard_iat_table          0000000000000000     <absolute>
 0000:00000000       __hybrid_code_map_count    0000000000000000     <absolute>
 0000:00000000       __hybrid_code_map          0000000000000000     <absolute>
 0000:00000000       __guard_iat_count          0000000000000000     <absolute>
 0000:00000000       __arm64x_extra_rfe_table_size 0000000000000000     <absolute>
 0000:00000000       __guard_longjmp_count      0000000000000000     <absolute>
 0000:00000000       __dynamic_value_reloc_table 0000000000000000     <absolute>
 0000:00000000       __hybrid_auxiliary_iat     0000000000000000     <absolute>
 0000:00000000       __arm64x_native_entrypoint 0000000000000000     <absolute>
 0000:00000000       __hybrid_auxiliary_iat_copy 0000000000000000     <absolute>
 0000:00000000       __AbsoluteZero             0000000000000000     <absolute>
 0000:00000000       __guard_flags              0000000000000000     <absolute>
 0000:00000000       __guard_check_icall_a64n_fptr 0000000000000000     <absolute>
 0000:00000000       __guard_eh_cont_table      0000000000000000     <absolute>
 0000:00000000       __guard_eh_cont_count      0000000000000000     <absolute>
 0000:00000000       __guard_fids_table         0000000000000000     <absolute>
 0000:00000000       __arm64x_redirection_metadata_count 0000000000000000     <absolute>
 0000:00000000       __enclave_config           0000000000000000     <absolute>
 0000:00000000       __x64_code_ranges_to_entry_points 0000000000000000     <absolute>
 0001:00000000       InternalMemSetMem          0000000000000280     BaseMemoryLibRepStr:SetMem.obj
 0001:00000020       InternalMemCopyMem         00000000000002a0     BaseMemoryLibRepStr:CopyMem.obj
 0001:00000060       InternalMemZeroMem         00000000000002e0     BaseMemoryLibRepStr:ZeroMem.obj
 0001:00000080       InternalMemSetMem64        0000000000000300     BaseMemoryLibRepStr:SetMem64.obj
 0001:000000a0       InternalMemSetMem32        0000000000000320     BaseMemoryLibRepStr:SetMem32.obj
 0001:000000c0       CpuPause                   0000000000000340     BaseLib:CpuPause.obj
 0001:000000d0       TdVmCall                   0000000000000350     BaseLib:TdVmcall.obj
 0001:00000150       TdCall                     00000000000003d0     BaseLib:TdCall.obj
 0001:000001a8       _ModuleEntryPoint          0000000000000428 f   UefiApplicationEntryPoint:ApplicationEntryPoint.obj
 0001:0000024c       ProcessLibraryConstructorList 00000000000004cc f   MyHelloWorldAppProtocol:AutoGen.obj
 0001:00000474       DebugPrint                 00000000000006f4 f   BaseDebugLibSerialPort:DebugLib.obj
 0001:00000498       DebugPrintMarker           0000000000000718 f   BaseDebugLibSerialPort:DebugLib.obj
 0001:00000524       DebugAssert                00000000000007a4 f   BaseDebugLibSerialPort:DebugLib.obj
 0001:000005a0       InternalPrint              0000000000000820 f   UefiLib:UefiLibPrint.obj
 0001:00000684       Print                      0000000000000904 f   UefiLib:UefiLibPrint.obj
 0001:000006b4       AsciiStrLen                0000000000000934 f   BaseLib:String.obj
 0001:00000720       StrnLenS                   00000000000009a0 f   BaseLib:SafeString.obj
 0001:00000778       SerialPortWrite            00000000000009f8 f   PcAtSerialPortLib:SerialPortLib.obj
 0001:000007fc       UnicodeVSPrint             0000000000000a7c f   BasePrintLib:PrintLib.obj
 0001:00000880       AsciiSPrint                0000000000000b00 f   BasePrintLib:PrintLib.obj
 0001:000008ac       BasePrintLibFillBuffer     0000000000000b2c f   BasePrintLib:PrintLibInternal.obj
 0001:000008e0       BasePrintLibValueToString  0000000000000b60 f   BasePrintLib:PrintLibInternal.obj
 0001:0000094c       BasePrintLibSPrintMarker   0000000000000bcc f   BasePrintLib:PrintLibInternal.obj
 0001:00001858       BasePrintLibSPrint         0000000000001ad8 f   BasePrintLib:PrintLibInternal.obj
 0001:0000187c       InternalAllocatePool       0000000000001afc f   UefiMemoryAllocationLib:MemoryAllocationLib.obj
 0001:000018b4       FreePool                   0000000000001b34 f   UefiMemoryAllocationLib:MemoryAllocationLib.obj
 0001:000018f8       IsTdxGuest                 0000000000001b78 f   BaseIoLibIntrinsicSev:IoLibInternalTdx.obj
 0001:00001924       TdIoRead8                  0000000000001ba4 f   BaseIoLibIntrinsicSev:IoLibInternalTdx.obj
 0001:0000197c       TdIoWrite8                 0000000000001bfc f   BaseIoLibIntrinsicSev:IoLibInternalTdx.obj
 0002:00000000       ??_C@_0BI@FHPMMEBJ@MyHelloWorldAppProtocol@ 0000000000001c60     MyHelloWorldAppProtocol:AutoGen.obj
 0002:00000018       ??_C@_0CH@BBNBJKHK@?$CB?$CI?$CI?$CIINTN?$CJ?$CIRETURN_STATUS?$CJ?$CIStatus@ 0000000000001c78     MyHelloWorldAppProtocol:AutoGen.obj
 0002:00000040       ??_C@_0JB@HKMNLPEN@d?3?2uefi_specs_personal_collecti@ 0000000000001ca0     MyHelloWorldAppProtocol:AutoGen.obj
 0002:000000d8       ??_C@_0CB@DMEJJJHA@?6ASSERT_EFI_ERROR?5?$CIStatus?5?$DN?5?$CFr?$CJ@ 0000000000001d38     MyHelloWorldAppProtocol:AutoGen.obj
 0002:00000100       ??_C@_0DN@LHMCOAKK@?$FLMyHelloWorldProtocol?$FN?5MyHelloW@ 0000000000001d60     MyHelloWorldAppProtocol:MyHelloWorldAppProtocol.obj
 0002:00000140       ??_C@_1HM@HONOHECG@?$AA?$FL?$AAM?$AAy?$AAH?$AAe?$AAl?$AAl?$AAo?$AAW?$AAo?$AAr?$AAl?$AAd?$AAP?$AAr@ 0000000000001da0     MyHelloWorldAppProtocol:MyHelloWorldAppProtocol.obj
 0002:000001c0       ??_C@_1IE@KEONAGHG@?$AA?$FL?$AAM?$AAy?$AAH?$AAe?$AAl?$AAl?$AAo?$AAW?$AAo?$AAr?$AAl?$AAd?$AAP?$AAr@ 0000000000001e20     MyHelloWorldAppProtocol:MyHelloWorldAppProtocol.obj
 0002:00000248       ??_C@_1CM@LNFIIEAO@?$AAH?$AAe?$AAl?$AAl?$AAo?$AA?5?$AAW?$AAo?$AAr?$AAl?$AAd?$AA?5?$AAA?$AAp?$AAp@ 0000000000001ea8     MyHelloWorldAppProtocol:MyHelloWorldAppProtocol.obj
 0002:00000278       ??_C@_0DL@HFPBDFCK@?$FLMyHelloWorldProtocol?$FN?5MyHelloW@ 0000000000001ed8     MyHelloWorldAppProtocol:MyHelloWorldAppProtocol.obj
 0002:000002c0       ??_C@_1HO@NBFJIABL@?$AA?$FL?$AAM?$AAy?$AAH?$AAe?$AAl?$AAl?$AAo?$AAW?$AAo?$AAr?$AAl?$AAd?$AAP?$AAr@ 0000000000001f20     MyHelloWorldAppProtocol:MyHelloWorldAppProtocol.obj
 0002:00000340       ??_C@_0BH@LKMBFCBF@Format?5?$CB?$DN?5?$CI?$CIvoid?5?$CK?$CJ?50?$CJ@ 0000000000001fa0     BaseDebugLibSerialPort:DebugLib.obj
 0002:00000360       ??_C@_0FJ@BNNHJMAJ@D?3?2uefi_specs_personal_collecti@ 0000000000001fc0     BaseDebugLibSerialPort:DebugLib.obj
 0002:000003c0       ??_C@_0BI@NOCKJDBJ@ASSERT?5?$FL?$CFa?$FN?5?$CFa?$CI?$CFd?$CJ?3?5?$CFa?6@ 0000000000002020     BaseDebugLibSerialPort:DebugLib.obj
 0002:000003d8       ??_C@_0BH@IACGKAP@Buffer?5?$CB?$DN?5?$CI?$CIvoid?5?$CK?$CJ?50?$CJ@ 0000000000002038     BaseDebugLibSerialPort:DebugLib.obj
 0002:000003f0       ??_C@_0BN@COECPDCC@gImageHandle?5?$CB?$DN?5?$CI?$CIvoid?5?$CK?$CJ?50?$CJ@ 0000000000002050     UefiBootServicesTableLib:UefiBootServicesTableLib.obj
 0002:00000410       ??_C@_0GL@PJCPJLGM@D?3?2uefi_specs_personal_collecti@ 0000000000002070     UefiBootServicesTableLib:UefiBootServicesTableLib.obj
 0002:00000480       ??_C@_0BE@DGNHAHIL@gST?5?$CB?$DN?5?$CI?$CIvoid?5?$CK?$CJ?50?$CJ@ 00000000000020e0     UefiBootServicesTableLib:UefiBootServicesTableLib.obj
 0002:00000498       ??_C@_0BE@BDFJLGLN@gBS?5?$CB?$DN?5?$CI?$CIvoid?5?$CK?$CJ?50?$CJ@ 00000000000020f8     UefiBootServicesTableLib:UefiBootServicesTableLib.obj
 0002:000004b0       ??_C@_0BE@OBDFIHND@gRT?5?$CB?$DN?5?$CI?$CIvoid?5?$CK?$CJ?50?$CJ@ 0000000000002110     UefiRuntimeServicesTableLib:UefiRuntimeServicesTableLib.obj
 0002:000004d0       ??_C@_0HB@NCAPNEDO@D?3?2uefi_specs_personal_collecti@ 0000000000002130     UefiRuntimeServicesTableLib:UefiRuntimeServicesTableLib.obj
 0002:00000550       ??_C@_0GP@HEOOPGAM@D?3?2uefi_specs_personal_collecti@ 00000000000021b0     UefiDevicePathLibDevicePathProtocol:UefiDevicePathLib.obj
 0002:000005c0       ??_C@_0DC@CNNBPJA@mDevicePathLibDevicePathUtiliti@ 0000000000002220     UefiDevicePathLibDevicePathProtocol:UefiDevicePathLib.obj
 0002:00000600       ??_C@_0EO@FMCPFLJA@D?3?2uefi_specs_personal_collecti@ 0000000000002260     UefiLib:UefiLibPrint.obj
 0002:00000650       ??_C@_0CC@KPMNJIIF@?$CI?$CIUINTN?$CJFormat?5?$CG?50x00000001?$CJ?5?$DN?$DN@ 00000000000022b0     UefiLib:UefiLibPrint.obj
 0002:00000678       ??_C@_0BI@DIKLKBJC@Console?5?$CB?$DN?5?$CI?$CIvoid?5?$CK?$CJ?50?$CJ@ 00000000000022d8     UefiLib:UefiLibPrint.obj
 0002:00000690       ??_C@_0BH@MAAHKCPC@String?5?$CB?$DN?5?$CI?$CIvoid?5?$CK?$CJ?50?$CJ@ 00000000000022f0     BaseLib:String.obj
 0002:000006b0       ??_C@_0EI@LOLLHGDK@D?3?2uefi_specs_personal_collecti@ 0000000000002310     BaseLib:String.obj
 0002:000006f8       ??_C@_0CC@GFNLNIOC@?$CI?$CIUINTN?$CJString?5?$CG?50x00000001?$CJ?5?$DN?$DN@ 0000000000002358     BaseLib:String.obj
 0002:00000720       ??_C@_0DI@MDIKFADO@Length?5?$DM?5_gPcd_FixedAtBuild_Pcd@ 0000000000002380     BaseLib:String.obj
 0002:00000760       ??_C@_0EL@GLNKFHII@D?3?2uefi_specs_personal_collecti@ 00000000000023c0     BaseLib:Unaligned.obj
 0002:000007b0       ??_C@_0N@KGHEHMDL@Divisor?5?$CB?$DN?50@ 0000000000002410     BaseLib:DivU64x32.obj
 0002:000007c0       ??_C@_0EM@OAPOMMAE@D?3?2uefi_specs_personal_collecti@ 0000000000002420     BaseLib:SafeString.obj
 0002:00000810       ??_C@_0BJ@CNKJJNE@?$CIBuffer?5?$CB?$DN?5?$CI?$CIvoid?5?$CK?$CJ?50?$CJ?$CJ@ 0000000000002470     BaseLib:SafeString.obj
 0002:00000830       ??_C@_0CI@BGLNHBLM@?$CI?$CI?$CIUINTN?$CJ?5?$CIStartOfBuffer?$CJ?$CJ?5?$CG?50x@ 0000000000002490     BasePrintLib:PrintLib.obj
 0002:00000860       ??_C@_0EP@OFLCNDBG@D?3?2uefi_specs_personal_collecti@ 00000000000024c0     BasePrintLib:PrintLib.obj
 0002:000008b0       ??_C@_0CH@KJLBGOBB@?$CI?$CI?$CIUINTN?$CJ?5?$CIFormatString?$CJ?$CJ?5?$CG?50x0@ 0000000000002510     BasePrintLib:PrintLib.obj
 0002:000008e0       ??_C@_0FH@MODEAFEI@D?3?2uefi_specs_personal_collecti@ 0000000000002540     BasePrintLib:PrintLibInternal.obj
 0002:00000940       ??_C@_0EB@HDGIDCIO@?$CIBufferSize?5?$DM?$DN?5?$CI_gPcd_FixedAtBu@ 00000000000025a0     BasePrintLib:PrintLibInternal.obj
 0002:00000988       ??_C@_0BJ@PPAKKDJG@?$CIFormat?5?$CB?$DN?5?$CI?$CIvoid?5?$CK?$CJ?50?$CJ?$CJ@ 00000000000025e8     BasePrintLib:PrintLibInternal.obj
 0002:000009b0       ??_C@_0ED@LPDDCECB@?$CIBufferSize?5?$DM?$DN?5?$CI_gPcd_FixedAtBu@ 0000000000002610     BasePrintLib:PrintLibInternal.obj
 0002:00000a00       ??_C@_0IM@BFJJFLGB@?$CIStrnLenS?5?$CI?$CICHAR16?5?$CK?$CJFormat?0?5?$CI_@ 0000000000002660     BasePrintLib:PrintLibInternal.obj
 0002:00000a90       ??_C@_0ID@PLGJGION@?$CIAsciiStrnLenS?5?$CIFormat?0?5?$CI_gPcd_@ 00000000000026f0     BasePrintLib:PrintLibInternal.obj
 0002:00000b18       ??_C@_0O@MLOLIMFM@?$DMnull?5string?$DO@ 0000000000002778     BasePrintLib:PrintLibInternal.obj
 0002:00000b28       ??_C@_0M@BJJDNPHK@?$DMnull?5guid?$DO@ 0000000000002788     BasePrintLib:PrintLibInternal.obj
 0002:00000b38       ??_C@_0DB@PMLHLBMO@?$CF08x?9?$CF04x?9?$CF04x?9?$CF02x?$CF02x?9?$CF02x?$CF02@ 0000000000002798     BasePrintLib:PrintLibInternal.obj
 0002:00000b70       ??_C@_0M@LHGBCIKM@?$DMnull?5time?$DO@ 00000000000027d0     BasePrintLib:PrintLibInternal.obj
 0002:00000b80       ??_C@_0BK@FCPKCIDD@?$CF02d?1?$CF02d?1?$CF04d?5?5?$CF02d?3?$CF02d@ 00000000000027e0     BasePrintLib:PrintLibInternal.obj
 0002:00000b9c       ??_C@_04JIMNDDED@?$CF08X@  00000000000027fc     BasePrintLib:PrintLibInternal.obj
 0002:00000ba4       ??_C@_02PCIJFNDE@?$AN?6@   0000000000002804     BasePrintLib:PrintLibInternal.obj
 0002:00000ba8       ??_C@_01LIIJDEN@?$AN@      0000000000002808     BasePrintLib:PrintLibInternal.obj
 0002:00000bb0       mWarningString             0000000000002810     BasePrintLib:PrintLibInternal.obj
 0002:00000c80       mErrorString               00000000000028e0     BasePrintLib:PrintLibInternal.obj
 0002:00000f60       mHexStr                    0000000000002bc0     BasePrintLib:PrintLibInternal.obj
 0002:00000f70       ??_C@_0GF@KMHDEKMA@D?3?2uefi_specs_personal_collecti@ 0000000000002bd0     UefiMemoryAllocationLib:MemoryAllocationLib.obj
 0002:00000fe0       ??_C@_0FE@LIGPAOFO@D?3?2uefi_specs_personal_collecti@ 0000000000002c40     BaseLib:DivU64x32Remainder.obj
 0002:00001088       __volatile_metadata        0000000000002ce8     <linker-defined>
 0003:00000000       gEfiDevicePathUtilitiesProtocolGuid 0000000000002ea0     MyHelloWorldAppProtocol:AutoGen.obj
 0003:00000010       gMyHelloWorldPEIGUID       0000000000002eb0     MyHelloWorldAppProtocol:MyHelloWorldAppProtocol.obj
 0003:00000030       gST                        0000000000002ed0     UefiBootServicesTableLib:UefiBootServicesTableLib.obj
 0003:00000038       gImageHandle               0000000000002ed8     UefiBootServicesTableLib:UefiBootServicesTableLib.obj
 0003:00000040       gBS                        0000000000002ee0     UefiBootServicesTableLib:UefiBootServicesTableLib.obj
 0003:00000048       gRT                        0000000000002ee8     UefiRuntimeServicesTableLib:UefiRuntimeServicesTableLib.obj
 0003:00000050       mDevicePathLibDevicePathUtilities 0000000000002ef0     UefiDevicePathLibDevicePathProtocol:UefiDevicePathLib.obj
 0003:00000060       gParity                    0000000000002f00     PcAtSerialPortLib:SerialPortLib.obj
 0003:00000061       gBreakSet                  0000000000002f01     PcAtSerialPortLib:SerialPortLib.obj

 entry point at        0001:000001a8

 Static symbols

 0001:0000003a       InternalMemCopyMem.0       00000000000002ba     BaseMemoryLibRepStr:CopyMem.obj
 0001:0000004a       @CopyBackward              00000000000002ca     BaseMemoryLibRepStr:CopyMem.obj
 0001:00000053       @CopyBytes                 00000000000002d3     BaseMemoryLibRepStr:CopyMem.obj
 0001:00000129       TdVmCall.no_return_data    00000000000003a9     BaseLib:TdVmcall.obj
 0001:0000019b       TdCall.exit                000000000000041b     BaseLib:TdCall.obj
 0003:00000020       gMyHelloWorldProtocol      0000000000002ec0     MyHelloWorldAppProtocol:MyHelloWorldAppProtocol.obj
 0003:00000028       mCcProbeGuestType          0000000000002ec8     DxeCcProbeLib:DxeCcProbeLib.obj
 0003:00000029       mCcProbed                  0000000000002ec9     DxeCcProbeLib:DxeCcProbeLib.obj
 0003:00000058       mDeadLoopComparator        0000000000002ef8     BaseLib:CpuDeadLoop.obj
 0005:00000000       $unwind$AsciiStrLen        0000000000003020     BaseLib:String.obj
 0005:00000000       $unwind$_ModuleEntryPoint  0000000000003020     UefiApplicationEntryPoint:ApplicationEntryPoint.obj
 0005:0000000c       $unwind$ProcessLibraryConstructorList 000000000000302c     MyHelloWorldAppProtocol:AutoGen.obj
 0005:0000000c       $unwind$BasePrintLibValueToString 000000000000302c     BasePrintLib:PrintLibInternal.obj
 0005:0000000c       $unwind$SerialPortWrite    000000000000302c     PcAtSerialPortLib:SerialPortLib.obj
 0005:0000001c       $unwind$DebugPrint         000000000000303c     BaseDebugLibSerialPort:DebugLib.obj
 0005:00000024       $unwind$DebugPrintMarker   0000000000003044     BaseDebugLibSerialPort:DebugLib.obj
 0005:00000038       $unwind$DebugAssert        0000000000003058     BaseDebugLibSerialPort:DebugLib.obj
 0005:00000040       $unwind$InternalPrint      0000000000003060     UefiLib:UefiLibPrint.obj
 0005:00000058       $unwind$Print              0000000000003078     UefiLib:UefiLibPrint.obj
 0005:00000060       $unwind$StrnLenS           0000000000003080     BaseLib:SafeString.obj
 0005:00000068       $unwind$UnicodeVSPrint     0000000000003088     BasePrintLib:PrintLib.obj
 0005:00000078       $unwind$AsciiSPrint        0000000000003098     BasePrintLib:PrintLib.obj
 0005:00000080       $unwind$BasePrintLibSPrintMarker 00000000000030a0     BasePrintLib:PrintLibInternal.obj
 0005:0000009c       $unwind$TdIoRead8          00000000000030bc     BaseIoLibIntrinsicSev:IoLibInternalTdx.obj
 0005:0000009c       $unwind$BasePrintLibSPrint 00000000000030bc     BasePrintLib:PrintLibInternal.obj
 0005:000000a4       $unwind$InternalAllocatePool 00000000000030c4     UefiMemoryAllocationLib:MemoryAllocationLib.obj
 0005:000000ac       $unwind$FreePool           00000000000030cc     UefiMemoryAllocationLib:MemoryAllocationLib.obj
 0005:000000b4       $unwind$TdIoWrite8         00000000000030d4     BaseIoLibIntrinsicSev:IoLibInternalTdx.obj
