 SataController

 Timestamp is 6725e48f (Sat Nov  2 16:36:31 2024)

 Preferred load address is 0000000000000000

 Start         Length     Name                   Class
 0001:00000000 000001a8H .text                   CODE
 0001:000001a8 000027d4H .text$mn                CODE
 0002:00000000 000012d8H .rdata                  DATA
 0002:000012d8 00000030H .rdata$voltmd           DATA
 0002:00001308 00000170H .rdata$zzzdbg           DATA
 0003:00000000 00000100H .data                   DATA
 0003:00000100 0000003aH .bss                    DATA
 0004:00000000 0000018cH .pdata                  DATA
 0005:00000000 00000158H .xdata                  DATA

  Address         Publics by Value              Rva+Base               Lib:Object

 0000:00000000       __x64_code_ranges_to_entry_points_count 0000000000000000     <absolute>
 0000:00000000       __x64_code_ranges_to_entry_points 0000000000000000     <absolute>
 0000:00000000       __arm64x_redirection_metadata 0000000000000000     <absolute>
 0000:00000000       __guard_fids_count         0000000000000000     <absolute>
 0000:00000000       __guard_iat_table          0000000000000000     <absolute>
 0000:00000000       __arm64x_extra_rfe_table   0000000000000000     <absolute>
 0000:00000000       __guard_iat_count          0000000000000000     <absolute>
 0000:00000000       __hybrid_code_map_count    0000000000000000     <absolute>
 0000:00000000       __guard_longjmp_count      0000000000000000     <absolute>
 0000:00000000       __hybrid_code_map          0000000000000000     <absolute>
 0000:00000000       __arm64x_extra_rfe_table_size 0000000000000000     <absolute>
 0000:00000000       __dynamic_value_reloc_table 0000000000000000     <absolute>
 0000:00000000       __guard_longjmp_table      0000000000000000     <absolute>
 0000:00000000       __hybrid_auxiliary_iat     0000000000000000     <absolute>
 0000:00000000       __hybrid_auxiliary_iat_copy 0000000000000000     <absolute>
 0000:00000000       __arm64x_native_entrypoint 0000000000000000     <absolute>
 0000:00000000       __AbsoluteZero             0000000000000000     <absolute>
 0000:00000000       __guard_flags              0000000000000000     <absolute>
 0000:00000000       __guard_check_icall_a64n_fptr 0000000000000000     <absolute>
 0000:00000000       __guard_eh_cont_table      0000000000000000     <absolute>
 0000:00000000       __guard_eh_cont_count      0000000000000000     <absolute>
 0000:00000000       __guard_fids_table         0000000000000000     <absolute>
 0000:00000000       __arm64x_redirection_metadata_count 0000000000000000     <absolute>
 0000:00000000       __enclave_config           0000000000000000     <absolute>
 0001:00000000       InternalMemCopyMem         00000000000002c0     BaseMemoryLibRepStr:CopyMem.obj
 0001:00000040       InternalMemSetMem          0000000000000300     BaseMemoryLibRepStr:SetMem.obj
 0001:00000060       InternalMemZeroMem         0000000000000320     BaseMemoryLibRepStr:ZeroMem.obj
 0001:00000080       InternalMemSetMem64        0000000000000340     BaseMemoryLibRepStr:SetMem64.obj
 0001:000000a0       InternalMemSetMem32        0000000000000360     BaseMemoryLibRepStr:SetMem32.obj
 0001:000000c0       CpuPause                   0000000000000380     BaseLib:CpuPause.obj
 0001:000000d0       TdVmCall                   0000000000000390     BaseLib:TdVmcall.obj
 0001:00000150       TdCall                     0000000000000410     BaseLib:TdCall.obj
 0001:000001a8       _ModuleEntryPoint          0000000000000468 f   UefiDriverEntryPoint:DriverEntryPoint.obj
 0001:000001c4       ProcessLibraryConstructorList 0000000000000484 f   SataController:AutoGen.obj
 0001:000003ec       ProcessModuleEntryPointList 00000000000006ac f   SataController:AutoGen.obj
 0001:000004c4       CalculateBestPioMode       0000000000000784 f   SataController:SataController.obj
 0001:00000634       SataControllerSupported    00000000000008f4 f   SataController:SataController.obj
 0001:000006bc       SataControllerStart        000000000000097c f   SataController:SataController.obj
 0001:00000b3c       SataControllerStop         0000000000000dfc f   SataController:SataController.obj
 0001:00000cf0       IdeInitGetChannelInfo      0000000000000fb0 f   SataController:SataController.obj
 0001:00000d88       IdeInitNotifyPhase         0000000000001048 f   SataController:SataController.obj
 0001:00000d88       IdeInitSetTiming           0000000000001048 f   SataController:SataController.obj
 0001:00000d8c       IdeInitSubmitData          000000000000104c f   SataController:SataController.obj
 0001:00000e6c       IdeInitDisqualifyMode      000000000000112c f   SataController:SataController.obj
 0001:00000f38       IdeInitCalculateMode       00000000000011f8 f   SataController:SataController.obj
 0001:00001168       SataControllerComponentNameGetDriverName 0000000000001428 f   SataController:ComponentName.obj
 0001:0000119c       SataControllerComponentNameGetControllerName 000000000000145c f   SataController:ComponentName.obj
 0001:00001278       CopyMem                    0000000000001538 f   BaseMemoryLibRepStr:CopyMemWrapper.obj
 0001:0000130c       DebugPrint                 00000000000015cc f   BaseDebugLibSerialPort:DebugLib.obj
 0001:00001330       DebugPrintMarker           00000000000015f0 f   BaseDebugLibSerialPort:DebugLib.obj
 0001:000013bc       DebugAssert                000000000000167c f   BaseDebugLibSerialPort:DebugLib.obj
 0001:00001438       InternalAllocatePool       00000000000016f8 f   UefiMemoryAllocationLib:MemoryAllocationLib.obj
 0001:00001468       FreePool                   0000000000001728 f   UefiMemoryAllocationLib:MemoryAllocationLib.obj
 0001:000014ac       IsLanguageSupported        000000000000176c f   UefiLib:UefiLib.obj
 0001:00001534       LookupUnicodeString2       00000000000017f4 f   UefiLib:UefiLib.obj
 0001:00001628       ZeroMem                    00000000000018e8 f   BaseMemoryLibRepStr:ZeroMemWrapper.obj
 0001:00001698       AsciiStrLen                0000000000001958 f   BaseLib:String.obj
 0001:00001704       AsciiStrnCmp               00000000000019c4 f   BaseLib:String.obj
 0001:000017d0       StrnLenS                   0000000000001a90 f   BaseLib:SafeString.obj
 0001:00001828       SerialPortWrite            0000000000001ae8 f   PcAtSerialPortLib:SerialPortLib.obj
 0001:000018ac       AsciiSPrint                0000000000001b6c f   BasePrintLib:PrintLib.obj
 0001:000018d8       BasePrintLibFillBuffer     0000000000001b98 f   BasePrintLib:PrintLibInternal.obj
 0001:0000190c       BasePrintLibValueToString  0000000000001bcc f   BasePrintLib:PrintLibInternal.obj
 0001:00001978       BasePrintLibSPrintMarker   0000000000001c38 f   BasePrintLib:PrintLibInternal.obj
 0001:00002884       BasePrintLibSPrint         0000000000002b44 f   BasePrintLib:PrintLibInternal.obj
 0001:000028a8       IsTdxGuest                 0000000000002b68 f   BaseIoLibIntrinsicSev:IoLibInternalTdx.obj
 0001:000028d4       TdIoRead8                  0000000000002b94 f   BaseIoLibIntrinsicSev:IoLibInternalTdx.obj
 0001:0000292c       TdIoWrite8                 0000000000002bec f   BaseIoLibIntrinsicSev:IoLibInternalTdx.obj
 0002:00000000       ??_C@_0CB@DMEJJJHA@?6ASSERT_EFI_ERROR?5?$CIStatus?5?$DN?5?$CFr?$CJ@ 0000000000002c40     UefiDriverEntryPoint:DriverEntryPoint.obj
 0002:00000028       ??_C@_0CH@BBNBJKHK@?$CB?$CI?$CI?$CIINTN?$CJ?$CIRETURN_STATUS?$CJ?$CIStatus@ 0000000000002c68     UefiDriverEntryPoint:DriverEntryPoint.obj
 0002:00000050       ??_C@_0P@EACPHDPD@SataController@ 0000000000002c90     SataController:AutoGen.obj
 0002:00000060       ??_C@_0JA@BAFBDNMB@d?3?2uefi_specs_personal_collecti@ 0000000000002ca0     SataController:AutoGen.obj
 0002:000000f0       ??_C@_0BG@BDDIFCPF@PciIo?5?$CB?$DN?5?$CI?$CIvoid?5?$CK?$CJ?50?$CJ@ 0000000000002d30     SataController:SataController.obj
 0002:00000110       ??_C@_0GA@MCLMLHN@D?3?2uefi_specs_personal_collecti@ 0000000000002d50     SataController:SataController.obj
 0002:00000170       ??_C@_0CM@MHDHKFHH@CalculateBestPioMode?3?5AdvancedP@ 0000000000002db0     SataController:SataController.obj
 0002:000001a0       ??_C@_0CM@NPCPOGAP@CalculateBestUdmaMode?3?5DeviceUD@ 0000000000002de0     SataController:SataController.obj
 0002:000001d0       ??_C@_0BL@BBIEMFCH@SataControllerStart?5start?6@ 0000000000002e10     SataController:SataController.obj
 0002:000001f0       ??_C@_0CC@FNPCAPBC@Original?5PCI?5Attributes?5?$DN?50x?$CFll@ 0000000000002e30     SataController:SataController.obj
 0002:00000218       ??_C@_0CD@NOEPLJDL@Supported?5PCI?5Attributes?5?$DN?50x?$CFl@ 0000000000002e58     SataController:SataController.obj
 0002:00000240       ??_C@_0CB@CBHCDMNI@Enabled?5PCI?5Attributes?5?$DN?50x?$CFllx@ 0000000000002e80     SataController:SataController.obj
 0002:00000268       ??_C@_0BC@FEDIJHFF@?$CI?$CIBOOLEAN?$CJ?$CI0?$DN?$DN1?$CJ?$CJ@ 0000000000002ea8     SataController:SataController.obj
 0002:00000280       ??_C@_0BO@BIGLCCPN@Ports?5Implemented?$CIPI?$CJ?5?$DN?50x?$CFx?6@ 0000000000002ec0     SataController:SataController.obj
 0002:000002a0       ??_C@_0BO@FDMJGIOL@HBA?5Capabilities?$CICAP?$CJ?5?$DN?50x?$CFx?6@ 0000000000002ee0     SataController:SataController.obj
 0002:000002c0       ??_C@_0CB@BKCGPKIN@SataControllerStart?5end?5with?5?$CFr@ 0000000000002f00     SataController:SataController.obj
 0002:000002e8       ??_C@_0CO@BIBELLKD@SataControllerStart?5error?5retur@ 0000000000002f28     SataController:SataController.obj
 0002:00000318       ??_C@_0BF@NDBIKIKC@CR?5has?5Bad?5Signature@ 0000000000002f58     SataController:SataController.obj
 0002:00000330       ??_C@_0BI@GONLCNCH@Private?5?$CB?$DN?5?$CI?$CIvoid?5?$CK?$CJ?50?$CJ@ 0000000000002f70     SataController:SataController.obj
 0002:00000348       ??_C@_0CI@KCAMLIDF@Channel?5?$DM?5Private?9?$DOIdeInit?4Chan@ 0000000000002f88     SataController:SataController.obj
 0002:00000370       ??_C@_0BO@HEAABGOH@Device?5?$DM?5Private?9?$DODeviceCount@ 0000000000002fb0     SataController:SataController.obj
 0002:00000390       ??_C@_0BF@FNNOJGDE@This?5?$CB?$DN?5?$CI?$CIvoid?5?$CK?$CJ?50?$CJ@ 0000000000002fd0     SataController:SataController.obj
 0002:000003a8       ??_C@_0CA@NIKPBDMO@?$CKSupportedModes?5?$CB?$DN?5?$CI?$CIvoid?5?$CK?$CJ?50?$CJ@ 0000000000002fe8     SataController:SataController.obj
 0002:000003c8       ??_C@_0CE@GKNNNHG@IdeInitCalculateMode?3?5PioMode?5?$DN@ 0000000000003008     SataController:SataController.obj
 0002:000003f0       ??_C@_0CF@PFDAGBON@IdeInitCalculateMode?3?5UdmaMode?5@ 0000000000003030     SataController:SataController.obj
 0002:00000418       ??_C@_03LKLGDMJI@eng@      0000000000003058     SataController:ComponentName.obj
 0002:0000041c       ??_C@_02LFNMGJAP@en@       000000000000305c     SataController:ComponentName.obj
 0002:00000420       ??_C@_06DALJLGPG@eng?$DLen@ 0000000000003060     SataController:ComponentName.obj
 0002:00000428       ??_C@_1DI@EKKODBLH@?$AAS?$AAa?$AAt?$AAa?$AA?5?$AAC?$AAo?$AAn?$AAt?$AAr?$AAo?$AAl?$AAl?$AAe?$AAr@ 0000000000003068     SataController:ComponentName.obj
 0002:00000460       ??_C@_1CA@EHGIFMEH@?$AAS?$AAa?$AAt?$AAa?$AA?5?$AAC?$AAo?$AAn?$AAt?$AAr?$AAo?$AAl?$AAl?$AAe?$AAr@ 00000000000030a0     SataController:ComponentName.obj
 0002:00000480       ??_C@_0ED@MKGCMJG@?$CILength?5?9?51?$CJ?5?$DM?$DN?5?$CI0xFFFFFFFFFFFF@ 00000000000030c0     BaseMemoryLibRepStr:CopyMemWrapper.obj
 0002:000004d0       ??_C@_0FM@IDPIEKJH@D?3?2uefi_specs_personal_collecti@ 0000000000003110     BaseMemoryLibRepStr:CopyMemWrapper.obj
 0002:00000530       ??_C@_0DO@MAOBOFEG@?$CILength?5?9?51?$CJ?5?$DM?$DN?5?$CI0xFFFFFFFFFFFF@ 0000000000003170     BaseMemoryLibRepStr:CopyMemWrapper.obj
 0002:00000570       ??_C@_0BH@LKMBFCBF@Format?5?$CB?$DN?5?$CI?$CIvoid?5?$CK?$CJ?50?$CJ@ 00000000000031b0     BaseDebugLibSerialPort:DebugLib.obj
 0002:00000590       ??_C@_0FJ@BNNHJMAJ@D?3?2uefi_specs_personal_collecti@ 00000000000031d0     BaseDebugLibSerialPort:DebugLib.obj
 0002:000005f0       ??_C@_0BI@NOCKJDBJ@ASSERT?5?$FL?$CFa?$FN?5?$CFa?$CI?$CFd?$CJ?3?5?$CFa?6@ 0000000000003230     BaseDebugLibSerialPort:DebugLib.obj
 0002:00000608       ??_C@_0BH@IACGKAP@Buffer?5?$CB?$DN?5?$CI?$CIvoid?5?$CK?$CJ?50?$CJ@ 0000000000003248     BaseDebugLibSerialPort:DebugLib.obj
 0002:00000620       ??_C@_0BN@COECPDCC@gImageHandle?5?$CB?$DN?5?$CI?$CIvoid?5?$CK?$CJ?50?$CJ@ 0000000000003260     UefiBootServicesTableLib:UefiBootServicesTableLib.obj
 0002:00000640       ??_C@_0GL@PJCPJLGM@D?3?2uefi_specs_personal_collecti@ 0000000000003280     UefiBootServicesTableLib:UefiBootServicesTableLib.obj
 0002:000006b0       ??_C@_0BE@DGNHAHIL@gST?5?$CB?$DN?5?$CI?$CIvoid?5?$CK?$CJ?50?$CJ@ 00000000000032f0     UefiBootServicesTableLib:UefiBootServicesTableLib.obj
 0002:000006c8       ??_C@_0BE@BDFJLGLN@gBS?5?$CB?$DN?5?$CI?$CIvoid?5?$CK?$CJ?50?$CJ@ 0000000000003308     UefiBootServicesTableLib:UefiBootServicesTableLib.obj
 0002:000006e0       ??_C@_0GF@KMHDEKMA@D?3?2uefi_specs_personal_collecti@ 0000000000003320     UefiMemoryAllocationLib:MemoryAllocationLib.obj
 0002:00000748       ??_C@_0BE@OBDFIHND@gRT?5?$CB?$DN?5?$CI?$CIvoid?5?$CK?$CJ?50?$CJ@ 0000000000003388     UefiRuntimeServicesTableLib:UefiRuntimeServicesTableLib.obj
 0002:00000760       ??_C@_0HB@NCAPNEDO@D?3?2uefi_specs_personal_collecti@ 00000000000033a0     UefiRuntimeServicesTableLib:UefiRuntimeServicesTableLib.obj
 0002:000007e0       ??_C@_0GP@HEOOPGAM@D?3?2uefi_specs_personal_collecti@ 0000000000003420     UefiDevicePathLibDevicePathProtocol:UefiDevicePathLib.obj
 0002:00000850       ??_C@_0DC@CNNBPJA@mDevicePathLibDevicePathUtiliti@ 0000000000003490     UefiDevicePathLibDevicePathProtocol:UefiDevicePathLib.obj
 0002:00000890       ??_C@_0FB@KFBGMLJM@D?3?2uefi_specs_personal_collecti@ 00000000000034d0     UefiLib:UefiDriverModel.obj
 0002:000008f0       ??_C@_0FM@DHFKCLFA@D?3?2uefi_specs_personal_collecti@ 0000000000003530     BaseMemoryLibRepStr:ZeroMemWrapper.obj
 0002:00000950       ??_C@_0DG@EEENIGGL@Length?5?$DM?$DN?5?$CI0xFFFFFFFFFFFFFFFFUL@ 0000000000003590     BaseMemoryLibRepStr:ZeroMemWrapper.obj
 0002:00000988       ??_C@_0BH@MAAHKCPC@String?5?$CB?$DN?5?$CI?$CIvoid?5?$CK?$CJ?50?$CJ@ 00000000000035c8     BaseLib:String.obj
 0002:000009a0       ??_C@_0EI@LOLLHGDK@D?3?2uefi_specs_personal_collecti@ 00000000000035e0     BaseLib:String.obj
 0002:000009e8       ??_C@_0CC@GFNLNIOC@?$CI?$CIUINTN?$CJString?5?$CG?50x00000001?$CJ?5?$DN?$DN@ 0000000000003628     BaseLib:String.obj
 0002:00000a10       ??_C@_0DI@MDIKFADO@Length?5?$DM?5_gPcd_FixedAtBuild_Pcd@ 0000000000003650     BaseLib:String.obj
 0002:00000a48       ??_C@_0BL@IKFBNFIL@AsciiStrSize?5?$CIFirstString?$CJ@ 0000000000003688     BaseLib:String.obj
 0002:00000a68       ??_C@_0BM@EDNOKLLE@AsciiStrSize?5?$CISecondString?$CJ@ 00000000000036a8     BaseLib:String.obj
 0002:00000a88       ??_C@_0DJ@JJHGIFMP@Length?5?$DM?$DN?5_gPcd_FixedAtBuild_Pc@ 00000000000036c8     BaseLib:String.obj
 0002:00000ad0       ??_C@_0EL@GLNKFHII@D?3?2uefi_specs_personal_collecti@ 0000000000003710     BaseLib:Unaligned.obj
 0002:00000b20       ??_C@_0EM@OAPOMMAE@D?3?2uefi_specs_personal_collecti@ 0000000000003760     BaseLib:SafeString.obj
 0002:00000b70       ??_C@_0BJ@CNKJJNE@?$CIBuffer?5?$CB?$DN?5?$CI?$CIvoid?5?$CK?$CJ?50?$CJ?$CJ@ 00000000000037b0     BaseLib:SafeString.obj
 0002:00000b90       ??_C@_0N@KGHEHMDL@Divisor?5?$CB?$DN?50@ 00000000000037d0     BaseLib:DivU64x32.obj
 0002:00000ba0       ??_C@_0FH@MODEAFEI@D?3?2uefi_specs_personal_collecti@ 00000000000037e0     BasePrintLib:PrintLibInternal.obj
 0002:00000c00       ??_C@_0EB@HDGIDCIO@?$CIBufferSize?5?$DM?$DN?5?$CI_gPcd_FixedAtBu@ 0000000000003840     BasePrintLib:PrintLibInternal.obj
 0002:00000c48       ??_C@_0BJ@PPAKKDJG@?$CIFormat?5?$CB?$DN?5?$CI?$CIvoid?5?$CK?$CJ?50?$CJ?$CJ@ 0000000000003888     BasePrintLib:PrintLibInternal.obj
 0002:00000c70       ??_C@_0ED@LPDDCECB@?$CIBufferSize?5?$DM?$DN?5?$CI_gPcd_FixedAtBu@ 00000000000038b0     BasePrintLib:PrintLibInternal.obj
 0002:00000cc0       ??_C@_0IM@BFJJFLGB@?$CIStrnLenS?5?$CI?$CICHAR16?5?$CK?$CJFormat?0?5?$CI_@ 0000000000003900     BasePrintLib:PrintLibInternal.obj
 0002:00000d50       ??_C@_0ID@PLGJGION@?$CIAsciiStrnLenS?5?$CIFormat?0?5?$CI_gPcd_@ 0000000000003990     BasePrintLib:PrintLibInternal.obj
 0002:00000dd8       ??_C@_0O@MLOLIMFM@?$DMnull?5string?$DO@ 0000000000003a18     BasePrintLib:PrintLibInternal.obj
 0002:00000de8       ??_C@_0M@BJJDNPHK@?$DMnull?5guid?$DO@ 0000000000003a28     BasePrintLib:PrintLibInternal.obj
 0002:00000df8       ??_C@_0DB@PMLHLBMO@?$CF08x?9?$CF04x?9?$CF04x?9?$CF02x?$CF02x?9?$CF02x?$CF02@ 0000000000003a38     BasePrintLib:PrintLibInternal.obj
 0002:00000e30       ??_C@_0M@LHGBCIKM@?$DMnull?5time?$DO@ 0000000000003a70     BasePrintLib:PrintLibInternal.obj
 0002:00000e40       ??_C@_0BK@FCPKCIDD@?$CF02d?1?$CF02d?1?$CF04d?5?5?$CF02d?3?$CF02d@ 0000000000003a80     BasePrintLib:PrintLibInternal.obj
 0002:00000e5c       ??_C@_04JIMNDDED@?$CF08X@  0000000000003a9c     BasePrintLib:PrintLibInternal.obj
 0002:00000e64       ??_C@_02PCIJFNDE@?$AN?6@   0000000000003aa4     BasePrintLib:PrintLibInternal.obj
 0002:00000e68       ??_C@_01LIIJDEN@?$AN@      0000000000003aa8     BasePrintLib:PrintLibInternal.obj
 0002:00000e70       mWarningString             0000000000003ab0     BasePrintLib:PrintLibInternal.obj
 0002:00000f40       mErrorString               0000000000003b80     BasePrintLib:PrintLibInternal.obj
 0002:00001220       mHexStr                    0000000000003e60     BasePrintLib:PrintLibInternal.obj
 0002:00001230       ??_C@_0FE@LIGPAOFO@D?3?2uefi_specs_personal_collecti@ 0000000000003e70     BaseLib:DivU64x32Remainder.obj
 0002:000012d8       __volatile_metadata        0000000000003f18     <linker-defined>
 0003:00000000       gEfiComponentName2ProtocolGuid 00000000000040c0     SataController:AutoGen.obj
 0003:00000010       gEfiPciIoProtocolGuid      00000000000040d0     SataController:AutoGen.obj
 0003:00000020       gEfiDevicePathUtilitiesProtocolGuid 00000000000040e0     SataController:AutoGen.obj
 0003:00000030       gEfiDriverBindingProtocolGuid 00000000000040f0     SataController:AutoGen.obj
 0003:00000040       gEfiIdeControllerInitProtocolGuid 0000000000004100     SataController:AutoGen.obj
 0003:00000050       gEfiComponentNameProtocolGuid 0000000000004110     SataController:AutoGen.obj
 0003:00000060       gSataControllerDriverBinding 0000000000004120     SataController:SataController.obj
 0003:00000090       gSataControllerComponentName 0000000000004150     SataController:ComponentName.obj
 0003:000000a8       gSataControllerComponentName2 0000000000004168     SataController:ComponentName.obj
 0003:000000c0       mSataControllerControllerNameTable 0000000000004180     SataController:ComponentName.obj
 0003:000000e0       mSataControllerDriverNameTable 00000000000041a0     SataController:ComponentName.obj
 0003:00000108       gST                        00000000000041c8     UefiBootServicesTableLib:UefiBootServicesTableLib.obj
 0003:00000110       gBS                        00000000000041d0     UefiBootServicesTableLib:UefiBootServicesTableLib.obj
 0003:00000118       gImageHandle               00000000000041d8     UefiBootServicesTableLib:UefiBootServicesTableLib.obj
 0003:00000120       gRT                        00000000000041e0     UefiRuntimeServicesTableLib:UefiRuntimeServicesTableLib.obj
 0003:00000128       mDevicePathLibDevicePathUtilities 00000000000041e8     UefiDevicePathLibDevicePathProtocol:UefiDevicePathLib.obj
 0003:00000138       gParity                    00000000000041f8     PcAtSerialPortLib:SerialPortLib.obj
 0003:00000139       gBreakSet                  00000000000041f9     PcAtSerialPortLib:SerialPortLib.obj

 entry point at        0001:000001a8

 Static symbols

 0001:0000001a       InternalMemCopyMem.0       00000000000002da     BaseMemoryLibRepStr:CopyMem.obj
 0001:0000002a       @CopyBackward              00000000000002ea     BaseMemoryLibRepStr:CopyMem.obj
 0001:00000033       @CopyBytes                 00000000000002f3     BaseMemoryLibRepStr:CopyMem.obj
 0001:00000129       TdVmCall.no_return_data    00000000000003e9     BaseLib:TdVmcall.obj
 0001:0000019b       TdCall.exit                000000000000045b     BaseLib:TdCall.obj
 0001:00000c5c       FlatDeviceIndex            0000000000000f1c f   SataController:SataController.obj
 0003:00000100       mCcProbeGuestType          00000000000041c0     DxeCcProbeLib:DxeCcProbeLib.obj
 0003:00000101       mCcProbed                  00000000000041c1     DxeCcProbeLib:DxeCcProbeLib.obj
 0003:00000130       mDeadLoopComparator        00000000000041f0     BaseLib:CpuDeadLoop.obj
 0005:00000000       $unwind$StrnLenS           00000000000043a0     BaseLib:SafeString.obj
 0005:00000000       $unwind$_ModuleEntryPoint  00000000000043a0     UefiDriverEntryPoint:DriverEntryPoint.obj
 0005:00000008       $unwind$ProcessLibraryConstructorList 00000000000043a8     SataController:AutoGen.obj
 0005:00000008       $unwind$FlatDeviceIndex    00000000000043a8     SataController:SataController.obj
 0005:00000008       $unwind$AsciiStrnCmp       00000000000043a8     BaseLib:String.obj
 0005:00000008       $unwind$BasePrintLibValueToString 00000000000043a8     BasePrintLib:PrintLibInternal.obj
 0005:00000008       $unwind$IsLanguageSupported 00000000000043a8     UefiLib:UefiLib.obj
 0005:00000008       $unwind$SerialPortWrite    00000000000043a8     PcAtSerialPortLib:SerialPortLib.obj
 0005:00000018       $unwind$ProcessModuleEntryPointList 00000000000043b8     SataController:AutoGen.obj
 0005:00000024       $unwind$CalculateBestPioMode 00000000000043c4     SataController:SataController.obj
 0005:00000040       $unwind$SataControllerSupported 00000000000043e0     SataController:SataController.obj
 0005:00000048       $unwind$SataControllerStart 00000000000043e8     SataController:SataController.obj
 0005:00000060       $unwind$SataControllerStop 0000000000004400     SataController:SataController.obj
 0005:00000070       $unwind$IdeInitGetChannelInfo 0000000000004410     SataController:SataController.obj
 0005:00000070       $unwind$CopyMem            0000000000004410     BaseMemoryLibRepStr:CopyMemWrapper.obj
 0005:00000084       $unwind$IdeInitDisqualifyMode 0000000000004424     SataController:SataController.obj
 0005:00000084       $unwind$IdeInitSubmitData  0000000000004424     SataController:SataController.obj
 0005:0000009c       $unwind$IdeInitCalculateMode 000000000000443c     SataController:SataController.obj
 0005:000000b4       $unwind$SataControllerComponentNameGetDriverName 0000000000004454     SataController:ComponentName.obj
 0005:000000bc       $unwind$SataControllerComponentNameGetControllerName 000000000000445c     SataController:ComponentName.obj
 0005:000000d4       $unwind$DebugPrint         0000000000004474     BaseDebugLibSerialPort:DebugLib.obj
 0005:000000dc       $unwind$DebugPrintMarker   000000000000447c     BaseDebugLibSerialPort:DebugLib.obj
 0005:000000f0       $unwind$DebugAssert        0000000000004490     BaseDebugLibSerialPort:DebugLib.obj
 0005:000000f8       $unwind$FreePool           0000000000004498     UefiMemoryAllocationLib:MemoryAllocationLib.obj
 0005:000000f8       $unwind$InternalAllocatePool 0000000000004498     UefiMemoryAllocationLib:MemoryAllocationLib.obj
 0005:00000100       $unwind$LookupUnicodeString2 00000000000044a0     UefiLib:UefiLib.obj
 0005:00000118       $unwind$AsciiStrLen        00000000000044b8     BaseLib:String.obj
 0005:00000118       $unwind$ZeroMem            00000000000044b8     BaseMemoryLibRepStr:ZeroMemWrapper.obj
 0005:00000124       $unwind$AsciiSPrint        00000000000044c4     BasePrintLib:PrintLib.obj
 0005:0000012c       $unwind$BasePrintLibSPrintMarker 00000000000044cc     BasePrintLib:PrintLibInternal.obj
 0005:00000148       $unwind$TdIoRead8          00000000000044e8     BaseIoLibIntrinsicSev:IoLibInternalTdx.obj
 0005:00000148       $unwind$BasePrintLibSPrint 00000000000044e8     BasePrintLib:PrintLibInternal.obj
 0005:00000150       $unwind$TdIoWrite8         00000000000044f0     BaseIoLibIntrinsicSev:IoLibInternalTdx.obj
