 S3SaveStateDxe

 Timestamp is 6725e4a3 (Sat Nov  2 16:36:51 2024)

 Preferred load address is 0000000000000000

 Start         Length     Name                   Class
 0001:00000000 00000208H .text                   CODE
 0001:00000208 000052c7H .text$mn                CODE
 0002:00000000 00001ae8H .rdata                  DATA
 0002:00001ae8 00000038H .rdata$voltmd           DATA
 0002:00001b20 00000170H .rdata$zzzdbg           DATA
 0003:00000000 00000178H .data                   DATA
 0003:00000178 000000c8H .bss                    DATA
 0004:00000000 000003e4H .pdata                  DATA
 0005:00000000 000002e8H .xdata                  DATA

  Address         Publics by Value              Rva+Base               Lib:Object

 0000:00000000       __arm64x_redirection_metadata 0000000000000000     <absolute>
 0000:00000000       __guard_iat_table          0000000000000000     <absolute>
 0000:00000000       __guard_iat_count          0000000000000000     <absolute>
 0000:00000000       __guard_longjmp_count      0000000000000000     <absolute>
 0000:00000000       __dynamic_value_reloc_table 0000000000000000     <absolute>
 0000:00000000       __hybrid_auxiliary_iat     0000000000000000     <absolute>
 0000:00000000       __guard_longjmp_table      0000000000000000     <absolute>
 0000:00000000       __hybrid_auxiliary_iat_copy 0000000000000000     <absolute>
 0000:00000000       __x64_code_ranges_to_entry_points 0000000000000000     <absolute>
 0000:00000000       __guard_fids_count         0000000000000000     <absolute>
 0000:00000000       __x64_code_ranges_to_entry_points_count 0000000000000000     <absolute>
 0000:00000000       __AbsoluteZero             0000000000000000     <absolute>
 0000:00000000       __arm64x_extra_rfe_table   0000000000000000     <absolute>
 0000:00000000       __guard_check_icall_a64n_fptr 0000000000000000     <absolute>
 0000:00000000       __hybrid_code_map          0000000000000000     <absolute>
 0000:00000000       __guard_fids_table         0000000000000000     <absolute>
 0000:00000000       __arm64x_extra_rfe_table_size 0000000000000000     <absolute>
 0000:00000000       __hybrid_code_map_count    0000000000000000     <absolute>
 0000:00000000       __arm64x_redirection_metadata_count 0000000000000000     <absolute>
 0000:00000000       __enclave_config           0000000000000000     <absolute>
 0000:00000000       __guard_flags              0000000000000000     <absolute>
 0000:00000000       __guard_eh_cont_count      0000000000000000     <absolute>
 0000:00000000       __guard_eh_cont_table      0000000000000000     <absolute>
 0000:00000000       __arm64x_native_entrypoint 0000000000000000     <absolute>
 0001:00000000       AsmCpuid                   00000000000002c0     BaseLib:CpuId.obj
 0001:00000030       InternalMemZeroMem         00000000000002f0     BaseMemoryLibRepStr:ZeroMem.obj
 0001:00000050       InternalMemSetMem          0000000000000310     BaseMemoryLibRepStr:SetMem.obj
 0001:00000070       InternalMemCopyMem         0000000000000330     BaseMemoryLibRepStr:CopyMem.obj
 0001:000000b0       InternalMemSetMem64        0000000000000370     BaseMemoryLibRepStr:SetMem64.obj
 0001:000000d0       InternalMemSetMem32        0000000000000390     BaseMemoryLibRepStr:SetMem32.obj
 0001:000000f0       CpuPause                   00000000000003b0     BaseLib:CpuPause.obj
 0001:00000100       TdVmCall                   00000000000003c0     BaseLib:TdVmcall.obj
 0001:00000180       EnableInterrupts           0000000000000440     BaseLib:EnableInterrupts.obj
 0001:00000190       DisableInterrupts          0000000000000450     BaseLib:DisableInterrupts.obj
 0001:000001a0       AsmReadEflags              0000000000000460     BaseLib:ReadEflags.obj
 0001:000001b0       TdCall                     0000000000000470     BaseLib:TdCall.obj
 0001:00000208       _ModuleEntryPoint          00000000000004c8 f   UefiDriverEntryPoint:DriverEntryPoint.obj
 0001:00000230       ProcessLibraryConstructorList 00000000000004f0 f   S3SaveStateDxe:AutoGen.obj
 0001:000006b0       ProcessLibraryDestructorList 0000000000000970 f   S3SaveStateDxe:AutoGen.obj
 0001:000006f0       ProcessModuleEntryPointList 00000000000009b0 f   S3SaveStateDxe:AutoGen.obj
 0001:000007ac       BootScriptWriteIoWrite     0000000000000a6c f   S3SaveStateDxe:S3SaveState.obj
 0001:0000089c       BootScriptWriteIoReadWrite 0000000000000b5c f   S3SaveStateDxe:S3SaveState.obj
 0001:0000097c       BootScriptWriteMemWrite    0000000000000c3c f   S3SaveStateDxe:S3SaveState.obj
 0001:00000a70       BootScriptWriteMemReadWrite 0000000000000d30 f   S3SaveStateDxe:S3SaveState.obj
 0001:00000b50       BootScriptWritePciCfgWrite 0000000000000e10 f   S3SaveStateDxe:S3SaveState.obj
 0001:00000c64       BootScriptWritePciCfgReadWrite 0000000000000f24 f   S3SaveStateDxe:S3SaveState.obj
 0001:00000d64       BootScriptWritePciCfg2Write 0000000000001024 f   S3SaveStateDxe:S3SaveState.obj
 0001:00000e88       BootScriptWritePciCfg2ReadWrite 0000000000001148 f   S3SaveStateDxe:S3SaveState.obj
 0001:00000f9c       BootScriptWriteSmbusExecute 000000000000125c f   S3SaveStateDxe:S3SaveState.obj
 0001:00001174       BootScriptWriteStall       0000000000001434 f   S3SaveStateDxe:S3SaveState.obj
 0001:000011ec       BootScriptWriteDispatch    00000000000014ac f   S3SaveStateDxe:S3SaveState.obj
 0001:00001264       BootScriptWriteMemPoll     0000000000001524 f   S3SaveStateDxe:S3SaveState.obj
 0001:00001380       BootScriptWriteDispatch2   0000000000001640 f   S3SaveStateDxe:S3SaveState.obj
 0001:0000140c       BootScriptWriteIoPoll      00000000000016cc f   S3SaveStateDxe:S3SaveState.obj
 0001:00001504       BootScriptWritePciConfigPoll 00000000000017c4 f   S3SaveStateDxe:S3SaveState.obj
 0001:0000161c       BootScriptWritePciConfig2Poll 00000000000018dc f   S3SaveStateDxe:S3SaveState.obj
 0001:00001744       BootScriptWrite            0000000000001a04 f   S3SaveStateDxe:S3SaveState.obj
 0001:000018c4       BootScriptInsert           0000000000001b84 f   S3SaveStateDxe:S3SaveState.obj
 0001:00001a50       BootScriptLabel            0000000000001d10 f   S3SaveStateDxe:S3SaveState.obj
 0001:00001c10       BootScriptCompare          0000000000001ed0 f   S3SaveStateDxe:S3SaveState.obj
 0001:00001cb8       AllocateMemoryBelow4G      0000000000001f78 f   S3SaveStateDxe:AcpiS3ContextSave.obj
 0001:00001d50       S3AllocatePageTablesBuffer 0000000000002010 f   S3SaveStateDxe:AcpiS3ContextSave.obj
 0001:00001f04       AcpiS3ContextSaveOnEndOfDxe 00000000000021c4 f   S3SaveStateDxe:AcpiS3ContextSave.obj
 0001:00002268       GetPcdProtocol             0000000000002528 f   DxePcdLib:DxePcdLib.obj
 0001:000022f4       DivU64x32Remainder         00000000000025b4 f   BaseLib:DivU64x32Remainder.obj
 0001:00002354       LShiftU64                  0000000000002614 f   BaseLib:LShiftU64.obj
 0001:0000238c       ZeroMem                    000000000000264c f   BaseMemoryLibRepStr:ZeroMemWrapper.obj
 0001:000023fc       CopyMem                    00000000000026bc f   BaseMemoryLibRepStr:CopyMemWrapper.obj
 0001:00002498       DebugPrint                 0000000000002758 f   BaseDebugLibSerialPort:DebugLib.obj
 0001:000024bc       DebugPrintMarker           000000000000277c f   BaseDebugLibSerialPort:DebugLib.obj
 0001:00002548       DebugAssert                0000000000002808 f   BaseDebugLibSerialPort:DebugLib.obj
 0001:000025c4       EfiGetSystemConfigurationTable 0000000000002884 f   UefiLib:UefiLib.obj
 0001:00002688       EfiCreateProtocolNotifyEvent 0000000000002948 f   UefiLib:UefiLib.obj
 0001:00002774       ScanTableInSDT             0000000000002a34 f   UefiLib:Acpi.obj
 0001:00002820       LocateAcpiTableInAcpiConfigurationTable 0000000000002ae0 f   UefiLib:Acpi.obj
 0001:00002954       GetHobList                 0000000000002c14 f   DxeHobLib:HobLib.obj
 0001:000029d8       AllocateAcpiNvsPool        0000000000002c98 f   LockBoxDxeLib:LockBoxDxe.obj
 0001:00002b0c       SaveLockBox                0000000000002dcc f   LockBoxDxeLib:LockBoxLib.obj
 0001:00002bfc       SetLockBoxAttributes       0000000000002ebc f   LockBoxDxeLib:LockBoxLib.obj
 0001:00002c6c       UpdateLockBox              0000000000002f2c f   LockBoxDxeLib:LockBoxLib.obj
 0001:00002d24       RestoreLockBox             0000000000002fe4 f   LockBoxDxeLib:LockBoxLib.obj
 0001:00002e00       S3BootScriptInternalCloseTable 00000000000030c0 f   DxeS3BootScriptLib:BootScriptSave.obj
 0001:00002e5c       SaveBootScriptDataToLockBox 000000000000311c f   DxeS3BootScriptLib:BootScriptSave.obj
 0001:00002f78       S3BootScriptEventCallBack  0000000000003238 f   DxeS3BootScriptLib:BootScriptSave.obj
 0001:00002fc4       S3BootScriptSmmEventCallBack 0000000000003284 f   DxeS3BootScriptLib:BootScriptSave.obj
 0001:0000301c       SaveSmmPriviateDataToLockBoxAtRuntime 00000000000032dc f   DxeS3BootScriptLib:BootScriptSave.obj
 0001:000030c0       S3BootScriptSmmAtRuntimeCallBack 0000000000003380 f   DxeS3BootScriptLib:BootScriptSave.obj
 0001:00003188       S3BootScriptLibInitialize  0000000000003448 f   DxeS3BootScriptLib:BootScriptSave.obj
 0001:000034bc       S3BootScriptLibDeinitialize 000000000000377c f   DxeS3BootScriptLib:BootScriptSave.obj
 0001:00003740       S3BootScriptGetBootTimeEntryAddAddress 0000000000003a00 f   DxeS3BootScriptLib:BootScriptSave.obj
 0001:000038cc       RestoreBootTimeDataFromLockBox 0000000000003b8c f   DxeS3BootScriptLib:BootScriptSave.obj
 0001:00003984       S3BootScriptGetEntryAddAddress 0000000000003c44 f   DxeS3BootScriptLib:BootScriptSave.obj
 0001:00003a20       SyncBootScript             0000000000003ce0 f   DxeS3BootScriptLib:BootScriptSave.obj
 0001:00003ae0       S3BootScriptSaveInformation 0000000000003da0 f   DxeS3BootScriptLib:BootScriptSave.obj
 0001:00003b80       S3BootScriptMoveLastOpcode 0000000000003e40 f   DxeS3BootScriptLib:BootScriptSave.obj
 0001:00003d44       S3BootScriptLabelInternal  0000000000004004 f   DxeS3BootScriptLib:BootScriptSave.obj
 0001:00003e00       AsciiStrLen                00000000000040c0 f   BaseLib:String.obj
 0001:00003e6c       StrnLenS                   000000000000412c f   BaseLib:SafeString.obj
 0001:00003ec4       CopyGuid                   0000000000004184 f   BaseMemoryLibRepStr:MemLibGuid.obj
 0001:00003f74       CompareGuid                0000000000004234 f   BaseMemoryLibRepStr:MemLibGuid.obj
 0001:00004038       IoRead8                    00000000000042f8 f   BaseIoLibIntrinsicSev:IoLibMsc.obj
 0001:0000405c       IoRead32                   000000000000431c f   BaseIoLibIntrinsicSev:IoLibMsc.obj
 0001:000040a4       IoWrite32                  0000000000004364 f   BaseIoLibIntrinsicSev:IoLibMsc.obj
 0001:000040d0       IsTdxGuest                 0000000000004390 f   BaseIoLibIntrinsicSev:IoLibInternalTdx.obj
 0001:000040fc       TdIoRead8                  00000000000043bc f   BaseIoLibIntrinsicSev:IoLibInternalTdx.obj
 0001:00004154       TdIoRead32                 0000000000004414 f   BaseIoLibIntrinsicSev:IoLibInternalTdx.obj
 0001:000041c8       TdIoWrite8                 0000000000004488 f   BaseIoLibIntrinsicSev:IoLibInternalTdx.obj
 0001:00004218       TdIoWrite32                00000000000044d8 f   BaseIoLibIntrinsicSev:IoLibInternalTdx.obj
 0001:0000426c       SerialPortWrite            000000000000452c f   PcAtSerialPortLib:SerialPortLib.obj
 0001:000042dc       AsciiSPrint                000000000000459c f   BasePrintLib:PrintLib.obj
 0001:00004308       BasePrintLibFillBuffer     00000000000045c8 f   BasePrintLib:PrintLibInternal.obj
 0001:0000433c       BasePrintLibValueToString  00000000000045fc f   BasePrintLib:PrintLibInternal.obj
 0001:0000438c       BasePrintLibSPrintMarker   000000000000464c f   BasePrintLib:PrintLibInternal.obj
 0001:00005298       BasePrintLibSPrint         0000000000005558 f   BasePrintLib:PrintLibInternal.obj
 0001:000052bc       PciExpressRead32           000000000000557c f   BasePciExpressLib:PciExpressLib.obj
 0001:0000530c       PciCf8Read32               00000000000055cc f   BasePciCf8Lib:PciCf8Lib.obj
 0001:000053a8       SaveAndDisableInterrupts   0000000000005668 f   BaseLib:Cpu.obj
 0001:000053cc       GetTdInfo                  000000000000568c f   TdxLib:TdInfo.obj
 0001:00005430       TdSharedPageMask           00000000000056f0 f   TdxLib:TdInfo.obj
 0001:0000545c       MmioRead32                 000000000000571c f   BaseIoLibIntrinsicSev:IoLib.obj
 0002:00000000       ??_C@_0CB@DMEJJJHA@?6ASSERT_EFI_ERROR?5?$CIStatus?5?$DN?5?$CFr?$CJ@ 00000000000057a0     UefiDriverEntryPoint:DriverEntryPoint.obj
 0002:00000028       ??_C@_0CH@BBNBJKHK@?$CB?$CI?$CI?$CIINTN?$CJ?$CIRETURN_STATUS?$CJ?$CIStatus@ 00000000000057c8     UefiDriverEntryPoint:DriverEntryPoint.obj
 0002:00000050       ??_C@_0P@JPOKEEGC@S3SaveStateDxe@ 00000000000057f0     S3SaveStateDxe:AutoGen.obj
 0002:00000060       ??_C@_0CE@IBFOBMLB@?6ASSERT_RETURN_ERROR?5?$CIStatus?5?$DN?5@ 0000000000005800     S3SaveStateDxe:AutoGen.obj
 0002:00000090       ??_C@_0JB@LHILGKAC@d?3?2uefi_specs_personal_collecti@ 0000000000005830     S3SaveStateDxe:AutoGen.obj
 0002:00000130       ??_C@_0GB@FHNKCJPM@D?3?2uefi_specs_personal_collecti@ 00000000000058d0     S3SaveStateDxe:S3SaveState.obj
 0002:000001a0       ??_C@_0GH@INCOJHJM@D?3?2uefi_specs_personal_collecti@ 0000000000005940     S3SaveStateDxe:AcpiS3ContextSave.obj
 0002:00000208       ??_C@_0BK@EENFIALI@PhysicalAddressBits?5?$DM?$DN?552@ 00000000000059a8     S3SaveStateDxe:AcpiS3ContextSave.obj
 0002:00000228       ??_C@_0DD@LEBMEKAN@AcpiS3ContextSave?5TotalPageTabl@ 00000000000059c8     S3SaveStateDxe:AcpiS3ContextSave.obj
 0002:00000260       ??_C@_0BL@JGIAAEEF@S3NvsPageTableAddress?5?$CB?$DN?50@ 0000000000005a00     S3SaveStateDxe:AcpiS3ContextSave.obj
 0002:00000280       ??_C@_0BE@CIOMJIHB@AcpiS3ContextSave?$CB?6@ 0000000000005a20     S3SaveStateDxe:AcpiS3ContextSave.obj
 0002:00000298       ??_C@_0DB@CGGCAFLL@ACPI?5S3?5context?5can?8t?5be?5saved?5@ 0000000000005a38     S3SaveStateDxe:AcpiS3ContextSave.obj
 0002:000002d0       ??_C@_0BO@MGPPIMH@AcpiS3Context?5?$CB?$DN?5?$CI?$CIvoid?5?$CK?$CJ?50?$CJ@ 0000000000005a70     S3SaveStateDxe:AcpiS3ContextSave.obj
 0002:000002f0       ??_C@_0CC@GLLFJCLF@AcpiS3Context?9?$DOAcpiFacsTable?5?$CB?$DN@ 0000000000005a90     S3SaveStateDxe:AcpiS3ContextSave.obj
 0002:00000318       ??_C@_0CI@CFHIKDHL@AcpiS3Context?9?$DOBootScriptStackB@ 0000000000005ab8     S3SaveStateDxe:AcpiS3ContextSave.obj
 0002:00000340       ??_C@_0CH@HFLGJMI@AcpiS3Context?3?5AcpiFacsTable?5is@ 0000000000005ae0     S3SaveStateDxe:AcpiS3ContextSave.obj
 0002:00000368       ??_C@_0CF@NIKPAOAP@AcpiS3Context?3?5IdtrProfile?5is?50@ 0000000000005b08     S3SaveStateDxe:AcpiS3ContextSave.obj
 0002:00000390       ??_C@_0CP@HDDCOEKH@AcpiS3Context?3?5S3NvsPageTableAd@ 0000000000005b30     S3SaveStateDxe:AcpiS3ContextSave.obj
 0002:000003c0       ??_C@_0CO@GGMNBHEF@AcpiS3Context?3?5S3DebugBufferAdd@ 0000000000005b60     S3SaveStateDxe:AcpiS3ContextSave.obj
 0002:000003f0       ??_C@_0CN@JJOPPKAN@AcpiS3Context?3?5BootScriptStackB@ 0000000000005b90     S3SaveStateDxe:AcpiS3ContextSave.obj
 0002:00000420       ??_C@_0CN@NALKKKHE@AcpiS3Context?3?5BootScriptStackS@ 0000000000005bc0     S3SaveStateDxe:AcpiS3ContextSave.obj
 0002:00000450       ??_C@_0EN@ENFGNHA@D?3?2uefi_specs_personal_collecti@ 0000000000005bf0     DxePcdLib:DxePcdLib.obj
 0002:000004a0       ??_C@_0BF@OOKDELHM@mPcd?5?$CB?$DN?5?$CI?$CIvoid?5?$CK?$CJ?50?$CJ@ 0000000000005c40     DxePcdLib:DxePcdLib.obj
 0002:000004b8       ??_C@_0BH@IACGKAP@Buffer?5?$CB?$DN?5?$CI?$CIvoid?5?$CK?$CJ?50?$CJ@ 0000000000005c58     DxePcdLib:DxePcdLib.obj
 0002:000004d0       ??_C@_0N@KGHEHMDL@Divisor?5?$CB?$DN?50@ 0000000000005c70     BaseLib:DivU64x32Remainder.obj
 0002:000004e0       ??_C@_0FE@LIGPAOFO@D?3?2uefi_specs_personal_collecti@ 0000000000005c80     BaseLib:DivU64x32Remainder.obj
 0002:00000538       ??_C@_0L@MEMPDLHB@Count?5?$DM?564@ 0000000000005cd8     BaseLib:LShiftU64.obj
 0002:00000550       ??_C@_0EL@PKACDBFD@D?3?2uefi_specs_personal_collecti@ 0000000000005cf0     BaseLib:LShiftU64.obj
 0002:000005a0       ??_C@_0FM@DHFKCLFA@D?3?2uefi_specs_personal_collecti@ 0000000000005d40     BaseMemoryLibRepStr:ZeroMemWrapper.obj
 0002:00000600       ??_C@_0DG@EEENIGGL@Length?5?$DM?$DN?5?$CI0xFFFFFFFFFFFFFFFFUL@ 0000000000005da0     BaseMemoryLibRepStr:ZeroMemWrapper.obj
 0002:00000638       ??_C@_0DI@DAGDPLPG@?$CILength?5?9?51?$CJ?5?$DM?$DN?5?$CI0xFFFFFFFFFFFF@ 0000000000005dd8     BaseMemoryLibRepStr:SetMemWrapper.obj
 0002:00000670       ??_C@_0FL@MFFLICHL@D?3?2uefi_specs_personal_collecti@ 0000000000005e10     BaseMemoryLibRepStr:SetMemWrapper.obj
 0002:000006d0       ??_C@_0ED@MKGCMJG@?$CILength?5?9?51?$CJ?5?$DM?$DN?5?$CI0xFFFFFFFFFFFF@ 0000000000005e70     BaseMemoryLibRepStr:CopyMemWrapper.obj
 0002:00000720       ??_C@_0FM@IDPIEKJH@D?3?2uefi_specs_personal_collecti@ 0000000000005ec0     BaseMemoryLibRepStr:CopyMemWrapper.obj
 0002:00000780       ??_C@_0DO@MAOBOFEG@?$CILength?5?9?51?$CJ?5?$DM?$DN?5?$CI0xFFFFFFFFFFFF@ 0000000000005f20     BaseMemoryLibRepStr:CopyMemWrapper.obj
 0002:000007c0       ??_C@_0BH@LKMBFCBF@Format?5?$CB?$DN?5?$CI?$CIvoid?5?$CK?$CJ?50?$CJ@ 0000000000005f60     BaseDebugLibSerialPort:DebugLib.obj
 0002:000007e0       ??_C@_0FJ@BNNHJMAJ@D?3?2uefi_specs_personal_collecti@ 0000000000005f80     BaseDebugLibSerialPort:DebugLib.obj
 0002:00000840       ??_C@_0BI@NOCKJDBJ@ASSERT?5?$FL?$CFa?$FN?5?$CFa?$CI?$CFd?$CJ?3?5?$CFa?6@ 0000000000005fe0     BaseDebugLibSerialPort:DebugLib.obj
 0002:00000858       ??_C@_0BN@COECPDCC@gImageHandle?5?$CB?$DN?5?$CI?$CIvoid?5?$CK?$CJ?50?$CJ@ 0000000000005ff8     UefiBootServicesTableLib:UefiBootServicesTableLib.obj
 0002:00000880       ??_C@_0GL@PJCPJLGM@D?3?2uefi_specs_personal_collecti@ 0000000000006020     UefiBootServicesTableLib:UefiBootServicesTableLib.obj
 0002:000008f0       ??_C@_0BE@DGNHAHIL@gST?5?$CB?$DN?5?$CI?$CIvoid?5?$CK?$CJ?50?$CJ@ 0000000000006090     UefiBootServicesTableLib:UefiBootServicesTableLib.obj
 0002:00000908       ??_C@_0BE@BDFJLGLN@gBS?5?$CB?$DN?5?$CI?$CIvoid?5?$CK?$CJ?50?$CJ@ 00000000000060a8     UefiBootServicesTableLib:UefiBootServicesTableLib.obj
 0002:00000920       ??_C@_0BE@OBDFIHND@gRT?5?$CB?$DN?5?$CI?$CIvoid?5?$CK?$CJ?50?$CJ@ 00000000000060c0     UefiRuntimeServicesTableLib:UefiRuntimeServicesTableLib.obj
 0002:00000940       ??_C@_0HB@NCAPNEDO@D?3?2uefi_specs_personal_collecti@ 00000000000060e0     UefiRuntimeServicesTableLib:UefiRuntimeServicesTableLib.obj
 0002:000009c0       ??_C@_0GP@HEOOPGAM@D?3?2uefi_specs_personal_collecti@ 0000000000006160     UefiDevicePathLibDevicePathProtocol:UefiDevicePathLib.obj
 0002:00000a30       ??_C@_0DC@CNNBPJA@mDevicePathLibDevicePathUtiliti@ 00000000000061d0     UefiDevicePathLibDevicePathProtocol:UefiDevicePathLib.obj
 0002:00000a68       ??_C@_0BK@PPOBBAMB@TableGuid?5?$CB?$DN?5?$CI?$CIvoid?5?$CK?$CJ?50?$CJ@ 0000000000006208     UefiLib:UefiLib.obj
 0002:00000a90       ??_C@_0EJ@PPOMJLJB@D?3?2uefi_specs_personal_collecti@ 0000000000006230     UefiLib:UefiLib.obj
 0002:00000ae0       ??_C@_0BG@JDKEGFNB@Table?5?$CB?$DN?5?$CI?$CIvoid?5?$CK?$CJ?50?$CJ@ 0000000000006280     UefiLib:UefiLib.obj
 0002:00000af8       ??_C@_0BN@OMCJCPAI@Registration?5?$CB?$DN?5?$CI?$CIvoid?5?$CK?$CJ?50?$CJ@ 0000000000006298     UefiLib:UefiLib.obj
 0002:00000b18       ??_C@_0BO@DMGOBHGK@PreviousTable?5?$CB?$DN?5?$CI?$CIvoid?5?$CK?$CJ?50?$CJ@ 00000000000062b8     UefiLib:Acpi.obj
 0002:00000b40       ??_C@_0EG@IACNLOLA@D?3?2uefi_specs_personal_collecti@ 00000000000062e0     UefiLib:Acpi.obj
 0002:00000b90       ??_C@_0EK@CGIIDOCH@D?3?2uefi_specs_personal_collecti@ 0000000000006330     DxeHobLib:HobLib.obj
 0002:00000be0       ??_C@_0BJ@OBFMLLDO@mHobList?5?$CB?$DN?5?$CI?$CIvoid?5?$CK?$CJ?50?$CJ@ 0000000000006380     DxeHobLib:HobLib.obj
 0002:00000c00       ??_C@_0BJ@NOLLDKJB@HobStart?5?$CB?$DN?5?$CI?$CIvoid?5?$CK?$CJ?50?$CJ@ 00000000000063a0     DxeHobLib:HobLib.obj
 0002:00000c20       ??_C@_0BC@FEDIJHFF@?$CI?$CIBOOLEAN?$CJ?$CI0?$DN?$DN1?$CJ?$CJ@ 00000000000063c0     DxeHobLib:HobLib.obj
 0002:00000c38       ??_C@_0BP@LHBKJBMC@PlatformInfoHob?5is?5not?5found?4?6@ 00000000000063d8     DxeAcpiTimerLib:DxeAcpiTimerLib.obj
 0002:00000c60       ??_C@_0FH@PGONMIHN@D?3?2uefi_specs_personal_collecti@ 0000000000006400     DxeAcpiTimerLib:DxeAcpiTimerLib.obj
 0002:00000cb8       ??_C@_0BI@HAGPDMHJ@AcpiTimerLibConstructor@ 0000000000006458     DxeAcpiTimerLib:DxeAcpiTimerLib.obj
 0002:00000cd0       ??_C@_0CL@DGCOIACG@?$CFa?3?5Unknown?5Host?5Bridge?5Device?5@ 0000000000006470     DxeAcpiTimerLib:DxeAcpiTimerLib.obj
 0002:00000d00       ??_C@_0FD@MCIEJHJA@mLockBoxGlobal?9?$DOSignature?5?$DN?$DN?5?$CI?$CI@ 00000000000064a0     LockBoxDxeLib:LockBoxDxe.obj
 0002:00000d60       ??_C@_0FA@HMDGAECD@D?3?2uefi_specs_personal_collecti@ 0000000000006500     LockBoxDxeLib:LockBoxDxe.obj
 0002:00000db0       ??_C@_0M@EFAIPGPD@SaveLockBox@ 0000000000006550     LockBoxDxeLib:LockBoxLib.obj
 0002:00000dc0       ??_C@_0CD@BILDOJL@?$CFa?3?5Guid?$DN?$CFg?5Buffer?$DN?$CFp?5Length?$DN0x@ 0000000000006560     LockBoxDxeLib:LockBoxLib.obj
 0002:00000de8       ??_C@_0BF@LEKHCMKM@SetLockBoxAttributes@ 0000000000006588     LockBoxDxeLib:LockBoxLib.obj
 0002:00000e00       ??_C@_0BO@LNLAPELH@?$CFa?3?5Guid?$DN?$CFg?5Attributes?$DN0x?$CFLx?6@ 00000000000065a0     LockBoxDxeLib:LockBoxLib.obj
 0002:00000e20       ??_C@_0O@JCHOJPJJ@UpdateLockBox@ 00000000000065c0     LockBoxDxeLib:LockBoxLib.obj
 0002:00000e30       ??_C@_0CF@NONNFPJL@?$CFa?3?5Guid?$DN?$CFg?5Offset?$DN0x?$CFx?5Length?$DN@ 00000000000065d0     LockBoxDxeLib:LockBoxLib.obj
 0002:00000e58       ??_C@_0P@PHGFCONN@RestoreLockBox@ 00000000000065f8     LockBoxDxeLib:LockBoxLib.obj
 0002:00000e68       ??_C@_0BH@NJEMLHJE@?$CFa?3?5Guid?$DN?$CFg?5Buffer?$DN?$CFp?6@ 0000000000006608     LockBoxDxeLib:LockBoxLib.obj
 0002:00000e80       ??_C@_0GD@GFHAPEPH@D?3?2uefi_specs_personal_collecti@ 0000000000006620     DxeS3BootScriptLib:BootScriptSave.obj
 0002:00000ee8       ??_C@_0DB@EPFOJDPK@?$CFa?3?5Skip?5S3BootScript?5because?5A@ 0000000000006688     DxeS3BootScriptLib:BootScriptSave.obj
 0002:00000f20       ??_C@_0CI@CLAOGJJK@mEventDxeSmmReadyToLock?5?$CB?$DN?5?$CI?$CIvo@ 00000000000066c0     DxeS3BootScriptLib:BootScriptSave.obj
 0002:00000f48       ??_C@_0BM@NEMCHGKL@S3BootScriptLibDeinitialize@ 00000000000066e8     DxeS3BootScriptLib:BootScriptSave.obj
 0002:00000f68       ??_C@_0BD@GLKGDELO@?$CFa?$CI?$CJ?5in?5?$CFa?5module?6@ 0000000000006708     DxeS3BootScriptLib:BootScriptSave.obj
 0002:00000f80       ??_C@_0EC@IJKJBOMM@FATAL?5ERROR?3?5Set?5boot?5script?5ou@ 0000000000006720     DxeS3BootScriptLib:BootScriptSave.obj
 0002:00000fc8       ??_C@_0BH@MAAHKCPC@String?5?$CB?$DN?5?$CI?$CIvoid?5?$CK?$CJ?50?$CJ@ 0000000000006768     BaseLib:String.obj
 0002:00000fe0       ??_C@_0EI@LOLLHGDK@D?3?2uefi_specs_personal_collecti@ 0000000000006780     BaseLib:String.obj
 0002:00001028       ??_C@_0CC@GFNLNIOC@?$CI?$CIUINTN?$CJString?5?$CG?50x00000001?$CJ?5?$DN?$DN@ 00000000000067c8     BaseLib:String.obj
 0002:00001050       ??_C@_0DI@MDIKFADO@Length?5?$DM?5_gPcd_FixedAtBuild_Pcd@ 00000000000067f0     BaseLib:String.obj
 0002:00001088       ??_C@_0BL@IKFBNFIL@AsciiStrSize?5?$CIFirstString?$CJ@ 0000000000006828     BaseLib:String.obj
 0002:000010a8       ??_C@_0BM@EDNOKLLE@AsciiStrSize?5?$CISecondString?$CJ@ 0000000000006848     BaseLib:String.obj
 0002:000010d0       ??_C@_0EL@GLNKFHII@D?3?2uefi_specs_personal_collecti@ 0000000000006870     BaseLib:Unaligned.obj
 0002:00001120       ??_C@_0EM@OAPOMMAE@D?3?2uefi_specs_personal_collecti@ 00000000000068c0     BaseLib:SafeString.obj
 0002:00001170       ??_C@_0BJ@CNKJJNE@?$CIBuffer?5?$CB?$DN?5?$CI?$CIvoid?5?$CK?$CJ?50?$CJ?$CJ@ 0000000000006910     BaseLib:SafeString.obj
 0002:00001190       ??_C@_0FF@GCKLFLDF@D?3?2uefi_specs_personal_collecti@ 0000000000006930     BaseIoLibIntrinsicSev:IoLibMsc.obj
 0002:000011e8       ??_C@_0BA@HCECIDGN@?$CIPort?5?$CG?53?$CJ?5?$DN?$DN?50@ 0000000000006988     BaseIoLibIntrinsicSev:IoLibMsc.obj
 0002:00001200       ??_C@_0FN@DOAHIAPG@D?3?2uefi_specs_personal_collecti@ 00000000000069a0     BaseIoLibIntrinsicSev:IoLibInternalTdx.obj
 0002:00001260       ??_C@_0BD@OMMAJMCK@?$CIAddress?5?$CG?53?$CJ?5?$DN?$DN?50@ 0000000000006a00     BaseIoLibIntrinsicSev:IoLibInternalTdx.obj
 0002:00001280       ??_C@_0FH@MODEAFEI@D?3?2uefi_specs_personal_collecti@ 0000000000006a20     BasePrintLib:PrintLibInternal.obj
 0002:000012e0       ??_C@_0EB@HDGIDCIO@?$CIBufferSize?5?$DM?$DN?5?$CI_gPcd_FixedAtBu@ 0000000000006a80     BasePrintLib:PrintLibInternal.obj
 0002:00001328       ??_C@_0BJ@PPAKKDJG@?$CIFormat?5?$CB?$DN?5?$CI?$CIvoid?5?$CK?$CJ?50?$CJ?$CJ@ 0000000000006ac8     BasePrintLib:PrintLibInternal.obj
 0002:00001350       ??_C@_0ED@LPDDCECB@?$CIBufferSize?5?$DM?$DN?5?$CI_gPcd_FixedAtBu@ 0000000000006af0     BasePrintLib:PrintLibInternal.obj
 0002:000013a0       ??_C@_0IM@BFJJFLGB@?$CIStrnLenS?5?$CI?$CICHAR16?5?$CK?$CJFormat?0?5?$CI_@ 0000000000006b40     BasePrintLib:PrintLibInternal.obj
 0002:00001430       ??_C@_0ID@PLGJGION@?$CIAsciiStrnLenS?5?$CIFormat?0?5?$CI_gPcd_@ 0000000000006bd0     BasePrintLib:PrintLibInternal.obj
 0002:000014b8       ??_C@_0O@MLOLIMFM@?$DMnull?5string?$DO@ 0000000000006c58     BasePrintLib:PrintLibInternal.obj
 0002:000014c8       ??_C@_0M@BJJDNPHK@?$DMnull?5guid?$DO@ 0000000000006c68     BasePrintLib:PrintLibInternal.obj
 0002:000014d8       ??_C@_0DB@PMLHLBMO@?$CF08x?9?$CF04x?9?$CF04x?9?$CF02x?$CF02x?9?$CF02x?$CF02@ 0000000000006c78     BasePrintLib:PrintLibInternal.obj
 0002:00001510       ??_C@_0M@LHGBCIKM@?$DMnull?5time?$DO@ 0000000000006cb0     BasePrintLib:PrintLibInternal.obj
 0002:00001520       ??_C@_0BK@FCPKCIDD@?$CF02d?1?$CF02d?1?$CF04d?5?5?$CF02d?3?$CF02d@ 0000000000006cc0     BasePrintLib:PrintLibInternal.obj
 0002:0000153c       ??_C@_04JIMNDDED@?$CF08X@  0000000000006cdc     BasePrintLib:PrintLibInternal.obj
 0002:00001544       ??_C@_02PCIJFNDE@?$AN?6@   0000000000006ce4     BasePrintLib:PrintLibInternal.obj
 0002:00001548       ??_C@_01LIIJDEN@?$AN@      0000000000006ce8     BasePrintLib:PrintLibInternal.obj
 0002:00001550       mWarningString             0000000000006cf0     BasePrintLib:PrintLibInternal.obj
 0002:00001620       mErrorString               0000000000006dc0     BasePrintLib:PrintLibInternal.obj
 0002:00001900       mHexStr                    00000000000070a0     BasePrintLib:PrintLibInternal.obj
 0002:00001910       ??_C@_0BO@BAKALPJK@?$CI?$CIAddress?$CJ?5?$CG?5?$HO0xfffffff?$CJ?5?$DN?$DN?50@ 00000000000070b0     BasePciExpressLib:PciExpressLib.obj
 0002:00001930       ??_C@_0FJ@LPMKGGAK@D?3?2uefi_specs_personal_collecti@ 00000000000070d0     BasePciExpressLib:PciExpressLib.obj
 0002:00001990       ??_C@_0FB@PDIKDBMH@D?3?2uefi_specs_personal_collecti@ 0000000000007130     BasePciCf8Lib:PciCf8Lib.obj
 0002:000019e8       ??_C@_0CG@EDKLCMBO@?$CI?$CIAddress?$CJ?5?$CG?5?$CI?$HO0xffff0ff?5?$HM?5?$CI3?$CJ?$CJ@ 0000000000007188     BasePciCf8Lib:PciCf8Lib.obj
 0002:00001a10       ??_C@_0CB@GEABOFIF@Failed?5call?5TDCALL_TDINFO?4?5?$CFllx@ 00000000000071b0     TdxLib:TdInfo.obj
 0002:00001a40       ??_C@_0FC@MAJHMCGF@D?3?2uefi_specs_personal_collecti@ 00000000000071e0     BaseIoLibIntrinsicSev:IoLib.obj
 0002:00001ae8       __volatile_metadata        0000000000007288     <linker-defined>
 0003:00000000       gEfiAcpiVariableGuid       0000000000007440     S3SaveStateDxe:AutoGen.obj
 0003:00000010       gEdkiiSmmLegacyBootProtocolGuid 0000000000007450     S3SaveStateDxe:AutoGen.obj
 0003:00000020       gEfiLockBoxProtocolGuid    0000000000007460     S3SaveStateDxe:AutoGen.obj
 0003:00000030       gPcdProtocolGuid           0000000000007470     S3SaveStateDxe:AutoGen.obj
 0003:00000040       gEfiDxeSmmReadyToLockProtocolGuid 0000000000007480     S3SaveStateDxe:AutoGen.obj
 0003:00000050       gEdkiiSmmExitBootServicesProtocolGuid 0000000000007490     S3SaveStateDxe:AutoGen.obj
 0003:00000060       gEfiAcpi10TableGuid        00000000000074a0     S3SaveStateDxe:AutoGen.obj
 0003:00000070       gEfiAcpiS3ContextGuid      00000000000074b0     S3SaveStateDxe:AutoGen.obj
 0003:00000080       gUefiOvmfPkgPlatformInfoGuid 00000000000074c0     S3SaveStateDxe:AutoGen.obj
 0003:00000090       gEfiS3SaveStateProtocolGuid 00000000000074d0     S3SaveStateDxe:AutoGen.obj
 0003:000000a0       gEfiDevicePathUtilitiesProtocolGuid 00000000000074e0     S3SaveStateDxe:AutoGen.obj
 0003:000000b0       gEfiSmmReadyToLockProtocolGuid 00000000000074f0     S3SaveStateDxe:AutoGen.obj
 0003:000000c0       gEfiHobListGuid            0000000000007500     S3SaveStateDxe:AutoGen.obj
 0003:000000d0       gEfiAcpi20TableGuid        0000000000007510     S3SaveStateDxe:AutoGen.obj
 0003:000000e0       gEfiEndOfDxeEventGroupGuid 0000000000007520     S3SaveStateDxe:AutoGen.obj
 0003:000000f0       gEfiSmmBase2ProtocolGuid   0000000000007530     S3SaveStateDxe:AutoGen.obj
 0003:00000100       mS3SaveState               0000000000007540     S3SaveStateDxe:S3SaveState.obj
 0003:00000120       mAcpiS3IdtrProfileGuid     0000000000007560     S3SaveStateDxe:AcpiS3ContextSave.obj
 0003:00000130       mBootScriptSmmPrivateDataGuid 0000000000007570     DxeS3BootScriptLib:BootScriptSave.obj
 0003:00000140       mBootScriptDataBootTimeGuid 0000000000007580     DxeS3BootScriptLib:BootScriptSave.obj
 0003:00000150       mS3BootScriptAcpiS3Enable  0000000000007590     DxeS3BootScriptLib:BootScriptSave.obj
 0003:00000158       mBootScriptTableBaseGuid   0000000000007598     DxeS3BootScriptLib:BootScriptSave.obj
 0003:00000168       mBootScriptDataGuid        00000000000075a8     DxeS3BootScriptLib:BootScriptSave.obj
 0003:00000178       mHandle                    00000000000075b8     S3SaveStateDxe:S3SaveState.obj
 0003:00000180       mPcd                       00000000000075c0     DxePcdLib:DxePcdLib.obj
 0003:00000190       gST                        00000000000075d0     UefiBootServicesTableLib:UefiBootServicesTableLib.obj
 0003:00000198       gBS                        00000000000075d8     UefiBootServicesTableLib:UefiBootServicesTableLib.obj
 0003:000001a0       gImageHandle               00000000000075e0     UefiBootServicesTableLib:UefiBootServicesTableLib.obj
 0003:000001a8       gRT                        00000000000075e8     UefiRuntimeServicesTableLib:UefiRuntimeServicesTableLib.obj
 0003:000001b0       mDevicePathLibDevicePathUtilities 00000000000075f0     UefiDevicePathLibDevicePathProtocol:UefiDevicePathLib.obj
 0003:000001b8       mHobList                   00000000000075f8     DxeHobLib:HobLib.obj
 0003:000001c0       mLockBoxGlobal             0000000000007600     LockBoxDxeLib:LockBoxLib.obj
 0003:000001d8       mRegistrationSmmLegacyBoot 0000000000007618     DxeS3BootScriptLib:BootScriptSave.obj
 0003:000001e0       mS3BootScriptTableAllocated 0000000000007620     DxeS3BootScriptLib:BootScriptSave.obj
 0003:000001e8       mEventDxeSmmReadyToLock    0000000000007628     DxeS3BootScriptLib:BootScriptSave.obj
 0003:000001f0       mBootScriptSmst            0000000000007630     DxeS3BootScriptLib:BootScriptSave.obj
 0003:000001f8       mRegistrationSmmExitBootServices 0000000000007638     DxeS3BootScriptLib:BootScriptSave.obj
 0003:00000200       mRegistrationSmmReadyToLock 0000000000007640     DxeS3BootScriptLib:BootScriptSave.obj
 0003:00000208       mS3BootScriptTableSmmAllocated 0000000000007648     DxeS3BootScriptLib:BootScriptSave.obj
 0003:00000218       gParity                    0000000000007658     PcAtSerialPortLib:SerialPortLib.obj
 0003:00000219       gBreakSet                  0000000000007659     PcAtSerialPortLib:SerialPortLib.obj
 0003:0000021a       mTdDataReturned            000000000000765a     TdxLib:TdInfo.obj
 0003:00000220       mTdSharedPageMask          0000000000007660     TdxLib:TdInfo.obj
 0003:00000230       mS3BootScriptTablePtr      0000000000007670     <common>
 0003:00000238       mS3BootScriptTableSmmPtr   0000000000007678     <common>

 entry point at        0001:00000208

 Static symbols

 0001:0000000f       AsmCpuid.0                 00000000000002cf     BaseLib:CpuId.obj
 0001:00000014       AsmCpuid.1                 00000000000002d4     BaseLib:CpuId.obj
 0001:0000001b       AsmCpuid.2                 00000000000002db     BaseLib:CpuId.obj
 0001:00000024       AsmCpuid.3                 00000000000002e4     BaseLib:CpuId.obj
 0001:0000008a       InternalMemCopyMem.0       000000000000034a     BaseMemoryLibRepStr:CopyMem.obj
 0001:0000009a       @CopyBackward              000000000000035a     BaseMemoryLibRepStr:CopyMem.obj
 0001:000000a3       @CopyBytes                 0000000000000363     BaseMemoryLibRepStr:CopyMem.obj
 0001:00000159       TdVmCall.no_return_data    0000000000000419     BaseLib:TdVmcall.obj
 0001:000001fb       TdCall.exit                00000000000004bb     BaseLib:TdCall.obj
 0001:00002ac0       FindHeaderByGuid           0000000000002d80 f   LockBoxDxeLib:LockBoxLib.obj
 0003:00000188       mCcProbeGuestType          00000000000075c8     DxeCcProbeLib:DxeCcProbeLib.obj
 0003:00000189       mCcProbed                  00000000000075c9     DxeCcProbeLib:DxeCcProbeLib.obj
 0003:000001c8       StartOfEntries             0000000000007608     LockBoxDxeLib:LockBoxLib.obj
 0003:000001d0       EndOfEntries               0000000000007610     LockBoxDxeLib:LockBoxLib.obj
 0003:00000210       mDeadLoopComparator        0000000000007650     BaseLib:CpuDeadLoop.obj
 0003:00000228       mRunningOnQ35              0000000000007668     DxePciLibI440FxQ35:PciLib.obj
 0005:00000000       $unwind$RestoreBootTimeDataFromLockBox 0000000000007a80     DxeS3BootScriptLib:BootScriptSave.obj
 0005:00000000       $unwind$S3BootScriptInternalCloseTable 0000000000007a80     DxeS3BootScriptLib:BootScriptSave.obj
 0005:00000000       $unwind$S3BootScriptSmmAtRuntimeCallBack 0000000000007a80     DxeS3BootScriptLib:BootScriptSave.obj
 0005:00000000       $unwind$SaveSmmPriviateDataToLockBoxAtRuntime 0000000000007a80     DxeS3BootScriptLib:BootScriptSave.obj
 0005:00000000       $unwind$SyncBootScript     0000000000007a80     DxeS3BootScriptLib:BootScriptSave.obj
 0005:00000000       $unwind$IoRead32           0000000000007a80     BaseIoLibIntrinsicSev:IoLibMsc.obj
 0005:00000000       $unwind$IoWrite32          0000000000007a80     BaseIoLibIntrinsicSev:IoLibMsc.obj
 0005:00000000       $unwind$SaveAndDisableInterrupts 0000000000007a80     BaseLib:Cpu.obj
 0005:00000000       $unwind$LShiftU64          0000000000007a80     BaseLib:LShiftU64.obj
 0005:00000000       $unwind$StrnLenS           0000000000007a80     BaseLib:SafeString.obj
 0005:00000000       $unwind$PciExpressRead32   0000000000007a80     BasePciExpressLib:PciExpressLib.obj
 0005:00000000       $unwind$_ModuleEntryPoint  0000000000007a80     UefiDriverEntryPoint:DriverEntryPoint.obj
 0005:00000008       $unwind$ProcessLibraryConstructorList 0000000000007a88     S3SaveStateDxe:AutoGen.obj
 0005:0000001c       $unwind$S3BootScriptEventCallBack 0000000000007a9c     DxeS3BootScriptLib:BootScriptSave.obj
 0005:0000001c       $unwind$S3BootScriptSmmEventCallBack 0000000000007a9c     DxeS3BootScriptLib:BootScriptSave.obj
 0005:0000001c       $unwind$ProcessLibraryDestructorList 0000000000007a9c     S3SaveStateDxe:AutoGen.obj
 0005:0000001c       $unwind$IoRead8            0000000000007a9c     BaseIoLibIntrinsicSev:IoLibMsc.obj
 0005:0000001c       $unwind$GetHobList         0000000000007a9c     DxeHobLib:HobLib.obj
 0005:0000001c       $unwind$GetPcdProtocol     0000000000007a9c     DxePcdLib:DxePcdLib.obj
 0005:0000001c       $unwind$TdSharedPageMask   0000000000007a9c     TdxLib:TdInfo.obj
 0005:00000024       $unwind$ProcessModuleEntryPointList 0000000000007aa4     S3SaveStateDxe:AutoGen.obj
 0005:0000002c       $unwind$BootScriptWriteIoWrite 0000000000007aac     S3SaveStateDxe:S3SaveState.obj
 0005:0000002c       $unwind$BootScriptWriteMemWrite 0000000000007aac     S3SaveStateDxe:S3SaveState.obj
 0005:0000002c       $unwind$BootScriptWritePciCfgWrite 0000000000007aac     S3SaveStateDxe:S3SaveState.obj
 0005:0000002c       $unwind$BootScriptWriteSmbusExecute 0000000000007aac     S3SaveStateDxe:S3SaveState.obj
 0005:00000048       $unwind$BootScriptWriteIoReadWrite 0000000000007ac8     S3SaveStateDxe:S3SaveState.obj
 0005:00000048       $unwind$BootScriptWriteMemReadWrite 0000000000007ac8     S3SaveStateDxe:S3SaveState.obj
 0005:00000048       $unwind$BootScriptWritePciCfgReadWrite 0000000000007ac8     S3SaveStateDxe:S3SaveState.obj
 0005:00000064       $unwind$BootScriptWriteIoPoll 0000000000007ae4     S3SaveStateDxe:S3SaveState.obj
 0005:00000064       $unwind$BootScriptWriteMemPoll 0000000000007ae4     S3SaveStateDxe:S3SaveState.obj
 0005:00000064       $unwind$BootScriptWritePciCfg2ReadWrite 0000000000007ae4     S3SaveStateDxe:S3SaveState.obj
 0005:00000064       $unwind$BootScriptWritePciCfg2Write 0000000000007ae4     S3SaveStateDxe:S3SaveState.obj
 0005:00000064       $unwind$BootScriptWritePciConfigPoll 0000000000007ae4     S3SaveStateDxe:S3SaveState.obj
 0005:00000080       $unwind$BootScriptWriteDispatch 0000000000007b00     S3SaveStateDxe:S3SaveState.obj
 0005:00000080       $unwind$BootScriptWriteStall 0000000000007b00     S3SaveStateDxe:S3SaveState.obj
 0005:00000080       $unwind$RestoreLockBox     0000000000007b00     LockBoxDxeLib:LockBoxLib.obj
 0005:00000090       $unwind$BootScriptWriteDispatch2 0000000000007b10     S3SaveStateDxe:S3SaveState.obj
 0005:000000a4       $unwind$BootScriptWritePciConfig2Poll 0000000000007b24     S3SaveStateDxe:S3SaveState.obj
 0005:000000bc       $unwind$BootScriptWrite    0000000000007b3c     S3SaveStateDxe:S3SaveState.obj
 0005:000000c4       $unwind$BootScriptInsert   0000000000007b44     S3SaveStateDxe:S3SaveState.obj
 0005:000000d0       $unwind$BootScriptLabel    0000000000007b50     S3SaveStateDxe:S3SaveState.obj
 0005:000000ec       $unwind$BootScriptCompare  0000000000007b6c     S3SaveStateDxe:S3SaveState.obj
 0005:00000100       $unwind$S3BootScriptGetEntryAddAddress 0000000000007b80     DxeS3BootScriptLib:BootScriptSave.obj
 0005:00000100       $unwind$AllocateMemoryBelow4G 0000000000007b80     S3SaveStateDxe:AcpiS3ContextSave.obj
 0005:00000100       $unwind$AsciiStrLen        0000000000007b80     BaseLib:String.obj
 0005:00000100       $unwind$ZeroMem            0000000000007b80     BaseMemoryLibRepStr:ZeroMemWrapper.obj
 0005:00000100       $unwind$FindHeaderByGuid   0000000000007b80     LockBoxDxeLib:LockBoxLib.obj
 0005:0000010c       $unwind$S3AllocatePageTablesBuffer 0000000000007b8c     S3SaveStateDxe:AcpiS3ContextSave.obj
 0005:0000011c       $unwind$AcpiS3ContextSaveOnEndOfDxe 0000000000007b9c     S3SaveStateDxe:AcpiS3ContextSave.obj
 0005:00000134       $unwind$DivU64x32Remainder 0000000000007bb4     BaseLib:DivU64x32Remainder.obj
 0005:00000134       $unwind$CopyGuid           0000000000007bb4     BaseMemoryLibRepStr:MemLibGuid.obj
 0005:00000134       $unwind$PciCf8Read32       0000000000007bb4     BasePciCf8Lib:PciCf8Lib.obj
 0005:00000134       $unwind$SerialPortWrite    0000000000007bb4     PcAtSerialPortLib:SerialPortLib.obj
 0005:00000144       $unwind$CopyMem            0000000000007bc4     BaseMemoryLibRepStr:CopyMemWrapper.obj
 0005:00000158       $unwind$DebugPrint         0000000000007bd8     BaseDebugLibSerialPort:DebugLib.obj
 0005:00000160       $unwind$DebugPrintMarker   0000000000007be0     BaseDebugLibSerialPort:DebugLib.obj
 0005:00000174       $unwind$DebugAssert        0000000000007bf4     BaseDebugLibSerialPort:DebugLib.obj
 0005:0000017c       $unwind$EfiGetSystemConfigurationTable 0000000000007bfc     UefiLib:UefiLib.obj
 0005:00000194       $unwind$EfiCreateProtocolNotifyEvent 0000000000007c14     UefiLib:UefiLib.obj
 0005:0000019c       $unwind$ScanTableInSDT     0000000000007c1c     UefiLib:Acpi.obj
 0005:000001b0       $unwind$LocateAcpiTableInAcpiConfigurationTable 0000000000007c30     UefiLib:Acpi.obj
 0005:000001c4       $unwind$AllocateAcpiNvsPool 0000000000007c44     LockBoxDxeLib:LockBoxDxe.obj
 0005:000001d4       $unwind$SaveLockBox        0000000000007c54     LockBoxDxeLib:LockBoxLib.obj
 0005:000001ec       $unwind$MmioRead32         0000000000007c6c     BaseIoLibIntrinsicSev:IoLib.obj
 0005:000001ec       $unwind$TdIoRead32         0000000000007c6c     BaseIoLibIntrinsicSev:IoLibInternalTdx.obj
 0005:000001ec       $unwind$TdIoWrite32        0000000000007c6c     BaseIoLibIntrinsicSev:IoLibInternalTdx.obj
 0005:000001ec       $unwind$TdIoWrite8         0000000000007c6c     BaseIoLibIntrinsicSev:IoLibInternalTdx.obj
 0005:000001ec       $unwind$SetLockBoxAttributes 0000000000007c6c     LockBoxDxeLib:LockBoxLib.obj
 0005:000001f4       $unwind$UpdateLockBox      0000000000007c74     LockBoxDxeLib:LockBoxLib.obj
 0005:00000204       $unwind$SaveBootScriptDataToLockBox 0000000000007c84     DxeS3BootScriptLib:BootScriptSave.obj
 0005:0000020c       $unwind$S3BootScriptLibInitialize 0000000000007c8c     DxeS3BootScriptLib:BootScriptSave.obj
 0005:00000220       $unwind$S3BootScriptLibDeinitialize 0000000000007ca0     DxeS3BootScriptLib:BootScriptSave.obj
 0005:00000234       $unwind$S3BootScriptGetBootTimeEntryAddAddress 0000000000007cb4     DxeS3BootScriptLib:BootScriptSave.obj
 0005:00000248       $unwind$S3BootScriptSaveInformation 0000000000007cc8     DxeS3BootScriptLib:BootScriptSave.obj
 0005:0000025c       $unwind$S3BootScriptMoveLastOpcode 0000000000007cdc     DxeS3BootScriptLib:BootScriptSave.obj
 0005:00000278       $unwind$S3BootScriptLabelInternal 0000000000007cf8     DxeS3BootScriptLib:BootScriptSave.obj
 0005:00000290       $unwind$CompareGuid        0000000000007d10     BaseMemoryLibRepStr:MemLibGuid.obj
 0005:000002a8       $unwind$TdIoRead8          0000000000007d28     BaseIoLibIntrinsicSev:IoLibInternalTdx.obj
 0005:000002a8       $unwind$BasePrintLibSPrint 0000000000007d28     BasePrintLib:PrintLibInternal.obj
 0005:000002b0       $unwind$AsciiSPrint        0000000000007d30     BasePrintLib:PrintLib.obj
 0005:000002b8       $unwind$BasePrintLibValueToString 0000000000007d38     BasePrintLib:PrintLibInternal.obj
 0005:000002c4       $unwind$BasePrintLibSPrintMarker 0000000000007d44     BasePrintLib:PrintLibInternal.obj
 0005:000002e0       $unwind$GetTdInfo          0000000000007d60     TdxLib:TdInfo.obj
