 QemuRamfbDxe

 Timestamp is 6725e49d (Sat Nov  2 16:36:45 2024)

 Preferred load address is 0000000000000000

 Start         Length     Name                   Class
 0001:00000000 00000344H .text                   CODE
 0001:00000344 00003f35H .text$mn                CODE
 0002:00000000 00001dc8H .rdata                  DATA
 0002:00001dc8 00000048H .rdata$voltmd           DATA
 0002:00001e10 00000154H .rdata$zzzdbg           DATA
 0003:00000000 00000138H .data                   DATA
 0003:00000138 000000a0H .bss                    DATA
 0004:00000000 000002c4H .pdata                  DATA
 0005:00000000 000001e8H .xdata                  DATA

  Address         Publics by Value              Rva+Base               Lib:Object

 0000:00000000       __x64_code_ranges_to_entry_points_count 0000000000000000     <absolute>
 0000:00000000       __guard_iat_table          0000000000000000     <absolute>
 0000:00000000       __guard_longjmp_table      0000000000000000     <absolute>
 0000:00000000       __x64_code_ranges_to_entry_points 0000000000000000     <absolute>
 0000:00000000       __guard_iat_count          0000000000000000     <absolute>
 0000:00000000       __guard_longjmp_count      0000000000000000     <absolute>
 0000:00000000       __dynamic_value_reloc_table 0000000000000000     <absolute>
 0000:00000000       __guard_fids_count         0000000000000000     <absolute>
 0000:00000000       __hybrid_auxiliary_iat     0000000000000000     <absolute>
 0000:00000000       __hybrid_auxiliary_iat_copy 0000000000000000     <absolute>
 0000:00000000       __arm64x_extra_rfe_table   0000000000000000     <absolute>
 0000:00000000       __hybrid_code_map_count    0000000000000000     <absolute>
 0000:00000000       __arm64x_redirection_metadata 0000000000000000     <absolute>
 0000:00000000       __hybrid_code_map          0000000000000000     <absolute>
 0000:00000000       __AbsoluteZero             0000000000000000     <absolute>
 0000:00000000       __arm64x_extra_rfe_table_size 0000000000000000     <absolute>
 0000:00000000       __guard_check_icall_a64n_fptr 0000000000000000     <absolute>
 0000:00000000       __guard_fids_table         0000000000000000     <absolute>
 0000:00000000       __guard_flags              0000000000000000     <absolute>
 0000:00000000       __guard_eh_cont_count      0000000000000000     <absolute>
 0000:00000000       __arm64x_redirection_metadata_count 0000000000000000     <absolute>
 0000:00000000       __arm64x_native_entrypoint 0000000000000000     <absolute>
 0000:00000000       __enclave_config           0000000000000000     <absolute>
 0000:00000000       __guard_eh_cont_table      0000000000000000     <absolute>
 0001:00000000       InternalMemZeroMem         00000000000002c0     BaseMemoryLibRepStr:ZeroMem.obj
 0001:00000020       InternalMemCopyMem         00000000000002e0     BaseMemoryLibRepStr:CopyMem.obj
 0001:00000060       SevNoRepIo                 0000000000000320     BaseIoLibIntrinsicSev:IoFifoSev.obj
 0001:000000a0       SevIoReadFifo8             0000000000000360     BaseIoLibIntrinsicSev:IoFifoSev.obj
 0001:000000c2       SevIoReadFifo16            0000000000000382     BaseIoLibIntrinsicSev:IoFifoSev.obj
 0001:000000e8       SevIoReadFifo32            00000000000003a8     BaseIoLibIntrinsicSev:IoFifoSev.obj
 0001:0000010b       SevIoWriteFifo8            00000000000003cb     BaseIoLibIntrinsicSev:IoFifoSev.obj
 0001:0000012d       SevIoWriteFifo16           00000000000003ed     BaseIoLibIntrinsicSev:IoFifoSev.obj
 0001:00000153       SevIoWriteFifo32           0000000000000413     BaseIoLibIntrinsicSev:IoFifoSev.obj
 0001:00000180       InternalMemSetMem          0000000000000440     BaseMemoryLibRepStr:SetMem.obj
 0001:000001a0       InternalMemSetMem64        0000000000000460     BaseMemoryLibRepStr:SetMem64.obj
 0001:000001c0       InternalMemSetMem32        0000000000000480     BaseMemoryLibRepStr:SetMem32.obj
 0001:000001e0       TdVmCall                   00000000000004a0     BaseLib:TdVmcall.obj
 0001:00000260       CpuPause                   0000000000000520     BaseLib:CpuPause.obj
 0001:00000270       AsmReadCr0                 0000000000000530     BaseLib:ReadCr0.obj
 0001:00000280       AsmReadCr3                 0000000000000540     BaseLib:ReadCr3.obj
 0001:00000290       AsmWriteCr0                0000000000000550     BaseLib:WriteCr0.obj
 0001:000002a0       AsmReadCr4                 0000000000000560     BaseLib:ReadCr4.obj
 0001:000002b0       TdCall                     0000000000000570     BaseLib:TdCall.obj
 0001:00000310       AsmWriteCr3                00000000000005d0     BaseLib:WriteCr3.obj
 0001:00000320       EnableInterrupts           00000000000005e0     BaseLib:EnableInterrupts.obj
 0001:00000330       DisableInterrupts          00000000000005f0     BaseLib:DisableInterrupts.obj
 0001:00000340       AsmReadEflags              0000000000000600     BaseLib:ReadEflags.obj
 0001:00000344       _ModuleEntryPoint          0000000000000604 f   UefiDriverEntryPoint:DriverEntryPoint.obj
 0001:00000358       ProcessLibraryConstructorList 0000000000000618 f   QemuRamfbDxe:AutoGen.obj
 0001:00000bc8       InitializeQemuRamfb        0000000000000e88 f   QemuRamfbDxe:QemuRamfb.obj
 0001:00000f90       InternalAllocatePool       0000000000001250 f   UefiMemoryAllocationLib:MemoryAllocationLib.obj
 0001:00000fc0       InternalAllocateCopyPool   0000000000001280 f   UefiMemoryAllocationLib:MemoryAllocationLib.obj
 0001:00001034       FreePool                   00000000000012f4 f   UefiMemoryAllocationLib:MemoryAllocationLib.obj
 0001:00001078       CopyGuid                   0000000000001338 f   BaseMemoryLibRepStr:MemLibGuid.obj
 0001:000010f0       CompareGuid                00000000000013b0 f   BaseMemoryLibRepStr:MemLibGuid.obj
 0001:000011b4       ZeroMem                    0000000000001474 f   BaseMemoryLibRepStr:ZeroMemWrapper.obj
 0001:00001224       CopyMem                    00000000000014e4 f   BaseMemoryLibRepStr:CopyMemWrapper.obj
 0001:000012c0       DebugPrint                 0000000000001580 f   BaseDebugLibSerialPort:DebugLib.obj
 0001:000012e4       DebugPrintMarker           00000000000015a4 f   BaseDebugLibSerialPort:DebugLib.obj
 0001:00001370       DebugAssert                0000000000001630 f   BaseDebugLibSerialPort:DebugLib.obj
 0001:000013c8       SetDevicePathNodeLength    0000000000001688 f   UefiDevicePathLibDevicePathProtocol:UefiDevicePathLib.obj
 0001:00001448       GetHobList                 0000000000001708 f   DxeHobLib:HobLib.obj
 0001:00001528       FrameBufferBltLibConfigurePixelFormat 00000000000017e8 f   FrameBufferBltLib:FrameBufferBltLib.obj
 0001:00001698       FrameBufferBltConfigure    0000000000001958 f   FrameBufferBltLib:FrameBufferBltLib.obj
 0001:000017f8       FrameBufferBltLibVideoFill 0000000000001ab8 f   FrameBufferBltLib:FrameBufferBltLib.obj
 0001:00001b20       FrameBufferBltLibVideoToBltBuffer 0000000000001de0 f   FrameBufferBltLib:FrameBufferBltLib.obj
 0001:00001cb0       FrameBufferBltLibBufferToVideo 0000000000001f70 f   FrameBufferBltLib:FrameBufferBltLib.obj
 0001:00001e54       FrameBufferBltLibVideoToVideo 0000000000002114 f   FrameBufferBltLib:FrameBufferBltLib.obj
 0001:00001f4c       FrameBufferBlt             000000000000220c f   FrameBufferBltLib:FrameBufferBltLib.obj
 0001:0000245c       InternalQemuFwCfgDmaBytes  000000000000271c f   QemuFwCfgDxeLib:QemuFwCfgDxe.obj
 0001:000026a4       QemuFwCfgReadBytes         0000000000002964 f   QemuFwCfgDxeLib:QemuFwCfgLib.obj
 0001:000026e8       QemuFwCfgFindFile          00000000000029a8 f   QemuFwCfgDxeLib:QemuFwCfgLib.obj
 0001:000028c4       GetPcdProtocol             0000000000002b84 f   DxePcdLib:DxePcdLib.obj
 0001:000029a8       IoRead8                    0000000000002c68 f   BaseIoLibIntrinsicSev:IoLibMsc.obj
 0001:000029d0       IoWrite16                  0000000000002c90 f   BaseIoLibIntrinsicSev:IoLibMsc.obj
 0001:00002a00       IoRead32                   0000000000002cc0 f   BaseIoLibIntrinsicSev:IoLibMsc.obj
 0001:00002a48       IoWrite32                  0000000000002d08 f   BaseIoLibIntrinsicSev:IoLibMsc.obj
 0001:00002aa0       IoReadFifo8                0000000000002d60 f   BaseIoLibIntrinsicSev:IoLibFifoCc.obj
 0001:00002af8       IsTdxGuest                 0000000000002db8 f   BaseIoLibIntrinsicSev:IoLibInternalTdx.obj
 0001:00002b24       TdIoRead8                  0000000000002de4 f   BaseIoLibIntrinsicSev:IoLibInternalTdx.obj
 0001:00002b74       TdIoRead32                 0000000000002e34 f   BaseIoLibIntrinsicSev:IoLibInternalTdx.obj
 0001:00002be8       TdIoWrite8                 0000000000002ea8 f   BaseIoLibIntrinsicSev:IoLibInternalTdx.obj
 0001:00002c38       TdIoWrite16                0000000000002ef8 f   BaseIoLibIntrinsicSev:IoLibInternalTdx.obj
 0001:00002c90       TdIoWrite32                0000000000002f50 f   BaseIoLibIntrinsicSev:IoLibInternalTdx.obj
 0001:00002d0c       SetMem                     0000000000002fcc f   BaseMemoryLibRepStr:SetMemWrapper.obj
 0001:00002d70       SetMem64                   0000000000003030 f   BaseMemoryLibRepStr:SetMem64Wrapper.obj
 0001:00002e34       SetMem32                   00000000000030f4 f   BaseMemoryLibRepStr:SetMem32Wrapper.obj
 0001:00002ef8       AsciiStrLen                00000000000031b8 f   BaseLib:String.obj
 0001:00002f64       CpuDeadLoop                0000000000003224 f   BaseLib:CpuDeadLoop.obj
 0001:00002f94       StrnLenS                   0000000000003254 f   BaseLib:SafeString.obj
 0001:00002fec       SerialPortWrite            00000000000032ac f   PcAtSerialPortLib:SerialPortLib.obj
 0001:0000305c       AsciiSPrint                000000000000331c f   BasePrintLib:PrintLib.obj
 0001:00003088       BasePrintLibFillBuffer     0000000000003348 f   BasePrintLib:PrintLibInternal.obj
 0001:000030bc       BasePrintLibValueToString  000000000000337c f   BasePrintLib:PrintLibInternal.obj
 0001:00003128       BasePrintLibSPrintMarker   00000000000033e8 f   BasePrintLib:PrintLibInternal.obj
 0001:00004034       BasePrintLibSPrint         00000000000042f4 f   BasePrintLib:PrintLibInternal.obj
 0001:00004058       PciExpressRead32           0000000000004318 f   BasePciExpressLib:PciExpressLib.obj
 0001:000040a8       PciCf8Read32               0000000000004368 f   BasePciCf8Lib:PciCf8Lib.obj
 0001:00004154       GetTdInfo                  0000000000004414 f   TdxLib:TdInfo.obj
 0001:000041b8       TdSharedPageMask           0000000000004478 f   TdxLib:TdInfo.obj
 0001:000041e4       MmioRead32                 00000000000044a4 f   BaseIoLibIntrinsicSev:IoLib.obj
 0001:00004258       SaveAndDisableInterrupts   0000000000004518 f   BaseLib:Cpu.obj
 0002:00000000       ??_C@_0CB@DMEJJJHA@?6ASSERT_EFI_ERROR?5?$CIStatus?5?$DN?5?$CFr?$CJ@ 0000000000004540     UefiDriverEntryPoint:DriverEntryPoint.obj
 0002:00000028       ??_C@_0CH@BBNBJKHK@?$CB?$CI?$CI?$CIINTN?$CJ?$CIRETURN_STATUS?$CJ?$CIStatus@ 0000000000004568     UefiDriverEntryPoint:DriverEntryPoint.obj
 0002:00000050       ??_C@_0N@NOIDJMII@QemuRamfbDxe@ 0000000000004590     QemuRamfbDxe:AutoGen.obj
 0002:00000060       ??_C@_0CE@IBFOBMLB@?6ASSERT_RETURN_ERROR?5?$CIStatus?5?$DN?5@ 00000000000045a0     QemuRamfbDxe:AutoGen.obj
 0002:00000090       ??_C@_0HJ@FGLDAMAI@d?3?2uefi_specs_personal_collecti@ 00000000000045d0     QemuRamfbDxe:AutoGen.obj
 0002:00000110       ??_C@_0BL@NNIMEIKM@Ramfb?3?5SetMode?5?$CFu?5?$CI?$CFux?$CFu?$CJ?6@ 0000000000004650     QemuRamfbDxe:QemuRamfb.obj
 0002:00000130       ??_C@_0DJ@KHHFKPKG@Status?5?$DN?$DN?5?$CI?$CIRETURN_STATUS?$CJ?$CI0x80@ 0000000000004670     QemuRamfbDxe:QemuRamfb.obj
 0002:00000170       ??_C@_0EJ@PIFBPGHH@D?3?2uefi_specs_personal_collecti@ 00000000000046b0     QemuRamfbDxe:QemuRamfb.obj
 0002:000001c0       ??_C@_0BP@CAPKBDFG@QemuRamfbGraphicsOutputSetMode@ 0000000000004700     QemuRamfbDxe:QemuRamfb.obj
 0002:000001e0       ??_C@_0CE@CKDKGAFO@?$CFa?3?5clearing?5the?5screen?5failed?3@ 0000000000004720     QemuRamfbDxe:QemuRamfb.obj
 0002:00000208       ??_C@_0BB@NBAHGJHO@Ramfb?3?5no?5FwCfg?6@ 0000000000004748     QemuRamfbDxe:QemuRamfb.obj
 0002:00000220       ??_C@_09NBAAEHBH@etc?1ramfb@ 0000000000004760     QemuRamfbDxe:QemuRamfb.obj
 0002:00000230       ??_C@_0DE@GMKAHKFE@Ramfb?3?5FwCfg?5size?5mismatch?5?$CIexp@ 0000000000004770     QemuRamfbDxe:QemuRamfb.obj
 0002:00000268       ??_C@_0CA@KIGAADNP@Ramfb?3?5Mode?5?$CFlu?3?5?$CFux?$CFu?0?5?$CFlu?5kB?6@ 00000000000047a8     QemuRamfbDxe:QemuRamfb.obj
 0002:00000288       ??_C@_0CB@CBOAJKCK@Ramfb?3?5memory?5allocation?5failed@ 00000000000047c8     QemuRamfbDxe:QemuRamfb.obj
 0002:000002b0       ??_C@_0DA@JBKAAHDO@Ramfb?3?5Framebuffer?5at?50x?$CFlx?0?5?$CFl@ 00000000000047f0     QemuRamfbDxe:QemuRamfb.obj
 0002:000002e0       ??_C@_0DD@CNDCKNLE@Ramfb?3?5install?5Ramfb?5Vendor?5Dev@ 0000000000004820     QemuRamfbDxe:QemuRamfb.obj
 0002:00000318       ??_C@_0CK@MMFOIMMJ@Ramfb?3?5install?5GOP?5DevicePath?5f@ 0000000000004858     QemuRamfbDxe:QemuRamfb.obj
 0002:00000348       ??_C@_0CA@MCCOLEIK@Ramfb?3?5OpenProtocol?5failed?3?5?$CFr?6@ 0000000000004888     QemuRamfbDxe:QemuRamfb.obj
 0002:00000370       ??_C@_0GF@KMHDEKMA@D?3?2uefi_specs_personal_collecti@ 00000000000048b0     UefiMemoryAllocationLib:MemoryAllocationLib.obj
 0002:000003d8       ??_C@_0BH@IACGKAP@Buffer?5?$CB?$DN?5?$CI?$CIvoid?5?$CK?$CJ?50?$CJ@ 0000000000004918     UefiMemoryAllocationLib:MemoryAllocationLib.obj
 0002:000003f0       ??_C@_0DO@GEEICOOO@AllocationSize?5?$DM?$DN?5?$CI0xFFFFFFFFFF@ 0000000000004930     UefiMemoryAllocationLib:MemoryAllocationLib.obj
 0002:00000430       ??_C@_0DG@EEENIGGL@Length?5?$DM?$DN?5?$CI0xFFFFFFFFFFFFFFFFUL@ 0000000000004970     BaseMemoryLibRepStr:MemLibGuid.obj
 0002:00000470       ??_C@_0FM@DHFKCLFA@D?3?2uefi_specs_personal_collecti@ 00000000000049b0     BaseMemoryLibRepStr:ZeroMemWrapper.obj
 0002:000004d0       ??_C@_0ED@MKGCMJG@?$CILength?5?9?51?$CJ?5?$DM?$DN?5?$CI0xFFFFFFFFFFFF@ 0000000000004a10     BaseMemoryLibRepStr:CopyMemWrapper.obj
 0002:00000520       ??_C@_0FM@IDPIEKJH@D?3?2uefi_specs_personal_collecti@ 0000000000004a60     BaseMemoryLibRepStr:CopyMemWrapper.obj
 0002:00000580       ??_C@_0DO@MAOBOFEG@?$CILength?5?9?51?$CJ?5?$DM?$DN?5?$CI0xFFFFFFFFFFFF@ 0000000000004ac0     BaseMemoryLibRepStr:CopyMemWrapper.obj
 0002:000005c0       ??_C@_0EL@GLNKFHII@D?3?2uefi_specs_personal_collecti@ 0000000000004b00     BaseLib:Unaligned.obj
 0002:00000610       ??_C@_0BH@LKMBFCBF@Format?5?$CB?$DN?5?$CI?$CIvoid?5?$CK?$CJ?50?$CJ@ 0000000000004b50     BaseDebugLibSerialPort:DebugLib.obj
 0002:00000630       ??_C@_0FJ@BNNHJMAJ@D?3?2uefi_specs_personal_collecti@ 0000000000004b70     BaseDebugLibSerialPort:DebugLib.obj
 0002:00000690       ??_C@_0BI@NOCKJDBJ@ASSERT?5?$FL?$CFa?$FN?5?$CFa?$CI?$CFd?$CJ?3?5?$CFa?6@ 0000000000004bd0     BaseDebugLibSerialPort:DebugLib.obj
 0002:000006a8       ??_C@_0BN@COECPDCC@gImageHandle?5?$CB?$DN?5?$CI?$CIvoid?5?$CK?$CJ?50?$CJ@ 0000000000004be8     UefiBootServicesTableLib:UefiBootServicesTableLib.obj
 0002:000006d0       ??_C@_0GL@PJCPJLGM@D?3?2uefi_specs_personal_collecti@ 0000000000004c10     UefiBootServicesTableLib:UefiBootServicesTableLib.obj
 0002:00000740       ??_C@_0BE@DGNHAHIL@gST?5?$CB?$DN?5?$CI?$CIvoid?5?$CK?$CJ?50?$CJ@ 0000000000004c80     UefiBootServicesTableLib:UefiBootServicesTableLib.obj
 0002:00000758       ??_C@_0BE@BDFJLGLN@gBS?5?$CB?$DN?5?$CI?$CIvoid?5?$CK?$CJ?50?$CJ@ 0000000000004c98     UefiBootServicesTableLib:UefiBootServicesTableLib.obj
 0002:00000770       ??_C@_0BE@OBDFIHND@gRT?5?$CB?$DN?5?$CI?$CIvoid?5?$CK?$CJ?50?$CJ@ 0000000000004cb0     UefiRuntimeServicesTableLib:UefiRuntimeServicesTableLib.obj
 0002:00000790       ??_C@_0HB@NCAPNEDO@D?3?2uefi_specs_personal_collecti@ 0000000000004cd0     UefiRuntimeServicesTableLib:UefiRuntimeServicesTableLib.obj
 0002:00000810       ??_C@_0GP@HEOOPGAM@D?3?2uefi_specs_personal_collecti@ 0000000000004d50     UefiDevicePathLibDevicePathProtocol:UefiDevicePathLib.obj
 0002:00000880       ??_C@_0DC@CNNBPJA@mDevicePathLibDevicePathUtiliti@ 0000000000004dc0     UefiDevicePathLibDevicePathProtocol:UefiDevicePathLib.obj
 0002:000008b8       ??_C@_0BF@CBLMFKOC@Node?5?$CB?$DN?5?$CI?$CIvoid?5?$CK?$CJ?50?$CJ@ 0000000000004df8     UefiDevicePathLibDevicePathProtocol:UefiDevicePathLib.obj
 0002:000008d0       ??_C@_0EH@ENCEEKKL@?$CILength?5?$DO?$DN?5sizeof?5?$CIEFI_DEVICE_P@ 0000000000004e10     UefiDevicePathLibDevicePathProtocol:UefiDevicePathLib.obj
 0002:00000920       ??_C@_0EK@CGIIDOCH@D?3?2uefi_specs_personal_collecti@ 0000000000004e60     DxeHobLib:HobLib.obj
 0002:00000970       ??_C@_0BJ@OBFMLLDO@mHobList?5?$CB?$DN?5?$CI?$CIvoid?5?$CK?$CJ?50?$CJ@ 0000000000004eb0     DxeHobLib:HobLib.obj
 0002:00000990       ??_C@_0BJ@NOLLDKJB@HobStart?5?$CB?$DN?5?$CI?$CIvoid?5?$CK?$CJ?50?$CJ@ 0000000000004ed0     DxeHobLib:HobLib.obj
 0002:000009b0       ??_C@_0BC@FEDIJHFF@?$CI?$CIBOOLEAN?$CJ?$CI0?$DN?$DN1?$CJ?$CJ@ 0000000000004ef0     DxeHobLib:HobLib.obj
 0002:000009c8       ??_C@_0BP@LHBKJBMC@PlatformInfoHob?5is?5not?5found?4?6@ 0000000000004f08     DxeAcpiTimerLib:DxeAcpiTimerLib.obj
 0002:000009f0       ??_C@_0FH@PGONMIHN@D?3?2uefi_specs_personal_collecti@ 0000000000004f30     DxeAcpiTimerLib:DxeAcpiTimerLib.obj
 0002:00000a48       ??_C@_0BI@HAGPDMHJ@AcpiTimerLibConstructor@ 0000000000004f88     DxeAcpiTimerLib:DxeAcpiTimerLib.obj
 0002:00000a60       ??_C@_0CL@DGCOIACG@?$CFa?3?5Unknown?5Host?5Bridge?5Device?5@ 0000000000004fa0     DxeAcpiTimerLib:DxeAcpiTimerLib.obj
 0002:00000a90       ??_C@_0BO@CEBGFDFP@BytesPerPixel?5?$CB?$DN?5?$CI?$CIvoid?5?$CK?$CJ?50?$CJ@ 0000000000004fd0     FrameBufferBltLib:FrameBufferBltLib.obj
 0002:00000ab0       ??_C@_0GD@OEECGOGD@D?3?2uefi_specs_personal_collecti@ 0000000000004ff0     FrameBufferBltLib:FrameBufferBltLib.obj
 0002:00000b18       ??_C@_0CC@IOJKJMJP@?$CIMergedMasks?5?$CG?5Masks?$FLIndex?$FN?$CJ?5?$DN?$DN@ 0000000000005058     FrameBufferBltLib:FrameBufferBltLib.obj
 0002:00000b40       ??_C@_0BL@IFADNIPL@?$CFd?3?5shl?3?$CFd?5shr?3?$CFd?5mask?3?$CFx?6@ 0000000000005080     FrameBufferBltLib:FrameBufferBltLib.obj
 0002:00000b60       ??_C@_0BB@OBCDAJNL@MergedMasks?5?$CB?$DN?50@ 00000000000050a0     FrameBufferBltLib:FrameBufferBltLib.obj
 0002:00000b78       ??_C@_0BF@ONNGEJHN@Bytes?5per?5pixel?3?5?$CFd?6@ 00000000000050b8     FrameBufferBltLib:FrameBufferBltLib.obj
 0002:00000b90       ??_C@_0CN@LABNLNPC@FrameBufferInfo?9?$DOPixelFormat?5?$CB?$DN@ 00000000000050d0     FrameBufferBltLib:FrameBufferBltLib.obj
 0002:00000bc0       ??_C@_0BM@DCDIIHCL@VideoFill?3?5Past?5screen?5?$CIY?$CJ?6@ 0000000000005100     FrameBufferBltLib:FrameBufferBltLib.obj
 0002:00000be0       ??_C@_0BM@IKIEOAEO@VideoFill?3?5Past?5screen?5?$CIX?$CJ?6@ 0000000000005120     FrameBufferBltLib:FrameBufferBltLib.obj
 0002:00000c00       ??_C@_0CB@KCLILPEE@VideoFill?3?5Width?5or?5Height?5is?50@ 0000000000005140     FrameBufferBltLib:FrameBufferBltLib.obj
 0002:00000c28       ??_C@_0CH@NBIEGODH@VideoFill?3?5color?$DN0x?$CFx?0?5wide?9fil@ 0000000000005168     FrameBufferBltLib:FrameBufferBltLib.obj
 0002:00000c50       ??_C@_0BM@FDOEAIKD@VideoFill?5?$CIwide?0?5one?9shot?$CJ?6@ 0000000000005190     FrameBufferBltLib:FrameBufferBltLib.obj
 0002:00000c70       ??_C@_0BC@GMIMICOL@VideoFill?5?$CIwide?$CJ?6@ 00000000000051b0     FrameBufferBltLib:FrameBufferBltLib.obj
 0002:00000c88       ??_C@_0BG@HFFGFLFF@VideoFill?5?$CInot?5wide?$CJ?6@ 00000000000051c8     FrameBufferBltLib:FrameBufferBltLib.obj
 0002:00000ca0       mBgrPixelMasks             00000000000051e0     FrameBufferBltLib:FrameBufferBltLib.obj
 0002:00000cb0       mRgbPixelMasks             00000000000051f0     FrameBufferBltLib:FrameBufferBltLib.obj
 0002:00000cc0       ??_C@_0BI@IJEGBDOG@FW?5CFG?5Signature?3?50x?$CFx?6@ 0000000000005200     QemuFwCfgDxeLib:QemuFwCfgDxe.obj
 0002:00000cd8       ??_C@_0BH@IDHABEEK@FW?5CFG?5Revision?3?50x?$CFx?6@ 0000000000005218     QemuFwCfgDxeLib:QemuFwCfgDxe.obj
 0002:00000cf0       ??_C@_0CE@MJBGNOEJ@QemuFwCfg?5interface?5not?5support@ 0000000000005230     QemuFwCfgDxeLib:QemuFwCfgDxe.obj
 0002:00000d18       ??_C@_0CN@HEOCCDJJ@QemuFwCfg?5interface?5?$CIIO?5Port?$CJ?5i@ 0000000000005258     QemuFwCfgDxeLib:QemuFwCfgDxe.obj
 0002:00000d48       ??_C@_0CJ@KLCLHHDJ@QemuFwCfg?5interface?5?$CIDMA?$CJ?5is?5su@ 0000000000005288     QemuFwCfgDxeLib:QemuFwCfgDxe.obj
 0002:00000d78       ??_C@_0BE@ICMOEABH@QemuFwCfgInitialize@ 00000000000052b8     QemuFwCfgDxeLib:QemuFwCfgDxe.obj
 0002:00000d90       ??_C@_0DF@DPBJNHOO@QemuFwCfgDma?5?$CFa?3?$CFa?5Failed?5to?5lo@ 00000000000052d0     QemuFwCfgDxeLib:QemuFwCfgDxe.obj
 0002:00000dd0       ??_C@_0FE@HOPLGIPD@D?3?2uefi_specs_personal_collecti@ 0000000000005310     QemuFwCfgDxeLib:QemuFwCfgDxe.obj
 0002:00000e28       ??_C@_0BK@BCAAPLAN@AllocFwCfgDmaAccessBuffer@ 0000000000005368     QemuFwCfgDxeLib:QemuFwCfgDxe.obj
 0002:00000e48       ??_C@_0CM@GFEJKPGJ@?$CFa?3?$CFa?5failed?5to?5allocate?5FW_CFG@ 0000000000005388     QemuFwCfgDxeLib:QemuFwCfgDxe.obj
 0002:00000e78       ??_C@_0CJ@KEMBAJAO@?$CFa?3?$CFa?5failed?5to?5Map?$CI?$CJ?5FW_CFG_DM@ 00000000000053b8     QemuFwCfgDxeLib:QemuFwCfgDxe.obj
 0002:00000ea8       ??_C@_0DD@JKOFAKBE@?$CFa?3?$CFa?5failed?5to?5Map?$CI?$CJ?5?9?5request@ 00000000000053e8     QemuFwCfgDxeLib:QemuFwCfgDxe.obj
 0002:00000ee0       ??_C@_0BJ@PJCCKKKO@FreeFwCfgDmaAccessBuffer@ 0000000000005420     QemuFwCfgDxeLib:QemuFwCfgDxe.obj
 0002:00000f00       ??_C@_0CH@ECJOHDLF@?$CFa?3?$CFa?5failed?5to?5UnMap?$CI?$CJ?5Mapping@ 0000000000005440     QemuFwCfgDxeLib:QemuFwCfgDxe.obj
 0002:00000f28       ??_C@_0BO@GNFEKELG@?$CFa?3?$CFa?5failed?5to?5Free?$CI?$CJ?50x?$CFLx?6@ 0000000000005468     QemuFwCfgDxeLib:QemuFwCfgDxe.obj
 0002:00000f48       ??_C@_0BG@IBBEPALH@MapFwCfgDmaDataBuffer@ 0000000000005488     QemuFwCfgDxeLib:QemuFwCfgDxe.obj
 0002:00000f60       ??_C@_0DA@PGHOGGFB@?$CFa?3?$CFa?5failed?5to?5Map?$CI?$CJ?5Address?50@ 00000000000054a0     QemuFwCfgDxeLib:QemuFwCfgDxe.obj
 0002:00000f90       ??_C@_0DC@GIJFHMNI@?$CFa?3?$CFa?5failed?5to?5Map?$CI?$CJ?5?9?5request@ 00000000000054d0     QemuFwCfgDxeLib:QemuFwCfgDxe.obj
 0002:00000fc8       ??_C@_0BI@FJKLEDLA@UnmapFwCfgDmaDataBuffer@ 0000000000005508     QemuFwCfgDxeLib:QemuFwCfgDxe.obj
 0002:00000fe0       ??_C@_0EI@DKMDAGNG@Control?5?$DN?$DN?50x00000010?5?$HM?$HM?5Contro@ 0000000000005520     QemuFwCfgDxeLib:QemuFwCfgDxe.obj
 0002:00001028       ??_C@_0BL@NIDDMANE@?$CIStatus?5?$CG?50x00000001?$CJ?5?$DN?$DN?50@ 0000000000005568     QemuFwCfgDxeLib:QemuFwCfgDxe.obj
 0002:00001048       ??_C@_0BD@DFJLKIGA@Select?5Item?3?50x?$CFx?6@ 0000000000005588     QemuFwCfgDxeLib:QemuFwCfgLib.obj
 0002:00001060       ??_C@_0EN@ENFGNHA@D?3?2uefi_specs_personal_collecti@ 00000000000055a0     DxePcdLib:DxePcdLib.obj
 0002:000010b0       ??_C@_0BF@OOKDELHM@mPcd?5?$CB?$DN?5?$CI?$CIvoid?5?$CK?$CJ?50?$CJ@ 00000000000055f0     DxePcdLib:DxePcdLib.obj
 0002:000010d0       ??_C@_0FF@GCKLFLDF@D?3?2uefi_specs_personal_collecti@ 0000000000005610     BaseIoLibIntrinsicSev:IoLibMsc.obj
 0002:00001128       ??_C@_0BA@HCECIDGN@?$CIPort?5?$CG?53?$CJ?5?$DN?$DN?50@ 0000000000005668     BaseIoLibIntrinsicSev:IoLibMsc.obj
 0002:00001140       ??_C@_0FN@DOAHIAPG@D?3?2uefi_specs_personal_collecti@ 0000000000005680     BaseIoLibIntrinsicSev:IoLibInternalTdx.obj
 0002:000011a0       ??_C@_0BD@OMMAJMCK@?$CIAddress?5?$CG?53?$CJ?5?$DN?$DN?50@ 00000000000056e0     BaseIoLibIntrinsicSev:IoLibInternalTdx.obj
 0002:000011b8       ??_C@_0DI@DAGDPLPG@?$CILength?5?9?51?$CJ?5?$DM?$DN?5?$CI0xFFFFFFFFFFFF@ 00000000000056f8     BaseMemoryLibRepStr:SetMemWrapper.obj
 0002:000011f0       ??_C@_0FL@MFFLICHL@D?3?2uefi_specs_personal_collecti@ 0000000000005730     BaseMemoryLibRepStr:SetMemWrapper.obj
 0002:00001250       ??_C@_0FN@HKNGIHKD@D?3?2uefi_specs_personal_collecti@ 0000000000005790     BaseMemoryLibRepStr:SetMem64Wrapper.obj
 0002:000012b0       ??_C@_0CO@LECKNDNC@?$CI?$CI?$CIUINTN?$CJBuffer?$CJ?5?$CG?5?$CIsizeof?5?$CIVal@ 00000000000057f0     BaseMemoryLibRepStr:SetMem64Wrapper.obj
 0002:000012e0       ??_C@_0CF@LEICOABD@?$CILength?5?$CG?5?$CIsizeof?5?$CIValue?$CJ?5?9?51?$CJ?$CJ@ 0000000000005820     BaseMemoryLibRepStr:SetMem64Wrapper.obj
 0002:00001310       ??_C@_0FN@KMADKPA@D?3?2uefi_specs_personal_collecti@ 0000000000005850     BaseMemoryLibRepStr:SetMem32Wrapper.obj
 0002:00001370       ??_C@_0BH@MAAHKCPC@String?5?$CB?$DN?5?$CI?$CIvoid?5?$CK?$CJ?50?$CJ@ 00000000000058b0     BaseLib:String.obj
 0002:00001390       ??_C@_0EI@LOLLHGDK@D?3?2uefi_specs_personal_collecti@ 00000000000058d0     BaseLib:String.obj
 0002:000013d8       ??_C@_0CC@GFNLNIOC@?$CI?$CIUINTN?$CJString?5?$CG?50x00000001?$CJ?5?$DN?$DN@ 0000000000005918     BaseLib:String.obj
 0002:00001400       ??_C@_0DI@MDIKFADO@Length?5?$DM?5_gPcd_FixedAtBuild_Pcd@ 0000000000005940     BaseLib:String.obj
 0002:00001438       ??_C@_0BL@IKFBNFIL@AsciiStrSize?5?$CIFirstString?$CJ@ 0000000000005978     BaseLib:String.obj
 0002:00001458       ??_C@_0BM@EDNOKLLE@AsciiStrSize?5?$CISecondString?$CJ@ 0000000000005998     BaseLib:String.obj
 0002:00001480       ??_C@_0EM@OAPOMMAE@D?3?2uefi_specs_personal_collecti@ 00000000000059c0     BaseLib:SafeString.obj
 0002:000014d0       ??_C@_0BJ@CNKJJNE@?$CIBuffer?5?$CB?$DN?5?$CI?$CIvoid?5?$CK?$CJ?50?$CJ?$CJ@ 0000000000005a10     BaseLib:SafeString.obj
 0002:000014f0       ??_C@_0N@KGHEHMDL@Divisor?5?$CB?$DN?50@ 0000000000005a30     BaseLib:DivU64x32.obj
 0002:00001500       ??_C@_0FH@MODEAFEI@D?3?2uefi_specs_personal_collecti@ 0000000000005a40     BasePrintLib:PrintLibInternal.obj
 0002:00001560       ??_C@_0EB@HDGIDCIO@?$CIBufferSize?5?$DM?$DN?5?$CI_gPcd_FixedAtBu@ 0000000000005aa0     BasePrintLib:PrintLibInternal.obj
 0002:000015a8       ??_C@_0BJ@PPAKKDJG@?$CIFormat?5?$CB?$DN?5?$CI?$CIvoid?5?$CK?$CJ?50?$CJ?$CJ@ 0000000000005ae8     BasePrintLib:PrintLibInternal.obj
 0002:000015d0       ??_C@_0ED@LPDDCECB@?$CIBufferSize?5?$DM?$DN?5?$CI_gPcd_FixedAtBu@ 0000000000005b10     BasePrintLib:PrintLibInternal.obj
 0002:00001620       ??_C@_0IM@BFJJFLGB@?$CIStrnLenS?5?$CI?$CICHAR16?5?$CK?$CJFormat?0?5?$CI_@ 0000000000005b60     BasePrintLib:PrintLibInternal.obj
 0002:000016b0       ??_C@_0ID@PLGJGION@?$CIAsciiStrnLenS?5?$CIFormat?0?5?$CI_gPcd_@ 0000000000005bf0     BasePrintLib:PrintLibInternal.obj
 0002:00001738       ??_C@_0O@MLOLIMFM@?$DMnull?5string?$DO@ 0000000000005c78     BasePrintLib:PrintLibInternal.obj
 0002:00001748       ??_C@_0M@BJJDNPHK@?$DMnull?5guid?$DO@ 0000000000005c88     BasePrintLib:PrintLibInternal.obj
 0002:00001758       ??_C@_0DB@PMLHLBMO@?$CF08x?9?$CF04x?9?$CF04x?9?$CF02x?$CF02x?9?$CF02x?$CF02@ 0000000000005c98     BasePrintLib:PrintLibInternal.obj
 0002:00001790       ??_C@_0M@LHGBCIKM@?$DMnull?5time?$DO@ 0000000000005cd0     BasePrintLib:PrintLibInternal.obj
 0002:000017a0       ??_C@_0BK@FCPKCIDD@?$CF02d?1?$CF02d?1?$CF04d?5?5?$CF02d?3?$CF02d@ 0000000000005ce0     BasePrintLib:PrintLibInternal.obj
 0002:000017bc       ??_C@_04JIMNDDED@?$CF08X@  0000000000005cfc     BasePrintLib:PrintLibInternal.obj
 0002:000017c4       ??_C@_02PCIJFNDE@?$AN?6@   0000000000005d04     BasePrintLib:PrintLibInternal.obj
 0002:000017c8       ??_C@_01LIIJDEN@?$AN@      0000000000005d08     BasePrintLib:PrintLibInternal.obj
 0002:000017d0       mWarningString             0000000000005d10     BasePrintLib:PrintLibInternal.obj
 0002:000018a0       mErrorString               0000000000005de0     BasePrintLib:PrintLibInternal.obj
 0002:00001b80       mHexStr                    00000000000060c0     BasePrintLib:PrintLibInternal.obj
 0002:00001b90       ??_C@_0BO@BAKALPJK@?$CI?$CIAddress?$CJ?5?$CG?5?$HO0xfffffff?$CJ?5?$DN?$DN?50@ 00000000000060d0     BasePciExpressLib:PciExpressLib.obj
 0002:00001bb0       ??_C@_0FJ@LPMKGGAK@D?3?2uefi_specs_personal_collecti@ 00000000000060f0     BasePciExpressLib:PciExpressLib.obj
 0002:00001c10       ??_C@_0FB@PDIKDBMH@D?3?2uefi_specs_personal_collecti@ 0000000000006150     BasePciCf8Lib:PciCf8Lib.obj
 0002:00001c68       ??_C@_0CG@EDKLCMBO@?$CI?$CIAddress?$CJ?5?$CG?5?$CI?$HO0xffff0ff?5?$HM?5?$CI3?$CJ?$CJ@ 00000000000061a8     BasePciCf8Lib:PciCf8Lib.obj
 0002:00001c90       ??_C@_0CB@GEABOFIF@Failed?5call?5TDCALL_TDINFO?4?5?$CFllx@ 00000000000061d0     TdxLib:TdInfo.obj
 0002:00001cc0       ??_C@_0FC@MAJHMCGF@D?3?2uefi_specs_personal_collecti@ 0000000000006200     BaseIoLibIntrinsicSev:IoLib.obj
 0002:00001d20       ??_C@_0FE@LIGPAOFO@D?3?2uefi_specs_personal_collecti@ 0000000000006260     BaseLib:DivU64x32Remainder.obj
 0002:00001dc8       __volatile_metadata        0000000000006308     <linker-defined>
 0003:00000000       gPcdProtocolGuid           00000000000064c0     QemuRamfbDxe:AutoGen.obj
 0003:00000010       gEfiDevicePathProtocolGuid 00000000000064d0     QemuRamfbDxe:AutoGen.obj
 0003:00000020       gUefiOvmfPkgPlatformInfoGuid 00000000000064e0     QemuRamfbDxe:AutoGen.obj
 0003:00000030       gEfiDevicePathUtilitiesProtocolGuid 00000000000064f0     QemuRamfbDxe:AutoGen.obj
 0003:00000040       gEfiGraphicsOutputProtocolGuid 0000000000006500     QemuRamfbDxe:AutoGen.obj
 0003:00000050       gEfiHobListGuid            0000000000006510     QemuRamfbDxe:AutoGen.obj
 0003:00000060       gEdkiiIoMmuProtocolGuid    0000000000006520     QemuRamfbDxe:AutoGen.obj
 0003:00000070       gQemuRamfbGuid             0000000000006530     QemuRamfbDxe:AutoGen.obj
 0003:00000140       gST                        0000000000006600     UefiBootServicesTableLib:UefiBootServicesTableLib.obj
 0003:00000148       gBS                        0000000000006608     UefiBootServicesTableLib:UefiBootServicesTableLib.obj
 0003:00000150       gImageHandle               0000000000006610     UefiBootServicesTableLib:UefiBootServicesTableLib.obj
 0003:00000158       gRT                        0000000000006618     UefiRuntimeServicesTableLib:UefiRuntimeServicesTableLib.obj
 0003:00000160       mDevicePathLibDevicePathUtilities 0000000000006620     UefiDevicePathLibDevicePathProtocol:UefiDevicePathLib.obj
 0003:00000168       mHobList                   0000000000006628     DxeHobLib:HobLib.obj
 0003:00000178       mPcd                       0000000000006638     DxePcdLib:DxePcdLib.obj
 0003:00000198       gParity                    0000000000006658     PcAtSerialPortLib:SerialPortLib.obj
 0003:00000199       gBreakSet                  0000000000006659     PcAtSerialPortLib:SerialPortLib.obj
 0003:0000019a       mTdDataReturned            000000000000665a     TdxLib:TdInfo.obj
 0003:000001a0       mTdSharedPageMask          0000000000006660     TdxLib:TdInfo.obj

 entry point at        0001:00000344

 Static symbols

 0001:0000003a       InternalMemCopyMem.0       00000000000002fa     BaseMemoryLibRepStr:CopyMem.obj
 0001:0000004a       @CopyBackward              000000000000030a     BaseMemoryLibRepStr:CopyMem.obj
 0001:00000053       @CopyBytes                 0000000000000313     BaseMemoryLibRepStr:CopyMem.obj
 0001:0000009a       @UseRepIo                  000000000000035a     BaseIoLibIntrinsicSev:IoFifoSev.obj
 0001:0000009c       @SevNoRepIo_Done           000000000000035c     BaseIoLibIntrinsicSev:IoFifoSev.obj
 0001:000000b4       @IoReadFifo8_NoRep         0000000000000374     BaseIoLibIntrinsicSev:IoFifoSev.obj
 0001:000000b6       @IoReadFifo8_Loop          0000000000000376     BaseIoLibIntrinsicSev:IoFifoSev.obj
 0001:000000be       @IoReadFifo8_Done          000000000000037e     BaseIoLibIntrinsicSev:IoFifoSev.obj
 0001:000000d7       @IoReadFifo16_NoRep        0000000000000397     BaseIoLibIntrinsicSev:IoFifoSev.obj
 0001:000000d9       @IoReadFifo16_Loop         0000000000000399     BaseIoLibIntrinsicSev:IoFifoSev.obj
 0001:000000e4       @IoReadFifo16_Done         00000000000003a4     BaseIoLibIntrinsicSev:IoFifoSev.obj
 0001:000000fc       @IoReadFifo32_NoRep        00000000000003bc     BaseIoLibIntrinsicSev:IoFifoSev.obj
 0001:000000fe       @IoReadFifo32_Loop         00000000000003be     BaseIoLibIntrinsicSev:IoFifoSev.obj
 0001:00000107       @IoReadFifo32_Done         00000000000003c7     BaseIoLibIntrinsicSev:IoFifoSev.obj
 0001:0000011f       @IoWriteFifo8_NoRep        00000000000003df     BaseIoLibIntrinsicSev:IoFifoSev.obj
 0001:00000121       @IoWriteFifo8_Loop         00000000000003e1     BaseIoLibIntrinsicSev:IoFifoSev.obj
 0001:00000129       @IoWriteFifo8_Done         00000000000003e9     BaseIoLibIntrinsicSev:IoFifoSev.obj
 0001:00000142       @IoWriteFifo16_NoRep       0000000000000402     BaseIoLibIntrinsicSev:IoFifoSev.obj
 0001:00000144       @IoWriteFifo16_Loop        0000000000000404     BaseIoLibIntrinsicSev:IoFifoSev.obj
 0001:0000014f       @IoWriteFifo16_Done        000000000000040f     BaseIoLibIntrinsicSev:IoFifoSev.obj
 0001:00000167       @IoWriteFifo32_NoRep       0000000000000427     BaseIoLibIntrinsicSev:IoFifoSev.obj
 0001:00000169       @IoWriteFifo32_Loop        0000000000000429     BaseIoLibIntrinsicSev:IoFifoSev.obj
 0001:00000172       @IoWriteFifo32_Done        0000000000000432     BaseIoLibIntrinsicSev:IoFifoSev.obj
 0001:00000239       TdVmCall.no_return_data    00000000000004f9     BaseLib:TdVmcall.obj
 0001:000002fb       TdCall.exit                00000000000005bb     BaseLib:TdCall.obj
 0001:0000082c       QemuRamfbGraphicsOutputQueryMode 0000000000000aec f   QemuRamfbDxe:QemuRamfb.obj
 0001:00000898       QemuRamfbGraphicsOutputSetMode 0000000000000b58 f   QemuRamfbDxe:QemuRamfb.obj
 0001:00000b6c       QemuRamfbGraphicsOutputBlt 0000000000000e2c f   QemuRamfbDxe:QemuRamfb.obj
 0001:000020b0       AllocFwCfgDmaAccessBuffer  0000000000002370 f   QemuFwCfgDxeLib:QemuFwCfgDxe.obj
 0001:0000225c       FreeFwCfgDmaAccessBuffer   000000000000251c f   QemuFwCfgDxeLib:QemuFwCfgDxe.obj
 0001:00002330       MapFwCfgDmaDataBuffer      00000000000025f0 f   QemuFwCfgDxeLib:QemuFwCfgDxe.obj
 0001:00002950       ConfidentialComputingGuestHas 0000000000002c10 f   DxeMemEncryptSevLib:DxeMemEncryptSevLibInternal.obj
 0003:00000080       mQemuRamfbGraphicsOutput   0000000000006540     QemuRamfbDxe:QemuRamfb.obj
 0003:000000a0       mQemuRamfbModeInfo         0000000000006560     QemuRamfbDxe:QemuRamfb.obj
 0003:00000110       mQemuRamfbMode             00000000000065d0     QemuRamfbDxe:QemuRamfb.obj
 0003:00000138       mCcProbeGuestType          00000000000065f8     DxeCcProbeLib:DxeCcProbeLib.obj
 0003:00000139       mCcProbed                  00000000000065f9     DxeCcProbeLib:DxeCcProbeLib.obj
 0003:00000170       mQemuFwCfgSupported        0000000000006630     QemuFwCfgDxeLib:QemuFwCfgDxe.obj
 0003:00000180       mCurrentAttr               0000000000006640     DxeMemEncryptSevLib:DxeMemEncryptSevLibInternal.obj
 0003:00000188       mCurrentAttrRead           0000000000006648     DxeMemEncryptSevLib:DxeMemEncryptSevLibInternal.obj
 0003:00000190       mDeadLoopComparator        0000000000006650     BaseLib:CpuDeadLoop.obj
 0003:000001a8       mQemuRamfbFrameBufferBltConfigure 0000000000006668     QemuRamfbDxe:QemuRamfb.obj
 0003:000001b0       mRamfbFwCfgItem            0000000000006670     QemuRamfbDxe:QemuRamfb.obj
 0003:000001b4       mRunningOnQ35              0000000000006674     DxePciLibI440FxQ35:PciLib.obj
 0003:000001b5       mQemuFwCfgDmaSupported     0000000000006675     QemuFwCfgDxeLib:QemuFwCfgDxe.obj
 0003:000001b8       mGopHandle                 0000000000006678     QemuRamfbDxe:QemuRamfb.obj
 0003:000001c0       mQemuRamfbFrameBufferBltConfigureSize 0000000000006680     QemuRamfbDxe:QemuRamfb.obj
 0003:000001c8       mRamfbHandle               0000000000006688     QemuRamfbDxe:QemuRamfb.obj
 0003:000001d0       mIoMmuProtocol             0000000000006690     QemuFwCfgDxeLib:QemuFwCfgDxe.obj
 0005:00000000       $unwind$IoRead8            0000000000006980     BaseIoLibIntrinsicSev:IoLibMsc.obj
 0005:00000000       $unwind$CpuDeadLoop        0000000000006980     BaseLib:CpuDeadLoop.obj
 0005:00000000       $unwind$GetPcdProtocol     0000000000006980     DxePcdLib:DxePcdLib.obj
 0005:00000000       $unwind$TdSharedPageMask   0000000000006980     TdxLib:TdInfo.obj
 0005:00000000       $unwind$_ModuleEntryPoint  0000000000006980     UefiDriverEntryPoint:DriverEntryPoint.obj
 0005:00000000       $unwind$FreePool           0000000000006980     UefiMemoryAllocationLib:MemoryAllocationLib.obj
 0005:00000000       $unwind$InternalAllocatePool 0000000000006980     UefiMemoryAllocationLib:MemoryAllocationLib.obj
 0005:00000000       $unwind$ConfidentialComputingGuestHas 0000000000006980     DxeMemEncryptSevLib:DxeMemEncryptSevLibInternal.obj
 0005:00000008       $unwind$ProcessLibraryConstructorList 0000000000006988     QemuRamfbDxe:AutoGen.obj
 0005:0000001c       $unwind$IoWrite32          000000000000699c     BaseIoLibIntrinsicSev:IoLibMsc.obj
 0005:0000001c       $unwind$AsciiStrLen        000000000000699c     BaseLib:String.obj
 0005:0000001c       $unwind$ZeroMem            000000000000699c     BaseMemoryLibRepStr:ZeroMemWrapper.obj
 0005:0000001c       $unwind$SetDevicePathNodeLength 000000000000699c     UefiDevicePathLibDevicePathProtocol:UefiDevicePathLib.obj
 0005:0000001c       $unwind$QemuRamfbGraphicsOutputQueryMode 000000000000699c     QemuRamfbDxe:QemuRamfb.obj
 0005:00000028       $unwind$QemuRamfbGraphicsOutputSetMode 00000000000069a8     QemuRamfbDxe:QemuRamfb.obj
 0005:00000038       $unwind$QemuRamfbGraphicsOutputBlt 00000000000069b8     QemuRamfbDxe:QemuRamfb.obj
 0005:00000040       $unwind$InitializeQemuRamfb 00000000000069c0     QemuRamfbDxe:QemuRamfb.obj
 0005:00000054       $unwind$IoRead32           00000000000069d4     BaseIoLibIntrinsicSev:IoLibMsc.obj
 0005:00000054       $unwind$IoWrite16          00000000000069d4     BaseIoLibIntrinsicSev:IoLibMsc.obj
 0005:00000054       $unwind$SaveAndDisableInterrupts 00000000000069d4     BaseLib:Cpu.obj
 0005:00000054       $unwind$StrnLenS           00000000000069d4     BaseLib:SafeString.obj
 0005:00000054       $unwind$PciExpressRead32   00000000000069d4     BasePciExpressLib:PciExpressLib.obj
 0005:00000054       $unwind$InternalAllocateCopyPool 00000000000069d4     UefiMemoryAllocationLib:MemoryAllocationLib.obj
 0005:0000005c       $unwind$IoReadFifo8        00000000000069dc     BaseIoLibIntrinsicSev:IoLibFifoCc.obj
 0005:0000005c       $unwind$CopyGuid           00000000000069dc     BaseMemoryLibRepStr:MemLibGuid.obj
 0005:0000005c       $unwind$SetMem32           00000000000069dc     BaseMemoryLibRepStr:SetMem32Wrapper.obj
 0005:0000005c       $unwind$SetMem64           00000000000069dc     BaseMemoryLibRepStr:SetMem64Wrapper.obj
 0005:0000005c       $unwind$SetMem             00000000000069dc     BaseMemoryLibRepStr:SetMemWrapper.obj
 0005:0000005c       $unwind$BasePrintLibValueToString 00000000000069dc     BasePrintLib:PrintLibInternal.obj
 0005:0000005c       $unwind$GetHobList         00000000000069dc     DxeHobLib:HobLib.obj
 0005:0000005c       $unwind$SerialPortWrite    00000000000069dc     PcAtSerialPortLib:SerialPortLib.obj
 0005:0000006c       $unwind$CompareGuid        00000000000069ec     BaseMemoryLibRepStr:MemLibGuid.obj
 0005:00000084       $unwind$CopyMem            0000000000006a04     BaseMemoryLibRepStr:CopyMemWrapper.obj
 0005:00000084       $unwind$PciCf8Read32       0000000000006a04     BasePciCf8Lib:PciCf8Lib.obj
 0005:00000098       $unwind$DebugPrint         0000000000006a18     BaseDebugLibSerialPort:DebugLib.obj
 0005:000000a0       $unwind$DebugPrintMarker   0000000000006a20     BaseDebugLibSerialPort:DebugLib.obj
 0005:000000b4       $unwind$DebugAssert        0000000000006a34     BaseDebugLibSerialPort:DebugLib.obj
 0005:000000bc       $unwind$FrameBufferBltLibConfigurePixelFormat 0000000000006a3c     FrameBufferBltLib:FrameBufferBltLib.obj
 0005:000000d8       $unwind$FrameBufferBltConfigure 0000000000006a58     FrameBufferBltLib:FrameBufferBltLib.obj
 0005:000000ec       $unwind$FrameBufferBltLibVideoFill 0000000000006a6c     FrameBufferBltLib:FrameBufferBltLib.obj
 0005:00000104       $unwind$FrameBufferBltLibBufferToVideo 0000000000006a84     FrameBufferBltLib:FrameBufferBltLib.obj
 0005:00000104       $unwind$FrameBufferBltLibVideoToBltBuffer 0000000000006a84     FrameBufferBltLib:FrameBufferBltLib.obj
 0005:0000011c       $unwind$FrameBufferBltLibVideoToVideo 0000000000006a9c     FrameBufferBltLib:FrameBufferBltLib.obj
 0005:00000134       $unwind$FrameBufferBlt     0000000000006ab4     FrameBufferBltLib:FrameBufferBltLib.obj
 0005:0000013c       $unwind$AllocFwCfgDmaAccessBuffer 0000000000006abc     QemuFwCfgDxeLib:QemuFwCfgDxe.obj
 0005:0000014c       $unwind$FreeFwCfgDmaAccessBuffer 0000000000006acc     QemuFwCfgDxeLib:QemuFwCfgDxe.obj
 0005:0000015c       $unwind$MapFwCfgDmaDataBuffer 0000000000006adc     QemuFwCfgDxeLib:QemuFwCfgDxe.obj
 0005:00000170       $unwind$InternalQemuFwCfgDmaBytes 0000000000006af0     QemuFwCfgDxeLib:QemuFwCfgDxe.obj
 0005:00000184       $unwind$QemuFwCfgFindFile  0000000000006b04     QemuFwCfgDxeLib:QemuFwCfgLib.obj
 0005:00000198       $unwind$TdIoRead8          0000000000006b18     BaseIoLibIntrinsicSev:IoLibInternalTdx.obj
 0005:000001a0       $unwind$MmioRead32         0000000000006b20     BaseIoLibIntrinsicSev:IoLib.obj
 0005:000001a0       $unwind$TdIoRead32         0000000000006b20     BaseIoLibIntrinsicSev:IoLibInternalTdx.obj
 0005:000001a0       $unwind$TdIoWrite16        0000000000006b20     BaseIoLibIntrinsicSev:IoLibInternalTdx.obj
 0005:000001a0       $unwind$TdIoWrite8         0000000000006b20     BaseIoLibIntrinsicSev:IoLibInternalTdx.obj
 0005:000001a8       $unwind$TdIoWrite32        0000000000006b28     BaseIoLibIntrinsicSev:IoLibInternalTdx.obj
 0005:000001b4       $unwind$AsciiSPrint        0000000000006b34     BasePrintLib:PrintLib.obj
 0005:000001bc       $unwind$BasePrintLibSPrintMarker 0000000000006b3c     BasePrintLib:PrintLibInternal.obj
 0005:000001d8       $unwind$BasePrintLibSPrint 0000000000006b58     BasePrintLib:PrintLibInternal.obj
 0005:000001e0       $unwind$GetTdInfo          0000000000006b60     TdxLib:TdInfo.obj
