 SmbiosDxe

 Timestamp is 6725e4ac (Sat Nov  2 16:37:00 2024)

 Preferred load address is 0000000000000000

 Start         Length     Name                   Class
 0001:00000000 00000364H .text                   CODE
 0001:00000364 000047ddH .text$mn                CODE
 0002:00000000 00002268H .rdata                  DATA
 0002:00002268 00000048H .rdata$voltmd           DATA
 0002:000022b0 0000015cH .rdata$zzzdbg           DATA
 0003:00000000 00000100H .data                   DATA
 0003:00000100 00000110H .bss                    DATA
 0004:00000000 00000324H .pdata                  DATA
 0005:00000000 00000214H .xdata                  DATA

  Address         Publics by Value              Rva+Base               Lib:Object

 0000:00000000       __x64_code_ranges_to_entry_points_count 0000000000000000     <absolute>
 0000:00000000       __guard_iat_table          0000000000000000     <absolute>
 0000:00000000       __guard_longjmp_table      0000000000000000     <absolute>
 0000:00000000       __guard_iat_count          0000000000000000     <absolute>
 0000:00000000       __guard_longjmp_count      0000000000000000     <absolute>
 0000:00000000       __dynamic_value_reloc_table 0000000000000000     <absolute>
 0000:00000000       __x64_code_ranges_to_entry_points 0000000000000000     <absolute>
 0000:00000000       __hybrid_auxiliary_iat     0000000000000000     <absolute>
 0000:00000000       __guard_fids_count         0000000000000000     <absolute>
 0000:00000000       __hybrid_auxiliary_iat_copy 0000000000000000     <absolute>
 0000:00000000       __arm64x_redirection_metadata 0000000000000000     <absolute>
 0000:00000000       __arm64x_extra_rfe_table   0000000000000000     <absolute>
 0000:00000000       __AbsoluteZero             0000000000000000     <absolute>
 0000:00000000       __hybrid_code_map_count    0000000000000000     <absolute>
 0000:00000000       __guard_check_icall_a64n_fptr 0000000000000000     <absolute>
 0000:00000000       __hybrid_code_map          0000000000000000     <absolute>
 0000:00000000       __arm64x_extra_rfe_table_size 0000000000000000     <absolute>
 0000:00000000       __guard_fids_table         0000000000000000     <absolute>
 0000:00000000       __arm64x_redirection_metadata_count 0000000000000000     <absolute>
 0000:00000000       __guard_flags              0000000000000000     <absolute>
 0000:00000000       __guard_eh_cont_count      0000000000000000     <absolute>
 0000:00000000       __enclave_config           0000000000000000     <absolute>
 0000:00000000       __guard_eh_cont_table      0000000000000000     <absolute>
 0000:00000000       __arm64x_native_entrypoint 0000000000000000     <absolute>
 0001:00000000       InternalMemCopyMem         00000000000002c0     BaseMemoryLibRepStr:CopyMem.obj
 0001:00000040       InternalMemCompareMem      0000000000000300     BaseMemoryLibRepStr:CompareMem.obj
 0001:00000060       InternalMemZeroMem         0000000000000320     BaseMemoryLibRepStr:ZeroMem.obj
 0001:00000080       SevNoRepIo                 0000000000000340     BaseIoLibIntrinsicSev:IoFifoSev.obj
 0001:000000c0       SevIoReadFifo8             0000000000000380     BaseIoLibIntrinsicSev:IoFifoSev.obj
 0001:000000e2       SevIoReadFifo16            00000000000003a2     BaseIoLibIntrinsicSev:IoFifoSev.obj
 0001:00000108       SevIoReadFifo32            00000000000003c8     BaseIoLibIntrinsicSev:IoFifoSev.obj
 0001:0000012b       SevIoWriteFifo8            00000000000003eb     BaseIoLibIntrinsicSev:IoFifoSev.obj
 0001:0000014d       SevIoWriteFifo16           000000000000040d     BaseIoLibIntrinsicSev:IoFifoSev.obj
 0001:00000173       SevIoWriteFifo32           0000000000000433     BaseIoLibIntrinsicSev:IoFifoSev.obj
 0001:000001a0       TdVmCall                   0000000000000460     BaseLib:TdVmcall.obj
 0001:00000220       CpuPause                   00000000000004e0     BaseLib:CpuPause.obj
 0001:00000230       InternalMemSetMem          00000000000004f0     BaseMemoryLibRepStr:SetMem.obj
 0001:00000250       InternalMemSetMem64        0000000000000510     BaseMemoryLibRepStr:SetMem64.obj
 0001:00000270       InternalMemSetMem32        0000000000000530     BaseMemoryLibRepStr:SetMem32.obj
 0001:00000290       AsmReadCr0                 0000000000000550     BaseLib:ReadCr0.obj
 0001:000002a0       AsmReadCr3                 0000000000000560     BaseLib:ReadCr3.obj
 0001:000002b0       AsmWriteCr0                0000000000000570     BaseLib:WriteCr0.obj
 0001:000002c0       AsmReadCr4                 0000000000000580     BaseLib:ReadCr4.obj
 0001:000002d0       TdCall                     0000000000000590     BaseLib:TdCall.obj
 0001:00000330       AsmWriteCr3                00000000000005f0     BaseLib:WriteCr3.obj
 0001:00000340       EnableInterrupts           0000000000000600     BaseLib:EnableInterrupts.obj
 0001:00000350       DisableInterrupts          0000000000000610     BaseLib:DisableInterrupts.obj
 0001:00000360       AsmReadEflags              0000000000000620     BaseLib:ReadEflags.obj
 0001:00000364       _ModuleEntryPoint          0000000000000624 f   UefiDriverEntryPoint:DriverEntryPoint.obj
 0001:00000380       ProcessLibraryConstructorList 0000000000000640 f   SmbiosDxe:AutoGen.obj
 0001:0000081c       GetSmbiosStructureSize     0000000000000adc f   SmbiosDxe:SmbiosDxe.obj
 0001:000008c0       CheckSmbiosHandleExistance 0000000000000b80 f   SmbiosDxe:SmbiosDxe.obj
 0001:00000928       GetAvailableSmbiosHandle   0000000000000be8 f   SmbiosDxe:SmbiosDxe.obj
 0001:000009d4       SmbiosAdd                  0000000000000c94 f   SmbiosDxe:SmbiosDxe.obj
 0001:00000cb0       SmbiosUpdateString         0000000000000f70 f   SmbiosDxe:SmbiosDxe.obj
 0001:000010d8       SmbiosRemove               0000000000001398 f   SmbiosDxe:SmbiosDxe.obj
 0001:00001278       SmbiosGetNext              0000000000001538 f   SmbiosDxe:SmbiosDxe.obj
 0001:0000139c       GetNextSmbiosRecord        000000000000165c f   SmbiosDxe:SmbiosDxe.obj
 0001:0000144c       SmbiosCreateTable          000000000000170c f   SmbiosDxe:SmbiosDxe.obj
 0001:000017d8       SmbiosCreate64BitTable     0000000000001a98 f   SmbiosDxe:SmbiosDxe.obj
 0001:00001ac0       SmbiosTableConstruction    0000000000001d80 f   SmbiosDxe:SmbiosDxe.obj
 0001:00001da4       SmbiosDriverEntryPoint     0000000000002064 f   SmbiosDxe:SmbiosDxe.obj
 0001:00001f6c       GetPcdProtocol             000000000000222c f   DxePcdLib:DxePcdLib.obj
 0001:00001ff8       InternalBaseLibIsListValid 00000000000022b8 f   BaseLib:LinkedList.obj
 0001:00002064       InsertTailList             0000000000002324 f   BaseLib:LinkedList.obj
 0001:000020b8       RemoveEntryList            0000000000002378 f   BaseLib:LinkedList.obj
 0001:00002120       AsciiStrLen                00000000000023e0 f   BaseLib:String.obj
 0001:0000218c       CalculateSum8              000000000000244c f   BaseLib:CheckSum.obj
 0001:00002208       StrnLenS                   00000000000024c8 f   BaseLib:SafeString.obj
 0001:00002260       AsciiStrCpyS               0000000000002520 f   BaseLib:SafeString.obj
 0001:000023a8       CopyMem                    0000000000002668 f   BaseMemoryLibRepStr:CopyMemWrapper.obj
 0001:00002444       CompareMem                 0000000000002704 f   BaseMemoryLibRepStr:CompareMemWrapper.obj
 0001:00002514       CompareGuid                00000000000027d4 f   BaseMemoryLibRepStr:MemLibGuid.obj
 0001:000025d8       ZeroMem                    0000000000002898 f   BaseMemoryLibRepStr:ZeroMemWrapper.obj
 0001:00002648       FreePages                  0000000000002908 f   UefiMemoryAllocationLib:MemoryAllocationLib.obj
 0001:000026c4       InternalAllocatePool       0000000000002984 f   UefiMemoryAllocationLib:MemoryAllocationLib.obj
 0001:000026f4       FreePool                   00000000000029b4 f   UefiMemoryAllocationLib:MemoryAllocationLib.obj
 0001:00002738       DebugPrint                 00000000000029f8 f   BaseDebugLibSerialPort:DebugLib.obj
 0001:0000275c       DebugPrintMarker           0000000000002a1c f   BaseDebugLibSerialPort:DebugLib.obj
 0001:000027e8       DebugAssert                0000000000002aa8 f   BaseDebugLibSerialPort:DebugLib.obj
 0001:00002840       EfiAcquireLockOrFail       0000000000002b00 f   UefiLib:UefiLib.obj
 0001:000028bc       EfiReleaseLock             0000000000002b7c f   UefiLib:UefiLib.obj
 0001:0000291c       GetHobList                 0000000000002bdc f   DxeHobLib:HobLib.obj
 0001:000029fc       GetFirstGuidHob            0000000000002cbc f   DxeHobLib:HobLib.obj
 0001:00002e3c       InternalQemuFwCfgDmaBytes  00000000000030fc f   QemuFwCfgDxeLib:QemuFwCfgDxe.obj
 0001:00003038       QemuFwCfgReadBytes         00000000000032f8 f   QemuFwCfgDxeLib:QemuFwCfgLib.obj
 0001:00003078       QemuFwCfgFindFile          0000000000003338 f   QemuFwCfgDxeLib:QemuFwCfgLib.obj
 0001:00003258       DetectSmbiosVersion        0000000000003518 f   DetectSmbiosVersionLib:DetectSmbiosVersionLib.obj
 0001:00003520       IoRead8                    00000000000037e0 f   BaseIoLibIntrinsicSev:IoLibMsc.obj
 0001:00003548       IoWrite16                  0000000000003808 f   BaseIoLibIntrinsicSev:IoLibMsc.obj
 0001:00003578       IoRead32                   0000000000003838 f   BaseIoLibIntrinsicSev:IoLibMsc.obj
 0001:000035c0       IoWrite32                  0000000000003880 f   BaseIoLibIntrinsicSev:IoLibMsc.obj
 0001:00003618       IoReadFifo8                00000000000038d8 f   BaseIoLibIntrinsicSev:IoLibFifoCc.obj
 0001:00003670       IsTdxGuest                 0000000000003930 f   BaseIoLibIntrinsicSev:IoLibInternalTdx.obj
 0001:0000369c       TdIoRead8                  000000000000395c f   BaseIoLibIntrinsicSev:IoLibInternalTdx.obj
 0001:000036ec       TdIoRead32                 00000000000039ac f   BaseIoLibIntrinsicSev:IoLibInternalTdx.obj
 0001:00003760       TdIoWrite8                 0000000000003a20 f   BaseIoLibIntrinsicSev:IoLibInternalTdx.obj
 0001:000037b0       TdIoWrite16                0000000000003a70 f   BaseIoLibIntrinsicSev:IoLibInternalTdx.obj
 0001:00003808       TdIoWrite32                0000000000003ac8 f   BaseIoLibIntrinsicSev:IoLibInternalTdx.obj
 0001:00003884       CpuDeadLoop                0000000000003b44 f   BaseLib:CpuDeadLoop.obj
 0001:000038b4       AsciiSPrint                0000000000003b74 f   BasePrintLib:PrintLib.obj
 0001:000038e0       BasePrintLibFillBuffer     0000000000003ba0 f   BasePrintLib:PrintLibInternal.obj
 0001:00003914       BasePrintLibValueToString  0000000000003bd4 f   BasePrintLib:PrintLibInternal.obj
 0001:00003980       BasePrintLibSPrintMarker   0000000000003c40 f   BasePrintLib:PrintLibInternal.obj
 0001:0000488c       BasePrintLibSPrint         0000000000004b4c f   BasePrintLib:PrintLibInternal.obj
 0001:000048b0       SerialPortWrite            0000000000004b70 f   PcAtSerialPortLib:SerialPortLib.obj
 0001:00004920       PciExpressRead32           0000000000004be0 f   BasePciExpressLib:PciExpressLib.obj
 0001:00004970       PciCf8Read32               0000000000004c30 f   BasePciCf8Lib:PciCf8Lib.obj
 0001:00004a1c       GetTdInfo                  0000000000004cdc f   TdxLib:TdInfo.obj
 0001:00004a80       TdSharedPageMask           0000000000004d40 f   TdxLib:TdInfo.obj
 0001:00004aac       MmioRead32                 0000000000004d6c f   BaseIoLibIntrinsicSev:IoLib.obj
 0001:00004b20       SaveAndDisableInterrupts   0000000000004de0 f   BaseLib:Cpu.obj
 0002:00000000       ??_C@_0CB@DMEJJJHA@?6ASSERT_EFI_ERROR?5?$CIStatus?5?$DN?5?$CFr?$CJ@ 0000000000004e20     UefiDriverEntryPoint:DriverEntryPoint.obj
 0002:00000028       ??_C@_0CH@BBNBJKHK@?$CB?$CI?$CI?$CIINTN?$CJ?$CIRETURN_STATUS?$CJ?$CIStatus@ 0000000000004e48     UefiDriverEntryPoint:DriverEntryPoint.obj
 0002:00000050       ??_C@_09HOFECMDB@SmbiosDxe@ 0000000000004e70     SmbiosDxe:AutoGen.obj
 0002:00000060       ??_C@_0CE@IBFOBMLB@?6ASSERT_RETURN_ERROR?5?$CIStatus?5?$DN?5@ 0000000000004e80     SmbiosDxe:AutoGen.obj
 0002:00000090       ??_C@_0IC@EHGCJLNF@d?3?2uefi_specs_personal_collecti@ 0000000000004eb0     SmbiosDxe:AutoGen.obj
 0002:00000118       ??_C@_0BF@NDBIKIKC@CR?5has?5Bad?5Signature@ 0000000000004f38     SmbiosDxe:SmbiosDxe.obj
 0002:00000130       ??_C@_0FF@PHPLBAMM@D?3?2uefi_specs_personal_collecti@ 0000000000004f50     SmbiosDxe:SmbiosDxe.obj
 0002:00000190       ??_C@_0FE@OBJNKBMB@SmbiosAdd?3?5Total?5length?5exceeds@ 0000000000004fb0     SmbiosDxe:SmbiosDxe.obj
 0002:000001f0       ??_C@_0ED@ICNFNOMO@SmbiosAdd?3?5Smbios?5type?5?$CFd?5with?5@ 0000000000005010     SmbiosDxe:SmbiosDxe.obj
 0002:00000240       ??_C@_0FE@IGIMMDHC@SmbiosAdd?3?5Total?5length?5exceeds@ 0000000000005060     SmbiosDxe:SmbiosDxe.obj
 0002:000002a0       ??_C@_0ED@KGJDGPHO@SmbiosAdd?3?5Smbios?5type?5?$CFd?5with?5@ 00000000000050c0     SmbiosDxe:SmbiosDxe.obj
 0002:000002f0       ??_C@_0EC@CICIGFJG@SmbiosUpdateString?3?5Total?5lengt@ 0000000000005110     SmbiosDxe:SmbiosDxe.obj
 0002:00000338       ??_C@_0DL@ECCBDBGM@SmbiosUpdateString?3?5New?5smbios?5@ 0000000000005158     SmbiosDxe:SmbiosDxe.obj
 0002:00000380       ??_C@_0EC@CBCIHPGG@SmbiosUpdateString?3?5Total?5lengt@ 00000000000051a0     SmbiosDxe:SmbiosDxe.obj
 0002:000003c8       ??_C@_0DL@GGGHIANM@SmbiosUpdateString?3?5New?5smbios?5@ 00000000000051e8     SmbiosDxe:SmbiosDxe.obj
 0002:00000408       ??_C@_0CI@HLPAAGA@SmbiosRemove?3?5remove?5from?532?9bi@ 0000000000005228     SmbiosDxe:SmbiosDxe.obj
 0002:00000430       ??_C@_0CI@CDPJLBNA@SmbiosRemove?3?5remove?5from?564?9bi@ 0000000000005250     SmbiosDxe:SmbiosDxe.obj
 0002:00000458       ??_C@_0DM@JOGMAGIK@SmbiosCreateTable?3?5Initialize?53@ 0000000000005278     SmbiosDxe:SmbiosDxe.obj
 0002:000004a0       ??_C@_0ED@LJGMCIFG@SmbiosCreateTable?5?$CI?$CJ?5could?5not?5@ 00000000000052c0     SmbiosDxe:SmbiosDxe.obj
 0002:000004e8       ??_C@_0BC@EHBJEKLC@SmbiosCreateTable@ 0000000000005308     SmbiosDxe:SmbiosDxe.obj
 0002:00000500       ??_C@_0CG@FCHPBJIJ@?$CFa?$CI?$CJ?5re?9allocate?5SMBIOS?532?9bit?5@ 0000000000005320     SmbiosDxe:SmbiosDxe.obj
 0002:00000528       ??_C@_0DL@KKHLCDP@SmbiosCreateTable?$CI?$CJ?5could?5not?5a@ 0000000000005348     SmbiosDxe:SmbiosDxe.obj
 0002:00000568       ??_C@_0CH@KONLPCCG@EntryPointStructure?9?$DOTableAddre@ 0000000000005388     SmbiosDxe:SmbiosDxe.obj
 0002:00000590       ??_C@_0DM@MCOOLJDL@SmbiosCreateTable?3?5Initialize?56@ 00000000000053b0     SmbiosDxe:SmbiosDxe.obj
 0002:000005d0       ??_C@_0EJ@OFCAMAEO@SmbiosCreate64BitTable?$CI?$CJ?5could?5@ 00000000000053f0     SmbiosDxe:SmbiosDxe.obj
 0002:00000620       ??_C@_0BH@JFHJFNGK@SmbiosCreate64BitTable@ 0000000000005440     SmbiosDxe:SmbiosDxe.obj
 0002:00000638       ??_C@_0CG@HGDJKIDJ@?$CFa?$CI?$CJ?5re?9allocate?5SMBIOS?564?9bit?5@ 0000000000005458     SmbiosDxe:SmbiosDxe.obj
 0002:00000660       ??_C@_0DM@HHHIKCKI@SmbiosCreateTable?$CI?$CJ?5could?5not?5a@ 0000000000005480     SmbiosDxe:SmbiosDxe.obj
 0002:000006a0       ??_C@_0CP@OKMABBNJ@Smbios30EntryPointStructure?9?$DOTa@ 00000000000054c0     SmbiosDxe:SmbiosDxe.obj
 0002:000006d0       ??_C@_04BPEHKPLM@_SM_@     00000000000054f0     SmbiosDxe:SmbiosDxe.obj
 0002:000006d8       ??_C@_05DFIAGNMD@_DMI_@    00000000000054f8     SmbiosDxe:SmbiosDxe.obj
 0002:000006e0       ??_C@_05LOCGMLNH@_SM3_@    0000000000005500     SmbiosDxe:SmbiosDxe.obj
 0002:000006f0       ??_C@_0EK@LEKBJBBB@RetrieveSmbiosFromHob?3?5Failed?5t@ 0000000000005510     SmbiosDxe:SmbiosDxe.obj
 0002:00000740       ??_C@_0EN@ENFGNHA@D?3?2uefi_specs_personal_collecti@ 0000000000005560     DxePcdLib:DxePcdLib.obj
 0002:00000790       ??_C@_0BF@OOKDELHM@mPcd?5?$CB?$DN?5?$CI?$CIvoid?5?$CK?$CJ?50?$CJ@ 00000000000055b0     DxePcdLib:DxePcdLib.obj
 0002:000007a8       ??_C@_0BH@IACGKAP@Buffer?5?$CB?$DN?5?$CI?$CIvoid?5?$CK?$CJ?50?$CJ@ 00000000000055c8     DxePcdLib:DxePcdLib.obj
 0002:000007c0       ??_C@_0BF@NJNGJMPC@List?5?$CB?$DN?5?$CI?$CIvoid?5?$CK?$CJ?50?$CJ@ 00000000000055e0     BaseLib:LinkedList.obj
 0002:000007e0       ??_C@_0EM@NCJPOFNN@D?3?2uefi_specs_personal_collecti@ 0000000000005600     BaseLib:LinkedList.obj
 0002:00000830       ??_C@_0CC@KDLPLAED@List?9?$DOForwardLink?5?$CB?$DN?5?$CI?$CIvoid?5?$CK?$CJ?5@ 0000000000005650     BaseLib:LinkedList.obj
 0002:00000858       ??_C@_0BP@IJJCCMAK@List?9?$DOBackLink?5?$CB?$DN?5?$CI?$CIvoid?5?$CK?$CJ?50?$CJ@ 0000000000005678     BaseLib:LinkedList.obj
 0002:00000878       ??_C@_0CG@LGIALJFK@InternalBaseLibIsListValid?5?$CILis@ 0000000000005698     BaseLib:LinkedList.obj
 0002:000008a0       ??_C@_0BF@NMBJJECB@?$CBIsListEmpty?5?$CIEntry?$CJ@ 00000000000056c0     BaseLib:LinkedList.obj
 0002:000008b8       ??_C@_0BH@MAAHKCPC@String?5?$CB?$DN?5?$CI?$CIvoid?5?$CK?$CJ?50?$CJ@ 00000000000056d8     BaseLib:String.obj
 0002:000008d0       ??_C@_0EI@LOLLHGDK@D?3?2uefi_specs_personal_collecti@ 00000000000056f0     BaseLib:String.obj
 0002:00000918       ??_C@_0CC@GFNLNIOC@?$CI?$CIUINTN?$CJString?5?$CG?50x00000001?$CJ?5?$DN?$DN@ 0000000000005738     BaseLib:String.obj
 0002:00000940       ??_C@_0DI@MDIKFADO@Length?5?$DM?5_gPcd_FixedAtBuild_Pcd@ 0000000000005760     BaseLib:String.obj
 0002:00000978       ??_C@_0BL@IKFBNFIL@AsciiStrSize?5?$CIFirstString?$CJ@ 0000000000005798     BaseLib:String.obj
 0002:00000998       ??_C@_0BM@EDNOKLLE@AsciiStrSize?5?$CISecondString?$CJ@ 00000000000057b8     BaseLib:String.obj
 0002:000009c0       ??_C@_0EK@EIAGJCGN@D?3?2uefi_specs_personal_collecti@ 00000000000057e0     BaseLib:CheckSum.obj
 0002:00000a10       ??_C@_0DI@FAOGOFLE@Length?5?$DM?$DN?5?$CI0xFFFFFFFFFFFFFFFFUL@ 0000000000005830     BaseLib:CheckSum.obj
 0002:00000a50       ??_C@_0EM@OAPOMMAE@D?3?2uefi_specs_personal_collecti@ 0000000000005870     BaseLib:SafeString.obj
 0002:00000aa0       ??_C@_0BO@ECNIOIHG@?$CIDestination?5?$CB?$DN?5?$CI?$CIvoid?5?$CK?$CJ?50?$CJ?$CJ@ 00000000000058c0     BaseLib:SafeString.obj
 0002:00000ac0       ??_C@_0EA@PDPDJJNN@?$CFa?$CI?$CFd?$CJ?5?$CFa?3?5SAFE_STRING_CONSTRAI@ 00000000000058e0     BaseLib:SafeString.obj
 0002:00000b00       ??_C@_0BJ@EAEEJIP@?$CISource?5?$CB?$DN?5?$CI?$CIvoid?5?$CK?$CJ?50?$CJ?$CJ@ 0000000000005920     BaseLib:SafeString.obj
 0002:00000b20       ??_C@_0P@PMIMLIHM@?$CIDestMax?5?$CB?$DN?50?$CJ@ 0000000000005940     BaseLib:SafeString.obj
 0002:00000b30       ??_C@_0BG@EEGIIOKH@?$CIDestMax?5?$DO?5SourceLen?$CJ@ 0000000000005950     BaseLib:SafeString.obj
 0002:00000b48       ??_C@_0BJ@CNKJJNE@?$CIBuffer?5?$CB?$DN?5?$CI?$CIvoid?5?$CK?$CJ?50?$CJ?$CJ@ 0000000000005968     BaseLib:SafeString.obj
 0002:00000b68       ??_C@_0N@OMPODJLB@AsciiStrCpyS@ 0000000000005988     BaseLib:SafeString.obj
 0002:00000b78       ??_C@_0DO@LJFOOPII@?$CIDestMax?5?$DM?$DN?5?$CI_gPcd_FixedAtBuild@ 0000000000005998     BaseLib:SafeString.obj
 0002:00000bc0       ??_C@_0FL@CDANCHFO@InternalSafeStringNoAsciiStrOve@ 00000000000059e0     BaseLib:SafeString.obj
 0002:00000c20       ??_C@_0N@KGHEHMDL@Divisor?5?$CB?$DN?50@ 0000000000005a40     BaseLib:DivU64x32.obj
 0002:00000c30       ??_C@_0ED@MKGCMJG@?$CILength?5?9?51?$CJ?5?$DM?$DN?5?$CI0xFFFFFFFFFFFF@ 0000000000005a50     BaseMemoryLibRepStr:CopyMemWrapper.obj
 0002:00000c80       ??_C@_0FM@IDPIEKJH@D?3?2uefi_specs_personal_collecti@ 0000000000005aa0     BaseMemoryLibRepStr:CopyMemWrapper.obj
 0002:00000ce0       ??_C@_0DO@MAOBOFEG@?$CILength?5?9?51?$CJ?5?$DM?$DN?5?$CI0xFFFFFFFFFFFF@ 0000000000005b00     BaseMemoryLibRepStr:CopyMemWrapper.obj
 0002:00000d20       ??_C@_0CC@JOEHDGKB@DestinationBuffer?5?$CB?$DN?5?$CI?$CIvoid?5?$CK?$CJ?5@ 0000000000005b40     BaseMemoryLibRepStr:CompareMemWrapper.obj
 0002:00000d50       ??_C@_0FP@MJKEJMKF@D?3?2uefi_specs_personal_collecti@ 0000000000005b70     BaseMemoryLibRepStr:CompareMemWrapper.obj
 0002:00000db0       ??_C@_0BN@MDMCNBCC@SourceBuffer?5?$CB?$DN?5?$CI?$CIvoid?5?$CK?$CJ?50?$CJ@ 0000000000005bd0     BaseMemoryLibRepStr:CompareMemWrapper.obj
 0002:00000dd0       ??_C@_0DG@EEENIGGL@Length?5?$DM?$DN?5?$CI0xFFFFFFFFFFFFFFFFUL@ 0000000000005bf0     BaseMemoryLibRepStr:MemLibGuid.obj
 0002:00000e10       ??_C@_0FM@DHFKCLFA@D?3?2uefi_specs_personal_collecti@ 0000000000005c30     BaseMemoryLibRepStr:ZeroMemWrapper.obj
 0002:00000e70       ??_C@_0L@LBCNCHJA@Pages?5?$CB?$DN?50@ 0000000000005c90     UefiMemoryAllocationLib:MemoryAllocationLib.obj
 0002:00000e80       ??_C@_0GF@KMHDEKMA@D?3?2uefi_specs_personal_collecti@ 0000000000005ca0     UefiMemoryAllocationLib:MemoryAllocationLib.obj
 0002:00000ee8       ??_C@_0BH@LKMBFCBF@Format?5?$CB?$DN?5?$CI?$CIvoid?5?$CK?$CJ?50?$CJ@ 0000000000005d08     BaseDebugLibSerialPort:DebugLib.obj
 0002:00000f00       ??_C@_0FJ@BNNHJMAJ@D?3?2uefi_specs_personal_collecti@ 0000000000005d20     BaseDebugLibSerialPort:DebugLib.obj
 0002:00000f60       ??_C@_0BI@NOCKJDBJ@ASSERT?5?$FL?$CFa?$FN?5?$CFa?$CI?$CFd?$CJ?3?5?$CFa?6@ 0000000000005d80     BaseDebugLibSerialPort:DebugLib.obj
 0002:00000f78       ??_C@_0BN@COECPDCC@gImageHandle?5?$CB?$DN?5?$CI?$CIvoid?5?$CK?$CJ?50?$CJ@ 0000000000005d98     UefiBootServicesTableLib:UefiBootServicesTableLib.obj
 0002:00000fa0       ??_C@_0GL@PJCPJLGM@D?3?2uefi_specs_personal_collecti@ 0000000000005dc0     UefiBootServicesTableLib:UefiBootServicesTableLib.obj
 0002:00001010       ??_C@_0BE@DGNHAHIL@gST?5?$CB?$DN?5?$CI?$CIvoid?5?$CK?$CJ?50?$CJ@ 0000000000005e30     UefiBootServicesTableLib:UefiBootServicesTableLib.obj
 0002:00001028       ??_C@_0BE@BDFJLGLN@gBS?5?$CB?$DN?5?$CI?$CIvoid?5?$CK?$CJ?50?$CJ@ 0000000000005e48     UefiBootServicesTableLib:UefiBootServicesTableLib.obj
 0002:00001040       ??_C@_0BE@OBDFIHND@gRT?5?$CB?$DN?5?$CI?$CIvoid?5?$CK?$CJ?50?$CJ@ 0000000000005e60     UefiRuntimeServicesTableLib:UefiRuntimeServicesTableLib.obj
 0002:00001060       ??_C@_0HB@NCAPNEDO@D?3?2uefi_specs_personal_collecti@ 0000000000005e80     UefiRuntimeServicesTableLib:UefiRuntimeServicesTableLib.obj
 0002:000010e0       ??_C@_0GP@HEOOPGAM@D?3?2uefi_specs_personal_collecti@ 0000000000005f00     UefiDevicePathLibDevicePathProtocol:UefiDevicePathLib.obj
 0002:00001150       ??_C@_0DC@CNNBPJA@mDevicePathLibDevicePathUtiliti@ 0000000000005f70     UefiDevicePathLibDevicePathProtocol:UefiDevicePathLib.obj
 0002:00001190       ??_C@_0EJ@PPOMJLJB@D?3?2uefi_specs_personal_collecti@ 0000000000005fb0     UefiLib:UefiLib.obj
 0002:000011e0       ??_C@_0BF@JGGLMCFN@Lock?5?$CB?$DN?5?$CI?$CIvoid?5?$CK?$CJ?50?$CJ@ 0000000000006000     UefiLib:UefiLib.obj
 0002:000011f8       ??_C@_0CD@PGOFFOAH@Lock?9?$DOLock?5?$CB?$DN?5EfiLockUninitiali@ 0000000000006018     UefiLib:UefiLib.obj
 0002:00001220       ??_C@_0BO@FHNOFLFJ@Lock?9?$DOLock?5?$DN?$DN?5EfiLockAcquired@ 0000000000006040     UefiLib:UefiLib.obj
 0002:00001240       ??_C@_0EK@CGIIDOCH@D?3?2uefi_specs_personal_collecti@ 0000000000006060     DxeHobLib:HobLib.obj
 0002:00001290       ??_C@_0BJ@OBFMLLDO@mHobList?5?$CB?$DN?5?$CI?$CIvoid?5?$CK?$CJ?50?$CJ@ 00000000000060b0     DxeHobLib:HobLib.obj
 0002:000012b0       ??_C@_0BJ@NOLLDKJB@HobStart?5?$CB?$DN?5?$CI?$CIvoid?5?$CK?$CJ?50?$CJ@ 00000000000060d0     DxeHobLib:HobLib.obj
 0002:000012d0       ??_C@_0BC@FEDIJHFF@?$CI?$CIBOOLEAN?$CJ?$CI0?$DN?$DN1?$CJ?$CJ@ 00000000000060f0     DxeHobLib:HobLib.obj
 0002:000012e8       ??_C@_0BP@LHBKJBMC@PlatformInfoHob?5is?5not?5found?4?6@ 0000000000006108     DxeAcpiTimerLib:DxeAcpiTimerLib.obj
 0002:00001310       ??_C@_0FH@PGONMIHN@D?3?2uefi_specs_personal_collecti@ 0000000000006130     DxeAcpiTimerLib:DxeAcpiTimerLib.obj
 0002:00001368       ??_C@_0BI@HAGPDMHJ@AcpiTimerLibConstructor@ 0000000000006188     DxeAcpiTimerLib:DxeAcpiTimerLib.obj
 0002:00001380       ??_C@_0CL@DGCOIACG@?$CFa?3?5Unknown?5Host?5Bridge?5Device?5@ 00000000000061a0     DxeAcpiTimerLib:DxeAcpiTimerLib.obj
 0002:000013b0       ??_C@_0BI@IJEGBDOG@FW?5CFG?5Signature?3?50x?$CFx?6@ 00000000000061d0     QemuFwCfgDxeLib:QemuFwCfgDxe.obj
 0002:000013c8       ??_C@_0BH@IDHABEEK@FW?5CFG?5Revision?3?50x?$CFx?6@ 00000000000061e8     QemuFwCfgDxeLib:QemuFwCfgDxe.obj
 0002:000013e0       ??_C@_0CE@MJBGNOEJ@QemuFwCfg?5interface?5not?5support@ 0000000000006200     QemuFwCfgDxeLib:QemuFwCfgDxe.obj
 0002:00001408       ??_C@_0CN@HEOCCDJJ@QemuFwCfg?5interface?5?$CIIO?5Port?$CJ?5i@ 0000000000006228     QemuFwCfgDxeLib:QemuFwCfgDxe.obj
 0002:00001438       ??_C@_0CJ@KLCLHHDJ@QemuFwCfg?5interface?5?$CIDMA?$CJ?5is?5su@ 0000000000006258     QemuFwCfgDxeLib:QemuFwCfgDxe.obj
 0002:00001468       ??_C@_0BE@ICMOEABH@QemuFwCfgInitialize@ 0000000000006288     QemuFwCfgDxeLib:QemuFwCfgDxe.obj
 0002:00001480       ??_C@_0DF@DPBJNHOO@QemuFwCfgDma?5?$CFa?3?$CFa?5Failed?5to?5lo@ 00000000000062a0     QemuFwCfgDxeLib:QemuFwCfgDxe.obj
 0002:000014c0       ??_C@_0FE@HOPLGIPD@D?3?2uefi_specs_personal_collecti@ 00000000000062e0     QemuFwCfgDxeLib:QemuFwCfgDxe.obj
 0002:00001518       ??_C@_0BK@BCAAPLAN@AllocFwCfgDmaAccessBuffer@ 0000000000006338     QemuFwCfgDxeLib:QemuFwCfgDxe.obj
 0002:00001538       ??_C@_0CM@GFEJKPGJ@?$CFa?3?$CFa?5failed?5to?5allocate?5FW_CFG@ 0000000000006358     QemuFwCfgDxeLib:QemuFwCfgDxe.obj
 0002:00001568       ??_C@_0CJ@KEMBAJAO@?$CFa?3?$CFa?5failed?5to?5Map?$CI?$CJ?5FW_CFG_DM@ 0000000000006388     QemuFwCfgDxeLib:QemuFwCfgDxe.obj
 0002:00001598       ??_C@_0DD@JKOFAKBE@?$CFa?3?$CFa?5failed?5to?5Map?$CI?$CJ?5?9?5request@ 00000000000063b8     QemuFwCfgDxeLib:QemuFwCfgDxe.obj
 0002:000015d0       ??_C@_0BJ@PJCCKKKO@FreeFwCfgDmaAccessBuffer@ 00000000000063f0     QemuFwCfgDxeLib:QemuFwCfgDxe.obj
 0002:000015f0       ??_C@_0CH@ECJOHDLF@?$CFa?3?$CFa?5failed?5to?5UnMap?$CI?$CJ?5Mapping@ 0000000000006410     QemuFwCfgDxeLib:QemuFwCfgDxe.obj
 0002:00001618       ??_C@_0BO@GNFEKELG@?$CFa?3?$CFa?5failed?5to?5Free?$CI?$CJ?50x?$CFLx?6@ 0000000000006438     QemuFwCfgDxeLib:QemuFwCfgDxe.obj
 0002:00001638       ??_C@_0BG@IBBEPALH@MapFwCfgDmaDataBuffer@ 0000000000006458     QemuFwCfgDxeLib:QemuFwCfgDxe.obj
 0002:00001650       ??_C@_0DA@PGHOGGFB@?$CFa?3?$CFa?5failed?5to?5Map?$CI?$CJ?5Address?50@ 0000000000006470     QemuFwCfgDxeLib:QemuFwCfgDxe.obj
 0002:00001680       ??_C@_0DC@GIJFHMNI@?$CFa?3?$CFa?5failed?5to?5Map?$CI?$CJ?5?9?5request@ 00000000000064a0     QemuFwCfgDxeLib:QemuFwCfgDxe.obj
 0002:000016b8       ??_C@_0BI@FJKLEDLA@UnmapFwCfgDmaDataBuffer@ 00000000000064d8     QemuFwCfgDxeLib:QemuFwCfgDxe.obj
 0002:000016d0       ??_C@_0BL@NIDDMANE@?$CIStatus?5?$CG?50x00000001?$CJ?5?$DN?$DN?50@ 00000000000064f0     QemuFwCfgDxeLib:QemuFwCfgDxe.obj
 0002:000016f0       ??_C@_0BD@DFJLKIGA@Select?5Item?3?50x?$CFx?6@ 0000000000006510     QemuFwCfgDxeLib:QemuFwCfgLib.obj
 0002:00001710       ??_C@_0BJ@CHHCKMFD@etc?1smbios?1smbios?9anchor@ 0000000000006530     DetectSmbiosVersionLib:DetectSmbiosVersionLib.obj
 0002:00001730       ??_C@_0BJ@EFEMKHJP@etc?1smbios?1smbios?9tables@ 0000000000006550     DetectSmbiosVersionLib:DetectSmbiosVersionLib.obj
 0002:00001750       ??_C@_0BE@FPBIDFAH@DetectSmbiosVersion@ 0000000000006570     DetectSmbiosVersionLib:DetectSmbiosVersionLib.obj
 0002:00001768       ??_C@_0CJ@POBNANLL@?$CFa?3?5SMBIOS?53?4x?5DocRev?5from?5QEMU@ 0000000000006588     DetectSmbiosVersionLib:DetectSmbiosVersionLib.obj
 0002:00001798       ??_C@_0CK@FMBEAILJ@?$CB?$CI?$CI?$CIINTN?$CJ?$CIRETURN_STATUS?$CJ?$CIPcdSta@ 00000000000065b8     DetectSmbiosVersionLib:DetectSmbiosVersionLib.obj
 0002:000017d0       ??_C@_0GC@GPJCLDIC@D?3?2uefi_specs_personal_collecti@ 00000000000065f0     DetectSmbiosVersionLib:DetectSmbiosVersionLib.obj
 0002:00001838       ??_C@_0CG@FJGEJOFD@?$CFa?3?5SMBIOS?5version?5from?5QEMU?3?50@ 0000000000006658     DetectSmbiosVersionLib:DetectSmbiosVersionLib.obj
 0002:00001860       ??_C@_0FF@GCKLFLDF@D?3?2uefi_specs_personal_collecti@ 0000000000006680     BaseIoLibIntrinsicSev:IoLibMsc.obj
 0002:000018b8       ??_C@_0BA@HCECIDGN@?$CIPort?5?$CG?53?$CJ?5?$DN?$DN?50@ 00000000000066d8     BaseIoLibIntrinsicSev:IoLibMsc.obj
 0002:000018d0       ??_C@_0FN@DOAHIAPG@D?3?2uefi_specs_personal_collecti@ 00000000000066f0     BaseIoLibIntrinsicSev:IoLibInternalTdx.obj
 0002:00001930       ??_C@_0BD@OMMAJMCK@?$CIAddress?5?$CG?53?$CJ?5?$DN?$DN?50@ 0000000000006750     BaseIoLibIntrinsicSev:IoLibInternalTdx.obj
 0002:00001950       ??_C@_0EL@GLNKFHII@D?3?2uefi_specs_personal_collecti@ 0000000000006770     BaseLib:Unaligned.obj
 0002:000019a0       ??_C@_0FH@MODEAFEI@D?3?2uefi_specs_personal_collecti@ 00000000000067c0     BasePrintLib:PrintLibInternal.obj
 0002:00001a00       ??_C@_0EB@HDGIDCIO@?$CIBufferSize?5?$DM?$DN?5?$CI_gPcd_FixedAtBu@ 0000000000006820     BasePrintLib:PrintLibInternal.obj
 0002:00001a48       ??_C@_0BJ@PPAKKDJG@?$CIFormat?5?$CB?$DN?5?$CI?$CIvoid?5?$CK?$CJ?50?$CJ?$CJ@ 0000000000006868     BasePrintLib:PrintLibInternal.obj
 0002:00001a70       ??_C@_0ED@LPDDCECB@?$CIBufferSize?5?$DM?$DN?5?$CI_gPcd_FixedAtBu@ 0000000000006890     BasePrintLib:PrintLibInternal.obj
 0002:00001ac0       ??_C@_0IM@BFJJFLGB@?$CIStrnLenS?5?$CI?$CICHAR16?5?$CK?$CJFormat?0?5?$CI_@ 00000000000068e0     BasePrintLib:PrintLibInternal.obj
 0002:00001b50       ??_C@_0ID@PLGJGION@?$CIAsciiStrnLenS?5?$CIFormat?0?5?$CI_gPcd_@ 0000000000006970     BasePrintLib:PrintLibInternal.obj
 0002:00001bd8       ??_C@_0O@MLOLIMFM@?$DMnull?5string?$DO@ 00000000000069f8     BasePrintLib:PrintLibInternal.obj
 0002:00001be8       ??_C@_0M@BJJDNPHK@?$DMnull?5guid?$DO@ 0000000000006a08     BasePrintLib:PrintLibInternal.obj
 0002:00001bf8       ??_C@_0DB@PMLHLBMO@?$CF08x?9?$CF04x?9?$CF04x?9?$CF02x?$CF02x?9?$CF02x?$CF02@ 0000000000006a18     BasePrintLib:PrintLibInternal.obj
 0002:00001c30       ??_C@_0M@LHGBCIKM@?$DMnull?5time?$DO@ 0000000000006a50     BasePrintLib:PrintLibInternal.obj
 0002:00001c40       ??_C@_0BK@FCPKCIDD@?$CF02d?1?$CF02d?1?$CF04d?5?5?$CF02d?3?$CF02d@ 0000000000006a60     BasePrintLib:PrintLibInternal.obj
 0002:00001c5c       ??_C@_04JIMNDDED@?$CF08X@  0000000000006a7c     BasePrintLib:PrintLibInternal.obj
 0002:00001c64       ??_C@_02PCIJFNDE@?$AN?6@   0000000000006a84     BasePrintLib:PrintLibInternal.obj
 0002:00001c68       ??_C@_01LIIJDEN@?$AN@      0000000000006a88     BasePrintLib:PrintLibInternal.obj
 0002:00001c70       mWarningString             0000000000006a90     BasePrintLib:PrintLibInternal.obj
 0002:00001d40       mErrorString               0000000000006b60     BasePrintLib:PrintLibInternal.obj
 0002:00002020       mHexStr                    0000000000006e40     BasePrintLib:PrintLibInternal.obj
 0002:00002030       ??_C@_0BO@BAKALPJK@?$CI?$CIAddress?$CJ?5?$CG?5?$HO0xfffffff?$CJ?5?$DN?$DN?50@ 0000000000006e50     BasePciExpressLib:PciExpressLib.obj
 0002:00002050       ??_C@_0FJ@LPMKGGAK@D?3?2uefi_specs_personal_collecti@ 0000000000006e70     BasePciExpressLib:PciExpressLib.obj
 0002:000020b0       ??_C@_0FB@PDIKDBMH@D?3?2uefi_specs_personal_collecti@ 0000000000006ed0     BasePciCf8Lib:PciCf8Lib.obj
 0002:00002108       ??_C@_0CG@EDKLCMBO@?$CI?$CIAddress?$CJ?5?$CG?5?$CI?$HO0xffff0ff?5?$HM?5?$CI3?$CJ?$CJ@ 0000000000006f28     BasePciCf8Lib:PciCf8Lib.obj
 0002:00002130       ??_C@_0CB@GEABOFIF@Failed?5call?5TDCALL_TDINFO?4?5?$CFllx@ 0000000000006f50     TdxLib:TdInfo.obj
 0002:00002160       ??_C@_0FC@MAJHMCGF@D?3?2uefi_specs_personal_collecti@ 0000000000006f80     BaseIoLibIntrinsicSev:IoLib.obj
 0002:000021c0       ??_C@_0FE@LIGPAOFO@D?3?2uefi_specs_personal_collecti@ 0000000000006fe0     BaseLib:DivU64x32Remainder.obj
 0002:00002268       __volatile_metadata        0000000000007088     <linker-defined>
 0003:00000000       gUniversalPayloadSmbios3TableGuid 0000000000007240     SmbiosDxe:AutoGen.obj
 0003:00000010       gPcdProtocolGuid           0000000000007250     SmbiosDxe:AutoGen.obj
 0003:00000020       gEfiSmbiosProtocolGuid     0000000000007260     SmbiosDxe:AutoGen.obj
 0003:00000030       gUefiOvmfPkgPlatformInfoGuid 0000000000007270     SmbiosDxe:AutoGen.obj
 0003:00000040       gEfiDevicePathUtilitiesProtocolGuid 0000000000007280     SmbiosDxe:AutoGen.obj
 0003:00000050       gEfiSmbios3TableGuid       0000000000007290     SmbiosDxe:AutoGen.obj
 0003:00000060       gEfiSmbiosTableGuid        00000000000072a0     SmbiosDxe:AutoGen.obj
 0003:00000070       gEfiHobListGuid            00000000000072b0     SmbiosDxe:AutoGen.obj
 0003:00000080       gEdkiiIoMmuProtocolGuid    00000000000072c0     SmbiosDxe:AutoGen.obj
 0003:00000090       gUniversalPayloadSmbiosTableGuid 00000000000072d0     SmbiosDxe:AutoGen.obj
 0003:000000a0       Smbios30EntryPointStructureData 00000000000072e0     SmbiosDxe:SmbiosDxe.obj
 0003:000000c0       mIsSmbiosTableValid        0000000000007300     SmbiosDxe:SmbiosDxe.obj
 0003:000000e0       EntryPointStructureData    0000000000007320     SmbiosDxe:SmbiosDxe.obj
 0003:00000100       Smbios30EntryPointStructure 0000000000007340     SmbiosDxe:SmbiosDxe.obj
 0003:00000108       mPre64BitAllocatedPages    0000000000007348     SmbiosDxe:SmbiosDxe.obj
 0003:00000110       EntryPointStructure        0000000000007350     SmbiosDxe:SmbiosDxe.obj
 0003:00000118       mPreAllocatedPages         0000000000007358     SmbiosDxe:SmbiosDxe.obj
 0003:00000120       mPcd                       0000000000007360     DxePcdLib:DxePcdLib.obj
 0003:00000130       gST                        0000000000007370     UefiBootServicesTableLib:UefiBootServicesTableLib.obj
 0003:00000138       gBS                        0000000000007378     UefiBootServicesTableLib:UefiBootServicesTableLib.obj
 0003:00000140       gImageHandle               0000000000007380     UefiBootServicesTableLib:UefiBootServicesTableLib.obj
 0003:00000148       gRT                        0000000000007388     UefiRuntimeServicesTableLib:UefiRuntimeServicesTableLib.obj
 0003:00000150       mDevicePathLibDevicePathUtilities 0000000000007390     UefiDevicePathLibDevicePathProtocol:UefiDevicePathLib.obj
 0003:00000158       mHobList                   0000000000007398     DxeHobLib:HobLib.obj
 0003:00000180       gParity                    00000000000073c0     PcAtSerialPortLib:SerialPortLib.obj
 0003:00000181       gBreakSet                  00000000000073c1     PcAtSerialPortLib:SerialPortLib.obj
 0003:00000182       mTdDataReturned            00000000000073c2     TdxLib:TdInfo.obj
 0003:00000188       mTdSharedPageMask          00000000000073c8     TdxLib:TdInfo.obj
 0003:000001a0       mPrivateData               00000000000073e0     <common>

 entry point at        0001:00000364

 Static symbols

 0001:0000001a       InternalMemCopyMem.0       00000000000002da     BaseMemoryLibRepStr:CopyMem.obj
 0001:0000002a       @CopyBackward              00000000000002ea     BaseMemoryLibRepStr:CopyMem.obj
 0001:00000033       @CopyBytes                 00000000000002f3     BaseMemoryLibRepStr:CopyMem.obj
 0001:000000ba       @UseRepIo                  000000000000037a     BaseIoLibIntrinsicSev:IoFifoSev.obj
 0001:000000bc       @SevNoRepIo_Done           000000000000037c     BaseIoLibIntrinsicSev:IoFifoSev.obj
 0001:000000d4       @IoReadFifo8_NoRep         0000000000000394     BaseIoLibIntrinsicSev:IoFifoSev.obj
 0001:000000d6       @IoReadFifo8_Loop          0000000000000396     BaseIoLibIntrinsicSev:IoFifoSev.obj
 0001:000000de       @IoReadFifo8_Done          000000000000039e     BaseIoLibIntrinsicSev:IoFifoSev.obj
 0001:000000f7       @IoReadFifo16_NoRep        00000000000003b7     BaseIoLibIntrinsicSev:IoFifoSev.obj
 0001:000000f9       @IoReadFifo16_Loop         00000000000003b9     BaseIoLibIntrinsicSev:IoFifoSev.obj
 0001:00000104       @IoReadFifo16_Done         00000000000003c4     BaseIoLibIntrinsicSev:IoFifoSev.obj
 0001:0000011c       @IoReadFifo32_NoRep        00000000000003dc     BaseIoLibIntrinsicSev:IoFifoSev.obj
 0001:0000011e       @IoReadFifo32_Loop         00000000000003de     BaseIoLibIntrinsicSev:IoFifoSev.obj
 0001:00000127       @IoReadFifo32_Done         00000000000003e7     BaseIoLibIntrinsicSev:IoFifoSev.obj
 0001:0000013f       @IoWriteFifo8_NoRep        00000000000003ff     BaseIoLibIntrinsicSev:IoFifoSev.obj
 0001:00000141       @IoWriteFifo8_Loop         0000000000000401     BaseIoLibIntrinsicSev:IoFifoSev.obj
 0001:00000149       @IoWriteFifo8_Done         0000000000000409     BaseIoLibIntrinsicSev:IoFifoSev.obj
 0001:00000162       @IoWriteFifo16_NoRep       0000000000000422     BaseIoLibIntrinsicSev:IoFifoSev.obj
 0001:00000164       @IoWriteFifo16_Loop        0000000000000424     BaseIoLibIntrinsicSev:IoFifoSev.obj
 0001:0000016f       @IoWriteFifo16_Done        000000000000042f     BaseIoLibIntrinsicSev:IoFifoSev.obj
 0001:00000187       @IoWriteFifo32_NoRep       0000000000000447     BaseIoLibIntrinsicSev:IoFifoSev.obj
 0001:00000189       @IoWriteFifo32_Loop        0000000000000449     BaseIoLibIntrinsicSev:IoFifoSev.obj
 0001:00000192       @IoWriteFifo32_Done        0000000000000452     BaseIoLibIntrinsicSev:IoFifoSev.obj
 0001:000001f9       TdVmCall.no_return_data    00000000000004b9     BaseLib:TdVmcall.obj
 0001:0000031b       TdCall.exit                00000000000005db     BaseLib:TdCall.obj
 0001:00001b28       IsValidSmbios20Table       0000000000001de8 f   SmbiosDxe:SmbiosDxe.obj
 0001:00001bf0       IsValidSmbios30Table       0000000000001eb0 f   SmbiosDxe:SmbiosDxe.obj
 0001:00001c7c       ParseAndAddExistingSmbiosTable 0000000000001f3c f   SmbiosDxe:SmbiosDxe.obj
 0001:00002a90       AllocFwCfgDmaAccessBuffer  0000000000002d50 f   QemuFwCfgDxeLib:QemuFwCfgDxe.obj
 0001:00002c3c       FreeFwCfgDmaAccessBuffer   0000000000002efc f   QemuFwCfgDxeLib:QemuFwCfgDxe.obj
 0001:00002d10       MapFwCfgDmaDataBuffer      0000000000002fd0 f   QemuFwCfgDxeLib:QemuFwCfgDxe.obj
 0001:000034c8       ConfidentialComputingGuestHas 0000000000003788 f   DxeMemEncryptSevLib:DxeMemEncryptSevLibInternal.obj
 0003:00000128       mCcProbeGuestType          0000000000007368     DxeCcProbeLib:DxeCcProbeLib.obj
 0003:00000129       mCcProbed                  0000000000007369     DxeCcProbeLib:DxeCcProbeLib.obj
 0003:00000160       mQemuFwCfgSupported        00000000000073a0     QemuFwCfgDxeLib:QemuFwCfgDxe.obj
 0003:00000168       mCurrentAttr               00000000000073a8     DxeMemEncryptSevLib:DxeMemEncryptSevLibInternal.obj
 0003:00000170       mCurrentAttrRead           00000000000073b0     DxeMemEncryptSevLib:DxeMemEncryptSevLibInternal.obj
 0003:00000178       mDeadLoopComparator        00000000000073b8     BaseLib:CpuDeadLoop.obj
 0003:00000190       mRunningOnQ35              00000000000073d0     DxePciLibI440FxQ35:PciLib.obj
 0003:00000191       mQemuFwCfgDmaSupported     00000000000073d1     QemuFwCfgDxeLib:QemuFwCfgDxe.obj
 0003:00000198       mIoMmuProtocol             00000000000073d8     QemuFwCfgDxeLib:QemuFwCfgDxe.obj
 0005:00000000       $unwind$SmbiosTableConstruction 00000000000077a0     SmbiosDxe:SmbiosDxe.obj
 0005:00000000       $unwind$IoRead32           00000000000077a0     BaseIoLibIntrinsicSev:IoLibMsc.obj
 0005:00000000       $unwind$IoWrite16          00000000000077a0     BaseIoLibIntrinsicSev:IoLibMsc.obj
 0005:00000000       $unwind$SaveAndDisableInterrupts 00000000000077a0     BaseLib:Cpu.obj
 0005:00000000       $unwind$InternalBaseLibIsListValid 00000000000077a0     BaseLib:LinkedList.obj
 0005:00000000       $unwind$RemoveEntryList    00000000000077a0     BaseLib:LinkedList.obj
 0005:00000000       $unwind$StrnLenS           00000000000077a0     BaseLib:SafeString.obj
 0005:00000000       $unwind$PciExpressRead32   00000000000077a0     BasePciExpressLib:PciExpressLib.obj
 0005:00000000       $unwind$_ModuleEntryPoint  00000000000077a0     UefiDriverEntryPoint:DriverEntryPoint.obj
 0005:00000000       $unwind$EfiAcquireLockOrFail 00000000000077a0     UefiLib:UefiLib.obj
 0005:00000000       $unwind$EfiReleaseLock     00000000000077a0     UefiLib:UefiLib.obj
 0005:00000008       $unwind$ProcessLibraryConstructorList 00000000000077a8     SmbiosDxe:AutoGen.obj
 0005:00000018       $unwind$CheckSmbiosHandleExistance 00000000000077b8     SmbiosDxe:SmbiosDxe.obj
 0005:00000018       $unwind$GetNextSmbiosRecord 00000000000077b8     SmbiosDxe:SmbiosDxe.obj
 0005:00000018       $unwind$IoReadFifo8        00000000000077b8     BaseIoLibIntrinsicSev:IoLibFifoCc.obj
 0005:00000018       $unwind$CalculateSum8      00000000000077b8     BaseLib:CheckSum.obj
 0005:00000018       $unwind$BasePrintLibValueToString 00000000000077b8     BasePrintLib:PrintLibInternal.obj
 0005:00000018       $unwind$GetHobList         00000000000077b8     DxeHobLib:HobLib.obj
 0005:00000018       $unwind$SerialPortWrite    00000000000077b8     PcAtSerialPortLib:SerialPortLib.obj
 0005:00000028       $unwind$GetAvailableSmbiosHandle 00000000000077c8     SmbiosDxe:SmbiosDxe.obj
 0005:00000040       $unwind$SmbiosAdd          00000000000077e0     SmbiosDxe:SmbiosDxe.obj
 0005:00000058       $unwind$SmbiosUpdateString 00000000000077f8     SmbiosDxe:SmbiosDxe.obj
 0005:00000070       $unwind$SmbiosGetNext      0000000000007810     SmbiosDxe:SmbiosDxe.obj
 0005:00000070       $unwind$SmbiosRemove       0000000000007810     SmbiosDxe:SmbiosDxe.obj
 0005:0000008c       $unwind$SmbiosCreateTable  000000000000782c     SmbiosDxe:SmbiosDxe.obj
 0005:000000a0       $unwind$SmbiosCreate64BitTable 0000000000007840     SmbiosDxe:SmbiosDxe.obj
 0005:000000b0       $unwind$IsValidSmbios20Table 0000000000007850     SmbiosDxe:SmbiosDxe.obj
 0005:000000c8       $unwind$IsValidSmbios30Table 0000000000007868     SmbiosDxe:SmbiosDxe.obj
 0005:000000dc       $unwind$ParseAndAddExistingSmbiosTable 000000000000787c     SmbiosDxe:SmbiosDxe.obj
 0005:000000dc       $unwind$CompareMem         000000000000787c     BaseMemoryLibRepStr:CompareMemWrapper.obj
 0005:000000dc       $unwind$CopyMem            000000000000787c     BaseMemoryLibRepStr:CopyMemWrapper.obj
 0005:000000dc       $unwind$PciCf8Read32       000000000000787c     BasePciCf8Lib:PciCf8Lib.obj
 0005:000000dc       $unwind$GetFirstGuidHob    000000000000787c     DxeHobLib:HobLib.obj
 0005:000000f0       $unwind$SmbiosDriverEntryPoint 0000000000007890     SmbiosDxe:SmbiosDxe.obj
 0005:00000100       $unwind$IoRead8            00000000000078a0     BaseIoLibIntrinsicSev:IoLibMsc.obj
 0005:00000100       $unwind$CpuDeadLoop        00000000000078a0     BaseLib:CpuDeadLoop.obj
 0005:00000100       $unwind$GetPcdProtocol     00000000000078a0     DxePcdLib:DxePcdLib.obj
 0005:00000100       $unwind$TdSharedPageMask   00000000000078a0     TdxLib:TdInfo.obj
 0005:00000100       $unwind$FreePool           00000000000078a0     UefiMemoryAllocationLib:MemoryAllocationLib.obj
 0005:00000100       $unwind$InternalAllocatePool 00000000000078a0     UefiMemoryAllocationLib:MemoryAllocationLib.obj
 0005:00000100       $unwind$ConfidentialComputingGuestHas 00000000000078a0     DxeMemEncryptSevLib:DxeMemEncryptSevLibInternal.obj
 0005:00000108       $unwind$IoWrite32          00000000000078a8     BaseIoLibIntrinsicSev:IoLibMsc.obj
 0005:00000108       $unwind$InsertTailList     00000000000078a8     BaseLib:LinkedList.obj
 0005:00000108       $unwind$AsciiStrLen        00000000000078a8     BaseLib:String.obj
 0005:00000108       $unwind$ZeroMem            00000000000078a8     BaseMemoryLibRepStr:ZeroMemWrapper.obj
 0005:00000108       $unwind$FreePages          00000000000078a8     UefiMemoryAllocationLib:MemoryAllocationLib.obj
 0005:00000114       $unwind$AsciiStrCpyS       00000000000078b4     BaseLib:SafeString.obj
 0005:0000011c       $unwind$CompareGuid        00000000000078bc     BaseMemoryLibRepStr:MemLibGuid.obj
 0005:00000134       $unwind$DebugPrint         00000000000078d4     BaseDebugLibSerialPort:DebugLib.obj
 0005:0000013c       $unwind$DebugPrintMarker   00000000000078dc     BaseDebugLibSerialPort:DebugLib.obj
 0005:00000150       $unwind$DebugAssert        00000000000078f0     BaseDebugLibSerialPort:DebugLib.obj
 0005:00000158       $unwind$AllocFwCfgDmaAccessBuffer 00000000000078f8     QemuFwCfgDxeLib:QemuFwCfgDxe.obj
 0005:00000168       $unwind$FreeFwCfgDmaAccessBuffer 0000000000007908     QemuFwCfgDxeLib:QemuFwCfgDxe.obj
 0005:00000178       $unwind$MapFwCfgDmaDataBuffer 0000000000007918     QemuFwCfgDxeLib:QemuFwCfgDxe.obj
 0005:0000018c       $unwind$InternalQemuFwCfgDmaBytes 000000000000792c     QemuFwCfgDxeLib:QemuFwCfgDxe.obj
 0005:0000019c       $unwind$QemuFwCfgFindFile  000000000000793c     QemuFwCfgDxeLib:QemuFwCfgLib.obj
 0005:000001b4       $unwind$DetectSmbiosVersion 0000000000007954     DetectSmbiosVersionLib:DetectSmbiosVersionLib.obj
 0005:000001c4       $unwind$TdIoRead8          0000000000007964     BaseIoLibIntrinsicSev:IoLibInternalTdx.obj
 0005:000001cc       $unwind$MmioRead32         000000000000796c     BaseIoLibIntrinsicSev:IoLib.obj
 0005:000001cc       $unwind$TdIoRead32         000000000000796c     BaseIoLibIntrinsicSev:IoLibInternalTdx.obj
 0005:000001cc       $unwind$TdIoWrite16        000000000000796c     BaseIoLibIntrinsicSev:IoLibInternalTdx.obj
 0005:000001cc       $unwind$TdIoWrite8         000000000000796c     BaseIoLibIntrinsicSev:IoLibInternalTdx.obj
 0005:000001d4       $unwind$TdIoWrite32        0000000000007974     BaseIoLibIntrinsicSev:IoLibInternalTdx.obj
 0005:000001e0       $unwind$AsciiSPrint        0000000000007980     BasePrintLib:PrintLib.obj
 0005:000001e8       $unwind$BasePrintLibSPrintMarker 0000000000007988     BasePrintLib:PrintLibInternal.obj
 0005:00000204       $unwind$BasePrintLibSPrint 00000000000079a4     BasePrintLib:PrintLibInternal.obj
 0005:0000020c       $unwind$GetTdInfo          00000000000079ac     TdxLib:TdInfo.obj
