 AtaAtapiPassThruDxe

 Timestamp is 6725e495 (Sat Nov  2 16:36:37 2024)

 Preferred load address is 0000000000000000

 Start         Length     Name                   Class
 0001:00000000 000001f8H .text                   CODE
 0001:000001f8 00009747H .text$mn                CODE
 0002:00000000 00002808H .rdata                  DATA
 0002:00002808 00000040H .rdata$voltmd           DATA
 0002:00002848 00000170H .rdata$zzzdbg           DATA
 0003:00000000 00000380H .data                   DATA
 0003:00000380 00000070H .bss                    DATA
 0004:00000000 00000630H .pdata                  DATA
 0005:00000000 000004bcH .xdata                  DATA

  Address         Publics by Value              Rva+Base               Lib:Object

 0000:00000000       __arm64x_redirection_metadata 0000000000000000     <absolute>
 0000:00000000       __x64_code_ranges_to_entry_points_count 0000000000000000     <absolute>
 0000:00000000       __guard_iat_count          0000000000000000     <absolute>
 0000:00000000       __guard_longjmp_count      0000000000000000     <absolute>
 0000:00000000       __dynamic_value_reloc_table 0000000000000000     <absolute>
 0000:00000000       __hybrid_auxiliary_iat     0000000000000000     <absolute>
 0000:00000000       __hybrid_auxiliary_iat_copy 0000000000000000     <absolute>
 0000:00000000       __guard_iat_table          0000000000000000     <absolute>
 0000:00000000       __guard_longjmp_table      0000000000000000     <absolute>
 0000:00000000       __x64_code_ranges_to_entry_points 0000000000000000     <absolute>
 0000:00000000       __guard_fids_count         0000000000000000     <absolute>
 0000:00000000       __AbsoluteZero             0000000000000000     <absolute>
 0000:00000000       __guard_check_icall_a64n_fptr 0000000000000000     <absolute>
 0000:00000000       __arm64x_extra_rfe_table   0000000000000000     <absolute>
 0000:00000000       __guard_fids_table         0000000000000000     <absolute>
 0000:00000000       __hybrid_code_map          0000000000000000     <absolute>
 0000:00000000       __hybrid_code_map_count    0000000000000000     <absolute>
 0000:00000000       __arm64x_extra_rfe_table_size 0000000000000000     <absolute>
 0000:00000000       __guard_flags              0000000000000000     <absolute>
 0000:00000000       __guard_eh_cont_count      0000000000000000     <absolute>
 0000:00000000       __arm64x_redirection_metadata_count 0000000000000000     <absolute>
 0000:00000000       __enclave_config           0000000000000000     <absolute>
 0000:00000000       __guard_eh_cont_table      0000000000000000     <absolute>
 0000:00000000       __arm64x_native_entrypoint 0000000000000000     <absolute>
 0001:00000000       InternalMemCopyMem         00000000000002c0     BaseMemoryLibRepStr:CopyMem.obj
 0001:00000040       InternalMemZeroMem         0000000000000300     BaseMemoryLibRepStr:ZeroMem.obj
 0001:00000060       InternalMemCompareMem      0000000000000320     BaseMemoryLibRepStr:CompareMem.obj
 0001:00000080       InternalMemSetMem          0000000000000340     BaseMemoryLibRepStr:SetMem.obj
 0001:000000a0       InternalMemSetMem64        0000000000000360     BaseMemoryLibRepStr:SetMem64.obj
 0001:000000c0       InternalMemSetMem32        0000000000000380     BaseMemoryLibRepStr:SetMem32.obj
 0001:000000e0       CpuPause                   00000000000003a0     BaseLib:CpuPause.obj
 0001:000000f0       TdVmCall                   00000000000003b0     BaseLib:TdVmcall.obj
 0001:00000170       EnableInterrupts           0000000000000430     BaseLib:EnableInterrupts.obj
 0001:00000180       DisableInterrupts          0000000000000440     BaseLib:DisableInterrupts.obj
 0001:00000190       AsmReadEflags              0000000000000450     BaseLib:ReadEflags.obj
 0001:000001a0       TdCall                     0000000000000460     BaseLib:TdCall.obj
 0001:000001f8       _ModuleEntryPoint          00000000000004b8 f   UefiDriverEntryPoint:DriverEntryPoint.obj
 0001:00000214       ProcessLibraryConstructorList 00000000000004d4 f   AtaAtapiPassThruDxe:AutoGen.obj
 0001:000005b0       ProcessModuleEntryPointList 0000000000000870 f   AtaAtapiPassThruDxe:AutoGen.obj
 0001:00000688       AtaPassThruPassThruExecute 0000000000000948 f   AtaAtapiPassThruDxe:AtaAtapiPassThru.obj
 0001:000009f4       AsyncNonBlockingTransferRoutine 0000000000000cb4 f   AtaAtapiPassThruDxe:AtaAtapiPassThru.obj
 0001:00000abc       AtaAtapiPassThruSupported  0000000000000d7c f   AtaAtapiPassThruDxe:AtaAtapiPassThru.obj
 0001:00000c04       AtaAtapiPassThruStart      0000000000000ec4 f   AtaAtapiPassThruDxe:AtaAtapiPassThru.obj
 0001:00000f54       AtaAtapiPassThruStop       0000000000001214 f   AtaAtapiPassThruDxe:AtaAtapiPassThru.obj
 0001:0000119c       SearchDeviceInfoList       000000000000145c f   AtaAtapiPassThruDxe:AtaAtapiPassThru.obj
 0001:00001268       CreateNewDeviceInfo        0000000000001528 f   AtaAtapiPassThruDxe:AtaAtapiPassThru.obj
 0001:00001324       DestroyDeviceInfoList      00000000000015e4 f   AtaAtapiPassThruDxe:AtaAtapiPassThru.obj
 0001:000013c0       DestroyAsynTaskList        0000000000001680 f   AtaAtapiPassThruDxe:AtaAtapiPassThru.obj
 0001:00001490       EnumerateAttachedDevice    0000000000001750 f   AtaAtapiPassThruDxe:AtaAtapiPassThru.obj
 0001:00001558       AtaPassThruPassThru        0000000000001818 f   AtaAtapiPassThruDxe:AtaAtapiPassThru.obj
 0001:000017f4       AtaPassThruGetNextPort     0000000000001ab4 f   AtaAtapiPassThruDxe:AtaAtapiPassThru.obj
 0001:00001954       AtaPassThruGetNextDevice   0000000000001c14 f   AtaAtapiPassThruDxe:AtaAtapiPassThru.obj
 0001:00001ae4       AtaPassThruBuildDevicePath 0000000000001da4 f   AtaAtapiPassThruDxe:AtaAtapiPassThru.obj
 0001:00001be8       AtaPassThruGetDevice       0000000000001ea8 f   AtaAtapiPassThruDxe:AtaAtapiPassThru.obj
 0001:00001cf4       ExtScsiPassThruResetChannel 0000000000001fb4 f   AtaAtapiPassThruDxe:AtaAtapiPassThru.obj
 0001:00001cf4       AtaPassThruResetPort       0000000000001fb4 f   AtaAtapiPassThruDxe:AtaAtapiPassThru.obj
 0001:00001cf8       AtaPassThruResetDevice     0000000000001fb8 f   AtaAtapiPassThruDxe:AtaAtapiPassThru.obj
 0001:00001d74       AtaPacketRequestSense      0000000000002034 f   AtaAtapiPassThruDxe:AtaAtapiPassThru.obj
 0001:00001e18       ExtScsiPassThruPassThru    00000000000020d8 f   AtaAtapiPassThruDxe:AtaAtapiPassThru.obj
 0001:000020e4       ExtScsiPassThruGetNextTargetLun 00000000000023a4 f   AtaAtapiPassThruDxe:AtaAtapiPassThru.obj
 0001:000022d0       ExtScsiPassThruBuildDevicePath 0000000000002590 f   AtaAtapiPassThruDxe:AtaAtapiPassThru.obj
 0001:000023fc       ExtScsiPassThruGetTargetLun 00000000000026bc f   AtaAtapiPassThruDxe:AtaAtapiPassThru.obj
 0001:0000257c       ExtScsiPassThruResetTargetLun 000000000000283c f   AtaAtapiPassThruDxe:AtaAtapiPassThru.obj
 0001:000025f8       ExtScsiPassThruGetNextTarget 00000000000028b8 f   AtaAtapiPassThruDxe:AtaAtapiPassThru.obj
 0001:000027ac       AhciReadReg                0000000000002a6c f   AtaAtapiPassThruDxe:AhciMode.obj
 0001:00002810       AhciWriteReg               0000000000002ad0 f   AtaAtapiPassThruDxe:AhciMode.obj
 0001:00002870       AhciAndReg                 0000000000002b30 f   AtaAtapiPassThruDxe:AhciMode.obj
 0001:000028cc       AhciOrReg                  0000000000002b8c f   AtaAtapiPassThruDxe:AhciMode.obj
 0001:00002928       AhciWaitMmioSet            0000000000002be8 f   AtaAtapiPassThruDxe:AhciMode.obj
 0001:000029c8       AhciDumpPortStatus         0000000000002c88 f   AtaAtapiPassThruDxe:AhciMode.obj
 0001:00002a78       AhciDisableFisReceive      0000000000002d38 f   AtaAtapiPassThruDxe:AhciMode.obj
 0001:00002af8       AhciBuildCommand           0000000000002db8 f   AtaAtapiPassThruDxe:AhciMode.obj
 0001:00002cc0       AhciBuildCommandFis        0000000000002f80 f   AtaAtapiPassThruDxe:AhciMode.obj
 0001:00002d38       AhciWaitDeviceReady        0000000000002ff8 f   AtaAtapiPassThruDxe:AhciMode.obj
 0001:00002dfc       AhciRecoverPortError       00000000000030bc f   AtaAtapiPassThruDxe:AhciMode.obj
 0001:00002f48       AhciShouldCmdBeRetried     0000000000003208 f   AtaAtapiPassThruDxe:AhciMode.obj
 0001:00002fcc       AhciCheckFisReceived       000000000000328c f   AtaAtapiPassThruDxe:AhciMode.obj
 0001:00003074       AhciWaitUntilFisReceived   0000000000003334 f   AtaAtapiPassThruDxe:AhciMode.obj
 0001:00003114       AhciPrintCommandBlock      00000000000033d4 f   AtaAtapiPassThruDxe:AhciMode.obj
 0001:00003228       AhciPrintStatusBlock       00000000000034e8 f   AtaAtapiPassThruDxe:AhciMode.obj
 0001:00003280       AhciPioTransfer            0000000000003540 f   AtaAtapiPassThruDxe:AhciMode.obj
 0001:00003510       AhciDmaTransfer            00000000000037d0 f   AtaAtapiPassThruDxe:AhciMode.obj
 0001:00003950       AhciNonDataTransfer        0000000000003c10 f   AtaAtapiPassThruDxe:AhciMode.obj
 0001:00003b48       AhciStopCommand            0000000000003e08 f   AtaAtapiPassThruDxe:AhciMode.obj
 0001:00003bb8       AhciStartCommand           0000000000003e78 f   AtaAtapiPassThruDxe:AhciMode.obj
 0001:00003d08       AhciAtaSmartReturnStatusCheck 0000000000003fc8 f   AtaAtapiPassThruDxe:AhciMode.obj
 0001:00003e18       AhciAtaSmartSupport        00000000000040d8 f   AtaAtapiPassThruDxe:AhciMode.obj
 0001:00003f6c       AhciIdentify               000000000000422c f   AtaAtapiPassThruDxe:AhciMode.obj
 0001:00004048       AhciIdentifyPacket         0000000000004308 f   AtaAtapiPassThruDxe:AhciMode.obj
 0001:00004118       AhciDeviceSetFeature       00000000000043d8 f   AtaAtapiPassThruDxe:AhciMode.obj
 0001:000041e0       AhciPacketCommandExecute   00000000000044a0 f   AtaAtapiPassThruDxe:AhciMode.obj
 0001:00004324       AhciCreateTransferDescriptor 00000000000045e4 f   AtaAtapiPassThruDxe:AhciMode.obj
 0001:00004664       AhciReadLogExt             0000000000004924 f   AtaAtapiPassThruDxe:AhciMode.obj
 0001:00004758       AhciEnableDevSlp           0000000000004a18 f   AtaAtapiPassThruDxe:AhciMode.obj
 0001:00004a8c       AhciSpinUpDisk             0000000000004d4c f   AtaAtapiPassThruDxe:AhciMode.obj
 0001:00004c70       AhciModeInitialization     0000000000004f30 f   AtaAtapiPassThruDxe:AhciMode.obj
 0001:000052e8       IdeReadPortB               00000000000055a8 f   AtaAtapiPassThruDxe:IdeMode.obj
 0001:00005348       IdeWritePortB              0000000000005608 f   AtaAtapiPassThruDxe:IdeMode.obj
 0001:000053a4       DumpAllIdeRegisters        0000000000005664 f   AtaAtapiPassThruDxe:IdeMode.obj
 0001:000055bc       CheckStatusRegister        000000000000587c f   AtaAtapiPassThruDxe:IdeMode.obj
 0001:00005634       DRQClear                   00000000000058f4 f   AtaAtapiPassThruDxe:IdeMode.obj
 0001:00005708       DRQReady                   00000000000059c8 f   AtaAtapiPassThruDxe:IdeMode.obj
 0001:00005808       DRQReady2                  0000000000005ac8 f   AtaAtapiPassThruDxe:IdeMode.obj
 0001:00005908       WaitForBSYClear            0000000000005bc8 f   AtaAtapiPassThruDxe:IdeMode.obj
 0001:000059cc       GetIdeRegisterIoAddr       0000000000005c8c f   AtaAtapiPassThruDxe:IdeMode.obj
 0001:00005b48       AtaIssueCommand            0000000000005e08 f   AtaAtapiPassThruDxe:IdeMode.obj
 0001:00005d3c       AtaPioDataInOut            0000000000005ffc f   AtaAtapiPassThruDxe:IdeMode.obj
 0001:00005ef8       AtaNonDataCommandIn        00000000000061b8 f   AtaAtapiPassThruDxe:IdeMode.obj
 0001:00005fa8       AtaUdmStatusWait           0000000000006268 f   AtaAtapiPassThruDxe:IdeMode.obj
 0001:0000606c       AtaUdmaInOut               000000000000632c f   AtaAtapiPassThruDxe:IdeMode.obj
 0001:00006628       AtaPacketReadWrite         00000000000068e8 f   AtaAtapiPassThruDxe:IdeMode.obj
 0001:000068a8       AtaPacketCommandExecute    0000000000006b68 f   AtaAtapiPassThruDxe:IdeMode.obj
 0001:00006a40       SetDeviceTransferMode      0000000000006d00 f   AtaAtapiPassThruDxe:IdeMode.obj
 0001:00006ac8       SetDriveParameters         0000000000006d88 f   AtaAtapiPassThruDxe:IdeMode.obj
 0001:00006bc4       IdeAtaSmartReturnStatusCheck 0000000000006e84 f   AtaAtapiPassThruDxe:IdeMode.obj
 0001:00006cdc       IdeAtaSmartSupport         0000000000006f9c f   AtaAtapiPassThruDxe:IdeMode.obj
 0001:00006e78       AtaIdentify                0000000000007138 f   AtaAtapiPassThruDxe:IdeMode.obj
 0001:00006f08       AtaIdentifyPacket          00000000000071c8 f   AtaAtapiPassThruDxe:IdeMode.obj
 0001:00006f98       DetectAndConfigIdeDevice   0000000000007258 f   AtaAtapiPassThruDxe:IdeMode.obj
 0001:00007344       IdeModeInitialization      0000000000007604 f   AtaAtapiPassThruDxe:IdeMode.obj
 0001:00007450       AtaAtapiPassThruComponentNameGetDriverName 0000000000007710 f   AtaAtapiPassThruDxe:ComponentName.obj
 0001:00007484       AtaAtapiPassThruComponentNameGetControllerName 0000000000007744 f   AtaAtapiPassThruDxe:ComponentName.obj
 0001:000075f8       InternalBaseLibIsListValid 00000000000078b8 f   BaseLib:LinkedList.obj
 0001:00007664       InsertTailList             0000000000007924 f   BaseLib:LinkedList.obj
 0001:000076b8       GetFirstNode               0000000000007978 f   BaseLib:LinkedList.obj
 0001:000076ec       GetNextNode                00000000000079ac f   BaseLib:LinkedList.obj
 0001:00007720       IsListEmpty                00000000000079e0 f   BaseLib:LinkedList.obj
 0001:00007758       IsNull                     0000000000007a18 f   BaseLib:LinkedList.obj
 0001:0000779c       RemoveEntryList            0000000000007a5c f   BaseLib:LinkedList.obj
 0001:000077e4       CopyMem                    0000000000007aa4 f   BaseMemoryLibRepStr:CopyMemWrapper.obj
 0001:00007880       ZeroMem                    0000000000007b40 f   BaseMemoryLibRepStr:ZeroMemWrapper.obj
 0001:000078f0       CompareMem                 0000000000007bb0 f   BaseMemoryLibRepStr:CompareMemWrapper.obj
 0001:000079c0       DebugPrint                 0000000000007c80 f   BaseDebugLibSerialPort:DebugLib.obj
 0001:000079e4       DebugPrintMarker           0000000000007ca4 f   BaseDebugLibSerialPort:DebugLib.obj
 0001:00007a70       DebugAssert                0000000000007d30 f   BaseDebugLibSerialPort:DebugLib.obj
 0001:00007aec       InternalAllocateAlignedPages 0000000000007dac f   UefiMemoryAllocationLib:MemoryAllocationLib.obj
 0001:00007c98       InternalAllocatePool       0000000000007f58 f   UefiMemoryAllocationLib:MemoryAllocationLib.obj
 0001:00007cc8       InternalAllocateCopyPool   0000000000007f88 f   UefiMemoryAllocationLib:MemoryAllocationLib.obj
 0001:00007d40       FreePool                   0000000000008000 f   UefiMemoryAllocationLib:MemoryAllocationLib.obj
 0001:00007d84       DevicePathNodeLength       0000000000008044 f   UefiDevicePathLibDevicePathProtocol:UefiDevicePathLib.obj
 0001:00007dcc       IsLanguageSupported        000000000000808c f   UefiLib:UefiLib.obj
 0001:00007e54       LookupUnicodeString2       0000000000008114 f   UefiLib:UefiLib.obj
 0001:00007f48       GetHobList                 0000000000008208 f   DxeHobLib:HobLib.obj
 0001:00008028       InternalAcpiDelay          00000000000082e8 f   DxeAcpiTimerLib:AcpiTimerLib.obj
 0001:0000808c       MicroSecondDelay           000000000000834c f   DxeAcpiTimerLib:AcpiTimerLib.obj
 0001:000080c0       InternalReportStatusCode   0000000000008380 f   DxeReportStatusCodeLib:ReportStatusCodeLib.obj
 0001:00008168       GetPcdProtocol             0000000000008428 f   DxePcdLib:DxePcdLib.obj
 0001:000081f4       AsciiStrLen                00000000000084b4 f   BaseLib:String.obj
 0001:00008260       AsciiStrnCmp               0000000000008520 f   BaseLib:String.obj
 0001:0000832c       DivU64x32Remainder         00000000000085ec f   BaseLib:DivU64x32Remainder.obj
 0001:0000838c       StrnLenS                   000000000000864c f   BaseLib:SafeString.obj
 0001:000083e4       CompareGuid                00000000000086a4 f   BaseMemoryLibRepStr:MemLibGuid.obj
 0001:000084a8       IoRead8                    0000000000008768 f   BaseIoLibIntrinsicSev:IoLibMsc.obj
 0001:000084cc       IoRead32                   000000000000878c f   BaseIoLibIntrinsicSev:IoLibMsc.obj
 0001:00008514       IoWrite32                  00000000000087d4 f   BaseIoLibIntrinsicSev:IoLibMsc.obj
 0001:00008540       IsTdxGuest                 0000000000008800 f   BaseIoLibIntrinsicSev:IoLibInternalTdx.obj
 0001:0000856c       TdIoRead8                  000000000000882c f   BaseIoLibIntrinsicSev:IoLibInternalTdx.obj
 0001:000085c4       TdIoRead32                 0000000000008884 f   BaseIoLibIntrinsicSev:IoLibInternalTdx.obj
 0001:00008638       TdIoWrite8                 00000000000088f8 f   BaseIoLibIntrinsicSev:IoLibInternalTdx.obj
 0001:00008688       TdIoWrite32                0000000000008948 f   BaseIoLibIntrinsicSev:IoLibInternalTdx.obj
 0001:000086dc       AsciiSPrint                000000000000899c f   BasePrintLib:PrintLib.obj
 0001:00008708       BasePrintLibFillBuffer     00000000000089c8 f   BasePrintLib:PrintLibInternal.obj
 0001:0000873c       BasePrintLibValueToString  00000000000089fc f   BasePrintLib:PrintLibInternal.obj
 0001:0000878c       BasePrintLibSPrintMarker   0000000000008a4c f   BasePrintLib:PrintLibInternal.obj
 0001:00009698       BasePrintLibSPrint         0000000000009958 f   BasePrintLib:PrintLibInternal.obj
 0001:000096bc       SerialPortWrite            000000000000997c f   PcAtSerialPortLib:SerialPortLib.obj
 0001:0000972c       PciExpressRead32           00000000000099ec f   BasePciExpressLib:PciExpressLib.obj
 0001:0000977c       PciCf8Read32               0000000000009a3c f   BasePciCf8Lib:PciCf8Lib.obj
 0001:00009818       SaveAndDisableInterrupts   0000000000009ad8 f   BaseLib:Cpu.obj
 0001:0000983c       GetTdInfo                  0000000000009afc f   TdxLib:TdInfo.obj
 0001:000098a0       TdSharedPageMask           0000000000009b60 f   TdxLib:TdInfo.obj
 0001:000098cc       MmioRead32                 0000000000009b8c f   BaseIoLibIntrinsicSev:IoLib.obj
 0002:00000000       ??_C@_0CB@DMEJJJHA@?6ASSERT_EFI_ERROR?5?$CIStatus?5?$DN?5?$CFr?$CJ@ 0000000000009c00     UefiDriverEntryPoint:DriverEntryPoint.obj
 0002:00000028       ??_C@_0CH@BBNBJKHK@?$CB?$CI?$CI?$CIINTN?$CJ?$CIRETURN_STATUS?$CJ?$CIStatus@ 0000000000009c28     UefiDriverEntryPoint:DriverEntryPoint.obj
 0002:00000050       ??_C@_0BE@EBHDAGEC@AtaAtapiPassThruDxe@ 0000000000009c50     AtaAtapiPassThruDxe:AutoGen.obj
 0002:00000068       ??_C@_0CE@IBFOBMLB@?6ASSERT_RETURN_ERROR?5?$CIStatus?5?$DN?5@ 0000000000009c68     AtaAtapiPassThruDxe:AutoGen.obj
 0002:00000090       ??_C@_0IO@NLHFJH@d?3?2uefi_specs_personal_collecti@ 0000000000009c90     AtaAtapiPassThruDxe:AutoGen.obj
 0002:00000120       ??_C@_0BF@NDBIKIKC@CR?5has?5Bad?5Signature@ 0000000000009d20     AtaAtapiPassThruDxe:AtaAtapiPassThru.obj
 0002:00000140       ??_C@_0GB@EHMMODDI@D?3?2uefi_specs_personal_collecti@ 0000000000009d40     AtaAtapiPassThruDxe:AtaAtapiPassThru.obj
 0002:000001a8       ??_C@_0CM@DGNDOAGH@?$DN?$DNAtaAtapiPassThru?5Start?$DN?$DN?5Cont@ 0000000000009da8     AtaAtapiPassThruDxe:AtaAtapiPassThru.obj
 0002:000001d8       ??_C@_0CK@PPBHLAGJ@Open?5Ide_Controller_Init?5Error?0@ 0000000000009dd8     AtaAtapiPassThruDxe:AtaAtapiPassThru.obj
 0002:00000208       ??_C@_0CF@OLDOAHDA@Get?5Pci_Io?5Protocol?5Error?0?5Stat@ 0000000000009e08     AtaAtapiPassThruDxe:AtaAtapiPassThru.obj
 0002:00000230       ??_C@_0CL@DOPFHFJC@?$DN?$DNAtaAtapiPassThru?5Stop?$DN?$DN?5Contr@ 0000000000009e30     AtaAtapiPassThruDxe:AtaAtapiPassThru.obj
 0002:00000260       ??_C@_0BG@BDDIFCPF@PciIo?5?$CB?$DN?5?$CI?$CIvoid?5?$CK?$CJ?50?$CJ@ 0000000000009e60     AtaAtapiPassThruDxe:AhciMode.obj
 0002:00000280       ??_C@_0FJ@PENJJMMB@D?3?2uefi_specs_personal_collecti@ 0000000000009e80     AtaAtapiPassThruDxe:AhciMode.obj
 0002:000002e0       ??_C@_0CF@DNANAGMC@Port?5?$CFd?5Device?5not?5ready?5?$CITFD?$DN0@ 0000000000009ee0     AtaAtapiPassThruDxe:AhciMode.obj
 0002:00000308       ??_C@_0DC@KODFHADD@Ahci?5port?5?$CFd?5is?5in?5hung?5state?0?5@ 0000000000009f08     AtaAtapiPassThruDxe:AhciMode.obj
 0002:00000340       ??_C@_0BN@FKKHOKFJ@Failed?5to?5reset?5the?5port?5?$CFd?6@ 0000000000009f40     AtaAtapiPassThruDxe:AhciMode.obj
 0002:00000360       ??_C@_0CJ@BCNKNPBM@AHCI?3?5Error?5interrupt?5reported?5@ 0000000000009f60     AtaAtapiPassThruDxe:AhciMode.obj
 0002:00000390       ??_C@_0BE@FFNMKGEM@ATA?5COMMAND?5BLOCK?3?6@ 0000000000009f90     AtaAtapiPassThruDxe:AhciMode.obj
 0002:000003a8       ??_C@_0BA@FMAFMIJP@AtaCommand?3?5?$CFd?6@ 0000000000009fa8     AtaAtapiPassThruDxe:AhciMode.obj
 0002:000003b8       ??_C@_0BB@KLPLBHNL@AtaFeatures?3?5?$CFX?6@ 0000000000009fb8     AtaAtapiPassThruDxe:AhciMode.obj
 0002:000003d0       ??_C@_0BF@CIIAGMPJ@AtaSectorNumber?3?5?$CFd?6@ 0000000000009fd0     AtaAtapiPassThruDxe:AhciMode.obj
 0002:000003e8       ??_C@_0BE@GPFLLDDI@AtaCylinderLow?3?5?$CFX?6@ 0000000000009fe8     AtaAtapiPassThruDxe:AhciMode.obj
 0002:00000400       ??_C@_0BF@PMECDHPA@AtaCylinderHigh?3?5?$CFX?6@ 000000000000a000     AtaAtapiPassThruDxe:AhciMode.obj
 0002:00000418       ??_C@_0BD@FJDAPMOI@AtaDeviceHead?3?5?$CFd?6@ 000000000000a018     AtaAtapiPassThruDxe:AhciMode.obj
 0002:00000430       ??_C@_0BI@NJPJEHMD@AtaSectorNumberExp?3?5?$CFd?6@ 000000000000a030     AtaAtapiPassThruDxe:AhciMode.obj
 0002:00000448       ??_C@_0BH@PMLCFN@AtaCylinderLowExp?3?5?$CFX?6@ 000000000000a048     AtaAtapiPassThruDxe:AhciMode.obj
 0002:00000460       ??_C@_0BI@KEMEIALJ@AtaCylinderHighExp?3?5?$CFX?6@ 000000000000a060     AtaAtapiPassThruDxe:AhciMode.obj
 0002:00000478       ??_C@_0BE@LHOFAGGF@AtaFeaturesExp?3?5?$CFX?6@ 000000000000a078     AtaAtapiPassThruDxe:AhciMode.obj
 0002:00000490       ??_C@_0BE@GMKEOGJC@AtaSectorCount?3?5?$CFd?6@ 000000000000a090     AtaAtapiPassThruDxe:AhciMode.obj
 0002:000004a8       ??_C@_0BH@GABEPHFG@AtaSectorCountExp?3?5?$CFd?6@ 000000000000a0a8     AtaAtapiPassThruDxe:AhciMode.obj
 0002:000004c0       ??_C@_0BD@FMBCEOAH@ATA?5STATUS?5BLOCK?3?6@ 000000000000a0c0     AtaAtapiPassThruDxe:AhciMode.obj
 0002:000004d8       ??_C@_0P@JCDDLNOF@AtaStatus?3?5?$CFd?6@ 000000000000a0d8     AtaAtapiPassThruDxe:AhciMode.obj
 0002:000004e8       ??_C@_0O@IEHPABDB@AtaError?3?5?$CFd?6@ 000000000000a0e8     AtaAtapiPassThruDxe:AhciMode.obj
 0002:000004f8       ??_C@_0CE@EKOAHAPA@Starting?5command?5for?5PIO?5transf@ 000000000000a0f8     AtaAtapiPassThruDxe:AhciMode.obj
 0002:00000520       ??_C@_0CA@NOEGOAFK@PIO?5command?5failed?5at?5retry?5?$CFd?6@ 000000000000a120     AtaAtapiPassThruDxe:AhciMode.obj
 0002:00000540       ??_C@_0CN@LBHODCPO@Failed?5to?5execute?5command?5for?5P@ 000000000000a140     AtaAtapiPassThruDxe:AhciMode.obj
 0002:00000570       ??_C@_0CJ@OFAIOMND@Starting?5command?5for?5sync?5DMA?5t@ 000000000000a170     AtaAtapiPassThruDxe:AhciMode.obj
 0002:000005a0       ??_C@_0CB@FICHAPEF@DMA?5command?5failed?5at?5retry?3?5?$CFd@ 000000000000a1a0     AtaAtapiPassThruDxe:AhciMode.obj
 0002:000005c8       ??_C@_0CK@ODFDLAAD@Starting?5command?5for?5async?5DMA?5@ 000000000000a1c8     AtaAtapiPassThruDxe:AhciMode.obj
 0002:000005f8       ??_C@_0CN@JMCKELHJ@Failed?5to?5execute?5command?5for?5D@ 000000000000a1f8     AtaAtapiPassThruDxe:AhciMode.obj
 0002:00000628       ??_C@_0CJ@MECOIFFL@Starting?5command?5for?5non?5data?5t@ 000000000000a228     AtaAtapiPassThruDxe:AhciMode.obj
 0002:00000658       ??_C@_0CG@IGOEKLAI@Non?5data?5transfer?5failed?5at?5ret@ 000000000000a258     AtaAtapiPassThruDxe:AhciMode.obj
 0002:00000680       ??_C@_0DC@EKMGAGAA@Failed?5to?5execute?5command?5for?5n@ 000000000000a280     AtaAtapiPassThruDxe:AhciMode.obj
 0002:000006b8       ??_C@_0DM@BIALJCJN@The?5S?4M?4A?4R?4T?5threshold?5exceede@ 000000000000a2b8     AtaAtapiPassThruDxe:AhciMode.obj
 0002:000006f8       ??_C@_0DI@GJOGFJCJ@The?5S?4M?4A?4R?4T?5threshold?5exceede@ 000000000000a2f8     AtaAtapiPassThruDxe:AhciMode.obj
 0002:00000730       ??_C@_0EG@BPMDGPHA@S?4M?4A?4R?4T?5feature?5is?5not?5suppor@ 000000000000a330     AtaAtapiPassThruDxe:AhciMode.obj
 0002:00000778       ??_C@_0DN@OJCBAOBK@Enabled?5S?4M?4A?4R?4T?5feature?5at?5po@ 000000000000a378     AtaAtapiPassThruDxe:AhciMode.obj
 0002:000007b8       ??_C@_0BJ@BGCNBJEC@AHCI?5CAPABILITY2?5?$DN?5?$CF08x?6@ 000000000000a3b8     AtaAtapiPassThruDxe:AhciMode.obj
 0002:000007d8       ??_C@_0BP@FLHCGBJE@Port?5CMD?1DEVSLP?5?$DN?5?$CF08x?5?1?5?$CF08x?6@ 000000000000a3d8     AtaAtapiPassThruDxe:AhciMode.obj
 0002:000007f8       ??_C@_0DI@NPDAMADO@IDENTIFY?5DEVICE?3?5?$FL77?$FN?5?$DN?5?$CF04x?0?5?$FL@ 000000000000a3f8     AtaAtapiPassThruDxe:AhciMode.obj
 0002:00000830       ??_C@_0EO@NOBLCLFA@DevSlp?5feature?5is?5not?5supported@ 000000000000a430     AtaAtapiPassThruDxe:AhciMode.obj
 0002:00000880       ??_C@_0EF@LGHLHJPH@DevSlp?5set?5feature?5for?5device?5a@ 000000000000a480     AtaAtapiPassThruDxe:AhciMode.obj
 0002:000008c8       ??_C@_0DE@ILCHDKEG@Read?5Log?5Ext?5at?5port?5?$FL?$CFd?$FN?5PortM@ 000000000000a4c8     AtaAtapiPassThruDxe:AhciMode.obj
 0002:00000900       ??_C@_0DB@MEGMMEMN@DevSlpTiming?3?5Supported?$CI?$CFd?$CJ?0?5De@ 000000000000a500     AtaAtapiPassThruDxe:AhciMode.obj
 0002:00000940       ??_C@_0FI@MKNPLLNE@Enabled?5DevSlp?5feature?5at?5port?5@ 000000000000a540     AtaAtapiPassThruDxe:AhciMode.obj
 0002:000009a0       ??_C@_0EO@NMNMFMJK@CMD_PUIS_SET_DEVICE_SPINUP?5for?5@ 000000000000a5a0     AtaAtapiPassThruDxe:AhciMode.obj
 0002:000009f0       ??_C@_0DA@EBGMGAFO@IdentifyData?9?$DOAtaData?4specific_@ 000000000000a5f0     AtaAtapiPassThruDxe:AhciMode.obj
 0002:00000a20       ??_C@_0DO@DNBPELFA@Read?5LBA?50?5for?5device?5at?5port?5?$FL@ 000000000000a620     AtaAtapiPassThruDxe:AhciMode.obj
 0002:00000a60       ??_C@_0ED@DGKNNPKI@Read?5IDD?5failed?5for?5device?5at?5p@ 000000000000a660     AtaAtapiPassThruDxe:AhciMode.obj
 0002:00000ab0       ??_C@_0EH@IBMCBEOD@IDENTIFY?5DEVICE?3?5?$FL0?$FN?5?$DN?5?$CF016x?0?5?$FL@ 000000000000a6b0     AtaAtapiPassThruDxe:AhciMode.obj
 0002:00000af8       ??_C@_07MIKIFGAL@Disable@  000000000000a6f8     AtaAtapiPassThruDxe:AhciMode.obj
 0002:00000b00       ??_C@_06CKGENIKG@Enable@   000000000000a700     AtaAtapiPassThruDxe:AhciMode.obj
 0002:00000b08       ??_C@_04MCHAEEKC@Skip@     000000000000a708     AtaAtapiPassThruDxe:AhciMode.obj
 0002:00000b10       ??_C@_0DI@DPKPPIFP@?$CFa?5PUIS?5feature?5at?5port?5?$FL?$CFd?$FN?5Po@ 000000000000a710     AtaAtapiPassThruDxe:AhciMode.obj
 0002:00000b50       ??_C@_0FH@GPMDEPCN@AhciModeInitialization?3?5failed?5@ 000000000000a750     AtaAtapiPassThruDxe:AhciMode.obj
 0002:00000ba8       ??_C@_0BC@FEDIJHFF@?$CI?$CIBOOLEAN?$CJ?$CI0?$DN?$DN1?$CJ?$CJ@ 000000000000a7a8     AtaAtapiPassThruDxe:AhciMode.obj
 0002:00000bc0       ??_C@_0CE@LDOHCBHC@Spin?5up?5standby?5device?5failed?5?9@ 000000000000a7c0     AtaAtapiPassThruDxe:AhciMode.obj
 0002:00000be4       ??_C@_05POABADMF@cdrom@    000000000000a7e4     AtaAtapiPassThruDxe:AhciMode.obj
 0002:00000bf0       ??_C@_08PALMOJOH@harddisk@ 000000000000a7f0     AtaAtapiPassThruDxe:AhciMode.obj
 0002:00000c00       ??_C@_0CM@KHHIKCIO@port?5?$FL?$CFd?$FN?5port?5multitplier?5?$FL?$CFd?$FN@ 000000000000a800     AtaAtapiPassThruDxe:AhciMode.obj
 0002:00000c30       ??_C@_0CC@GGCKBEOK@Calculate?5Mode?5Fail?0?5Status?5?$DN?5?$CF@ 000000000000a830     AtaAtapiPassThruDxe:AhciMode.obj
 0002:00000c58       ??_C@_0CF@ONEKJMPC@Set?5transfer?5Mode?5Fail?0?5Status?5@ 000000000000a858     AtaAtapiPassThruDxe:AhciMode.obj
 0002:00000c80       ??_C@_0CJ@NBDDGPEK@PUIS?5enable?1disable?5failed?0?5Sta@ 000000000000a880     AtaAtapiPassThruDxe:AhciMode.obj
 0002:00000cb0       ??_C@_0FI@GNPMKGDM@D?3?2uefi_specs_personal_collecti@ 000000000000a8b0     AtaAtapiPassThruDxe:IdeMode.obj
 0002:00000d08       ??_C@_0BH@IACGKAP@Buffer?5?$CB?$DN?5?$CI?$CIvoid?5?$CK?$CJ?50?$CJ@ 000000000000a908     AtaAtapiPassThruDxe:IdeMode.obj
 0002:00000d20       ??_C@_0BN@PBAGALLH@IdeRegisters?5?$CB?$DN?5?$CI?$CIvoid?5?$CK?$CJ?50?$CJ@ 000000000000a920     AtaAtapiPassThruDxe:IdeMode.obj
 0002:00000d40       ??_C@_0DE@DMPLFKLN@CheckRegisterStatus?$CI?$CJ?9?9?5?$CF02x?5?3?5@ 000000000000a940     AtaAtapiPassThruDxe:IdeMode.obj
 0002:00000d78       ??_C@_0DH@FEGNNJML@CheckRegisterStatus?$CI?$CJ?9?9?5?$CF02x?5?3?5@ 000000000000a978     AtaAtapiPassThruDxe:IdeMode.obj
 0002:00000db0       ??_C@_0DL@KGNJKAMB@CheckRegisterStatus?$CI?$CJ?9?9?5?$CF02x?5?3?5@ 000000000000a9b0     AtaAtapiPassThruDxe:IdeMode.obj
 0002:00000df0       ??_C@_0DL@GJFPLKNG@CheckRegisterStatus?$CI?$CJ?9?9?5?$CF02x?5?3?5@ 000000000000a9f0     AtaAtapiPassThruDxe:IdeMode.obj
 0002:00000e30       ??_C@_0DF@POAMJOPK@CheckRegisterStatus?$CI?$CJ?9?9?5?$CF02x?5?3?5@ 000000000000aa30     AtaAtapiPassThruDxe:IdeMode.obj
 0002:00000e68       ??_C@_0CO@PANIFIFC@CheckRegisterStatus?$CI?$CJ?9?9?5?$CF02x?5?3?5@ 000000000000aa68     AtaAtapiPassThruDxe:IdeMode.obj
 0002:00000e98       ??_C@_0DK@KDJEIFAM@CheckRegisterStatus?$CI?$CJ?9?9?5?$CF02x?5?3?5@ 000000000000aa98     AtaAtapiPassThruDxe:IdeMode.obj
 0002:00000ed8       ??_C@_0DP@FHOJHGEF@CheckRegisterStatus?$CI?$CJ?9?9?5?$CF02x?5?3?5@ 000000000000aad8     AtaAtapiPassThruDxe:IdeMode.obj
 0002:00000f18       ??_C@_0CA@LDLEOENP@AtaCommandBlock?5?$CB?$DN?5?$CI?$CIvoid?5?$CK?$CJ?50?$CJ@ 000000000000ab18     AtaAtapiPassThruDxe:IdeMode.obj
 0002:00000f38       ??_C@_0BK@KEBEKLPO@ATA?5UDMA?5operation?5fails?6@ 000000000000ab38     AtaAtapiPassThruDxe:IdeMode.obj
 0002:00000f58       ??_C@_0BK@MGNDMAKE@RealPageCount?5?$DO?5PageCount@ 000000000000ab58     AtaAtapiPassThruDxe:IdeMode.obj
 0002:00000f78       ??_C@_0BO@MKAHNPBE@?$CIBufferMapAddress?5?$CG?50x1?$CJ?5?$DN?$DN?50@ 000000000000ab78     AtaAtapiPassThruDxe:IdeMode.obj
 0002:00000f98       ??_C@_0BH@HIHPLAJL@?$CIByteCount?5?$CG?50x1?$CJ?5?$DN?$DN?50@ 000000000000ab98     AtaAtapiPassThruDxe:IdeMode.obj
 0002:00000fb0       ??_C@_0CJ@FNHKGJEE@Init?5Drive?5Parameters?5Fail?0?5Sta@ 000000000000abb0     AtaAtapiPassThruDxe:IdeMode.obj
 0002:00000fe0       ??_C@_0DA@FBBAOMBP@Set?5Multiple?5Mode?5Parameters?5Fa@ 000000000000abe0     AtaAtapiPassThruDxe:IdeMode.obj
 0002:00001010       ??_C@_05FECFKABJ@slave@    000000000000ac10     AtaAtapiPassThruDxe:IdeMode.obj
 0002:00001018       ??_C@_06ECGAGODA@master@   000000000000ac18     AtaAtapiPassThruDxe:IdeMode.obj
 0002:00001020       ??_C@_09EADLKHON@secondary@ 000000000000ac20     AtaAtapiPassThruDxe:IdeMode.obj
 0002:00001030       ??_C@_07CJDBHDIN@primary@  000000000000ac30     AtaAtapiPassThruDxe:IdeMode.obj
 0002:00001040       ??_C@_0EB@JEODCBJI@S?4M?4A?4R?4T?5feature?5is?5not?5suppor@ 000000000000ac40     AtaAtapiPassThruDxe:IdeMode.obj
 0002:00001088       ??_C@_0DI@IGHDPKJH@Enabled?5S?4M?4A?4R?4T?5feature?5at?5?$FL?$CF@ 000000000000ac88     AtaAtapiPassThruDxe:IdeMode.obj
 0002:000010c0       ??_C@_0FE@NGINKIOM@New?5detecting?5method?3?5Send?5Exec@ 000000000000acc0     AtaAtapiPassThruDxe:IdeMode.obj
 0002:00001118       ??_C@_08MGLFPKHM@cdrom?5?5?5@ 000000000000ad18     AtaAtapiPassThruDxe:IdeMode.obj
 0002:00001124       ??_C@_06PBLLKJMC@slave?5@  000000000000ad24     AtaAtapiPassThruDxe:IdeMode.obj
 0002:00001130       ??_C@_09OKOIINPD@primary?5?5@ 000000000000ad30     AtaAtapiPassThruDxe:IdeMode.obj
 0002:00001140       ??_C@_0BP@FPLKOKIB@?$FL?$CFa?$FN?5channel?5?$FL?$CFa?$FN?5?$FL?$CFa?$FN?5device?6@ 000000000000ad40     AtaAtapiPassThruDxe:IdeMode.obj
 0002:00001160       ??_C@_0BI@CHLGLNHM@?$FLGetChannel?0?5Status?$DN?$CFx?$FN@ 000000000000ad60     AtaAtapiPassThruDxe:IdeMode.obj
 0002:00001178       ??_C@_0BA@HEEHNPAK@MaxDevices?5?$DM?$DN?52@ 000000000000ad78     AtaAtapiPassThruDxe:IdeMode.obj
 0002:00001188       ??_C@_06DALJLGPG@eng?$DLen@ 000000000000ad88     AtaAtapiPassThruDxe:ComponentName.obj
 0002:00001190       ??_C@_1DA@EOBAEKJJ@?$AAA?$AAt?$AAa?$AAA?$AAt?$AAa?$AAp?$AAi?$AAP?$AAa?$AAs?$AAs?$AAT?$AAh?$AAr@ 000000000000ad90     AtaAtapiPassThruDxe:ComponentName.obj
 0002:000011c0       ??_C@_1BO@KOEKNILH@?$AAI?$AAD?$AAE?$AA?5?$AAC?$AAo?$AAn?$AAt?$AAr?$AAo?$AAl?$AAl?$AAe?$AAr@ 000000000000adc0     AtaAtapiPassThruDxe:ComponentName.obj
 0002:000011e0       ??_C@_1CA@HECPKGJI@?$AAA?$AAH?$AAC?$AAI?$AA?5?$AAC?$AAo?$AAn?$AAt?$AAr?$AAo?$AAl?$AAl?$AAe?$AAr@ 000000000000ade0     AtaAtapiPassThruDxe:ComponentName.obj
 0002:00001200       ??_C@_03LKLGDMJI@eng@      000000000000ae00     AtaAtapiPassThruDxe:ComponentName.obj
 0002:00001204       ??_C@_02LFNMGJAP@en@       000000000000ae04     AtaAtapiPassThruDxe:ComponentName.obj
 0002:00001210       ??_C@_0FO@NFKNIFBA@D?3?2uefi_specs_personal_collecti@ 000000000000ae10     AtaAtapiPassThruDxe:ComponentName.obj
 0002:00001270       ??_C@_0BF@NJNGJMPC@List?5?$CB?$DN?5?$CI?$CIvoid?5?$CK?$CJ?50?$CJ@ 000000000000ae70     BaseLib:LinkedList.obj
 0002:00001290       ??_C@_0EM@NCJPOFNN@D?3?2uefi_specs_personal_collecti@ 000000000000ae90     BaseLib:LinkedList.obj
 0002:000012e0       ??_C@_0CC@KDLPLAED@List?9?$DOForwardLink?5?$CB?$DN?5?$CI?$CIvoid?5?$CK?$CJ?5@ 000000000000aee0     BaseLib:LinkedList.obj
 0002:00001308       ??_C@_0BP@IJJCCMAK@List?9?$DOBackLink?5?$CB?$DN?5?$CI?$CIvoid?5?$CK?$CJ?50?$CJ@ 000000000000af08     BaseLib:LinkedList.obj
 0002:00001328       ??_C@_0BJ@NJABNCDK@ListHead?5?$CB?$DN?5?$CI?$CIvoid?5?$CK?$CJ?50?$CJ@ 000000000000af28     BaseLib:LinkedList.obj
 0002:00001348       ??_C@_0CG@LGIALJFK@InternalBaseLibIsListValid?5?$CILis@ 000000000000af48     BaseLib:LinkedList.obj
 0002:00001370       ??_C@_0CC@JLDICICM@InternalBaseLibIsListValid?5?$CILis@ 000000000000af70     BaseLib:LinkedList.obj
 0002:00001398       ??_C@_0BF@NMBJJECB@?$CBIsListEmpty?5?$CIEntry?$CJ@ 000000000000af98     BaseLib:LinkedList.obj
 0002:000013b0       ??_C@_0N@KGHEHMDL@Divisor?5?$CB?$DN?50@ 000000000000afb0     BaseLib:DivU64x32.obj
 0002:000013c0       ??_C@_0ED@MKGCMJG@?$CILength?5?9?51?$CJ?5?$DM?$DN?5?$CI0xFFFFFFFFFFFF@ 000000000000afc0     BaseMemoryLibRepStr:CopyMemWrapper.obj
 0002:00001410       ??_C@_0FM@IDPIEKJH@D?3?2uefi_specs_personal_collecti@ 000000000000b010     BaseMemoryLibRepStr:CopyMemWrapper.obj
 0002:00001470       ??_C@_0DO@MAOBOFEG@?$CILength?5?9?51?$CJ?5?$DM?$DN?5?$CI0xFFFFFFFFFFFF@ 000000000000b070     BaseMemoryLibRepStr:CopyMemWrapper.obj
 0002:000014b0       ??_C@_0FM@DHFKCLFA@D?3?2uefi_specs_personal_collecti@ 000000000000b0b0     BaseMemoryLibRepStr:ZeroMemWrapper.obj
 0002:00001510       ??_C@_0DG@EEENIGGL@Length?5?$DM?$DN?5?$CI0xFFFFFFFFFFFFFFFFUL@ 000000000000b110     BaseMemoryLibRepStr:ZeroMemWrapper.obj
 0002:00001548       ??_C@_0CC@JOEHDGKB@DestinationBuffer?5?$CB?$DN?5?$CI?$CIvoid?5?$CK?$CJ?5@ 000000000000b148     BaseMemoryLibRepStr:CompareMemWrapper.obj
 0002:00001570       ??_C@_0FP@MJKEJMKF@D?3?2uefi_specs_personal_collecti@ 000000000000b170     BaseMemoryLibRepStr:CompareMemWrapper.obj
 0002:000015d0       ??_C@_0BN@MDMCNBCC@SourceBuffer?5?$CB?$DN?5?$CI?$CIvoid?5?$CK?$CJ?50?$CJ@ 000000000000b1d0     BaseMemoryLibRepStr:CompareMemWrapper.obj
 0002:000015f0       ??_C@_0DI@DAGDPLPG@?$CILength?5?9?51?$CJ?5?$DM?$DN?5?$CI0xFFFFFFFFFFFF@ 000000000000b1f0     BaseMemoryLibRepStr:SetMemWrapper.obj
 0002:00001630       ??_C@_0FL@MFFLICHL@D?3?2uefi_specs_personal_collecti@ 000000000000b230     BaseMemoryLibRepStr:SetMemWrapper.obj
 0002:00001690       ??_C@_0BH@LKMBFCBF@Format?5?$CB?$DN?5?$CI?$CIvoid?5?$CK?$CJ?50?$CJ@ 000000000000b290     BaseDebugLibSerialPort:DebugLib.obj
 0002:000016b0       ??_C@_0FJ@BNNHJMAJ@D?3?2uefi_specs_personal_collecti@ 000000000000b2b0     BaseDebugLibSerialPort:DebugLib.obj
 0002:00001710       ??_C@_0BI@NOCKJDBJ@ASSERT?5?$FL?$CFa?$FN?5?$CFa?$CI?$CFd?$CJ?3?5?$CFa?6@ 000000000000b310     BaseDebugLibSerialPort:DebugLib.obj
 0002:00001728       ??_C@_0BN@COECPDCC@gImageHandle?5?$CB?$DN?5?$CI?$CIvoid?5?$CK?$CJ?50?$CJ@ 000000000000b328     UefiBootServicesTableLib:UefiBootServicesTableLib.obj
 0002:00001750       ??_C@_0GL@PJCPJLGM@D?3?2uefi_specs_personal_collecti@ 000000000000b350     UefiBootServicesTableLib:UefiBootServicesTableLib.obj
 0002:000017c0       ??_C@_0BE@DGNHAHIL@gST?5?$CB?$DN?5?$CI?$CIvoid?5?$CK?$CJ?50?$CJ@ 000000000000b3c0     UefiBootServicesTableLib:UefiBootServicesTableLib.obj
 0002:000017d8       ??_C@_0BE@BDFJLGLN@gBS?5?$CB?$DN?5?$CI?$CIvoid?5?$CK?$CJ?50?$CJ@ 000000000000b3d8     UefiBootServicesTableLib:UefiBootServicesTableLib.obj
 0002:000017f0       ??_C@_0GF@KMHDEKMA@D?3?2uefi_specs_personal_collecti@ 000000000000b3f0     UefiMemoryAllocationLib:MemoryAllocationLib.obj
 0002:00001858       ??_C@_0CD@GECBLADO@?$CIAlignment?5?$CG?5?$CIAlignment?5?9?51?$CJ?$CJ?5?$DN@ 000000000000b458     UefiMemoryAllocationLib:MemoryAllocationLib.obj
 0002:00001880       ??_C@_0BC@BDMGDFME@RealPages?5?$DO?5Pages@ 000000000000b480     UefiMemoryAllocationLib:MemoryAllocationLib.obj
 0002:00001898       ??_C@_0DO@GEEICOOO@AllocationSize?5?$DM?$DN?5?$CI0xFFFFFFFFFF@ 000000000000b498     UefiMemoryAllocationLib:MemoryAllocationLib.obj
 0002:000018d8       ??_C@_0BE@OBDFIHND@gRT?5?$CB?$DN?5?$CI?$CIvoid?5?$CK?$CJ?50?$CJ@ 000000000000b4d8     UefiRuntimeServicesTableLib:UefiRuntimeServicesTableLib.obj
 0002:000018f0       ??_C@_0HB@NCAPNEDO@D?3?2uefi_specs_personal_collecti@ 000000000000b4f0     UefiRuntimeServicesTableLib:UefiRuntimeServicesTableLib.obj
 0002:00001970       ??_C@_0GP@HEOOPGAM@D?3?2uefi_specs_personal_collecti@ 000000000000b570     UefiDevicePathLibDevicePathProtocol:UefiDevicePathLib.obj
 0002:000019e0       ??_C@_0DC@CNNBPJA@mDevicePathLibDevicePathUtiliti@ 000000000000b5e0     UefiDevicePathLibDevicePathProtocol:UefiDevicePathLib.obj
 0002:00001a18       ??_C@_0BF@CBLMFKOC@Node?5?$CB?$DN?5?$CI?$CIvoid?5?$CK?$CJ?50?$CJ@ 000000000000b618     UefiDevicePathLibDevicePathProtocol:UefiDevicePathLib.obj
 0002:00001a30       ??_C@_0FB@KFBGMLJM@D?3?2uefi_specs_personal_collecti@ 000000000000b630     UefiLib:UefiDriverModel.obj
 0002:00001a90       ??_C@_0EK@CGIIDOCH@D?3?2uefi_specs_personal_collecti@ 000000000000b690     DxeHobLib:HobLib.obj
 0002:00001ae0       ??_C@_0BJ@OBFMLLDO@mHobList?5?$CB?$DN?5?$CI?$CIvoid?5?$CK?$CJ?50?$CJ@ 000000000000b6e0     DxeHobLib:HobLib.obj
 0002:00001b00       ??_C@_0BJ@NOLLDKJB@HobStart?5?$CB?$DN?5?$CI?$CIvoid?5?$CK?$CJ?50?$CJ@ 000000000000b700     DxeHobLib:HobLib.obj
 0002:00001b20       ??_C@_0BP@LHBKJBMC@PlatformInfoHob?5is?5not?5found?4?6@ 000000000000b720     DxeAcpiTimerLib:DxeAcpiTimerLib.obj
 0002:00001b40       ??_C@_0FH@PGONMIHN@D?3?2uefi_specs_personal_collecti@ 000000000000b740     DxeAcpiTimerLib:DxeAcpiTimerLib.obj
 0002:00001b98       ??_C@_0BI@HAGPDMHJ@AcpiTimerLibConstructor@ 000000000000b798     DxeAcpiTimerLib:DxeAcpiTimerLib.obj
 0002:00001bb0       ??_C@_0CL@DGCOIACG@?$CFa?3?5Unknown?5Host?5Bridge?5Device?5@ 000000000000b7b0     DxeAcpiTimerLib:DxeAcpiTimerLib.obj
 0002:00001be0       ??_C@_0EN@ENFGNHA@D?3?2uefi_specs_personal_collecti@ 000000000000b7e0     DxePcdLib:DxePcdLib.obj
 0002:00001c30       ??_C@_0BF@OOKDELHM@mPcd?5?$CB?$DN?5?$CI?$CIvoid?5?$CK?$CJ?50?$CJ@ 000000000000b830     DxePcdLib:DxePcdLib.obj
 0002:00001c48       ??_C@_0BH@MAAHKCPC@String?5?$CB?$DN?5?$CI?$CIvoid?5?$CK?$CJ?50?$CJ@ 000000000000b848     BaseLib:String.obj
 0002:00001c60       ??_C@_0EI@LOLLHGDK@D?3?2uefi_specs_personal_collecti@ 000000000000b860     BaseLib:String.obj
 0002:00001ca8       ??_C@_0CC@GFNLNIOC@?$CI?$CIUINTN?$CJString?5?$CG?50x00000001?$CJ?5?$DN?$DN@ 000000000000b8a8     BaseLib:String.obj
 0002:00001cd0       ??_C@_0DI@MDIKFADO@Length?5?$DM?5_gPcd_FixedAtBuild_Pcd@ 000000000000b8d0     BaseLib:String.obj
 0002:00001d08       ??_C@_0BL@IKFBNFIL@AsciiStrSize?5?$CIFirstString?$CJ@ 000000000000b908     BaseLib:String.obj
 0002:00001d28       ??_C@_0BM@EDNOKLLE@AsciiStrSize?5?$CISecondString?$CJ@ 000000000000b928     BaseLib:String.obj
 0002:00001d48       ??_C@_0DJ@JJHGIFMP@Length?5?$DM?$DN?5_gPcd_FixedAtBuild_Pc@ 000000000000b948     BaseLib:String.obj
 0002:00001d90       ??_C@_0EL@GLNKFHII@D?3?2uefi_specs_personal_collecti@ 000000000000b990     BaseLib:Unaligned.obj
 0002:00001de0       ??_C@_0FE@LIGPAOFO@D?3?2uefi_specs_personal_collecti@ 000000000000b9e0     BaseLib:DivU64x32Remainder.obj
 0002:00001e40       ??_C@_0EM@OAPOMMAE@D?3?2uefi_specs_personal_collecti@ 000000000000ba40     BaseLib:SafeString.obj
 0002:00001e90       ??_C@_0BJ@CNKJJNE@?$CIBuffer?5?$CB?$DN?5?$CI?$CIvoid?5?$CK?$CJ?50?$CJ?$CJ@ 000000000000ba90     BaseLib:SafeString.obj
 0002:00001eb0       ??_C@_0FF@GCKLFLDF@D?3?2uefi_specs_personal_collecti@ 000000000000bab0     BaseIoLibIntrinsicSev:IoLibMsc.obj
 0002:00001f08       ??_C@_0BA@HCECIDGN@?$CIPort?5?$CG?53?$CJ?5?$DN?$DN?50@ 000000000000bb08     BaseIoLibIntrinsicSev:IoLibMsc.obj
 0002:00001f20       ??_C@_0FN@DOAHIAPG@D?3?2uefi_specs_personal_collecti@ 000000000000bb20     BaseIoLibIntrinsicSev:IoLibInternalTdx.obj
 0002:00001f80       ??_C@_0BD@OMMAJMCK@?$CIAddress?5?$CG?53?$CJ?5?$DN?$DN?50@ 000000000000bb80     BaseIoLibIntrinsicSev:IoLibInternalTdx.obj
 0002:00001fa0       ??_C@_0FH@MODEAFEI@D?3?2uefi_specs_personal_collecti@ 000000000000bba0     BasePrintLib:PrintLibInternal.obj
 0002:00002000       ??_C@_0EB@HDGIDCIO@?$CIBufferSize?5?$DM?$DN?5?$CI_gPcd_FixedAtBu@ 000000000000bc00     BasePrintLib:PrintLibInternal.obj
 0002:00002048       ??_C@_0BJ@PPAKKDJG@?$CIFormat?5?$CB?$DN?5?$CI?$CIvoid?5?$CK?$CJ?50?$CJ?$CJ@ 000000000000bc48     BasePrintLib:PrintLibInternal.obj
 0002:00002070       ??_C@_0ED@LPDDCECB@?$CIBufferSize?5?$DM?$DN?5?$CI_gPcd_FixedAtBu@ 000000000000bc70     BasePrintLib:PrintLibInternal.obj
 0002:000020c0       ??_C@_0IM@BFJJFLGB@?$CIStrnLenS?5?$CI?$CICHAR16?5?$CK?$CJFormat?0?5?$CI_@ 000000000000bcc0     BasePrintLib:PrintLibInternal.obj
 0002:00002150       ??_C@_0ID@PLGJGION@?$CIAsciiStrnLenS?5?$CIFormat?0?5?$CI_gPcd_@ 000000000000bd50     BasePrintLib:PrintLibInternal.obj
 0002:000021d8       ??_C@_0O@MLOLIMFM@?$DMnull?5string?$DO@ 000000000000bdd8     BasePrintLib:PrintLibInternal.obj
 0002:000021e8       ??_C@_0M@BJJDNPHK@?$DMnull?5guid?$DO@ 000000000000bde8     BasePrintLib:PrintLibInternal.obj
 0002:000021f8       ??_C@_0DB@PMLHLBMO@?$CF08x?9?$CF04x?9?$CF04x?9?$CF02x?$CF02x?9?$CF02x?$CF02@ 000000000000bdf8     BasePrintLib:PrintLibInternal.obj
 0002:00002230       ??_C@_0M@LHGBCIKM@?$DMnull?5time?$DO@ 000000000000be30     BasePrintLib:PrintLibInternal.obj
 0002:00002240       ??_C@_0BK@FCPKCIDD@?$CF02d?1?$CF02d?1?$CF04d?5?5?$CF02d?3?$CF02d@ 000000000000be40     BasePrintLib:PrintLibInternal.obj
 0002:0000225c       ??_C@_04JIMNDDED@?$CF08X@  000000000000be5c     BasePrintLib:PrintLibInternal.obj
 0002:00002264       ??_C@_02PCIJFNDE@?$AN?6@   000000000000be64     BasePrintLib:PrintLibInternal.obj
 0002:00002268       ??_C@_01LIIJDEN@?$AN@      000000000000be68     BasePrintLib:PrintLibInternal.obj
 0002:00002270       mWarningString             000000000000be70     BasePrintLib:PrintLibInternal.obj
 0002:00002340       mErrorString               000000000000bf40     BasePrintLib:PrintLibInternal.obj
 0002:00002620       mHexStr                    000000000000c220     BasePrintLib:PrintLibInternal.obj
 0002:00002630       ??_C@_0BO@BAKALPJK@?$CI?$CIAddress?$CJ?5?$CG?5?$HO0xfffffff?$CJ?5?$DN?$DN?50@ 000000000000c230     BasePciExpressLib:PciExpressLib.obj
 0002:00002650       ??_C@_0FJ@LPMKGGAK@D?3?2uefi_specs_personal_collecti@ 000000000000c250     BasePciExpressLib:PciExpressLib.obj
 0002:000026b0       ??_C@_0FB@PDIKDBMH@D?3?2uefi_specs_personal_collecti@ 000000000000c2b0     BasePciCf8Lib:PciCf8Lib.obj
 0002:00002708       ??_C@_0CG@EDKLCMBO@?$CI?$CIAddress?$CJ?5?$CG?5?$CI?$HO0xffff0ff?5?$HM?5?$CI3?$CJ?$CJ@ 000000000000c308     BasePciCf8Lib:PciCf8Lib.obj
 0002:00002730       ??_C@_0CB@GEABOFIF@Failed?5call?5TDCALL_TDINFO?4?5?$CFllx@ 000000000000c330     TdxLib:TdInfo.obj
 0002:00002760       ??_C@_0FC@MAJHMCGF@D?3?2uefi_specs_personal_collecti@ 000000000000c360     BaseIoLibIntrinsicSev:IoLib.obj
 0002:00002808       __volatile_metadata        000000000000c408     <linker-defined>
 0003:00000000       gEfiStatusCodeRuntimeProtocolGuid 000000000000c5c0     AtaAtapiPassThruDxe:AutoGen.obj
 0003:00000010       gEfiExtScsiPassThruProtocolGuid 000000000000c5d0     AtaAtapiPassThruDxe:AutoGen.obj
 0003:00000020       gEfiAtaPassThruProtocolGuid 000000000000c5e0     AtaAtapiPassThruDxe:AutoGen.obj
 0003:00000030       gEfiComponentName2ProtocolGuid 000000000000c5f0     AtaAtapiPassThruDxe:AutoGen.obj
 0003:00000040       gPcdProtocolGuid           000000000000c600     AtaAtapiPassThruDxe:AutoGen.obj
 0003:00000050       gEfiDevicePathProtocolGuid 000000000000c610     AtaAtapiPassThruDxe:AutoGen.obj
 0003:00000060       gEfiPciIoProtocolGuid      000000000000c620     AtaAtapiPassThruDxe:AutoGen.obj
 0003:00000070       gUefiOvmfPkgPlatformInfoGuid 000000000000c630     AtaAtapiPassThruDxe:AutoGen.obj
 0003:00000080       gEfiDevicePathUtilitiesProtocolGuid 000000000000c640     AtaAtapiPassThruDxe:AutoGen.obj
 0003:00000090       gEfiHobListGuid            000000000000c650     AtaAtapiPassThruDxe:AutoGen.obj
 0003:000000a0       gEdkiiAtaAtapiPolicyProtocolGuid 000000000000c660     AtaAtapiPassThruDxe:AutoGen.obj
 0003:000000b0       gEfiDriverBindingProtocolGuid 000000000000c670     AtaAtapiPassThruDxe:AutoGen.obj
 0003:000000c0       gEfiIdeControllerInitProtocolGuid 000000000000c680     AtaAtapiPassThruDxe:AutoGen.obj
 0003:000000d0       gEfiComponentNameProtocolGuid 000000000000c690     AtaAtapiPassThruDxe:AutoGen.obj
 0003:000000e0       gEfiCallerIdGuid           000000000000c6a0     AtaAtapiPassThruDxe:AutoGen.obj
 0003:000000f0       mAtapiDevicePathTemplate   000000000000c6b0     AtaAtapiPassThruDxe:AtaAtapiPassThru.obj
 0003:00000100       gAtaAtapiPassThruInstanceTemplate 000000000000c6c0     AtaAtapiPassThruDxe:AtaAtapiPassThru.obj
 0003:00000290       mSataDevicePathTemplate    000000000000c850     AtaAtapiPassThruDxe:AtaAtapiPassThru.obj
 0003:000002a0       mScsiId                    000000000000c860     AtaAtapiPassThruDxe:AtaAtapiPassThru.obj
 0003:000002b0       mDefaultAtaAtapiPolicy     000000000000c870     AtaAtapiPassThruDxe:AtaAtapiPassThru.obj
 0003:000002b8       gAtaAtapiPassThruDriverBinding 000000000000c878     AtaAtapiPassThruDxe:AtaAtapiPassThru.obj
 0003:000002e8       gAtaAtapiPassThruComponentName 000000000000c8a8     AtaAtapiPassThruDxe:ComponentName.obj
 0003:00000300       gAtaAtapiPassThruComponentName2 000000000000c8c0     AtaAtapiPassThruDxe:ComponentName.obj
 0003:00000320       mAtaAtapiPassThruAhciControllerNameTable 000000000000c8e0     AtaAtapiPassThruDxe:ComponentName.obj
 0003:00000340       mAtaAtapiPassThruIdeControllerNameTable 000000000000c900     AtaAtapiPassThruDxe:ComponentName.obj
 0003:00000360       mAtaAtapiPassThruDriverNameTable 000000000000c920     AtaAtapiPassThruDxe:ComponentName.obj
 0003:00000388       gST                        000000000000c948     UefiBootServicesTableLib:UefiBootServicesTableLib.obj
 0003:00000390       gBS                        000000000000c950     UefiBootServicesTableLib:UefiBootServicesTableLib.obj
 0003:00000398       gImageHandle               000000000000c958     UefiBootServicesTableLib:UefiBootServicesTableLib.obj
 0003:000003a0       gRT                        000000000000c960     UefiRuntimeServicesTableLib:UefiRuntimeServicesTableLib.obj
 0003:000003a8       mDevicePathLibDevicePathUtilities 000000000000c968     UefiDevicePathLibDevicePathProtocol:UefiDevicePathLib.obj
 0003:000003b0       mHobList                   000000000000c970     DxeHobLib:HobLib.obj
 0003:000003b8       mReportStatusCodeLibStatusCodeProtocol 000000000000c978     DxeReportStatusCodeLib:ReportStatusCodeLib.obj
 0003:000003c0       mPcd                       000000000000c980     DxePcdLib:DxePcdLib.obj
 0003:000003d0       gParity                    000000000000c990     PcAtSerialPortLib:SerialPortLib.obj
 0003:000003d1       gBreakSet                  000000000000c991     PcAtSerialPortLib:SerialPortLib.obj
 0003:000003d2       mTdDataReturned            000000000000c992     TdxLib:TdInfo.obj
 0003:000003d8       mTdSharedPageMask          000000000000c998     TdxLib:TdInfo.obj
 0003:000003e8       mAtaAtapiPolicy            000000000000c9a8     <common>

 entry point at        0001:000001f8

 Static symbols

 0001:0000001a       InternalMemCopyMem.0       00000000000002da     BaseMemoryLibRepStr:CopyMem.obj
 0001:0000002a       @CopyBackward              00000000000002ea     BaseMemoryLibRepStr:CopyMem.obj
 0001:00000033       @CopyBytes                 00000000000002f3     BaseMemoryLibRepStr:CopyMem.obj
 0001:00000149       TdVmCall.no_return_data    0000000000000409     BaseLib:TdVmcall.obj
 0001:000001eb       TdCall.exit                00000000000004ab     BaseLib:TdCall.obj
 0003:00000380       mCcProbeGuestType          000000000000c940     DxeCcProbeLib:DxeCcProbeLib.obj
 0003:00000381       mCcProbed                  000000000000c941     DxeCcProbeLib:DxeCcProbeLib.obj
 0003:000003c8       mDeadLoopComparator        000000000000c988     BaseLib:CpuDeadLoop.obj
 0003:000003e0       mRunningOnQ35              000000000000c9a0     DxePciLibI440FxQ35:PciLib.obj
 0003:000003e4       mAcpiTimerIoAddr           000000000000c9a4     DxeAcpiTimerLib:DxeAcpiTimerLib.obj
 0005:00000000       $unwind$IoRead32           000000000000d000     BaseIoLibIntrinsicSev:IoLibMsc.obj
 0005:00000000       $unwind$IoWrite32          000000000000d000     BaseIoLibIntrinsicSev:IoLibMsc.obj
 0005:00000000       $unwind$SaveAndDisableInterrupts 000000000000d000     BaseLib:Cpu.obj
 0005:00000000       $unwind$GetFirstNode       000000000000d000     BaseLib:LinkedList.obj
 0005:00000000       $unwind$GetNextNode        000000000000d000     BaseLib:LinkedList.obj
 0005:00000000       $unwind$InternalBaseLibIsListValid 000000000000d000     BaseLib:LinkedList.obj
 0005:00000000       $unwind$IsListEmpty        000000000000d000     BaseLib:LinkedList.obj
 0005:00000000       $unwind$RemoveEntryList    000000000000d000     BaseLib:LinkedList.obj
 0005:00000000       $unwind$StrnLenS           000000000000d000     BaseLib:SafeString.obj
 0005:00000000       $unwind$PciExpressRead32   000000000000d000     BasePciExpressLib:PciExpressLib.obj
 0005:00000000       $unwind$DevicePathNodeLength 000000000000d000     UefiDevicePathLibDevicePathProtocol:UefiDevicePathLib.obj
 0005:00000000       $unwind$_ModuleEntryPoint  000000000000d000     UefiDriverEntryPoint:DriverEntryPoint.obj
 0005:00000000       $unwind$MicroSecondDelay   000000000000d000     DxeAcpiTimerLib:AcpiTimerLib.obj
 0005:00000008       $unwind$ProcessLibraryConstructorList 000000000000d008     AtaAtapiPassThruDxe:AutoGen.obj
 0005:00000008       $unwind$LookupUnicodeString2 000000000000d008     UefiLib:UefiLib.obj
 0005:00000020       $unwind$ProcessModuleEntryPointList 000000000000d020     AtaAtapiPassThruDxe:AutoGen.obj
 0005:0000002c       $unwind$AtaPassThruPassThruExecute 000000000000d02c     AtaAtapiPassThruDxe:AtaAtapiPassThru.obj
 0005:0000002c       $unwind$AtaIdentify        000000000000d02c     AtaAtapiPassThruDxe:IdeMode.obj
 0005:0000002c       $unwind$AtaIdentifyPacket  000000000000d02c     AtaAtapiPassThruDxe:IdeMode.obj
 0005:00000040       $unwind$AhciDisableFisReceive 000000000000d040     AtaAtapiPassThruDxe:AhciMode.obj
 0005:00000040       $unwind$AhciStopCommand    000000000000d040     AtaAtapiPassThruDxe:AhciMode.obj
 0005:00000040       $unwind$AsyncNonBlockingTransferRoutine 000000000000d040     AtaAtapiPassThruDxe:AtaAtapiPassThru.obj
 0005:00000040       $unwind$InternalReportStatusCode 000000000000d040     DxeReportStatusCodeLib:ReportStatusCodeLib.obj
 0005:00000050       $unwind$AtaAtapiPassThruSupported 000000000000d050     AtaAtapiPassThruDxe:AtaAtapiPassThru.obj
 0005:0000005c       $unwind$AtaAtapiPassThruStart 000000000000d05c     AtaAtapiPassThruDxe:AtaAtapiPassThru.obj
 0005:00000070       $unwind$AtaAtapiPassThruStop 000000000000d070     AtaAtapiPassThruDxe:AtaAtapiPassThru.obj
 0005:00000080       $unwind$AhciWaitDeviceReady 000000000000d080     AtaAtapiPassThruDxe:AhciMode.obj
 0005:00000080       $unwind$AtaPassThruGetNextDevice 000000000000d080     AtaAtapiPassThruDxe:AtaAtapiPassThru.obj
 0005:00000080       $unwind$DestroyAsynTaskList 000000000000d080     AtaAtapiPassThruDxe:AtaAtapiPassThru.obj
 0005:00000080       $unwind$SearchDeviceInfoList 000000000000d080     AtaAtapiPassThruDxe:AtaAtapiPassThru.obj
 0005:00000080       $unwind$AtaIssueCommand    000000000000d080     AtaAtapiPassThruDxe:IdeMode.obj
 0005:00000098       $unwind$AhciWaitUntilFisReceived 000000000000d098     AtaAtapiPassThruDxe:AhciMode.obj
 0005:00000098       $unwind$AtaPassThruBuildDevicePath 000000000000d098     AtaAtapiPassThruDxe:AtaAtapiPassThru.obj
 0005:00000098       $unwind$CreateNewDeviceInfo 000000000000d098     AtaAtapiPassThruDxe:AtaAtapiPassThru.obj
 0005:00000098       $unwind$ExtScsiPassThruGetNextTargetLun 000000000000d098     AtaAtapiPassThruDxe:AtaAtapiPassThru.obj
 0005:00000098       $unwind$ExtScsiPassThruGetTargetLun 000000000000d098     AtaAtapiPassThruDxe:AtaAtapiPassThru.obj
 0005:00000098       $unwind$AtaUdmStatusWait   000000000000d098     AtaAtapiPassThruDxe:IdeMode.obj
 0005:000000b0       $unwind$AhciAndReg         000000000000d0b0     AtaAtapiPassThruDxe:AhciMode.obj
 0005:000000b0       $unwind$AhciCheckFisReceived 000000000000d0b0     AtaAtapiPassThruDxe:AhciMode.obj
 0005:000000b0       $unwind$AhciOrReg          000000000000d0b0     AtaAtapiPassThruDxe:AhciMode.obj
 0005:000000b0       $unwind$AtaPassThruResetDevice 000000000000d0b0     AtaAtapiPassThruDxe:AtaAtapiPassThru.obj
 0005:000000b0       $unwind$DestroyDeviceInfoList 000000000000d0b0     AtaAtapiPassThruDxe:AtaAtapiPassThru.obj
 0005:000000b0       $unwind$ExtScsiPassThruResetTargetLun 000000000000d0b0     AtaAtapiPassThruDxe:AtaAtapiPassThru.obj
 0005:000000b0       $unwind$DivU64x32Remainder 000000000000d0b0     BaseLib:DivU64x32Remainder.obj
 0005:000000b0       $unwind$AsciiStrnCmp       000000000000d0b0     BaseLib:String.obj
 0005:000000b0       $unwind$PciCf8Read32       000000000000d0b0     BasePciCf8Lib:PciCf8Lib.obj
 0005:000000b0       $unwind$GetHobList         000000000000d0b0     DxeHobLib:HobLib.obj
 0005:000000b0       $unwind$IsLanguageSupported 000000000000d0b0     UefiLib:UefiLib.obj
 0005:000000b0       $unwind$InternalAcpiDelay  000000000000d0b0     DxeAcpiTimerLib:AcpiTimerLib.obj
 0005:000000b0       $unwind$SerialPortWrite    000000000000d0b0     PcAtSerialPortLib:SerialPortLib.obj
 0005:000000c0       $unwind$EnumerateAttachedDevice 000000000000d0c0     AtaAtapiPassThruDxe:AtaAtapiPassThru.obj
 0005:000000c8       $unwind$AhciStartCommand   000000000000d0c8     AtaAtapiPassThruDxe:AhciMode.obj
 0005:000000c8       $unwind$AtaPassThruPassThru 000000000000d0c8     AtaAtapiPassThruDxe:AtaAtapiPassThru.obj
 0005:000000e0       $unwind$AhciShouldCmdBeRetried 000000000000d0e0     AtaAtapiPassThruDxe:AhciMode.obj
 0005:000000e0       $unwind$AtaPassThruGetNextPort 000000000000d0e0     AtaAtapiPassThruDxe:AtaAtapiPassThru.obj
 0005:000000e0       $unwind$ExtScsiPassThruGetNextTarget 000000000000d0e0     AtaAtapiPassThruDxe:AtaAtapiPassThru.obj
 0005:000000e0       $unwind$AtaNonDataCommandIn 000000000000d0e0     AtaAtapiPassThruDxe:IdeMode.obj
 0005:000000e0       $unwind$DRQClear           000000000000d0e0     AtaAtapiPassThruDxe:IdeMode.obj
 0005:000000e0       $unwind$DRQReady           000000000000d0e0     AtaAtapiPassThruDxe:IdeMode.obj
 0005:000000e0       $unwind$DRQReady2          000000000000d0e0     AtaAtapiPassThruDxe:IdeMode.obj
 0005:000000e0       $unwind$WaitForBSYClear    000000000000d0e0     AtaAtapiPassThruDxe:IdeMode.obj
 0005:000000e0       $unwind$CompareMem         000000000000d0e0     BaseMemoryLibRepStr:CompareMemWrapper.obj
 0005:000000e0       $unwind$CopyMem            000000000000d0e0     BaseMemoryLibRepStr:CopyMemWrapper.obj
 0005:000000f4       $unwind$AhciDumpPortStatus 000000000000d0f4     AtaAtapiPassThruDxe:AhciMode.obj
 0005:000000f4       $unwind$AtaPassThruGetDevice 000000000000d0f4     AtaAtapiPassThruDxe:AtaAtapiPassThru.obj
 0005:00000108       $unwind$AtaPacketRequestSense 000000000000d108     AtaAtapiPassThruDxe:AtaAtapiPassThru.obj
 0005:00000120       $unwind$ExtScsiPassThruPassThru 000000000000d120     AtaAtapiPassThruDxe:AtaAtapiPassThru.obj
 0005:0000013c       $unwind$ExtScsiPassThruBuildDevicePath 000000000000d13c     AtaAtapiPassThruDxe:AtaAtapiPassThru.obj
 0005:00000158       $unwind$AhciReadReg        000000000000d158     AtaAtapiPassThruDxe:AhciMode.obj
 0005:00000158       $unwind$IdeReadPortB       000000000000d158     AtaAtapiPassThruDxe:IdeMode.obj
 0005:00000164       $unwind$AhciWriteReg       000000000000d164     AtaAtapiPassThruDxe:AhciMode.obj
 0005:00000164       $unwind$IdeWritePortB      000000000000d164     AtaAtapiPassThruDxe:IdeMode.obj
 0005:00000170       $unwind$AhciWaitMmioSet    000000000000d170     AtaAtapiPassThruDxe:AhciMode.obj
 0005:00000188       $unwind$AhciBuildCommand   000000000000d188     AtaAtapiPassThruDxe:AhciMode.obj
 0005:000001a4       $unwind$AhciBuildCommandFis 000000000000d1a4     AtaAtapiPassThruDxe:AhciMode.obj
 0005:000001a4       $unwind$CheckStatusRegister 000000000000d1a4     AtaAtapiPassThruDxe:IdeMode.obj
 0005:000001a4       $unwind$InsertTailList     000000000000d1a4     BaseLib:LinkedList.obj
 0005:000001a4       $unwind$IsNull             000000000000d1a4     BaseLib:LinkedList.obj
 0005:000001a4       $unwind$AsciiStrLen        000000000000d1a4     BaseLib:String.obj
 0005:000001a4       $unwind$ZeroMem            000000000000d1a4     BaseMemoryLibRepStr:ZeroMemWrapper.obj
 0005:000001a4       $unwind$InternalAllocateCopyPool 000000000000d1a4     UefiMemoryAllocationLib:MemoryAllocationLib.obj
 0005:000001b0       $unwind$AhciRecoverPortError 000000000000d1b0     AtaAtapiPassThruDxe:AhciMode.obj
 0005:000001c8       $unwind$AhciPrintCommandBlock 000000000000d1c8     AtaAtapiPassThruDxe:AhciMode.obj
 0005:000001d4       $unwind$AhciPrintStatusBlock 000000000000d1d4     AtaAtapiPassThruDxe:AhciMode.obj
 0005:000001e0       $unwind$AhciPioTransfer    000000000000d1e0     AtaAtapiPassThruDxe:AhciMode.obj
 0005:000001f8       $unwind$AhciDmaTransfer    000000000000d1f8     AtaAtapiPassThruDxe:AhciMode.obj
 0005:00000214       $unwind$AhciNonDataTransfer 000000000000d214     AtaAtapiPassThruDxe:AhciMode.obj
 0005:0000022c       $unwind$AhciAtaSmartReturnStatusCheck 000000000000d22c     AtaAtapiPassThruDxe:AhciMode.obj
 0005:0000023c       $unwind$AhciAtaSmartSupport 000000000000d23c     AtaAtapiPassThruDxe:AhciMode.obj
 0005:00000250       $unwind$AhciIdentify       000000000000d250     AtaAtapiPassThruDxe:AhciMode.obj
 0005:00000250       $unwind$AhciReadLogExt     000000000000d250     AtaAtapiPassThruDxe:AhciMode.obj
 0005:00000268       $unwind$AhciIdentifyPacket 000000000000d268     AtaAtapiPassThruDxe:AhciMode.obj
 0005:0000027c       $unwind$AhciDeviceSetFeature 000000000000d27c     AtaAtapiPassThruDxe:AhciMode.obj
 0005:0000028c       $unwind$AhciPacketCommandExecute 000000000000d28c     AtaAtapiPassThruDxe:AhciMode.obj
 0005:000002a8       $unwind$AhciCreateTransferDescriptor 000000000000d2a8     AtaAtapiPassThruDxe:AhciMode.obj
 0005:000002c0       $unwind$AhciEnableDevSlp   000000000000d2c0     AtaAtapiPassThruDxe:AhciMode.obj
 0005:000002dc       $unwind$AhciSpinUpDisk     000000000000d2dc     AtaAtapiPassThruDxe:AhciMode.obj
 0005:000002f8       $unwind$AhciModeInitialization 000000000000d2f8     AtaAtapiPassThruDxe:AhciMode.obj
 0005:00000310       $unwind$DumpAllIdeRegisters 000000000000d310     AtaAtapiPassThruDxe:IdeMode.obj
 0005:00000324       $unwind$GetIdeRegisterIoAddr 000000000000d324     AtaAtapiPassThruDxe:IdeMode.obj
 0005:00000330       $unwind$AtaPioDataInOut    000000000000d330     AtaAtapiPassThruDxe:IdeMode.obj
 0005:0000034c       $unwind$AtaUdmaInOut       000000000000d34c     AtaAtapiPassThruDxe:IdeMode.obj
 0005:00000364       $unwind$AtaPacketReadWrite 000000000000d364     AtaAtapiPassThruDxe:IdeMode.obj
 0005:00000380       $unwind$AtaPacketCommandExecute 000000000000d380     AtaAtapiPassThruDxe:IdeMode.obj
 0005:00000398       $unwind$SetDeviceTransferMode 000000000000d398     AtaAtapiPassThruDxe:IdeMode.obj
 0005:00000398       $unwind$SetDriveParameters 000000000000d398     AtaAtapiPassThruDxe:IdeMode.obj
 0005:000003ac       $unwind$IdeAtaSmartReturnStatusCheck 000000000000d3ac     AtaAtapiPassThruDxe:IdeMode.obj
 0005:000003bc       $unwind$IdeAtaSmartSupport 000000000000d3bc     AtaAtapiPassThruDxe:IdeMode.obj
 0005:000003d4       $unwind$DetectAndConfigIdeDevice 000000000000d3d4     AtaAtapiPassThruDxe:IdeMode.obj
 0005:000003ec       $unwind$IdeModeInitialization 000000000000d3ec     AtaAtapiPassThruDxe:IdeMode.obj
 0005:00000400       $unwind$AtaAtapiPassThruComponentNameGetDriverName 000000000000d400     AtaAtapiPassThruDxe:ComponentName.obj
 0005:00000408       $unwind$AtaAtapiPassThruComponentNameGetControllerName 000000000000d408     AtaAtapiPassThruDxe:ComponentName.obj
 0005:0000041c       $unwind$DebugPrint         000000000000d41c     BaseDebugLibSerialPort:DebugLib.obj
 0005:00000424       $unwind$DebugPrintMarker   000000000000d424     BaseDebugLibSerialPort:DebugLib.obj
 0005:00000438       $unwind$DebugAssert        000000000000d438     BaseDebugLibSerialPort:DebugLib.obj
 0005:00000440       $unwind$InternalAllocateAlignedPages 000000000000d440     UefiMemoryAllocationLib:MemoryAllocationLib.obj
 0005:00000454       $unwind$IoRead8            000000000000d454     BaseIoLibIntrinsicSev:IoLibMsc.obj
 0005:00000454       $unwind$GetPcdProtocol     000000000000d454     DxePcdLib:DxePcdLib.obj
 0005:00000454       $unwind$TdSharedPageMask   000000000000d454     TdxLib:TdInfo.obj
 0005:00000454       $unwind$FreePool           000000000000d454     UefiMemoryAllocationLib:MemoryAllocationLib.obj
 0005:00000454       $unwind$InternalAllocatePool 000000000000d454     UefiMemoryAllocationLib:MemoryAllocationLib.obj
 0005:0000045c       $unwind$CompareGuid        000000000000d45c     BaseMemoryLibRepStr:MemLibGuid.obj
 0005:00000474       $unwind$TdIoRead8          000000000000d474     BaseIoLibIntrinsicSev:IoLibInternalTdx.obj
 0005:00000474       $unwind$BasePrintLibSPrint 000000000000d474     BasePrintLib:PrintLibInternal.obj
 0005:0000047c       $unwind$MmioRead32         000000000000d47c     BaseIoLibIntrinsicSev:IoLib.obj
 0005:0000047c       $unwind$TdIoRead32         000000000000d47c     BaseIoLibIntrinsicSev:IoLibInternalTdx.obj
 0005:0000047c       $unwind$TdIoWrite32        000000000000d47c     BaseIoLibIntrinsicSev:IoLibInternalTdx.obj
 0005:0000047c       $unwind$TdIoWrite8         000000000000d47c     BaseIoLibIntrinsicSev:IoLibInternalTdx.obj
 0005:00000484       $unwind$AsciiSPrint        000000000000d484     BasePrintLib:PrintLib.obj
 0005:0000048c       $unwind$BasePrintLibValueToString 000000000000d48c     BasePrintLib:PrintLibInternal.obj
 0005:00000498       $unwind$BasePrintLibSPrintMarker 000000000000d498     BasePrintLib:PrintLibInternal.obj
 0005:000004b4       $unwind$GetTdInfo          000000000000d4b4     TdxLib:TdInfo.obj
