 CpuMpPei

 Timestamp is 6725e4a7 (Sat Nov  2 16:36:55 2024)

 Preferred load address is 0000000000000000

 Start         Length     Name                   Class
 0001:00000000 00000874H .text                   CODE
 0001:00000874 00007db5H .text$mn                CODE
 0002:00000000 00002b64H .rdata                  DATA
 0002:00002b64 00000094H .rdata$voltmd           DATA
 0002:00002bf8 00000168H .rdata$zzzdbg           DATA
 0003:00000000 00000170H .data                   DATA
 0003:00000170 00000018H .bss                    DATA
 0004:00000000 00000528H .pdata                  DATA
 0005:00000000 00000354H .xdata                  DATA

  Address         Publics by Value              Rva+Base               Lib:Object

 0000:00000000       __x64_code_ranges_to_entry_points_count 0000000000000000     <absolute>
 0000:00000000       __guard_iat_table          0000000000000000     <absolute>
 0000:00000000       __guard_iat_count          0000000000000000     <absolute>
 0000:00000000       __guard_longjmp_count      0000000000000000     <absolute>
 0000:00000000       __dynamic_value_reloc_table 0000000000000000     <absolute>
 0000:00000000       __guard_longjmp_table      0000000000000000     <absolute>
 0000:00000000       __hybrid_auxiliary_iat     0000000000000000     <absolute>
 0000:00000000       __x64_code_ranges_to_entry_points 0000000000000000     <absolute>
 0000:00000000       __hybrid_auxiliary_iat_copy 0000000000000000     <absolute>
 0000:00000000       __arm64x_redirection_metadata 0000000000000000     <absolute>
 0000:00000000       __guard_fids_count         0000000000000000     <absolute>
 0000:00000000       __arm64x_extra_rfe_table   0000000000000000     <absolute>
 0000:00000000       __AbsoluteZero             0000000000000000     <absolute>
 0000:00000000       __guard_check_icall_a64n_fptr 0000000000000000     <absolute>
 0000:00000000       __hybrid_code_map          0000000000000000     <absolute>
 0000:00000000       __arm64x_extra_rfe_table_size 0000000000000000     <absolute>
 0000:00000000       __guard_fids_table         0000000000000000     <absolute>
 0000:00000000       __guard_flags              0000000000000000     <absolute>
 0000:00000000       __guard_eh_cont_count      0000000000000000     <absolute>
 0000:00000000       __arm64x_redirection_metadata_count 0000000000000000     <absolute>
 0000:00000000       __enclave_config           0000000000000000     <absolute>
 0000:00000000       __guard_eh_cont_table      0000000000000000     <absolute>
 0000:00000000       __hybrid_code_map_count    0000000000000000     <absolute>
 0000:00000000       __arm64x_native_entrypoint 0000000000000000     <absolute>
 0000:00000000       __ImageBase                0000000000000000     <linker-defined>
 0001:00000000       InternalMemZeroMem         00000000000002c0     BaseMemoryLibRepStr:ZeroMem.obj
 0001:00000020       InternalMemCopyMem         00000000000002e0     BaseMemoryLibRepStr:CopyMem.obj
 0001:00000060       AsmCpuidEx                 0000000000000320     BaseLib:CpuIdEx.obj
 0001:00000090       AsmCpuid                   0000000000000350     BaseLib:CpuId.obj
 0001:000000c0       AsmReadCr0                 0000000000000380     BaseLib:ReadCr0.obj
 0001:000000d0       AsmReadCr3                 0000000000000390     BaseLib:ReadCr3.obj
 0001:000000e0       AsmWriteCr0                00000000000003a0     BaseLib:WriteCr0.obj
 0001:000000f0       AsmWriteCr4                00000000000003b0     BaseLib:WriteCr4.obj
 0001:00000100       AsmWriteCr3                00000000000003c0     BaseLib:WriteCr3.obj
 0001:00000110       AsmReadCr4                 00000000000003d0     BaseLib:ReadCr4.obj
 0001:00000120       TdVmCall                   00000000000003e0     BaseLib:TdVmcall.obj
 0001:000001a0       CpuPause                   0000000000000460     BaseLib:CpuPause.obj
 0001:000001b0       EnableInterrupts           0000000000000470     BaseLib:EnableInterrupts.obj
 0001:000001c0       DisableInterrupts          0000000000000480     BaseLib:DisableInterrupts.obj
 0001:000001d0       AsmReadEflags              0000000000000490     BaseLib:ReadEflags.obj
 0001:000003f1       CommonInterruptEntry       00000000000006b1     PeiCpuExceptionHandlerLib:SecPeiExceptionHandlerAsm.obj
 0001:000005c0       AsmGetTemplateAddressMap   0000000000000880     PeiCpuExceptionHandlerLib:SecPeiExceptionHandlerAsm.obj
 0001:000005de       AsmVectorNumFixup          000000000000089e     PeiCpuExceptionHandlerLib:SecPeiExceptionHandlerAsm.obj
 0001:000005f0       TdVmCallCpuid              00000000000008b0     CcExitLib:TdVmcallCpuid.obj
 0001:00000680       InternalMemSetMem          0000000000000940     BaseMemoryLibRepStr:SetMem.obj
 0001:000006a0       InternalMemSetMem64        0000000000000960     BaseMemoryLibRepStr:SetMem64.obj
 0001:000006c0       InternalMemSetMem32        0000000000000980     BaseMemoryLibRepStr:SetMem32.obj
 0001:000006e0       AsmReadCs                  00000000000009a0     BaseLib:ReadCs.obj
 0001:000006f0       AsmWriteTr                 00000000000009b0     BaseLib:WriteTr.obj
 0001:00000700       TdCall                     00000000000009c0     BaseLib:TdCall.obj
 0001:00000760       AsmXGetBv                  0000000000000a20     BaseLib:XGetBv.obj
 0001:00000770       AsmVmgExit                 0000000000000a30     BaseLib:VmgExit.obj
 0001:00000780       InternalX86ReadIdtr        0000000000000a40     BaseLib:ReadIdtr.obj
 0001:00000790       InternalX86WriteGdtr       0000000000000a50     BaseLib:WriteGdtr.obj
 0001:000007a0       InternalX86ReadGdtr        0000000000000a60     BaseLib:ReadGdtr.obj
 0001:000007b0       InternalX86WriteIdtr       0000000000000a70     BaseLib:WriteIdtr.obj
 0001:000007c0       AsmRmpAdjust               0000000000000a80     BaseLib:RmpAdjust.obj
 0001:000007d0       AsmVmgExitSvsm             0000000000000a90     BaseLib:VmgExitSvsm.obj
 0001:00000830       AsmPvalidate               0000000000000af0     BaseLib:Pvalidate.obj
 0001:00000850       AsmWbinvd                  0000000000000b10     BaseLib:Wbinvd.obj
 0001:00000860       AsmFlushCacheLine          0000000000000b20     BaseLib:FlushCacheLine.obj
 0001:00000870       AsmInvd                    0000000000000b30     BaseLib:Invd.obj
 0001:00000874       _ModuleEntryPoint          0000000000000b34 f   PeimEntryPoint:PeimEntryPoint.obj
 0001:00000a10       PeiGetNumberOfProcessors   0000000000000cd0 f   CpuMpPei:CpuMpPei.obj
 0001:00000a34       PeiGetProcessorInfo        0000000000000cf4 f   CpuMpPei:CpuMpPei.obj
 0001:00000a44       EdkiiPeiStartupAllAPs      0000000000000d04 f   CpuMpPei:CpuMp2Pei.obj
 0001:00000a44       PeiStartupAllAPs           0000000000000d04 f   CpuMpPei:CpuMpPei.obj
 0001:00000a50       EdkiiPeiStartupThisAP      0000000000000d10 f   CpuMpPei:CpuMp2Pei.obj
 0001:00000a50       PeiStartupThisAP           0000000000000d10 f   CpuMpPei:CpuMpPei.obj
 0001:00000a5c       EdkiiPeiEnableDisableAP    0000000000000d1c f   CpuMpPei:CpuMp2Pei.obj
 0001:00000a5c       PeiSwitchBSP               0000000000000d1c f   CpuMpPei:CpuMpPei.obj
 0001:00000a5c       PeiEnableDisableAP         0000000000000d1c f   CpuMpPei:CpuMpPei.obj
 0001:00000a5c       EdkiiPeiSwitchBSP          0000000000000d1c f   CpuMpPei:CpuMp2Pei.obj
 0001:00000a68       PeiWhoAmI                  0000000000000d28 f   CpuMpPei:CpuMpPei.obj
 0001:00000a80       GetProcessorCoreType       0000000000000d40 f   CpuMpPei:CpuMpPei.obj
 0001:00000ab8       BuildMpInformationHob      0000000000000d78 f   CpuMpPei:CpuMpPei.obj
 0001:00000cd4       SecPlatformInformation2    0000000000000f94 f   CpuMpPei:CpuBist.obj
 0001:00000d3c       GetBistInfoFromPpi         0000000000000ffc f   CpuMpPei:CpuBist.obj
 0001:00000e30       CollectBistDataFromPpi     00000000000010f0 f   CpuMpPei:CpuBist.obj
 0001:00001098       ConvertMemoryPageToNotPresent 0000000000001358 f   CpuMpPei:CpuPaging.obj
 0001:0000128c       EnablePaePageTable         000000000000154c f   CpuMpPei:CpuPaging.obj
 0001:00001438       MemoryDiscoveredPpiNotifyCallback 00000000000016f8 f   CpuMpPei:CpuPaging.obj
 0001:0000167c       EdkiiPeiGetNumberOfProcessors 000000000000193c f   CpuMpPei:CpuMp2Pei.obj
 0001:000016a0       EdkiiPeiGetProcessorInfo   0000000000001960 f   CpuMpPei:CpuMp2Pei.obj
 0001:000016b4       EdkiiPeiWhoAmI             0000000000001974 f   CpuMpPei:CpuMp2Pei.obj
 0001:000016cc       EdkiiPeiStartupAllCPUs     000000000000198c f   CpuMpPei:CpuMp2Pei.obj
 0001:000016f4       InternalAllocatePages      00000000000019b4 f   PeiMemoryAllocationLib:MemoryAllocationLib.obj
 0001:00001734       FreePages                  00000000000019f4 f   PeiMemoryAllocationLib:MemoryAllocationLib.obj
 0001:000017b8       AllocatePool               0000000000001a78 f   PeiMemoryAllocationLib:MemoryAllocationLib.obj
 0001:000017f4       ZeroMem                    0000000000001ab4 f   BaseMemoryLibRepStr:ZeroMemWrapper.obj
 0001:00001864       CopyMem                    0000000000001b24 f   BaseMemoryLibRepStr:CopyMemWrapper.obj
 0001:00001900       CopyGuid                   0000000000001bc0 f   BaseMemoryLibRepStr:MemLibGuid.obj
 0001:000019b0       CompareGuid                0000000000001c70 f   BaseMemoryLibRepStr:MemLibGuid.obj
 0001:00001a74       AccessMsrTdxCall           0000000000001d34 f   BaseXApicX2ApicLib:BaseXApicX2ApicLib.obj
 0001:00001b90       LocalApicReadMsrReg64      0000000000001e50 f   BaseXApicX2ApicLib:BaseXApicX2ApicLib.obj
 0001:00001bfc       LocalApicWriteMsrReg64     0000000000001ebc f   BaseXApicX2ApicLib:BaseXApicX2ApicLib.obj
 0001:00001c70       LocalApicBaseAddressMsrSupported 0000000000001f30 f   BaseXApicX2ApicLib:BaseXApicX2ApicLib.obj
 0001:00001cac       GetLocalApicBaseAddress    0000000000001f6c f   BaseXApicX2ApicLib:BaseXApicX2ApicLib.obj
 0001:00001ce8       ReadLocalApicReg           0000000000001fa8 f   BaseXApicX2ApicLib:BaseXApicX2ApicLib.obj
 0001:00001d40       WriteLocalApicReg          0000000000002000 f   BaseXApicX2ApicLib:BaseXApicX2ApicLib.obj
 0001:00001da8       GetApicMode                0000000000002068 f   BaseXApicX2ApicLib:BaseXApicX2ApicLib.obj
 0001:00001df8       GetInitialApicId           00000000000020b8 f   BaseXApicX2ApicLib:BaseXApicX2ApicLib.obj
 0001:00001e84       GetApicId                  0000000000002144 f   BaseXApicX2ApicLib:BaseXApicX2ApicLib.obj
 0001:00001ec0       GetHobList                 0000000000002180 f   PeiHobLib:HobLib.obj
 0001:00001f34       GetNextHob                 00000000000021f4 f   PeiHobLib:HobLib.obj
 0001:00001f8c       GetFirstGuidHob            000000000000224c f   PeiHobLib:HobLib.obj
 0001:00001fdc       InternalPeiCreateHob       000000000000229c f   PeiHobLib:HobLib.obj
 0001:00002040       BuildGuidHob               0000000000002300 f   PeiHobLib:HobLib.obj
 0001:000020bc       CpuDeadLoop                000000000000237c f   BaseLib:CpuDeadLoop.obj
 0001:000020ec       SaveAndDisableInterrupts   00000000000023ac f   BaseLib:Cpu.obj
 0001:00002110       BitFieldRead64             00000000000023d0 f   BaseLib:BitField.obj
 0001:00002194       LShiftU64                  0000000000002454 f   BaseLib:LShiftU64.obj
 0001:000021d8       RShiftU64                  0000000000002498 f   BaseLib:RShiftU64.obj
 0001:0000221c       DebugPrint                 00000000000024dc f   BaseDebugLibSerialPort:DebugLib.obj
 0001:00002240       DebugPrintMarker           0000000000002500 f   BaseDebugLibSerialPort:DebugLib.obj
 0001:000022cc       DebugAssert                000000000000258c f   BaseDebugLibSerialPort:DebugLib.obj
 0001:00002324       InternalReportStatusCode   00000000000025e4 f   PeiReportStatusCodeLib:ReportStatusCodeLib.obj
 0001:00002374       CommonExceptionHandler     0000000000002634 f   PeiCpuExceptionHandlerLib:PeiCpuException.obj
 0001:000023c8       InitializeCpuExceptionHandlers 0000000000002688 f   PeiCpuExceptionHandlerLib:PeiCpuException.obj
 0001:000025d8       CommonExceptionHandlerWorker 0000000000002898 f   PeiCpuExceptionHandlerLib:PeiDxeSmmCpuException.obj
 0001:00002834       UpdateIdtTable             0000000000002af4 f   PeiCpuExceptionHandlerLib:PeiDxeSmmCpuException.obj
 0001:00002954       DumpCpuContext             0000000000002c14 f   PeiCpuExceptionHandlerLib:ArchExceptionHandler.obj
 0001:00002c38       InternalPrintMessage       0000000000002ef8 f   PeiCpuExceptionHandlerLib:CpuExceptionCommon.obj
 0001:00002c98       DumpModuleImageInfo        0000000000002f58 f   PeiCpuExceptionHandlerLib:CpuExceptionCommon.obj
 0001:00002dcc       MpInitLibGetProcessorInfo  000000000000308c f   MpInitLibUp:MpInitLibUp.obj
 0001:00002e54       PageTableLibSetPte4K       0000000000003114 f   CpuPageTableLib:CpuPageTableMap.obj
 0001:00002fa4       PageTableLibSetPleB        0000000000003264 f   CpuPageTableLib:CpuPageTableMap.obj
 0001:000030fc       PageTableLibSetPle         00000000000033bc f   CpuPageTableLib:CpuPageTableMap.obj
 0001:00003174       PageTableLibSetPnle        0000000000003434 f   CpuPageTableLib:CpuPageTableMap.obj
 0001:000031e8       PageTableLibMapInLevel     00000000000034a8 f   CpuPageTableLib:CpuPageTableMap.obj
 0001:00003a6c       PageTableMap               0000000000003d2c f   CpuPageTableLib:CpuPageTableMap.obj
 0001:00003dcc       GetPeiServicesTablePointer 000000000000408c f   PeiServicesTablePointerLibIdt:PeiServicesTablePointer.obj
 0001:00003e0c       MmioRead32                 00000000000040cc f   BaseIoLibIntrinsicSev:IoLib.obj
 0001:00003e80       MmioWrite32                0000000000004140 f   BaseIoLibIntrinsicSev:IoLib.obj
 0001:00003f1c       IoWrite8                   00000000000041dc f   BaseIoLibIntrinsicSev:IoLibMsc.obj
 0001:00003f48       IoRead32                   0000000000004208 f   BaseIoLibIntrinsicSev:IoLibMsc.obj
 0001:00003f94       IoWrite32                  0000000000004254 f   BaseIoLibIntrinsicSev:IoLibMsc.obj
 0001:00003fec       TdIoRead8                  00000000000042ac f   BaseIoLibIntrinsicSev:IoLibInternalTdx.obj
 0001:0000403c       TdIoRead16                 00000000000042fc f   BaseIoLibIntrinsicSev:IoLibInternalTdx.obj
 0001:00004094       TdIoRead32                 0000000000004354 f   BaseIoLibIntrinsicSev:IoLibInternalTdx.obj
 0001:00004108       TdIoWrite8                 00000000000043c8 f   BaseIoLibIntrinsicSev:IoLibInternalTdx.obj
 0001:00004158       TdIoWrite32                0000000000004418 f   BaseIoLibIntrinsicSev:IoLibInternalTdx.obj
 0001:000041d4       CcExitHandleVc             0000000000004494 f   CcExitLib:PeiDxeCcExitVcHandler.obj
 0001:00004b9c       CcExitHandleVe             0000000000004e5c f   CcExitLib:CcExitVeHandler.obj
 0001:000062c8       InternalVmgExitHandleVc    0000000000006588 f   CcExitLib:CcExitVcHandler.obj
 0001:00006608       CcGetRegisterPointer       00000000000068c8 f   CcExitLib:CcInstruction.obj
 0001:00006888       CcDecodeModRm              0000000000006b48 f   CcExitLib:CcInstruction.obj
 0001:0000698c       CcInitInstructionData      0000000000006c4c f   CcExitLib:CcInstruction.obj
 0001:00006ab8       CcExitVmgExit              0000000000006d78 f   CcExitLib:CcExitLib.obj
 0001:00006ba4       SetMem                     0000000000006e64 f   BaseMemoryLibRepStr:SetMemWrapper.obj
 0001:00006c08       AsciiStrLen                0000000000006ec8 f   BaseLib:String.obj
 0001:00006c74       DivU64x32Remainder         0000000000006f34 f   BaseLib:DivU64x32Remainder.obj
 0001:00006cd4       StrnLenS                   0000000000006f94 f   BaseLib:SafeString.obj
 0001:00006d2c       SerialPortInitialize       0000000000006fec f   PcAtSerialPortLib:SerialPortLib.obj
 0001:00006d90       SerialPortWrite            0000000000007050 f   PcAtSerialPortLib:SerialPortLib.obj
 0001:00006e10       AsciiSPrint                00000000000070d0 f   BasePrintLib:PrintLib.obj
 0001:00006e3c       BasePrintLibFillBuffer     00000000000070fc f   BasePrintLib:PrintLibInternal.obj
 0001:00006e70       BasePrintLibValueToString  0000000000007130 f   BasePrintLib:PrintLibInternal.obj
 0001:00006ec0       BasePrintLibSPrintMarker   0000000000007180 f   BasePrintLib:PrintLibInternal.obj
 0001:00007dcc       BasePrintLibSPrint         000000000000808c f   BasePrintLib:PrintLibInternal.obj
 0001:00007df0       PciOr8                     00000000000080b0 f   BasePciLibCf8:PciLib.obj
 0001:00007ed8       PciAndThenOr32             0000000000008198 f   BasePciLibCf8:PciLib.obj
 0001:00007fa4       AcquireSpinLockOrFail      0000000000008264 f   BaseSynchronizationLib:SynchronizationMsc.obj
 0001:00008024       ReleaseSpinLock            00000000000082e4 f   BaseSynchronizationLib:SynchronizationMsc.obj
 0001:00008094       PeCoffLoaderGetPdbPointer  0000000000008354 f   BasePeCoffGetEntryPointLib:PeCoffGetEntryPoint.obj
 0001:000081e0       InternalMemEncryptSevGetAddressRangeState 00000000000084a0 f   PeiMemEncryptSevLib:VirtualMemory.obj
 0001:000083a0       GetTdInfo                  0000000000008660 f   TdxLib:TdInfo.obj
 0001:00008404       TdSharedPageMask           00000000000086c4 f   TdxLib:TdInfo.obj
 0001:00008430       PciCf8Read8                00000000000086f0 f   BasePciCf8Lib:PciCf8Lib.obj
 0001:000084f8       PciCf8Read16               00000000000087b8 f   BasePciCf8Lib:PciCf8Lib.obj
 0001:00008580       PciCf8Read32               0000000000008840 f   BasePciCf8Lib:PciCf8Lib.obj
 0002:00000000       ??_C@_08JHNDJFHF@CpuMpPei@ 0000000000008900     CpuMpPei:AutoGen.obj
 0002:00000010       ??_C@_0CE@IBFOBMLB@?6ASSERT_RETURN_ERROR?5?$CIStatus?5?$DN?5@ 0000000000008910     CpuMpPei:AutoGen.obj
 0002:00000038       ??_C@_0CH@BBNBJKHK@?$CB?$CI?$CI?$CIINTN?$CJ?$CIRETURN_STATUS?$CJ?$CIStatus@ 0000000000008938     CpuMpPei:AutoGen.obj
 0002:00000060       ??_C@_0JA@NPPALGEJ@d?3?2uefi_specs_personal_collecti@ 0000000000008960     CpuMpPei:AutoGen.obj
 0002:000000f0       ??_C@_0CB@DMEJJJHA@?6ASSERT_EFI_ERROR?5?$CIStatus?5?$DN?5?$CFr?$CJ@ 00000000000089f0     CpuMpPei:CpuMpPei.obj
 0002:00000120       ??_C@_0EH@KJAHHCLP@D?3?2uefi_specs_personal_collecti@ 0000000000008a20     CpuMpPei:CpuMpPei.obj
 0002:00000168       ??_C@_0BH@IACGKAP@Buffer?5?$CB?$DN?5?$CI?$CIvoid?5?$CK?$CJ?50?$CJ@ 0000000000008a68     CpuMpPei:CpuMpPei.obj
 0002:00000180       ??_C@_0BK@BDGMAIID@CoreTypes?5?$CB?$DN?5?$CI?$CIvoid?5?$CK?$CJ?50?$CJ@ 0000000000008a80     CpuMpPei:CpuMpPei.obj
 0002:000001a0       ??_C@_0CG@JCMIGIBF@MpInformation2HobData?5?$CB?$DN?5?$CI?$CIvoid@ 0000000000008aa0     CpuMpPei:CpuMpPei.obj
 0002:000001c8       ??_C@_0CA@BJCHNBHC@Creating?5MpInformation2?5HOB?4?4?4?6@ 0000000000008ac8     CpuMpPei:CpuMpPei.obj
 0002:000001f0       ??_C@_0EM@EHELACFL@?5?5Processor?$FL?$CF04d?$FN?3?5ProcessorId?5@ 0000000000008af0     CpuMpPei:CpuMpPei.obj
 0002:00000240       ??_C@_0CN@LDPODGCE@?5?5?5?5Location?5?$DN?5Package?3?$CFd?5Core?3@ 0000000000008b40     CpuMpPei:CpuMpPei.obj
 0002:00000270       ??_C@_0EH@FNBLCCJ@?5?5?5?5Location2?5?$DN?5Package?3?$CFd?5Die?3@ 0000000000008b70     CpuMpPei:CpuMpPei.obj
 0002:000002c0       ??_C@_0EG@ODDADAJH@D?3?2uefi_specs_personal_collecti@ 0000000000008bc0     CpuMpPei:CpuBist.obj
 0002:00000308       ??_C@_0DJ@FLPEMKJJ@Does?5not?5find?5any?5stored?5CPU?5BI@ 0000000000008c08     CpuMpPei:CpuBist.obj
 0002:00000348       ??_C@_0BM@FIKPGIKI@CpuInstance?5?$CB?$DN?5?$CI?$CIvoid?5?$CK?$CJ?50?$CJ@ 0000000000008c48     CpuMpPei:CpuBist.obj
 0002:00000368       ??_C@_0CC@FICFPHPB@?5?5APICID?5?9?50x?$CF08x?0?5BIST?5?9?50x?$CF08@ 0000000000008c68     CpuMpPei:CpuBist.obj
 0002:00000390       ??_C@_0EI@MOEBILAL@D?3?2uefi_specs_personal_collecti@ 0000000000008c90     CpuMpPei:CpuPaging.obj
 0002:000003d8       ??_C@_0DJ@CIDFFKAG@Status?5?$DN?$DN?5?$CI?$CIRETURN_STATUS?$CJ?$CI0x80@ 0000000000008cd8     CpuMpPei:CpuPaging.obj
 0002:00000418       ??_C@_0DP@KFBOLFLD@EnablePaePageTable?3?5Created?5Pag@ 0000000000008d18     CpuMpPei:CpuPaging.obj
 0002:00000458       ??_C@_0BC@FEDIJHFF@?$CI?$CIBOOLEAN?$CJ?$CI0?$DN?$DN1?$CJ?$CJ@ 0000000000008d58     CpuMpPei:CpuPaging.obj
 0002:00000470       ??_C@_0CC@PCHMDNOA@sizeof?5?$CIUINTN?$CJ?5?$DN?$DN?5sizeof?5?$CIUINT3@ 0000000000008d70     CpuMpPei:CpuPaging.obj
 0002:000004a0       ??_C@_0EJ@MHOOKPIG@MemoryDiscoveredPpiNotifyCallba@ 0000000000008da0     CpuMpPei:CpuPaging.obj
 0002:000004f0       ??_C@_0L@LBCNCHJA@Pages?5?$CB?$DN?50@ 0000000000008df0     PeiMemoryAllocationLib:MemoryAllocationLib.obj
 0002:00000500       ??_C@_0GE@LJCJNELK@D?3?2uefi_specs_personal_collecti@ 0000000000008e00     PeiMemoryAllocationLib:MemoryAllocationLib.obj
 0002:00000570       ??_C@_0FM@DHFKCLFA@D?3?2uefi_specs_personal_collecti@ 0000000000008e70     BaseMemoryLibRepStr:ZeroMemWrapper.obj
 0002:000005d0       ??_C@_0DG@EEENIGGL@Length?5?$DM?$DN?5?$CI0xFFFFFFFFFFFFFFFFUL@ 0000000000008ed0     BaseMemoryLibRepStr:ZeroMemWrapper.obj
 0002:00000610       ??_C@_0ED@MKGCMJG@?$CILength?5?9?51?$CJ?5?$DM?$DN?5?$CI0xFFFFFFFFFFFF@ 0000000000008f10     BaseMemoryLibRepStr:CopyMemWrapper.obj
 0002:00000660       ??_C@_0FM@IDPIEKJH@D?3?2uefi_specs_personal_collecti@ 0000000000008f60     BaseMemoryLibRepStr:CopyMemWrapper.obj
 0002:000006c0       ??_C@_0DO@MAOBOFEG@?$CILength?5?9?51?$CJ?5?$DM?$DN?5?$CI0xFFFFFFFFFFFF@ 0000000000008fc0     BaseMemoryLibRepStr:CopyMemWrapper.obj
 0002:00000700       ??_C@_0GD@BIPDCFCA@D?3?2uefi_specs_personal_collecti@ 0000000000009000     BaseXApicX2ApicLib:BaseXApicX2ApicLib.obj
 0002:00000768       ??_C@_0BI@IFINGPEJ@?$CIMmioOffset?5?$CG?50xf?$CJ?5?$DN?$DN?50@ 0000000000009068     BaseXApicX2ApicLib:BaseXApicX2ApicLib.obj
 0002:00000780       ??_C@_0BJ@MBLFAKBO@ApicBaseMsr?4Bits?4EN?5?$CB?$DN?50@ 0000000000009080     BaseXApicX2ApicLib:BaseXApicX2ApicLib.obj
 0002:000007a0       ??_C@_0EK@JELCPDGN@D?3?2uefi_specs_personal_collecti@ 00000000000090a0     PeiHobLib:HobLib.obj
 0002:000007f0       ??_C@_0BI@NCGMODPG@HobList?5?$CB?$DN?5?$CI?$CIvoid?5?$CK?$CJ?50?$CJ@ 00000000000090f0     PeiHobLib:HobLib.obj
 0002:00000808       ??_C@_0BJ@NOLLDKJB@HobStart?5?$CB?$DN?5?$CI?$CIvoid?5?$CK?$CJ?50?$CJ@ 0000000000009108     PeiHobLib:HobLib.obj
 0002:00000828       ??_C@_0BE@PICCCCHF@Hob?5?$CB?$DN?5?$CI?$CIvoid?5?$CK?$CJ?50?$CJ@ 0000000000009128     PeiHobLib:HobLib.obj
 0002:00000840       ??_C@_0BF@PEDOPNMP@Guid?5?$CB?$DN?5?$CI?$CIvoid?5?$CK?$CJ?50?$CJ@ 0000000000009140     PeiHobLib:HobLib.obj
 0002:00000858       ??_C@_0DE@JLBHCAID@DataLength?5?$DM?$DN?5?$CI0xFFF8?5?9?5sizeof?5@ 0000000000009158     PeiHobLib:HobLib.obj
 0002:00000890       ??_C@_0CI@HNHCKIFE@Data?5?$CB?$DN?5?$CI?$CIvoid?5?$CK?$CJ?50?$CJ?5?$HM?$HM?5DataLen@ 0000000000009190     PeiHobLib:HobLib.obj
 0002:000008c0       ??_C@_0EL@GLNKFHII@D?3?2uefi_specs_personal_collecti@ 00000000000091c0     BaseLib:Unaligned.obj
 0002:00000910       ??_C@_0EK@DJCDFDHD@D?3?2uefi_specs_personal_collecti@ 0000000000009210     BaseLib:BitField.obj
 0002:00000960       ??_C@_0BD@JDBPFJOM@StartBit?5?$DM?$DN?5EndBit@ 0000000000009260     BaseLib:BitField.obj
 0002:00000978       ??_C@_0M@IJCABBDH@EndBit?5?$DM?564@ 0000000000009278     BaseLib:BitField.obj
 0002:00000988       ??_C@_0L@MEMPDLHB@Count?5?$DM?564@ 0000000000009288     BaseLib:LShiftU64.obj
 0002:000009a0       ??_C@_0EL@PKACDBFD@D?3?2uefi_specs_personal_collecti@ 00000000000092a0     BaseLib:LShiftU64.obj
 0002:000009f0       ??_C@_0EL@BPCLAPLB@D?3?2uefi_specs_personal_collecti@ 00000000000092f0     BaseLib:RShiftU64.obj
 0002:00000a40       ??_C@_0BH@LKMBFCBF@Format?5?$CB?$DN?5?$CI?$CIvoid?5?$CK?$CJ?50?$CJ@ 0000000000009340     BaseDebugLibSerialPort:DebugLib.obj
 0002:00000a60       ??_C@_0FJ@BNNHJMAJ@D?3?2uefi_specs_personal_collecti@ 0000000000009360     BaseDebugLibSerialPort:DebugLib.obj
 0002:00000ac0       ??_C@_0BI@NOCKJDBJ@ASSERT?5?$FL?$CFa?$FN?5?$CFa?$CI?$CFd?$CJ?3?5?$CFa?6@ 00000000000093c0     BaseDebugLibSerialPort:DebugLib.obj
 0002:00000ad8       ??_C@_0BI@HAGPDMHJ@AcpiTimerLibConstructor@ 00000000000093d8     BaseAcpiTimerLib:BaseAcpiTimerLib.obj
 0002:00000af0       ??_C@_0CL@DGCOIACG@?$CFa?3?5Unknown?5Host?5Bridge?5Device?5@ 00000000000093f0     BaseAcpiTimerLib:BaseAcpiTimerLib.obj
 0002:00000b20       ??_C@_0FI@INNPDNOC@D?3?2uefi_specs_personal_collecti@ 0000000000009420     BaseAcpiTimerLib:BaseAcpiTimerLib.obj
 0002:00000b78       ??_C@_0CF@FIKGGICH@Exception0StubHeader?5?$CB?$DN?5?$CI?$CIvoid?5@ 0000000000009478     PeiCpuExceptionHandlerLib:PeiCpuException.obj
 0002:00000ba0       ??_C@_0GE@FPIGAFLN@D?3?2uefi_specs_personal_collecti@ 00000000000094a0     PeiCpuExceptionHandlerLib:PeiCpuException.obj
 0002:00000c08       ??_C@_0CA@DJBILFHO@ReservedVectors?5?$CB?$DN?5?$CI?$CIvoid?5?$CK?$CJ?50?$CJ@ 0000000000009508     PeiCpuExceptionHandlerLib:PeiCpuException.obj
 0002:00000c28       ??_C@_0CF@DLDHKCJF@ExceptionHandlerData?5?$CB?$DN?5?$CI?$CIvoid?5@ 0000000000009528     PeiCpuExceptionHandlerLib:PeiCpuException.obj
 0002:00000c50       mDoFarReturnFlag           0000000000009550     PeiCpuExceptionHandlerLib:PeiCpuException.obj
 0002:00000c58       ??_C@_0CK@DADKKMEM@TemplateMap?4ExceptionStubHeader@ 0000000000009558     PeiCpuExceptionHandlerLib:PeiDxeSmmCpuException.obj
 0002:00000c90       ??_C@_0GK@PIKMMKGE@D?3?2uefi_specs_personal_collecti@ 0000000000009590     PeiCpuExceptionHandlerLib:PeiDxeSmmCpuException.obj
 0002:00000d00       ??_C@_0DN@OILJOCCP@?$CB?$CB?$CB?$CB?5X64?5Exception?5Type?5?9?5?$CF02x?$CI@ 0000000000009600     PeiCpuExceptionHandlerLib:ArchExceptionHandler.obj
 0002:00000d40       ??_C@_0BH@GDPLHCJG@ExceptionData?5?9?5?$CF016lx@ 0000000000009640     PeiCpuExceptionHandlerLib:ArchExceptionHandler.obj
 0002:00000d58       ??_C@_0CO@BBEHDOI@?5?5I?3?$CFx?5R?3?$CFx?5U?3?$CFx?5W?3?$CFx?5P?3?$CFx?5PK?3?$CF@ 0000000000009658     PeiCpuExceptionHandlerLib:ArchExceptionHandler.obj
 0002:00000d88       ??_C@_01EEMJAFIK@?6@       0000000000009688     PeiCpuExceptionHandlerLib:ArchExceptionHandler.obj
 0002:00000d90       ??_C@_0CO@OABPHBNC@RIP?5?5?9?5?$CF016lx?0?5CS?5?5?9?5?$CF016lx?0?5RF@ 0000000000009690     PeiCpuExceptionHandlerLib:ArchExceptionHandler.obj
 0002:00000dc0       ??_C@_0CL@EBCIBAPN@RAX?5?5?9?5?$CF016lx?0?5RCX?5?9?5?$CF016lx?0?5RD@ 00000000000096c0     PeiCpuExceptionHandlerLib:ArchExceptionHandler.obj
 0002:00000df0       ??_C@_0CL@NEKHLEEE@RBX?5?5?9?5?$CF016lx?0?5RSP?5?9?5?$CF016lx?0?5RB@ 00000000000096f0     PeiCpuExceptionHandlerLib:ArchExceptionHandler.obj
 0002:00000e20       ??_C@_0BN@KJEBEAEC@RSI?5?5?9?5?$CF016lx?0?5RDI?5?9?5?$CF016lx?6@ 0000000000009720     PeiCpuExceptionHandlerLib:ArchExceptionHandler.obj
 0002:00000e40       ??_C@_0CL@IAICEOHO@R8?5?5?5?9?5?$CF016lx?0?5R9?5?5?9?5?$CF016lx?0?5R1@ 0000000000009740     PeiCpuExceptionHandlerLib:ArchExceptionHandler.obj
 0002:00000e70       ??_C@_0CL@JAMCECPD@R11?5?5?9?5?$CF016lx?0?5R12?5?9?5?$CF016lx?0?5R1@ 0000000000009770     PeiCpuExceptionHandlerLib:ArchExceptionHandler.obj
 0002:00000ea0       ??_C@_0BN@PKAAKNBO@R14?5?5?9?5?$CF016lx?0?5R15?5?9?5?$CF016lx?6@ 00000000000097a0     PeiCpuExceptionHandlerLib:ArchExceptionHandler.obj
 0002:00000ec0       ??_C@_0CL@DLLIMCBJ@DS?5?5?5?9?5?$CF016lx?0?5ES?5?5?9?5?$CF016lx?0?5FS@ 00000000000097c0     PeiCpuExceptionHandlerLib:ArchExceptionHandler.obj
 0002:00000ef0       ??_C@_0BN@EICEFBKL@GS?5?5?5?9?5?$CF016lx?0?5SS?5?5?9?5?$CF016lx?6@ 00000000000097f0     PeiCpuExceptionHandlerLib:ArchExceptionHandler.obj
 0002:00000f10       ??_C@_0CL@DIOBDFLD@CR0?5?5?9?5?$CF016lx?0?5CR2?5?9?5?$CF016lx?0?5CR@ 0000000000009810     PeiCpuExceptionHandlerLib:ArchExceptionHandler.obj
 0002:00000f40       ??_C@_0BN@JAPKHAJM@CR4?5?5?9?5?$CF016lx?0?5CR8?5?9?5?$CF016lx?6@ 0000000000009840     PeiCpuExceptionHandlerLib:ArchExceptionHandler.obj
 0002:00000f60       ??_C@_0CL@DONNALBH@DR0?5?5?9?5?$CF016lx?0?5DR1?5?9?5?$CF016lx?0?5DR@ 0000000000009860     PeiCpuExceptionHandlerLib:ArchExceptionHandler.obj
 0002:00000f90       ??_C@_0CL@JNPELAID@DR3?5?5?9?5?$CF016lx?0?5DR6?5?9?5?$CF016lx?0?5DR@ 0000000000009890     PeiCpuExceptionHandlerLib:ArchExceptionHandler.obj
 0002:00000fc0       ??_C@_0CF@MGIBIPBB@GDTR?5?9?5?$CF016lx?5?$CF016lx?0?5LDTR?5?9?5?$CF0@ 00000000000098c0     PeiCpuExceptionHandlerLib:ArchExceptionHandler.obj
 0002:00000fe8       ??_C@_0CF@DMFPLAJK@IDTR?5?9?5?$CF016lx?5?$CF016lx?0?5?5?5TR?5?9?5?$CF0@ 00000000000098e8     PeiCpuExceptionHandlerLib:ArchExceptionHandler.obj
 0002:00001010       ??_C@_0BH@PFOFIBPH@FXSAVE_STATE?5?9?5?$CF016lx?6@ 0000000000009910     PeiCpuExceptionHandlerLib:ArchExceptionHandler.obj
 0002:00001028       mErrorCodeFlag             0000000000009928     PeiCpuExceptionHandlerLib:CpuExceptionCommon.obj
 0002:00001030       ??_C@_0BD@PANICNEP@?$CDDE?5?9?5Divide?5Error@ 0000000000009930     PeiCpuExceptionHandlerLib:CpuExceptionCommon.obj
 0002:00001048       ??_C@_0M@BENGJJME@?$CDDB?5?9?5Debug@ 0000000000009948     PeiCpuExceptionHandlerLib:CpuExceptionCommon.obj
 0002:00001058       ??_C@_0O@PELAMGDH@NMI?5Interrupt@ 0000000000009958     PeiCpuExceptionHandlerLib:CpuExceptionCommon.obj
 0002:00001068       ??_C@_0BB@ONIBFOGK@?$CDBP?5?9?5Breakpoint@ 0000000000009968     PeiCpuExceptionHandlerLib:CpuExceptionCommon.obj
 0002:00001080       ??_C@_0P@BBLCINEF@?$CDOF?5?9?5Overflow@ 0000000000009980     PeiCpuExceptionHandlerLib:CpuExceptionCommon.obj
 0002:00001090       ??_C@_0BL@FGFNPPKN@?$CDBR?5?9?5BOUND?5Range?5Exceeded@ 0000000000009990     PeiCpuExceptionHandlerLib:CpuExceptionCommon.obj
 0002:000010b0       ??_C@_0BF@PAJDEHLF@?$CDUD?5?9?5Invalid?5Opcode@ 00000000000099b0     PeiCpuExceptionHandlerLib:CpuExceptionCommon.obj
 0002:000010c8       ??_C@_0BL@HAMCGOMD@?$CDNM?5?9?5Device?5Not?5Available@ 00000000000099c8     PeiCpuExceptionHandlerLib:CpuExceptionCommon.obj
 0002:000010e8       ??_C@_0BD@POLKFCFP@?$CDDF?5?9?5Double?5Fault@ 00000000000099e8     PeiCpuExceptionHandlerLib:CpuExceptionCommon.obj
 0002:00001100       ??_C@_0BM@LFJODCLN@Coprocessor?5Segment?5Overrun@ 0000000000009a00     PeiCpuExceptionHandlerLib:CpuExceptionCommon.obj
 0002:00001120       ??_C@_0BC@NJGFAHLO@?$CDTS?5?9?5Invalid?5TSS@ 0000000000009a20     PeiCpuExceptionHandlerLib:CpuExceptionCommon.obj
 0002:00001138       ??_C@_0BK@CJDBEANG@?$CDNP?5?9?5Segment?5Not?5Present@ 0000000000009a38     PeiCpuExceptionHandlerLib:CpuExceptionCommon.obj
 0002:00001158       ??_C@_0BI@DKNGHJJN@?$CDSS?5?9?5Stack?5Fault?5Fault@ 0000000000009a58     PeiCpuExceptionHandlerLib:CpuExceptionCommon.obj
 0002:00001170       ??_C@_0BJ@OPPOMNHK@?$CDGP?5?9?5General?5Protection@ 0000000000009a70     PeiCpuExceptionHandlerLib:CpuExceptionCommon.obj
 0002:00001190       ??_C@_0BB@CJKCEJGM@?$CDPF?5?9?5Page?9Fault@ 0000000000009a90     PeiCpuExceptionHandlerLib:CpuExceptionCommon.obj
 0002:000011a8       ??_C@_08NKCLJDKG@Reserved@ 0000000000009aa8     PeiCpuExceptionHandlerLib:CpuExceptionCommon.obj
 0002:000011b8       ??_C@_0CD@DAPDALEP@?$CDMF?5?9?5x87?5FPU?5Floating?9Point?5Er@ 0000000000009ab8     PeiCpuExceptionHandlerLib:CpuExceptionCommon.obj
 0002:000011e0       ??_C@_0BG@JJECJFKO@?$CDAC?5?9?5Alignment?5Check@ 0000000000009ae0     PeiCpuExceptionHandlerLib:CpuExceptionCommon.obj
 0002:000011f8       ??_C@_0BE@CIGFNHHH@?$CDMC?5?9?5Machine?9Check@ 0000000000009af8     PeiCpuExceptionHandlerLib:CpuExceptionCommon.obj
 0002:00001210       ??_C@_0BK@IKBNPED@?$CDXM?5?9?5SIMD?5floating?9point@ 0000000000009b10     PeiCpuExceptionHandlerLib:CpuExceptionCommon.obj
 0002:00001230       ??_C@_0BF@MIEADEIE@?$CDVE?5?9?5Virtualization@ 0000000000009b30     PeiCpuExceptionHandlerLib:CpuExceptionCommon.obj
 0002:00001248       ??_C@_0BJ@POMBGBMH@?$CDCP?5?9?5Control?5Protection@ 0000000000009b48     PeiCpuExceptionHandlerLib:CpuExceptionCommon.obj
 0002:00001268       ??_C@_0BI@HOPEKCJH@?$CDVC?5?9?5VMM?5Communication@ 0000000000009b68     PeiCpuExceptionHandlerLib:CpuExceptionCommon.obj
 0002:00001280       ??_C@_0CJ@NIJFIMND@?$CB?$CB?$CB?$CB?5Can?8t?5find?5image?5informati@ 0000000000009b80     PeiCpuExceptionHandlerLib:CpuExceptionCommon.obj
 0002:000012b0       ??_C@_0CD@FDHAHDMO@?$CB?$CB?$CB?$CB?5Find?5image?5based?5on?5IP?$CI0x?$CF@ 0000000000009bb0     PeiCpuExceptionHandlerLib:CpuExceptionCommon.obj
 0002:000012d4       ??_C@_02ECNOPIAA@?$CFa@    0000000000009bd4     PeiCpuExceptionHandlerLib:CpuExceptionCommon.obj
 0002:000012d8       ??_C@_09KCCBLILG@?$CINo?5PDB?$CJ?5@ 0000000000009bd8     PeiCpuExceptionHandlerLib:CpuExceptionCommon.obj
 0002:000012e8       ??_C@_0CM@GKFIOCPE@?5?$CIImageBase?$DN?$CF016lp?0?5EntryPoint?$DN@ 0000000000009be8     PeiCpuExceptionHandlerLib:CpuExceptionCommon.obj
 0002:00001320       mExceptionNameStr          0000000000009c20     PeiCpuExceptionHandlerLib:CpuExceptionCommon.obj
 0002:00001410       mExceptionReservedStr      0000000000009d10     PeiCpuExceptionHandlerLib:CpuExceptionCommon.obj
 0002:00001420       ??_C@_0DE@GEJHKKIP@Does?5not?5find?5any?5HOB?5stored?5CP@ 0000000000009d20     MpInitLibUp:MpInitLibUp.obj
 0002:00001458       ??_C@_0BJ@GAEJHEIO@Level?5?$DN?$DN?52?5?$HM?$HM?5Level?5?$DN?$DN?53@ 0000000000009d58     CpuPageTableLib:CpuPageTableMap.obj
 0002:00001480       ??_C@_0FN@KICKGPKG@D?3?2uefi_specs_personal_collecti@ 0000000000009d80     CpuPageTableLib:CpuPageTableMap.obj
 0002:000014e0       ??_C@_0L@DGAHGLPD@Level?5?$CB?$DN?50@ 0000000000009de0     CpuPageTableLib:CpuPageTableMap.obj
 0002:000014f0       ??_C@_0DG@ELECGBHL@?$CIAttribute?5?$CB?$DN?5?$CI?$CIvoid?5?$CK?$CJ?50?$CJ?$CJ?5?$CG?$CG?5@ 0000000000009df0     CpuPageTableLib:CpuPageTableMap.obj
 0002:00001528       ??_C@_0CE@CGLKHOOO@ParentPagingEntry?9?$DOPce?4Present?5@ 0000000000009e28     CpuPageTableLib:CpuPageTableMap.obj
 0002:00001550       ??_C@_0DE@OABGOBJ@Buffer?5?$DN?$DN?5?$CI?$CIvoid?5?$CK?$CJ?50?$CJ?5?$HM?$HM?5?$CKBuff@ 0000000000009e50     CpuPageTableLib:CpuPageTableMap.obj
 0002:00001590       ??_C@_0EJ@NKMBPOFM@CreateNew?5?$HM?$HM?5?$CIMask?9?$DOBits?4Presen@ 0000000000009e90     CpuPageTableLib:CpuPageTableMap.obj
 0002:000015e0       ??_C@_0EN@KFGLNBD@CreateNew?5?$HM?$HM?5?$CIMask?9?$DOBits?4ReadWr@ 0000000000009ee0     CpuPageTableLib:CpuPageTableMap.obj
 0002:00001630       ??_C@_0FH@MGHGLBDE@CreateNew?5?$HM?$HM?5?$CIMask?9?$DOBits?4UserSu@ 0000000000009f30     CpuPageTableLib:CpuPageTableMap.obj
 0002:00001688       ??_C@_0DP@IOGJHCEP@CreateNew?5?$HM?$HM?5?$CIMask?9?$DOBits?4Nx?5?$DN?$DN?5@ 0000000000009f88     CpuPageTableLib:CpuPageTableMap.obj
 0002:000016c8       ??_C@_0CB@BLLIKHBG@?$CKIsModified?5?$DN?$DN?5?$CI?$CIBOOLEAN?$CJ?$CI0?$DN?$DN1?$CJ@ 0000000000009fc8     CpuPageTableLib:CpuPageTableMap.obj
 0002:000016f0       ??_C@_0BM@DAJCEFAH@PeiServices?5?$CB?$DN?5?$CI?$CIvoid?5?$CK?$CJ?50?$CJ@ 0000000000009ff0     PeiServicesTablePointerLibIdt:PeiServicesTablePointer.obj
 0002:00001710       ??_C@_0GP@GHNMHLFN@D?3?2uefi_specs_personal_collecti@ 000000000000a010     PeiServicesTablePointerLibIdt:PeiServicesTablePointer.obj
 0002:00001780       ??_C@_0FC@MAJHMCGF@D?3?2uefi_specs_personal_collecti@ 000000000000a080     BaseIoLibIntrinsicSev:IoLib.obj
 0002:000017d8       ??_C@_0BD@OMMAJMCK@?$CIAddress?5?$CG?53?$CJ?5?$DN?$DN?50@ 000000000000a0d8     BaseIoLibIntrinsicSev:IoLib.obj
 0002:000017f0       ??_C@_0FF@GCKLFLDF@D?3?2uefi_specs_personal_collecti@ 000000000000a0f0     BaseIoLibIntrinsicSev:IoLibMsc.obj
 0002:00001848       ??_C@_0BA@HCECIDGN@?$CIPort?5?$CG?53?$CJ?5?$DN?$DN?50@ 000000000000a148     BaseIoLibIntrinsicSev:IoLibMsc.obj
 0002:00001860       ??_C@_0FN@DOAHIAPG@D?3?2uefi_specs_personal_collecti@ 000000000000a160     BaseIoLibIntrinsicSev:IoLibInternalTdx.obj
 0002:000018c0       ??_C@_0BL@KIAIPKNJ@Msr?4GhcbInfo?4Function?5?$DN?$DN?50@ 000000000000a1c0     CcExitLib:PeiDxeCcExitVcHandler.obj
 0002:000018e0       ??_C@_0FK@FLJAFGOA@D?3?2uefi_specs_personal_collecti@ 000000000000a1e0     CcExitLib:PeiDxeCcExitVcHandler.obj
 0002:00001940       ??_C@_0O@EHFDMHO@Msr?4Ghcb?5?$CB?$DN?50@ 000000000000a240     CcExitLib:PeiDxeCcExitVcHandler.obj
 0002:00001950       ??_C@_0CA@INIPEKFI@TDX?3?5?$CDTD?$FLEPT?$FN?5instruction?5?$CI?$CFp?$CJ?3@ 000000000000a250     CcExitLib:CcExitVeHandler.obj
 0002:00001970       ??_C@_05CNDJFPDP@?$CF02x?5@ 000000000000a270     CcExitLib:CcExitVeHandler.obj
 0002:00001978       ??_C@_0BB@LFIJDNII@TdxMmioReadWrite@ 000000000000a278     CcExitLib:CcExitVeHandler.obj
 0002:00001990       ??_C@_0BL@CIFHDCEM@?$CFa?3?5Invalid?5MmioSize?5?9?5?$CFd?6@ 000000000000a290     CcExitLib:CcExitVeHandler.obj
 0002:000019b0       ??_C@_0BP@DCBJNAPP@?$CFa?3?5TdVmcall?5failed?5with?5?$CFllx?6@ 000000000000a2b0     CcExitLib:CcExitVeHandler.obj
 0002:000019d0       ??_C@_0BK@PGIIJAFB@ParseMmioExitInstructions@ 000000000000a2d0     CcExitLib:CcExitVeHandler.obj
 0002:000019f0       ??_C@_0CN@GHADFEKA@?$CFa?3?5Initialize?5InstructionData?5@ 000000000000a2f0     CcExitLib:CcExitVeHandler.obj
 0002:00001a20       ??_C@_0CP@BMANJKEM@?$CFa?3?5Parse?5Ext?4ModRm?4Mod?5error?$CB?5@ 000000000000a320     CcExitLib:CcExitVeHandler.obj
 0002:00001a50       ??_C@_0BO@JCPJJNNJ@?$CFa?3?5Invalid?5MMIO?5opcode?5?$CI?$CFx?$CJ?6@ 000000000000a350     CcExitLib:CcExitVeHandler.obj
 0002:00001a70       ??_C@_08KIIEBNMF@MmioExit@ 000000000000a370     CcExitLib:CcExitVeHandler.obj
 0002:00001a80       ??_C@_0CE@LGDLDEEP@?$CFa?3?5TDCALL?5failed?5with?5status?$DN?$CF@ 000000000000a380     CcExitLib:CcExitVeHandler.obj
 0002:00001aa8       ??_C@_0DI@FMKEJOOF@?$CFa?3?5EPT?9violation?5?$CDVE?5on?5privat@ 000000000000a3a8     CcExitLib:CcExitVeHandler.obj
 0002:00001ae0       ??_C@_0DE@LIAFHCLG@?$CFa?3?5Address?5is?5not?5correct?$CB?5?$CI?$CFd@ 000000000000a3e0     CcExitLib:CcExitVeHandler.obj
 0002:00001b18       ??_C@_0M@JADJBBKG@Status?5?$DN?$DN?50@ 000000000000a418     CcExitLib:CcExitVeHandler.obj
 0002:00001b30       ??_C@_0FE@LMLNMBBO@D?3?2uefi_specs_personal_collecti@ 000000000000a430     CcExitLib:CcExitVeHandler.obj
 0002:00001b88       ??_C@_0DH@CLLFIEPJ@?$CDVE?5happened?4?5TDGETVEINFO?5faile@ 000000000000a488     CcExitLib:CcExitVeHandler.obj
 0002:00001bc0       ??_C@_0EC@HCHGOLKM@CPUID?5?$CDVE?5happened?0?5ExitReasion@ 000000000000a4c0     CcExitLib:CcExitVeHandler.obj
 0002:00001c10       ??_C@_0EL@EJGLLOEK@IO_Instruction?5?$CDVE?5happened?0?5Ex@ 000000000000a510     CcExitLib:CcExitVeHandler.obj
 0002:00001c60       ??_C@_0GE@POMGBPLO@RDMSR?5?$CDVE?5happened?0?5ExitReasion@ 000000000000a560     CcExitLib:CcExitVeHandler.obj
 0002:00001cd0       ??_C@_0GE@ICDDODDA@WRMSR?5?$CDVE?5happened?0?5ExitReasion@ 000000000000a5d0     CcExitLib:CcExitVeHandler.obj
 0002:00001d40       ??_C@_0EB@LIHEBDAF@MMIO?5?$CDVE?5happened?0?5ExitReasion?5@ 000000000000a640     CcExitLib:CcExitVeHandler.obj
 0002:00001d90       ??_C@_0EH@CMBBBEBM@Unsupported?5?$CDVE?5happened?0?5ExitR@ 000000000000a690     CcExitLib:CcExitVeHandler.obj
 0002:00001de0       ??_C@_0FE@FHEKCDPF@?$CDVE?5Error?5?$CI0x?$CFllx?$CJ?5returned?5fro@ 000000000000a6e0     CcExitLib:CcExitVeHandler.obj
 0002:00001e38       ??_C@_0CC@NFFCFAPI@MMIO?5using?5encrypted?5memory?3?5?$CFl@ 000000000000a738     CcExitLib:CcExitVcHandler.obj
 0002:00001e60       ??_C@_0BK@ENLBMHMC@Invalid?5MMIO?5opcode?5?$CI?$CFx?$CJ?6@ 000000000000a760     CcExitLib:CcExitVcHandler.obj
 0002:00001e80       ??_C@_0FE@FEAIALFN@D?3?2uefi_specs_personal_collecti@ 000000000000a780     CcExitLib:CcExitVcHandler.obj
 0002:00001ed8       ??_C@_0BE@NGBOFDPN@Reg?5?$CB?$DN?5?$CI?$CIvoid?5?$CK?$CJ?50?$CJ@ 000000000000a7d8     CcExitLib:CcInstruction.obj
 0002:00001ef0       ??_C@_0FC@GJGFCDJA@D?3?2uefi_specs_personal_collecti@ 000000000000a7f0     CcExitLib:CcInstruction.obj
 0002:00001f50       ??_C@_0EN@HLCGLLBG@?$CIExitInfo?4Elements?4Lower32Bits?5@ 000000000000a850     CcExitLib:CcExitLib.obj
 0002:00001fa0       ??_C@_0EO@PKMHJHBC@D?3?2uefi_specs_personal_collecti@ 000000000000a8a0     CcExitLib:CcExitLib.obj
 0002:00001ff0       ??_C@_0CA@KLMDHBCA@Ghcb?9?$DOSaveArea?4SwExitInfo2?5?$CB?$DN?50@ 000000000000a8f0     CcExitLib:CcExitLib.obj
 0002:00002010       ??_C@_0DI@DAGDPLPG@?$CILength?5?9?51?$CJ?5?$DM?$DN?5?$CI0xFFFFFFFFFFFF@ 000000000000a910     BaseMemoryLibRepStr:SetMemWrapper.obj
 0002:00002050       ??_C@_0FL@MFFLICHL@D?3?2uefi_specs_personal_collecti@ 000000000000a950     BaseMemoryLibRepStr:SetMemWrapper.obj
 0002:000020b0       ??_C@_0BH@MAAHKCPC@String?5?$CB?$DN?5?$CI?$CIvoid?5?$CK?$CJ?50?$CJ@ 000000000000a9b0     BaseLib:String.obj
 0002:000020d0       ??_C@_0EI@LOLLHGDK@D?3?2uefi_specs_personal_collecti@ 000000000000a9d0     BaseLib:String.obj
 0002:00002118       ??_C@_0CC@GFNLNIOC@?$CI?$CIUINTN?$CJString?5?$CG?50x00000001?$CJ?5?$DN?$DN@ 000000000000aa18     BaseLib:String.obj
 0002:00002140       ??_C@_0DI@MDIKFADO@Length?5?$DM?5_gPcd_FixedAtBuild_Pcd@ 000000000000aa40     BaseLib:String.obj
 0002:00002178       ??_C@_0N@KGHEHMDL@Divisor?5?$CB?$DN?50@ 000000000000aa78     BaseLib:DivU64x32.obj
 0002:00002190       ??_C@_0FE@LIGPAOFO@D?3?2uefi_specs_personal_collecti@ 000000000000aa90     BaseLib:DivU64x32Remainder.obj
 0002:000021f0       ??_C@_0EM@OAPOMMAE@D?3?2uefi_specs_personal_collecti@ 000000000000aaf0     BaseLib:SafeString.obj
 0002:00002240       ??_C@_0BJ@CNKJJNE@?$CIBuffer?5?$CB?$DN?5?$CI?$CIvoid?5?$CK?$CJ?50?$CJ?$CJ@ 000000000000ab40     BaseLib:SafeString.obj
 0002:00002260       ??_C@_0FH@MODEAFEI@D?3?2uefi_specs_personal_collecti@ 000000000000ab60     BasePrintLib:PrintLibInternal.obj
 0002:000022c0       ??_C@_0EB@HDGIDCIO@?$CIBufferSize?5?$DM?$DN?5?$CI_gPcd_FixedAtBu@ 000000000000abc0     BasePrintLib:PrintLibInternal.obj
 0002:00002308       ??_C@_0BJ@PPAKKDJG@?$CIFormat?5?$CB?$DN?5?$CI?$CIvoid?5?$CK?$CJ?50?$CJ?$CJ@ 000000000000ac08     BasePrintLib:PrintLibInternal.obj
 0002:00002330       ??_C@_0ED@LPDDCECB@?$CIBufferSize?5?$DM?$DN?5?$CI_gPcd_FixedAtBu@ 000000000000ac30     BasePrintLib:PrintLibInternal.obj
 0002:00002380       ??_C@_0IM@BFJJFLGB@?$CIStrnLenS?5?$CI?$CICHAR16?5?$CK?$CJFormat?0?5?$CI_@ 000000000000ac80     BasePrintLib:PrintLibInternal.obj
 0002:00002410       ??_C@_0ID@PLGJGION@?$CIAsciiStrnLenS?5?$CIFormat?0?5?$CI_gPcd_@ 000000000000ad10     BasePrintLib:PrintLibInternal.obj
 0002:00002498       ??_C@_0O@MLOLIMFM@?$DMnull?5string?$DO@ 000000000000ad98     BasePrintLib:PrintLibInternal.obj
 0002:000024a8       ??_C@_0M@BJJDNPHK@?$DMnull?5guid?$DO@ 000000000000ada8     BasePrintLib:PrintLibInternal.obj
 0002:000024b8       ??_C@_0DB@PMLHLBMO@?$CF08x?9?$CF04x?9?$CF04x?9?$CF02x?$CF02x?9?$CF02x?$CF02@ 000000000000adb8     BasePrintLib:PrintLibInternal.obj
 0002:000024f0       ??_C@_0M@LHGBCIKM@?$DMnull?5time?$DO@ 000000000000adf0     BasePrintLib:PrintLibInternal.obj
 0002:00002500       ??_C@_0BK@FCPKCIDD@?$CF02d?1?$CF02d?1?$CF04d?5?5?$CF02d?3?$CF02d@ 000000000000ae00     BasePrintLib:PrintLibInternal.obj
 0002:0000251c       ??_C@_04JIMNDDED@?$CF08X@  000000000000ae1c     BasePrintLib:PrintLibInternal.obj
 0002:00002524       ??_C@_02PCIJFNDE@?$AN?6@   000000000000ae24     BasePrintLib:PrintLibInternal.obj
 0002:00002528       ??_C@_01LIIJDEN@?$AN@      000000000000ae28     BasePrintLib:PrintLibInternal.obj
 0002:00002530       mWarningString             000000000000ae30     BasePrintLib:PrintLibInternal.obj
 0002:00002600       mErrorString               000000000000af00     BasePrintLib:PrintLibInternal.obj
 0002:000028e0       mHexStr                    000000000000b1e0     BasePrintLib:PrintLibInternal.obj
 0002:000028f0       ??_C@_0BJ@FKJAAJLB@SpinLock?5?$CB?$DN?5?$CI?$CIvoid?5?$CK?$CJ?50?$CJ@ 000000000000b1f0     BaseSynchronizationLib:SynchronizationMsc.obj
 0002:00002910       ??_C@_0GD@DAFBJEGP@D?3?2uefi_specs_personal_collecti@ 000000000000b210     BaseSynchronizationLib:SynchronizationMsc.obj
 0002:00002978       ??_C@_0DF@GPAOIIHK@LockValue?5?$DN?$DN?5?$CI?$CIUINTN?$CJ?52?$CJ?5?$HM?$HM?5Loc@ 000000000000b278     BaseSynchronizationLib:SynchronizationMsc.obj
 0002:000029b0       ??_C@_0BJ@OAAKNPEN@Pe32Data?5?$CB?$DN?5?$CI?$CIvoid?5?$CK?$CJ?50?$CJ@ 000000000000b2b0     BasePeCoffGetEntryPointLib:PeCoffGetEntryPoint.obj
 0002:000029d0       ??_C@_0GI@BGLOKNAK@D?3?2uefi_specs_personal_collecti@ 000000000000b2d0     BasePeCoffGetEntryPointLib:PeCoffGetEntryPoint.obj
 0002:00002a38       ??_C@_0CB@GEABOFIF@Failed?5call?5TDCALL_TDINFO?4?5?$CFllx@ 000000000000b338     TdxLib:TdInfo.obj
 0002:00002a60       ??_C@_0CG@KIJMJHBN@?$CI?$CIAddress?$CJ?5?$CG?5?$CI?$HO0xffff0ff?5?$HM?5?$CI0?$CJ?$CJ@ 000000000000b360     BasePciCf8Lib:PciCf8Lib.obj
 0002:00002a90       ??_C@_0FB@PDIKDBMH@D?3?2uefi_specs_personal_collecti@ 000000000000b390     BasePciCf8Lib:PciCf8Lib.obj
 0002:00002ae8       ??_C@_0CG@EDKLCMBO@?$CI?$CIAddress?$CJ?5?$CG?5?$CI?$HO0xffff0ff?5?$HM?5?$CI3?$CJ?$CJ@ 000000000000b3e8     BasePciCf8Lib:PciCf8Lib.obj
 0002:00002b64       __volatile_metadata        000000000000b464     <linker-defined>
 0003:00000000       gMpInformation2HobGuid     000000000000b660     CpuMpPei:AutoGen.obj
 0003:00000010       gEfiSecPlatformInformation2PpiGuid 000000000000b670     CpuMpPei:AutoGen.obj
 0003:00000020       gEfiSecPlatformInformationPpiGuid 000000000000b680     CpuMpPei:AutoGen.obj
 0003:00000030       gEfiVectorHandoffInfoPpiGuid 000000000000b690     CpuMpPei:AutoGen.obj
 0003:00000040       gEfiPeiMpServicesPpiGuid   000000000000b6a0     CpuMpPei:AutoGen.obj
 0003:00000050       gEfiPeiMemoryDiscoveredPpiGuid 000000000000b6b0     CpuMpPei:AutoGen.obj
 0003:00000060       gEdkiiMigratedFvInfoGuid   000000000000b6c0     CpuMpPei:AutoGen.obj
 0003:00000070       gEdkiiPeiMpServices2PpiGuid 000000000000b6d0     CpuMpPei:AutoGen.obj
 0003:00000080       gEfiCallerIdGuid           000000000000b6e0     CpuMpPei:AutoGen.obj
 0003:00000090       mMpServicesPpi             000000000000b6f0     CpuMpPei:CpuMpPei.obj
 0003:000000c8       mPeiCpuMpPpiList           000000000000b728     CpuMpPei:CpuMpPei.obj
 0003:000000f8       mPeiSecPlatformInformation2Ppi 000000000000b758     CpuMpPei:CpuBist.obj
 0003:00000110       mSecPlatformInformation2Ppi 000000000000b770     CpuMpPei:CpuBist.obj
 0003:00000118       mPostMemNotifyList         000000000000b778     CpuMpPei:CpuPaging.obj
 0003:00000130       mMpServices2Ppi            000000000000b790     CpuMpPei:CpuMp2Pei.obj
 0003:00000178       gParity                    000000000000b7d8     PcAtSerialPortLib:SerialPortLib.obj
 0003:00000179       gBreakSet                  000000000000b7d9     PcAtSerialPortLib:SerialPortLib.obj
 0003:0000017a       mTdDataReturned            000000000000b7da     TdxLib:TdInfo.obj
 0003:00000180       mTdSharedPageMask          000000000000b7e0     TdxLib:TdInfo.obj

 entry point at        0001:00000874

 Static symbols

 0001:0000003a       InternalMemCopyMem.0       00000000000002fa     BaseMemoryLibRepStr:CopyMem.obj
 0001:0000004a       @CopyBackward              000000000000030a     BaseMemoryLibRepStr:CopyMem.obj
 0001:00000053       @CopyBytes                 0000000000000313     BaseMemoryLibRepStr:CopyMem.obj
 0001:00000075       AsmCpuidEx.0               0000000000000335     BaseLib:CpuIdEx.obj
 0001:0000007c       AsmCpuidEx.1               000000000000033c     BaseLib:CpuIdEx.obj
 0001:00000083       AsmCpuidEx.2               0000000000000343     BaseLib:CpuIdEx.obj
 0001:0000008c       AsmCpuidEx.3               000000000000034c     BaseLib:CpuIdEx.obj
 0001:0000009f       AsmCpuid.0                 000000000000035f     BaseLib:CpuId.obj
 0001:000000a4       AsmCpuid.1                 0000000000000364     BaseLib:CpuId.obj
 0001:000000ab       AsmCpuid.2                 000000000000036b     BaseLib:CpuId.obj
 0001:000000b4       AsmCpuid.3                 0000000000000374     BaseLib:CpuId.obj
 0001:00000179       TdVmCall.no_return_data    0000000000000439     BaseLib:TdVmcall.obj
 0001:000001e0       AsmIdtVectorBegin          00000000000004a0     PeiCpuExceptionHandlerLib:SecPeiExceptionHandlerAsm.obj
 0001:000003c0       AsmIdtVectorEnd            0000000000000680     PeiCpuExceptionHandlerLib:SecPeiExceptionHandlerAsm.obj
 0001:000003c0       HookAfterStubHeaderBegin   0000000000000680     PeiCpuExceptionHandlerLib:SecPeiExceptionHandlerAsm.obj
 0001:000003c1       @VectorNum                 0000000000000681     PeiCpuExceptionHandlerLib:SecPeiExceptionHandlerAsm.obj
 0001:000003cf       HookAfterStubHeaderEnd     000000000000068f     PeiCpuExceptionHandlerLib:SecPeiExceptionHandlerAsm.obj
 0001:000003eb       HookAfterStubHeaderEnd.0   00000000000006ab     PeiCpuExceptionHandlerLib:SecPeiExceptionHandlerAsm.obj
 0001:0000040c       NoErrorCode                00000000000006cc     PeiCpuExceptionHandlerLib:SecPeiExceptionHandlerAsm.obj
 0001:00000418       HasErrorCode               00000000000006d8     PeiCpuExceptionHandlerLib:SecPeiExceptionHandlerAsm.obj
 0001:000004e6       VcDebugRegs                00000000000007a6     PeiCpuExceptionHandlerLib:SecPeiExceptionHandlerAsm.obj
 0001:000004ef       DrFinish                   00000000000007af     PeiCpuExceptionHandlerLib:SecPeiExceptionHandlerAsm.obj
 0001:00000594       ErrorCode                  0000000000000854     PeiCpuExceptionHandlerLib:SecPeiExceptionHandlerAsm.obj
 0001:0000059c       DoReturn                   000000000000085c     PeiCpuExceptionHandlerLib:SecPeiExceptionHandlerAsm.obj
 0001:000005be       DoIret                     000000000000087e     PeiCpuExceptionHandlerLib:SecPeiExceptionHandlerAsm.obj
 0001:0000065a       TdVmCallCpuid.no_return_data 000000000000091a     CcExitLib:TdVmcallCpuid.obj
 0001:0000074b       TdCall.exit                0000000000000a0b     BaseLib:TdCall.obj
 0001:0000084a       PvalidateExit              0000000000000b0a     BaseLib:Pvalidate.obj
 0001:00001b68       $LN47                      0000000000001e28     BaseXApicX2ApicLib:BaseXApicX2ApicLib.obj
 0001:00001b70       $LN46                      0000000000001e30     BaseXApicX2ApicLib:BaseXApicX2ApicLib.obj
 0001:0000434c       IoExit                     000000000000460c f   CcExitLib:CcExitVeHandler.obj
 0001:000044e4       TdxMmioReadWrite           00000000000047a4 f   CcExitLib:CcExitVeHandler.obj
 0001:0000458c       ParseMmioExitInstructions  000000000000484c f   CcExitLib:CcExitVeHandler.obj
 0001:000049a4       MmioExit                   0000000000004c64 f   CcExitLib:CcExitVeHandler.obj
 0001:00004eb0       UnsupportedExit            0000000000005170 f   CcExitLib:CcExitVcHandler.obj
 0001:00004ee0       ValidateMmioMemory         00000000000051a0 f   CcExitLib:CcExitVcHandler.obj
 0001:00004f28       MmioExit                   00000000000051e8 f   CcExitLib:CcExitVcHandler.obj
 0001:000054e4       MwaitExit                  00000000000057a4 f   CcExitLib:CcExitVcHandler.obj
 0001:00005534       MonitorExit                00000000000057f4 f   CcExitLib:CcExitVcHandler.obj
 0001:000055a4       WbinvdExit                 0000000000005864 f   CcExitLib:CcExitVcHandler.obj
 0001:000055b4       RdtscpExit                 0000000000005874 f   CcExitLib:CcExitVcHandler.obj
 0001:00005650       VmmCallExit                0000000000005910 f   CcExitLib:CcExitVcHandler.obj
 0001:000056f4       MsrExit                    00000000000059b4 f   CcExitLib:CcExitVcHandler.obj
 0001:0000584c       IoioExit                   0000000000005b0c f   CcExitLib:CcExitVcHandler.obj
 0001:00005b6c       InvdExit                   0000000000005e2c f   CcExitLib:CcExitVcHandler.obj
 0001:00005b7c       GetCpuidHyp                0000000000005e3c f   CcExitLib:CcExitVcHandler.obj
 0001:00005c70       GetCpuidFw                 0000000000005f30 f   CcExitLib:CcExitVcHandler.obj
 0001:00005f7c       CpuidExit                  000000000000623c f   CcExitLib:CcExitVcHandler.obj
 0001:000060b8       RdpmcExit                  0000000000006378 f   CcExitLib:CcExitVcHandler.obj
 0001:00006154       RdtscExit                  0000000000006414 f   CcExitLib:CcExitVcHandler.obj
 0001:000061d0       Dr7WriteExit               0000000000006490 f   CcExitLib:CcExitVcHandler.obj
 0001:00006268       Dr7ReadExit                0000000000006528 f   CcExitLib:CcExitVcHandler.obj
 0001:0000671c       GetEffectiveMemoryAddress  00000000000069dc f   CcExitLib:CcInstruction.obj
 0003:00000170       mDeadLoopComparator        000000000000b7d0     BaseLib:CpuDeadLoop.obj
 0005:00000000       $unwind$PciAndThenOr32     000000000000bd40     BasePciLibCf8:PciLib.obj
 0005:00000000       $unwind$_ModuleEntryPoint  000000000000bd40     PeimEntryPoint:PeimEntryPoint.obj
 0005:00000018       $unwind$InternalReportStatusCode 000000000000bd58     PeiReportStatusCodeLib:ReportStatusCodeLib.obj
 0005:00000018       $unwind$MmioRead32         000000000000bd58     BaseIoLibIntrinsicSev:IoLib.obj
 0005:00000018       $unwind$TdIoRead32         000000000000bd58     BaseIoLibIntrinsicSev:IoLibInternalTdx.obj
 0005:00000018       $unwind$TdIoWrite8         000000000000bd58     BaseIoLibIntrinsicSev:IoLibInternalTdx.obj
 0005:00000018       $unwind$GetPeiServicesTablePointer 000000000000bd58     PeiServicesTablePointerLibIdt:PeiServicesTablePointer.obj
 0005:00000018       $unwind$GetProcessorCoreType 000000000000bd58     CpuMpPei:CpuMpPei.obj
 0005:00000018       $unwind$LocalApicReadMsrReg64 000000000000bd58     BaseXApicX2ApicLib:BaseXApicX2ApicLib.obj
 0005:00000020       $unwind$BuildMpInformationHob 000000000000bd60     CpuMpPei:CpuMpPei.obj
 0005:0000003c       $unwind$IoWrite32          000000000000bd7c     BaseIoLibIntrinsicSev:IoLibMsc.obj
 0005:0000003c       $unwind$LShiftU64          000000000000bd7c     BaseLib:LShiftU64.obj
 0005:0000003c       $unwind$RShiftU64          000000000000bd7c     BaseLib:RShiftU64.obj
 0005:0000003c       $unwind$AsciiStrLen        000000000000bd7c     BaseLib:String.obj
 0005:0000003c       $unwind$ZeroMem            000000000000bd7c     BaseMemoryLibRepStr:ZeroMemWrapper.obj
 0005:0000003c       $unwind$BuildGuidHob       000000000000bd7c     PeiHobLib:HobLib.obj
 0005:0000003c       $unwind$GetFirstGuidHob    000000000000bd7c     PeiHobLib:HobLib.obj
 0005:0000003c       $unwind$GetNextHob         000000000000bd7c     PeiHobLib:HobLib.obj
 0005:0000003c       $unwind$FreePages          000000000000bd7c     PeiMemoryAllocationLib:MemoryAllocationLib.obj
 0005:0000003c       $unwind$Dr7WriteExit       000000000000bd7c     CcExitLib:CcExitVcHandler.obj
 0005:0000003c       $unwind$GetCpuidHyp        000000000000bd7c     CcExitLib:CcExitVcHandler.obj
 0005:0000003c       $unwind$CcDecodeModRm      000000000000bd7c     CcExitLib:CcInstruction.obj
 0005:0000003c       $unwind$SecPlatformInformation2 000000000000bd7c     CpuMpPei:CpuBist.obj
 0005:0000003c       $unwind$WriteLocalApicReg  000000000000bd7c     BaseXApicX2ApicLib:BaseXApicX2ApicLib.obj
 0005:0000003c       $unwind$DumpModuleImageInfo 000000000000bd7c     PeiCpuExceptionHandlerLib:CpuExceptionCommon.obj
 0005:0000003c       $unwind$MpInitLibGetProcessorInfo 000000000000bd7c     MpInitLibUp:MpInitLibUp.obj
 0005:00000048       $unwind$GetBistInfoFromPpi 000000000000bd88     CpuMpPei:CpuBist.obj
 0005:0000005c       $unwind$CollectBistDataFromPpi 000000000000bd9c     CpuMpPei:CpuBist.obj
 0005:00000070       $unwind$ConvertMemoryPageToNotPresent 000000000000bdb0     CpuMpPei:CpuPaging.obj
 0005:00000088       $unwind$EnablePaePageTable 000000000000bdc8     CpuMpPei:CpuPaging.obj
 0005:00000098       $unwind$MemoryDiscoveredPpiNotifyCallback 000000000000bdd8     CpuMpPei:CpuPaging.obj
 0005:000000ac       $unwind$IoRead32           000000000000bdec     BaseIoLibIntrinsicSev:IoLibMsc.obj
 0005:000000ac       $unwind$IoWrite8           000000000000bdec     BaseIoLibIntrinsicSev:IoLibMsc.obj
 0005:000000ac       $unwind$SaveAndDisableInterrupts 000000000000bdec     BaseLib:Cpu.obj
 0005:000000ac       $unwind$StrnLenS           000000000000bdec     BaseLib:SafeString.obj
 0005:000000ac       $unwind$PeCoffLoaderGetPdbPointer 000000000000bdec     BasePeCoffGetEntryPointLib:PeCoffGetEntryPoint.obj
 0005:000000ac       $unwind$ReleaseSpinLock    000000000000bdec     BaseSynchronizationLib:SynchronizationMsc.obj
 0005:000000ac       $unwind$InternalPeiCreateHob 000000000000bdec     PeiHobLib:HobLib.obj
 0005:000000ac       $unwind$AllocatePool       000000000000bdec     PeiMemoryAllocationLib:MemoryAllocationLib.obj
 0005:000000ac       $unwind$InternalAllocatePages 000000000000bdec     PeiMemoryAllocationLib:MemoryAllocationLib.obj
 0005:000000ac       $unwind$Dr7ReadExit        000000000000bdec     CcExitLib:CcExitVcHandler.obj
 0005:000000ac       $unwind$CcGetRegisterPointer 000000000000bdec     CcExitLib:CcInstruction.obj
 0005:000000ac       $unwind$EdkiiPeiStartupAllCPUs 000000000000bdec     CpuMpPei:CpuMp2Pei.obj
 0005:000000ac       $unwind$GetApicId          000000000000bdec     BaseXApicX2ApicLib:BaseXApicX2ApicLib.obj
 0005:000000ac       $unwind$GetApicMode        000000000000bdec     BaseXApicX2ApicLib:BaseXApicX2ApicLib.obj
 0005:000000ac       $unwind$ReadLocalApicReg   000000000000bdec     BaseXApicX2ApicLib:BaseXApicX2ApicLib.obj
 0005:000000b4       $unwind$CopyMem            000000000000bdf4     BaseMemoryLibRepStr:CopyMemWrapper.obj
 0005:000000b4       $unwind$PciCf8Read16       000000000000bdf4     BasePciCf8Lib:PciCf8Lib.obj
 0005:000000b4       $unwind$PciCf8Read32       000000000000bdf4     BasePciCf8Lib:PciCf8Lib.obj
 0005:000000b4       $unwind$PciCf8Read8        000000000000bdf4     BasePciCf8Lib:PciCf8Lib.obj
 0005:000000c8       $unwind$BitFieldRead64     000000000000be08     BaseLib:BitField.obj
 0005:000000c8       $unwind$DivU64x32Remainder 000000000000be08     BaseLib:DivU64x32Remainder.obj
 0005:000000c8       $unwind$CopyGuid           000000000000be08     BaseMemoryLibRepStr:MemLibGuid.obj
 0005:000000c8       $unwind$SetMem             000000000000be08     BaseMemoryLibRepStr:SetMemWrapper.obj
 0005:000000c8       $unwind$RdpmcExit          000000000000be08     CcExitLib:CcExitVcHandler.obj
 0005:000000c8       $unwind$RdtscExit          000000000000be08     CcExitLib:CcExitVcHandler.obj
 0005:000000c8       $unwind$RdtscpExit         000000000000be08     CcExitLib:CcExitVcHandler.obj
 0005:000000c8       $unwind$VmmCallExit        000000000000be08     CcExitLib:CcExitVcHandler.obj
 0005:000000c8       $unwind$CcInitInstructionData 000000000000be08     CcExitLib:CcInstruction.obj
 0005:000000c8       $unwind$PageTableLibSetPle 000000000000be08     CpuPageTableLib:CpuPageTableMap.obj
 0005:000000d8       $unwind$CompareGuid        000000000000be18     BaseMemoryLibRepStr:MemLibGuid.obj
 0005:000000f0       $unwind$AccessMsrTdxCall   000000000000be30     BaseXApicX2ApicLib:BaseXApicX2ApicLib.obj
 0005:000000fc       $unwind$TdIoWrite32        000000000000be3c     BaseIoLibIntrinsicSev:IoLibInternalTdx.obj
 0005:000000fc       $unwind$LocalApicWriteMsrReg64 000000000000be3c     BaseXApicX2ApicLib:BaseXApicX2ApicLib.obj
 0005:000000fc       $unwind$CommonExceptionHandler 000000000000be3c     PeiCpuExceptionHandlerLib:PeiCpuException.obj
 0005:00000108       $unwind$TdIoRead8          000000000000be48     BaseIoLibIntrinsicSev:IoLibInternalTdx.obj
 0005:00000108       $unwind$TdxMmioReadWrite   000000000000be48     CcExitLib:CcExitVeHandler.obj
 0005:00000108       $unwind$GetInitialApicId   000000000000be48     BaseXApicX2ApicLib:BaseXApicX2ApicLib.obj
 0005:00000108       $unwind$LocalApicBaseAddressMsrSupported 000000000000be48     BaseXApicX2ApicLib:BaseXApicX2ApicLib.obj
 0005:00000110       $unwind$CpuDeadLoop        000000000000be50     BaseLib:CpuDeadLoop.obj
 0005:00000110       $unwind$GetHobList         000000000000be50     PeiHobLib:HobLib.obj
 0005:00000110       $unwind$TdSharedPageMask   000000000000be50     TdxLib:TdInfo.obj
 0005:00000110       $unwind$UnsupportedExit    000000000000be50     CcExitLib:CcExitVcHandler.obj
 0005:00000110       $unwind$SerialPortInitialize 000000000000be50     PcAtSerialPortLib:SerialPortLib.obj
 0005:00000110       $unwind$GetLocalApicBaseAddress 000000000000be50     BaseXApicX2ApicLib:BaseXApicX2ApicLib.obj
 0005:00000118       $unwind$DebugPrint         000000000000be58     BaseDebugLibSerialPort:DebugLib.obj
 0005:00000120       $unwind$DebugPrintMarker   000000000000be60     BaseDebugLibSerialPort:DebugLib.obj
 0005:00000134       $unwind$DebugAssert        000000000000be74     BaseDebugLibSerialPort:DebugLib.obj
 0005:0000013c       $unwind$InitializeCpuExceptionHandlers 000000000000be7c     PeiCpuExceptionHandlerLib:PeiCpuException.obj
 0005:00000150       $unwind$CommonExceptionHandlerWorker 000000000000be90     PeiCpuExceptionHandlerLib:PeiDxeSmmCpuException.obj
 0005:00000168       $unwind$UpdateIdtTable     000000000000bea8     PeiCpuExceptionHandlerLib:PeiDxeSmmCpuException.obj
 0005:00000184       $unwind$DumpCpuContext     000000000000bec4     PeiCpuExceptionHandlerLib:ArchExceptionHandler.obj
 0005:00000194       $unwind$InternalPrintMessage 000000000000bed4     PeiCpuExceptionHandlerLib:CpuExceptionCommon.obj
 0005:0000019c       $unwind$PageTableLibMapInLevel 000000000000bedc     CpuPageTableLib:CpuPageTableMap.obj
 0005:000001b4       $unwind$PageTableMap       000000000000bef4     CpuPageTableLib:CpuPageTableMap.obj
 0005:000001d4       $unwind$MmioWrite32        000000000000bf14     BaseIoLibIntrinsicSev:IoLib.obj
 0005:000001e4       $unwind$TdIoRead16         000000000000bf24     BaseIoLibIntrinsicSev:IoLibInternalTdx.obj
 0005:000001e4       $unwind$BasePrintLibSPrint 000000000000bf24     BasePrintLib:PrintLibInternal.obj
 0005:000001ec       $unwind$PciOr8             000000000000bf2c     BasePciLibCf8:PciLib.obj
 0005:000001ec       $unwind$MsrExit            000000000000bf2c     CcExitLib:CcExitVcHandler.obj
 0005:000001ec       $unwind$CcExitHandleVc     000000000000bf2c     CcExitLib:PeiDxeCcExitVcHandler.obj
 0005:00000204       $unwind$IoioExit           000000000000bf44     CcExitLib:CcExitVcHandler.obj
 0005:00000204       $unwind$IoExit             000000000000bf44     CcExitLib:CcExitVeHandler.obj
 0005:0000021c       $unwind$ParseMmioExitInstructions 000000000000bf5c     CcExitLib:CcExitVeHandler.obj
 0005:00000234       $unwind$MmioExit           000000000000bf74     CcExitLib:CcExitVeHandler.obj
 0005:00000250       $unwind$CcExitHandleVe     000000000000bf90     CcExitLib:CcExitVeHandler.obj
 0005:00000264       $unwind$ValidateMmioMemory 000000000000bfa4     CcExitLib:CcExitVcHandler.obj
 0005:0000026c       $unwind$MmioExit           000000000000bfac     CcExitLib:CcExitVcHandler.obj
 0005:00000288       $unwind$GetCpuidFw         000000000000bfc8     CcExitLib:CcExitVcHandler.obj
 0005:000002a4       $unwind$CpuidExit          000000000000bfe4     CcExitLib:CcExitVcHandler.obj
 0005:000002bc       $unwind$InternalVmgExitHandleVc 000000000000bffc     CcExitLib:CcExitVcHandler.obj
 0005:000002dc       $unwind$GetEffectiveMemoryAddress 000000000000c01c     CcExitLib:CcInstruction.obj
 0005:000002f0       $unwind$BasePrintLibValueToString 000000000000c030     BasePrintLib:PrintLibInternal.obj
 0005:000002f0       $unwind$AcquireSpinLockOrFail 000000000000c030     BaseSynchronizationLib:SynchronizationMsc.obj
 0005:000002f0       $unwind$CcExitVmgExit      000000000000c030     CcExitLib:CcExitLib.obj
 0005:000002fc       $unwind$SerialPortWrite    000000000000c03c     PcAtSerialPortLib:SerialPortLib.obj
 0005:00000310       $unwind$AsciiSPrint        000000000000c050     BasePrintLib:PrintLib.obj
 0005:00000318       $unwind$BasePrintLibSPrintMarker 000000000000c058     BasePrintLib:PrintLibInternal.obj
 0005:00000334       $unwind$InternalMemEncryptSevGetAddressRangeState 000000000000c074     PeiMemEncryptSevLib:VirtualMemory.obj
 0005:0000034c       $unwind$GetTdInfo          000000000000c08c     TdxLib:TdInfo.obj
