 MyHelloWorldFileIO

 Timestamp is 6725e48c (Sat Nov  2 16:36:28 2024)

 Preferred load address is 0000000000000000

 Start         Length     Name                   Class
 0001:00000000 000001c8H .text                   CODE
 0001:000001c8 000024c3H .text$mn                CODE
 0002:00000000 00001208H .rdata                  DATA
 0002:00001208 00000034H .rdata$voltmd           DATA
 0002:0000123c 00000168H .rdata$zzzdbg           DATA
 0003:00000000 00000050H .data                   DATA
 0003:00000050 0000003aH .bss                    DATA
 0004:00000000 0000015cH .pdata                  DATA
 0005:00000000 00000110H .xdata                  DATA

  Address         Publics by Value              Rva+Base               Lib:Object

 0000:00000000       __x64_code_ranges_to_entry_points_count 0000000000000000     <absolute>
 0000:00000000       __x64_code_ranges_to_entry_points 0000000000000000     <absolute>
 0000:00000000       __arm64x_redirection_metadata 0000000000000000     <absolute>
 0000:00000000       __guard_iat_table          0000000000000000     <absolute>
 0000:00000000       __guard_fids_count         0000000000000000     <absolute>
 0000:00000000       __guard_iat_count          0000000000000000     <absolute>
 0000:00000000       __arm64x_extra_rfe_table   0000000000000000     <absolute>
 0000:00000000       __guard_longjmp_count      0000000000000000     <absolute>
 0000:00000000       __hybrid_code_map_count    0000000000000000     <absolute>
 0000:00000000       __dynamic_value_reloc_table 0000000000000000     <absolute>
 0000:00000000       __hybrid_auxiliary_iat     0000000000000000     <absolute>
 0000:00000000       __hybrid_code_map          0000000000000000     <absolute>
 0000:00000000       __hybrid_auxiliary_iat_copy 0000000000000000     <absolute>
 0000:00000000       __arm64x_extra_rfe_table_size 0000000000000000     <absolute>
 0000:00000000       __AbsoluteZero             0000000000000000     <absolute>
 0000:00000000       __guard_check_icall_a64n_fptr 0000000000000000     <absolute>
 0000:00000000       __guard_fids_table         0000000000000000     <absolute>
 0000:00000000       __arm64x_native_entrypoint 0000000000000000     <absolute>
 0000:00000000       __guard_flags              0000000000000000     <absolute>
 0000:00000000       __guard_eh_cont_count      0000000000000000     <absolute>
 0000:00000000       __arm64x_redirection_metadata_count 0000000000000000     <absolute>
 0000:00000000       __guard_eh_cont_table      0000000000000000     <absolute>
 0000:00000000       __enclave_config           0000000000000000     <absolute>
 0000:00000000       __guard_longjmp_table      0000000000000000     <absolute>
 0001:00000000       InternalMemSetMem          00000000000002c0     BaseMemoryLibRepStr:SetMem.obj
 0001:00000020       InternalMemCopyMem         00000000000002e0     BaseMemoryLibRepStr:CopyMem.obj
 0001:00000060       InternalMemZeroMem         0000000000000320     BaseMemoryLibRepStr:ZeroMem.obj
 0001:00000080       InternalMemSetMem64        0000000000000340     BaseMemoryLibRepStr:SetMem64.obj
 0001:000000a0       InternalMemSetMem32        0000000000000360     BaseMemoryLibRepStr:SetMem32.obj
 0001:000000c0       CpuPause                   0000000000000380     BaseLib:CpuPause.obj
 0001:000000d0       InternalMemCompareMem      0000000000000390     BaseMemoryLibRepStr:CompareMem.obj
 0001:000000f0       TdVmCall                   00000000000003b0     BaseLib:TdVmcall.obj
 0001:00000170       TdCall                     0000000000000430     BaseLib:TdCall.obj
 0001:000001c8       _ModuleEntryPoint          0000000000000488 f   UefiApplicationEntryPoint:ApplicationEntryPoint.obj
 0001:0000022c       BaseDebugLibSerialPortConstructor 00000000000004ec f   BaseDebugLibSerialPort:DebugLib.obj
 0001:000002ec       DebugPrint                 00000000000005ac f   BaseDebugLibSerialPort:DebugLib.obj
 0001:00000310       DebugPrintMarker           00000000000005d0 f   BaseDebugLibSerialPort:DebugLib.obj
 0001:000003a8       DebugAssert                0000000000000668 f   BaseDebugLibSerialPort:DebugLib.obj
 0001:00000438       DebugAssertEnabled         00000000000006f8 f   BaseDebugLibSerialPort:DebugLib.obj
 0001:00000444       DebugPrintEnabled          0000000000000704 f   BaseDebugLibSerialPort:DebugLib.obj
 0001:00000450       DebugPrintLevelEnabled     0000000000000710 f   BaseDebugLibSerialPort:DebugLib.obj
 0001:00000460       DxeCcProbeLibConstructor   0000000000000720 f   DxeCcProbeLib:DxeCcProbeLib.obj
 0001:00000480       UefiBootServicesTableLibConstructor 0000000000000740 f   UefiBootServicesTableLib:UefiBootServicesTableLib.obj
 0001:0000051c       UefiRuntimeServicesTableLibConstructor 00000000000007dc f   UefiRuntimeServicesTableLib:UefiRuntimeServicesTableLib.obj
 0001:00000558       DevicePathLibConstructor   0000000000000818 f   UefiDevicePathLibDevicePathProtocol:UefiDevicePathLib.obj
 0001:00000604       ShellCEntryLib             00000000000008c4 f   UefiShellCEntryLib:UefiShellCEntryLib.obj
 0001:000006dc       UefiLibConstructor         000000000000099c f   UefiLib:UefiLib.obj
 0001:000006e0       StrLen                     00000000000009a0 f   BaseLib:String.obj
 0001:000007a0       AsciiStrLen                0000000000000a60 f   BaseLib:String.obj
 0001:0000082c       StrnLenS                   0000000000000aec f   BaseLib:SafeString.obj
 0001:0000089c       StrnCpyS                   0000000000000b5c f   BaseLib:SafeString.obj
 0001:00000b4c       StrCatS                    0000000000000e0c f   BaseLib:SafeString.obj
 0001:00000e14       UnicodeVSPrint             00000000000010d4 f   BasePrintLib:PrintLib.obj
 0001:00000ebc       AsciiSPrint                000000000000117c f   BasePrintLib:PrintLib.obj
 0001:00000ee8       BasePrintLibFillBuffer     00000000000011a8 f   BasePrintLib:PrintLibInternal.obj
 0001:00000f1c       BasePrintLibValueToString  00000000000011dc f   BasePrintLib:PrintLibInternal.obj
 0001:00000f90       BasePrintLibSPrintMarker   0000000000001250 f   BasePrintLib:PrintLibInternal.obj
 0001:00001fa4       BasePrintLibSPrint         0000000000002264 f   BasePrintLib:PrintLibInternal.obj
 0001:00001fc8       SerialPortWrite            0000000000002288 f   PcAtSerialPortLib:SerialPortLib.obj
 0001:0000204c       InternalAllocatePool       000000000000230c f   UefiMemoryAllocationLib:MemoryAllocationLib.obj
 0001:0000207c       FreePool                   000000000000233c f   UefiMemoryAllocationLib:MemoryAllocationLib.obj
 0001:000020e0       InternalPrint              00000000000023a0 f   UefiLib:UefiLibPrint.obj
 0001:00002204       Print                      00000000000024c4 f   UefiLib:UefiLibPrint.obj
 0001:00002234       IsTdxGuest                 00000000000024f4 f   BaseIoLibIntrinsicSev:IoLibInternalTdx.obj
 0001:00002260       TdIoRead8                  0000000000002520 f   BaseIoLibIntrinsicSev:IoLibInternalTdx.obj
 0001:000022b8       TdIoWrite8                 0000000000002578 f   BaseIoLibIntrinsicSev:IoLibInternalTdx.obj
 0001:00002308       ProcessLibraryConstructorList 00000000000025c8 f   MyHelloWorldFileIO:AutoGen.obj
 0001:00002538       ProcessLibraryDestructorList 00000000000027f8 f   MyHelloWorldFileIO:AutoGen.obj
 0001:0000253c       ProcessModuleEntryPointList 00000000000027fc f   MyHelloWorldFileIO:AutoGen.obj
 0001:00002544       CsdnOpenShellProtocol      0000000000002804 f   MyHelloWorldFileIO:MyHelloWorldFileIO.obj
 0001:000025a0       ShellAppMain               0000000000002860 f   MyHelloWorldFileIO:MyHelloWorldFileIO.obj
 0001:00002674       memset                     0000000000002934 f   BaseIntrinsicLib:MemoryIntrinsics.obj
 0002:00000000       _gUefiDriverRevision       0000000000002960     MyHelloWorldFileIO:AutoGen.obj
 0002:00000008       ??_C@_0BD@NJKEHPLB@MyHelloWorldFileIO@ 0000000000002968     MyHelloWorldFileIO:AutoGen.obj
 0002:0000001c       _gPcd_FixedAtBuild_PcdMaximumAsciiStringLength 000000000000297c     MyHelloWorldFileIO:AutoGen.obj
 0002:00000020       _gPcd_FixedAtBuild_PcdMaximumUnicodeStringLength 0000000000002980     MyHelloWorldFileIO:AutoGen.obj
 0002:00000024       _gPcd_FixedAtBuild_PcdDebugPrintErrorLevel 0000000000002984     MyHelloWorldFileIO:AutoGen.obj
 0002:00000028       _gPcd_FixedAtBuild_PcdDebugPropertyMask 0000000000002988     MyHelloWorldFileIO:AutoGen.obj
 0002:0000002c       _gPcd_FixedAtBuild_PcdFixedDebugPrintErrorLevel 000000000000298c     MyHelloWorldFileIO:AutoGen.obj
 0002:00000030       _gPcd_FixedAtBuild_PcdUefiLibMaxPrintBufferSize 0000000000002990     MyHelloWorldFileIO:AutoGen.obj
 0002:00000038       ??_C@_0CE@IBFOBMLB@?6ASSERT_RETURN_ERROR?5?$CIStatus?5?$DN?5@ 0000000000002998     MyHelloWorldFileIO:AutoGen.obj
 0002:00000060       ??_C@_0IH@FGHNJHGN@d?3?2uefi_specs_personal_collecti@ 00000000000029c0     MyHelloWorldFileIO:AutoGen.obj
 0002:000000e8       ??_C@_1DC@NJCBMGFF@?$AAP?$AAl?$AAe?$AAa?$AAs?$AAe?$AA?5?$AAi?$AAn?$AAp?$AAu?$AAt?$AA?5?$AAf?$AAi@ 0000000000002a48     MyHelloWorldFileIO:MyHelloWorldFileIO.obj
 0002:00000120       ??_C@_1DE@NFKIMJLA@?$AAT?$AAh?$AAe?$AA?5?$AAO?$AAl?$AAd?$AA?5?$AAf?$AAi?$AAl?$AAe?$AA?5?$AAn?$AAa@ 0000000000002a80     MyHelloWorldFileIO:MyHelloWorldFileIO.obj
 0002:00000158       ??_C@_1DM@NCIHOAMF@?$AAP?$AAl?$AAe?$AAa?$AAs?$AAe?$AA?5?$AAI?$AAn?$AAp?$AAu?$AAt?$AA?5?$AAV?$AAa@ 0000000000002ab8     MyHelloWorldFileIO:MyHelloWorldFileIO.obj
 0002:00000198       ??_C@_1BC@NGEHCFKC@?$AA_?$AAN?$AAe?$AAw?$AA?4?$AAt?$AAx?$AAt@ 0000000000002af8     MyHelloWorldFileIO:MyHelloWorldFileIO.obj
 0002:000001b0       ??_C@_0BH@LKMBFCBF@Format?5?$CB?$DN?5?$CI?$CIvoid?5?$CK?$CJ?50?$CJ@ 0000000000002b10     BaseDebugLibSerialPort:DebugLib.obj
 0002:000001d0       ??_C@_0FJ@BNNHJMAJ@D?3?2uefi_specs_personal_collecti@ 0000000000002b30     BaseDebugLibSerialPort:DebugLib.obj
 0002:00000230       ??_C@_0BI@NOCKJDBJ@ASSERT?5?$FL?$CFa?$FN?5?$CFa?$CI?$CFd?$CJ?3?5?$CFa?6@ 0000000000002b90     BaseDebugLibSerialPort:DebugLib.obj
 0002:00000248       ??_C@_0BH@IACGKAP@Buffer?5?$CB?$DN?5?$CI?$CIvoid?5?$CK?$CJ?50?$CJ@ 0000000000002ba8     BaseDebugLibSerialPort:DebugLib.obj
 0002:00000260       ??_C@_0BN@COECPDCC@gImageHandle?5?$CB?$DN?5?$CI?$CIvoid?5?$CK?$CJ?50?$CJ@ 0000000000002bc0     UefiBootServicesTableLib:UefiBootServicesTableLib.obj
 0002:00000280       ??_C@_0GL@PJCPJLGM@D?3?2uefi_specs_personal_collecti@ 0000000000002be0     UefiBootServicesTableLib:UefiBootServicesTableLib.obj
 0002:000002f0       ??_C@_0BE@DGNHAHIL@gST?5?$CB?$DN?5?$CI?$CIvoid?5?$CK?$CJ?50?$CJ@ 0000000000002c50     UefiBootServicesTableLib:UefiBootServicesTableLib.obj
 0002:00000308       ??_C@_0BE@BDFJLGLN@gBS?5?$CB?$DN?5?$CI?$CIvoid?5?$CK?$CJ?50?$CJ@ 0000000000002c68     UefiBootServicesTableLib:UefiBootServicesTableLib.obj
 0002:00000320       ??_C@_0BE@OBDFIHND@gRT?5?$CB?$DN?5?$CI?$CIvoid?5?$CK?$CJ?50?$CJ@ 0000000000002c80     UefiRuntimeServicesTableLib:UefiRuntimeServicesTableLib.obj
 0002:00000340       ??_C@_0HB@NCAPNEDO@D?3?2uefi_specs_personal_collecti@ 0000000000002ca0     UefiRuntimeServicesTableLib:UefiRuntimeServicesTableLib.obj
 0002:000003b8       ??_C@_0CB@DMEJJJHA@?6ASSERT_EFI_ERROR?5?$CIStatus?5?$DN?5?$CFr?$CJ@ 0000000000002d18     UefiDevicePathLibDevicePathProtocol:UefiDevicePathLib.obj
 0002:000003e0       ??_C@_0CH@BBNBJKHK@?$CB?$CI?$CI?$CIINTN?$CJ?$CIRETURN_STATUS?$CJ?$CIStatus@ 0000000000002d40     UefiDevicePathLibDevicePathProtocol:UefiDevicePathLib.obj
 0002:00000410       ??_C@_0GP@HEOOPGAM@D?3?2uefi_specs_personal_collecti@ 0000000000002d70     UefiDevicePathLibDevicePathProtocol:UefiDevicePathLib.obj
 0002:00000480       ??_C@_0DC@CNNBPJA@mDevicePathLibDevicePathUtiliti@ 0000000000002de0     UefiDevicePathLibDevicePathProtocol:UefiDevicePathLib.obj
 0002:000004b8       ??_C@_0BC@FEDIJHFF@?$CI?$CIBOOLEAN?$CJ?$CI0?$DN?$DN1?$CJ?$CJ@ 0000000000002e18     UefiShellCEntryLib:UefiShellCEntryLib.obj
 0002:000004d0       ??_C@_0GB@LPMKBLOF@D?3?2uefi_specs_personal_collecti@ 0000000000002e30     UefiShellCEntryLib:UefiShellCEntryLib.obj
 0002:00000538       ??_C@_0BH@MAAHKCPC@String?5?$CB?$DN?5?$CI?$CIvoid?5?$CK?$CJ?50?$CJ@ 0000000000002e98     BaseLib:String.obj
 0002:00000550       ??_C@_0EI@LOLLHGDK@D?3?2uefi_specs_personal_collecti@ 0000000000002eb0     BaseLib:String.obj
 0002:00000598       ??_C@_0CC@GFNLNIOC@?$CI?$CIUINTN?$CJString?5?$CG?50x00000001?$CJ?5?$DN?$DN@ 0000000000002ef8     BaseLib:String.obj
 0002:000005c0       ??_C@_0DK@EOJCOAME@Length?5?$DM?5_gPcd_FixedAtBuild_Pcd@ 0000000000002f20     BaseLib:String.obj
 0002:00000600       ??_C@_0DI@MDIKFADO@Length?5?$DM?5_gPcd_FixedAtBuild_Pcd@ 0000000000002f60     BaseLib:String.obj
 0002:00000640       ??_C@_0EL@GLNKFHII@D?3?2uefi_specs_personal_collecti@ 0000000000002fa0     BaseLib:Unaligned.obj
 0002:00000690       ??_C@_0EM@OAPOMMAE@D?3?2uefi_specs_personal_collecti@ 0000000000002ff0     BaseLib:SafeString.obj
 0002:000006e0       ??_C@_0CH@LALFPBMC@?$CI?$CIUINTN?$CJDestination?5?$CG?50x0000000@ 0000000000003040     BaseLib:SafeString.obj
 0002:00000708       ??_C@_0CC@HEBCMBPF@?$CI?$CIUINTN?$CJSource?5?$CG?50x00000001?$CJ?5?$DN?$DN@ 0000000000003068     BaseLib:SafeString.obj
 0002:00000730       ??_C@_0BO@ECNIOIHG@?$CIDestination?5?$CB?$DN?5?$CI?$CIvoid?5?$CK?$CJ?50?$CJ?$CJ@ 0000000000003090     BaseLib:SafeString.obj
 0002:00000750       ??_C@_0EA@PDPDJJNN@?$CFa?$CI?$CFd?$CJ?5?$CFa?3?5SAFE_STRING_CONSTRAI@ 00000000000030b0     BaseLib:SafeString.obj
 0002:00000790       ??_C@_0BJ@EAEEJIP@?$CISource?5?$CB?$DN?5?$CI?$CIvoid?5?$CK?$CJ?50?$CJ?$CJ@ 00000000000030f0     BaseLib:SafeString.obj
 0002:000007b0       ??_C@_0EA@BBALOHPI@?$CIDestMax?5?$DM?$DN?5?$CI_gPcd_FixedAtBuild@ 0000000000003110     BaseLib:SafeString.obj
 0002:000007f0       ??_C@_0P@PMIMLIHM@?$CIDestMax?5?$CB?$DN?50?$CJ@ 0000000000003150     BaseLib:SafeString.obj
 0002:00000800       ??_C@_0BG@EEGIIOKH@?$CIDestMax?5?$DO?5SourceLen?$CJ@ 0000000000003160     BaseLib:SafeString.obj
 0002:00000820       ??_C@_0FH@PPBLBDBJ@InternalSafeStringNoStrOverlap?5@ 0000000000003180     BaseLib:SafeString.obj
 0002:00000878       ??_C@_08INOAHJON@StrnCpyS@ 00000000000031d8     BaseLib:SafeString.obj
 0002:00000888       ??_C@_0DP@PBOJGJC@?$CILength?5?$DM?$DN?5?$CI_gPcd_FixedAtBuild_@ 00000000000031e8     BaseLib:SafeString.obj
 0002:000008c8       ??_C@_07EBBOPAKF@StrCatS@  0000000000003228     BaseLib:SafeString.obj
 0002:000008d0       ??_C@_0P@BHOOOJPD@?$CICopyLen?5?$CB?$DN?50?$CJ@ 0000000000003230     BaseLib:SafeString.obj
 0002:000008e0       ??_C@_0BG@BPGICNPK@?$CICopyLen?5?$DO?5SourceLen?$CJ@ 0000000000003240     BaseLib:SafeString.obj
 0002:000008f8       ??_C@_0BJ@CNKJJNE@?$CIBuffer?5?$CB?$DN?5?$CI?$CIvoid?5?$CK?$CJ?50?$CJ?$CJ@ 0000000000003258     BaseLib:SafeString.obj
 0002:00000918       ??_C@_0N@KGHEHMDL@Divisor?5?$CB?$DN?50@ 0000000000003278     BaseLib:DivU64x32.obj
 0002:00000928       ??_C@_0CI@BGLNHBLM@?$CI?$CI?$CIUINTN?$CJ?5?$CIStartOfBuffer?$CJ?$CJ?5?$CG?50x@ 0000000000003288     BasePrintLib:PrintLib.obj
 0002:00000950       ??_C@_0EP@OFLCNDBG@D?3?2uefi_specs_personal_collecti@ 00000000000032b0     BasePrintLib:PrintLib.obj
 0002:000009a0       ??_C@_0CH@KJLBGOBB@?$CI?$CI?$CIUINTN?$CJ?5?$CIFormatString?$CJ?$CJ?5?$CG?50x0@ 0000000000003300     BasePrintLib:PrintLib.obj
 0002:000009d0       ??_C@_0FH@MODEAFEI@D?3?2uefi_specs_personal_collecti@ 0000000000003330     BasePrintLib:PrintLibInternal.obj
 0002:00000a30       ??_C@_0EB@HDGIDCIO@?$CIBufferSize?5?$DM?$DN?5?$CI_gPcd_FixedAtBu@ 0000000000003390     BasePrintLib:PrintLibInternal.obj
 0002:00000a78       ??_C@_0BJ@PPAKKDJG@?$CIFormat?5?$CB?$DN?5?$CI?$CIvoid?5?$CK?$CJ?50?$CJ?$CJ@ 00000000000033d8     BasePrintLib:PrintLibInternal.obj
 0002:00000aa0       ??_C@_0ED@LPDDCECB@?$CIBufferSize?5?$DM?$DN?5?$CI_gPcd_FixedAtBu@ 0000000000003400     BasePrintLib:PrintLibInternal.obj
 0002:00000af0       ??_C@_0IM@BFJJFLGB@?$CIStrnLenS?5?$CI?$CICHAR16?5?$CK?$CJFormat?0?5?$CI_@ 0000000000003450     BasePrintLib:PrintLibInternal.obj
 0002:00000b80       ??_C@_0ID@PLGJGION@?$CIAsciiStrnLenS?5?$CIFormat?0?5?$CI_gPcd_@ 00000000000034e0     BasePrintLib:PrintLibInternal.obj
 0002:00000c08       ??_C@_0O@MLOLIMFM@?$DMnull?5string?$DO@ 0000000000003568     BasePrintLib:PrintLibInternal.obj
 0002:00000c18       ??_C@_0M@BJJDNPHK@?$DMnull?5guid?$DO@ 0000000000003578     BasePrintLib:PrintLibInternal.obj
 0002:00000c28       ??_C@_0DB@PMLHLBMO@?$CF08x?9?$CF04x?9?$CF04x?9?$CF02x?$CF02x?9?$CF02x?$CF02@ 0000000000003588     BasePrintLib:PrintLibInternal.obj
 0002:00000c60       ??_C@_0M@LHGBCIKM@?$DMnull?5time?$DO@ 00000000000035c0     BasePrintLib:PrintLibInternal.obj
 0002:00000c70       ??_C@_0BK@FCPKCIDD@?$CF02d?1?$CF02d?1?$CF04d?5?5?$CF02d?3?$CF02d@ 00000000000035d0     BasePrintLib:PrintLibInternal.obj
 0002:00000c8c       ??_C@_04JIMNDDED@?$CF08X@  00000000000035ec     BasePrintLib:PrintLibInternal.obj
 0002:00000c94       ??_C@_02PCIJFNDE@?$AN?6@   00000000000035f4     BasePrintLib:PrintLibInternal.obj
 0002:00000c98       ??_C@_01LIIJDEN@?$AN@      00000000000035f8     BasePrintLib:PrintLibInternal.obj
 0002:00000ca0       mWarningString             0000000000003600     BasePrintLib:PrintLibInternal.obj
 0002:00000d70       mErrorString               00000000000036d0     BasePrintLib:PrintLibInternal.obj
 0002:00001050       mHexStr                    00000000000039b0     BasePrintLib:PrintLibInternal.obj
 0002:00001060       ??_C@_0GF@KMHDEKMA@D?3?2uefi_specs_personal_collecti@ 00000000000039c0     UefiMemoryAllocationLib:MemoryAllocationLib.obj
 0002:000010d0       ??_C@_0EO@FMCPFLJA@D?3?2uefi_specs_personal_collecti@ 0000000000003a30     UefiLib:UefiLibPrint.obj
 0002:00001120       ??_C@_0CC@KPMNJIIF@?$CI?$CIUINTN?$CJFormat?5?$CG?50x00000001?$CJ?5?$DN?$DN@ 0000000000003a80     UefiLib:UefiLibPrint.obj
 0002:00001148       ??_C@_0BI@DIKLKBJC@Console?5?$CB?$DN?5?$CI?$CIvoid?5?$CK?$CJ?50?$CJ@ 0000000000003aa8     UefiLib:UefiLibPrint.obj
 0002:00001160       ??_C@_0FE@LIGPAOFO@D?3?2uefi_specs_personal_collecti@ 0000000000003ac0     BaseLib:DivU64x32Remainder.obj
 0002:00001208       __volatile_metadata        0000000000003b68     <linker-defined>
 0003:00000000       gEfiCallerBaseName         0000000000003d20     MyHelloWorldFileIO:AutoGen.obj
 0003:00000008       gEfiShellProtocolGuid      0000000000003d28     MyHelloWorldFileIO:AutoGen.obj
 0003:00000018       gEfiDevicePathUtilitiesProtocolGuid 0000000000003d38     MyHelloWorldFileIO:AutoGen.obj
 0003:00000028       gEfiShellParametersProtocolGuid 0000000000003d48     MyHelloWorldFileIO:AutoGen.obj
 0003:00000038       gEfiShellInterfaceGuid     0000000000003d58     MyHelloWorldFileIO:AutoGen.obj
 0003:00000048       _fltused                   0000000000003d68     BaseIntrinsicLib:MemoryIntrinsics.obj
 0003:00000058       gST                        0000000000003d78     UefiBootServicesTableLib:UefiBootServicesTableLib.obj
 0003:00000060       gImageHandle               0000000000003d80     UefiBootServicesTableLib:UefiBootServicesTableLib.obj
 0003:00000068       gBS                        0000000000003d88     UefiBootServicesTableLib:UefiBootServicesTableLib.obj
 0003:00000070       gRT                        0000000000003d90     UefiRuntimeServicesTableLib:UefiRuntimeServicesTableLib.obj
 0003:00000078       mDevicePathLibDevicePathUtilities 0000000000003d98     UefiDevicePathLibDevicePathProtocol:UefiDevicePathLib.obj
 0003:00000088       gParity                    0000000000003da8     PcAtSerialPortLib:SerialPortLib.obj
 0003:00000089       gBreakSet                  0000000000003da9     PcAtSerialPortLib:SerialPortLib.obj

 entry point at        0001:000001c8

 Static symbols

 0001:0000003a       InternalMemCopyMem.0       00000000000002fa     BaseMemoryLibRepStr:CopyMem.obj
 0001:0000004a       @CopyBackward              000000000000030a     BaseMemoryLibRepStr:CopyMem.obj
 0001:00000053       @CopyBytes                 0000000000000313     BaseMemoryLibRepStr:CopyMem.obj
 0001:00000149       TdVmCall.no_return_data    0000000000000409     BaseLib:TdVmcall.obj
 0001:000001bb       TdCall.exit                000000000000047b     BaseLib:TdCall.obj
 0003:00000050       mCcProbeGuestType          0000000000003d70     DxeCcProbeLib:DxeCcProbeLib.obj
 0003:00000051       mCcProbed                  0000000000003d71     DxeCcProbeLib:DxeCcProbeLib.obj
 0003:00000080       mDeadLoopComparator        0000000000003da0     BaseLib:CpuDeadLoop.obj
 0005:00000000       $unwind$StrLen             0000000000003f20     BaseLib:String.obj
 0005:00000000       $unwind$BasePrintLibValueToString 0000000000003f20     BasePrintLib:PrintLibInternal.obj
 0005:00000000       $unwind$_ModuleEntryPoint  0000000000003f20     UefiApplicationEntryPoint:ApplicationEntryPoint.obj
 0005:00000000       $unwind$SerialPortWrite    0000000000003f20     PcAtSerialPortLib:SerialPortLib.obj
 0005:00000010       $unwind$BaseDebugLibSerialPortConstructor 0000000000003f30     BaseDebugLibSerialPort:DebugLib.obj
 0005:00000010       $unwind$FreePool           0000000000003f30     UefiMemoryAllocationLib:MemoryAllocationLib.obj
 0005:00000010       $unwind$InternalAllocatePool 0000000000003f30     UefiMemoryAllocationLib:MemoryAllocationLib.obj
 0005:00000010       $unwind$UefiRuntimeServicesTableLibConstructor 0000000000003f30     UefiRuntimeServicesTableLib:UefiRuntimeServicesTableLib.obj
 0005:00000018       $unwind$DebugPrint         0000000000003f38     BaseDebugLibSerialPort:DebugLib.obj
 0005:00000020       $unwind$DebugPrintMarker   0000000000003f40     BaseDebugLibSerialPort:DebugLib.obj
 0005:00000034       $unwind$DebugAssert        0000000000003f54     BaseDebugLibSerialPort:DebugLib.obj
 0005:0000003c       $unwind$UefiBootServicesTableLibConstructor 0000000000003f5c     UefiBootServicesTableLib:UefiBootServicesTableLib.obj
 0005:0000003c       $unwind$DevicePathLibConstructor 0000000000003f5c     UefiDevicePathLibDevicePathProtocol:UefiDevicePathLib.obj
 0005:00000044       $unwind$ShellCEntryLib     0000000000003f64     UefiShellCEntryLib:UefiShellCEntryLib.obj
 0005:00000054       $unwind$StrnLenS           0000000000003f74     BaseLib:SafeString.obj
 0005:00000054       $unwind$AsciiStrLen        0000000000003f74     BaseLib:String.obj
 0005:00000060       $unwind$StrnCpyS           0000000000003f80     BaseLib:SafeString.obj
 0005:0000007c       $unwind$StrCatS            0000000000003f9c     BaseLib:SafeString.obj
 0005:00000098       $unwind$UnicodeVSPrint     0000000000003fb8     BasePrintLib:PrintLib.obj
 0005:000000ac       $unwind$AsciiSPrint        0000000000003fcc     BasePrintLib:PrintLib.obj
 0005:000000b4       $unwind$BasePrintLibSPrintMarker 0000000000003fd4     BasePrintLib:PrintLibInternal.obj
 0005:000000d0       $unwind$TdIoRead8          0000000000003ff0     BaseIoLibIntrinsicSev:IoLibInternalTdx.obj
 0005:000000d0       $unwind$BasePrintLibSPrint 0000000000003ff0     BasePrintLib:PrintLibInternal.obj
 0005:000000d8       $unwind$ProcessLibraryConstructorList 0000000000003ff8     MyHelloWorldFileIO:AutoGen.obj
 0005:000000d8       $unwind$InternalPrint      0000000000003ff8     UefiLib:UefiLibPrint.obj
 0005:000000f0       $unwind$Print              0000000000004010     UefiLib:UefiLibPrint.obj
 0005:000000f8       $unwind$CsdnOpenShellProtocol 0000000000004018     MyHelloWorldFileIO:MyHelloWorldFileIO.obj
 0005:000000f8       $unwind$TdIoWrite8         0000000000004018     BaseIoLibIntrinsicSev:IoLibInternalTdx.obj
 0005:00000100       $unwind$ShellAppMain       0000000000004020     MyHelloWorldFileIO:MyHelloWorldFileIO.obj
