 HiiDatabase

 Timestamp is 6725e4a4 (Sat Nov  2 16:36:52 2024)

 Preferred load address is 0000000000000000

 Start         Length     Name                   Class
 0001:00000000 000001c8H .text                   CODE
 0001:000001c8 0001ab70H .text$mn                CODE
 0002:00000000 00003918H .rdata                  DATA
 0002:00003918 00000030H .rdata$voltmd           DATA
 0002:00003948 00000168H .rdata$zzzdbg           DATA
 0003:00000000 00000338H .data                   DATA
 0003:00000338 00000090H .bss                    DATA
 0004:00000000 00000a14H .pdata                  DATA
 0005:00000000 00000a10H .xdata                  DATA

  Address         Publics by Value              Rva+Base               Lib:Object

 0000:00000000       __guard_iat_count          0000000000000000     <absolute>
 0000:00000000       __guard_iat_table          0000000000000000     <absolute>
 0000:00000000       __arm64x_redirection_metadata 0000000000000000     <absolute>
 0000:00000000       __dynamic_value_reloc_table 0000000000000000     <absolute>
 0000:00000000       __hybrid_auxiliary_iat     0000000000000000     <absolute>
 0000:00000000       __hybrid_auxiliary_iat_copy 0000000000000000     <absolute>
 0000:00000000       __x64_code_ranges_to_entry_points_count 0000000000000000     <absolute>
 0000:00000000       __AbsoluteZero             0000000000000000     <absolute>
 0000:00000000       __guard_longjmp_count      0000000000000000     <absolute>
 0000:00000000       __guard_check_icall_a64n_fptr 0000000000000000     <absolute>
 0000:00000000       __guard_longjmp_table      0000000000000000     <absolute>
 0000:00000000       __x64_code_ranges_to_entry_points 0000000000000000     <absolute>
 0000:00000000       __guard_fids_table         0000000000000000     <absolute>
 0000:00000000       __guard_fids_count         0000000000000000     <absolute>
 0000:00000000       __arm64x_extra_rfe_table   0000000000000000     <absolute>
 0000:00000000       __hybrid_code_map          0000000000000000     <absolute>
 0000:00000000       __arm64x_extra_rfe_table_size 0000000000000000     <absolute>
 0000:00000000       __arm64x_redirection_metadata_count 0000000000000000     <absolute>
 0000:00000000       __enclave_config           0000000000000000     <absolute>
 0000:00000000       __hybrid_code_map_count    0000000000000000     <absolute>
 0000:00000000       __guard_eh_cont_table      0000000000000000     <absolute>
 0000:00000000       __arm64x_native_entrypoint 0000000000000000     <absolute>
 0000:00000000       __guard_flags              0000000000000000     <absolute>
 0000:00000000       __guard_eh_cont_count      0000000000000000     <absolute>
 0001:00000000       InternalMemCopyMem         00000000000002c0     BaseMemoryLibRepStr:CopyMem.obj
 0001:00000040       InternalMemZeroMem         0000000000000300     BaseMemoryLibRepStr:ZeroMem.obj
 0001:00000060       InternalMemCompareMem      0000000000000320     BaseMemoryLibRepStr:CompareMem.obj
 0001:00000080       InternalMemSetMem32        0000000000000340     BaseMemoryLibRepStr:SetMem32.obj
 0001:000000a0       InternalMemSetMem          0000000000000360     BaseMemoryLibRepStr:SetMem.obj
 0001:000000c0       InternalMemSetMem64        0000000000000380     BaseMemoryLibRepStr:SetMem64.obj
 0001:000000e0       CpuPause                   00000000000003a0     BaseLib:CpuPause.obj
 0001:000000f0       TdVmCall                   00000000000003b0     BaseLib:TdVmcall.obj
 0001:00000170       TdCall                     0000000000000430     BaseLib:TdCall.obj
 0001:000001c8       _ModuleEntryPoint          0000000000000488 f   UefiDriverEntryPoint:DriverEntryPoint.obj
 0001:000001dc       ProcessLibraryConstructorList 000000000000049c f   HiiDatabase:AutoGen.obj
 0001:00000404       KeyboardLayoutChangeNullEvent 00000000000006c4 f   HiiDatabase:HiiDatabaseEntry.obj
 0001:00000408       InitializeHiiDatabase      00000000000006c8 f   HiiDatabase:HiiDatabaseEntry.obj
 0001:000006c8       CalculateConfigStringLen   0000000000000988 f   HiiDatabase:ConfigRouting.obj
 0001:00000754       GetDevicePath              0000000000000a14 f   HiiDatabase:ConfigRouting.obj
 0001:00000930       HiiToLower                 0000000000000bf0 f   HiiDatabase:ConfigRouting.obj
 0001:000009a4       GenerateSubStr             0000000000000c64 f   HiiDatabase:ConfigRouting.obj
 0001:00000c30       OutputConfigBody           0000000000000ef0 f   HiiDatabase:ConfigRouting.obj
 0001:00000d14       AppendToMultiString        0000000000000fd4 f   HiiDatabase:ConfigRouting.obj
 0001:00000dd8       GetValueOfNumber           0000000000001098 f   HiiDatabase:ConfigRouting.obj
 0001:00000f30       CompareBlockElementDefault 00000000000011f0 f   HiiDatabase:ConfigRouting.obj
 0001:000012f0       CompareNameElementDefault  00000000000015b0 f   HiiDatabase:ConfigRouting.obj
 0001:00001590       CompareAndMergeDefaultString 0000000000001850 f   HiiDatabase:ConfigRouting.obj
 0001:00001794       MergeDefaultString         0000000000001a54 f   HiiDatabase:ConfigRouting.obj
 0001:00001a3c       InsertDefaultValue         0000000000001cfc f   HiiDatabase:ConfigRouting.obj
 0001:00001af8       InsertBlockData            0000000000001db8 f   HiiDatabase:ConfigRouting.obj
 0001:00001b70       GetSupportedLanguages      0000000000001e30 f   HiiDatabase:ConfigRouting.obj
 0001:00001c18       InternalGetString          0000000000001ed8 f   HiiDatabase:ConfigRouting.obj
 0001:00001db0       BlockArrayCheck            0000000000002070 f   HiiDatabase:ConfigRouting.obj
 0001:00001e84       GetFormPackageData         0000000000002144 f   HiiDatabase:ConfigRouting.obj
 0001:00001f7c       GetVarStoreType            000000000000223c f   HiiDatabase:ConfigRouting.obj
 0001:00002220       GetElementsFromRequest     00000000000024e0 f   HiiDatabase:ConfigRouting.obj
 0001:00002284       IsThisVarstore             0000000000002544 f   HiiDatabase:ConfigRouting.obj
 0001:000023dc       IsThisPackageList          000000000000269c f   HiiDatabase:ConfigRouting.obj
 0001:00002588       IsThisOpcodeRequired       0000000000002848 f   HiiDatabase:ConfigRouting.obj
 0001:00002760       ParseIfrData               0000000000002a20 f   HiiDatabase:ConfigRouting.obj
 0001:00003570       GetBlockElement            0000000000003830 f   HiiDatabase:ConfigRouting.obj
 0001:00003818       GetNameElement             0000000000003ad8 f   HiiDatabase:ConfigRouting.obj
 0001:00003990       GenerateConfigRequest      0000000000003c50 f   HiiDatabase:ConfigRouting.obj
 0001:00003ae0       GenerateHdr                0000000000003da0 f   HiiDatabase:ConfigRouting.obj
 0001:00003c90       UpdateBlockDataArray       0000000000003f50 f   HiiDatabase:ConfigRouting.obj
 0001:00003e98       GenerateAltConfigResp      0000000000004158 f   HiiDatabase:ConfigRouting.obj
 0001:00004228       GetFullStringFromHiiFormPackages 00000000000044e8 f   HiiDatabase:ConfigRouting.obj
 0001:000046a0       GetConfigRespFromEfiVarStore 0000000000004960 f   HiiDatabase:ConfigRouting.obj
 0001:000047ec       RouteConfigRespForEfiVarStore 0000000000004aac f   HiiDatabase:ConfigRouting.obj
 0001:00004974       OffsetWidthValidate        0000000000004c34 f   HiiDatabase:ConfigRouting.obj
 0001:00004a68       ConfigRequestValidate      0000000000004d28 f   HiiDatabase:ConfigRouting.obj
 0001:00004bac       HiiConfigRoutingExtractConfig 0000000000004e6c f   HiiDatabase:ConfigRouting.obj
 0001:000062ac       HiiConfigRoutingExportConfig 000000000000656c f   HiiDatabase:ConfigRouting.obj
 0001:0000668c       HiiConfigRoutingRouteConfig 000000000000694c f   HiiDatabase:ConfigRouting.obj
 0001:000069f4       HiiBlockToConfig           0000000000006cb4 f   HiiDatabase:ConfigRouting.obj
 0001:00006fd4       HiiConfigToBlock           0000000000007294 f   HiiDatabase:ConfigRouting.obj
 0001:000073e0       HiiGetAltCfg               00000000000076a0 f   HiiDatabase:ConfigRouting.obj
 0001:00007918       ReferFontInfoLocally       0000000000007bd8 f   HiiDatabase:String.obj
 0001:00007a3c       GetUnicodeStringTextOrSize 0000000000007cfc f   HiiDatabase:String.obj
 0001:00007af8       GetStringFontInfo          0000000000007db8 f   HiiDatabase:String.obj
 0001:00007c04       FindStringBlock            0000000000007ec4 f   HiiDatabase:String.obj
 0001:000083b8       GetStringWorker            0000000000008678 f   HiiDatabase:String.obj
 0001:000085a8       InsertLackStringBlock      0000000000008868 f   HiiDatabase:String.obj
 0001:000087f8       SetStringWorker            0000000000008ab8 f   HiiDatabase:String.obj
 0001:00008d04       HiiNewString               0000000000008fc4 f   HiiDatabase:String.obj
 0001:000095ac       HiiGetString               000000000000986c f   HiiDatabase:String.obj
 0001:000097c8       HiiSetString               0000000000009a88 f   HiiDatabase:String.obj
 0001:000099a8       HiiGetLanguages            0000000000009c68 f   HiiDatabase:String.obj
 0001:00009b50       HiiGetSecondaryLanguages   0000000000009e10 f   HiiDatabase:String.obj
 0001:00009d88       HiiCompareLanguage         000000000000a048 f   HiiDatabase:String.obj
 0001:00009f08       NewCell                    000000000000a1c8 f   HiiDatabase:Font.obj
 0001:00009fc4       GetCell                    000000000000a284 f   HiiDatabase:Font.obj
 0001:0000a078       GetGlyphBuffer             000000000000a338 f   HiiDatabase:Font.obj
 0001:0000a384       NarrowGlyphToBlt           000000000000a644 f   HiiDatabase:Font.obj
 0001:0000a4ac       GlyphToBlt                 000000000000a76c f   HiiDatabase:Font.obj
 0001:0000a7c8       GlyphToImage               000000000000aa88 f   HiiDatabase:Font.obj
 0001:0000a970       WriteOutputParam           000000000000ac30 f   HiiDatabase:Font.obj
 0001:0000aa04       FindGlyphBlock             000000000000acc4 f   HiiDatabase:Font.obj
 0001:0000af14       SaveFontName               000000000000b1d4 f   HiiDatabase:Font.obj
 0001:0000afa4       GetSystemFont              000000000000b264 f   HiiDatabase:Font.obj
 0001:0000b0e0       IsSystemFontInfo           000000000000b3a0 f   HiiDatabase:Font.obj
 0001:0000b274       IsFontInfoExisted          000000000000b534 f   HiiDatabase:Font.obj
 0001:0000b7fc       IsLineBreak                000000000000babc f   HiiDatabase:Font.obj
 0001:0000b8ec       HiiStringToImage           000000000000bbac f   HiiDatabase:Font.obj
 0001:0000c618       HiiStringIdToImage         000000000000c8d8 f   HiiDatabase:Font.obj
 0001:0000c994       HiiGetGlyph                000000000000cc54 f   HiiDatabase:Font.obj
 0001:0000cce4       HiiGetFontInfo             000000000000cfa4 f   HiiDatabase:Font.obj
 0001:0000d000       HiiNewImageEx              000000000000d2c0 f   HiiDatabase:ImageEx.obj
 0001:0000d070       HiiGetImageEx              000000000000d330 f   HiiDatabase:ImageEx.obj
 0001:0000d0e8       HiiSetImageEx              000000000000d3a8 f   HiiDatabase:ImageEx.obj
 0001:0000d158       HiiDrawImageEx             000000000000d418 f   HiiDatabase:ImageEx.obj
 0001:0000d1c4       HiiDrawImageIdEx           000000000000d484 f   HiiDatabase:ImageEx.obj
 0001:0000d260       LocateHiiImageDecoder      000000000000d520 f   HiiDatabase:ImageEx.obj
 0001:0000d370       HiiGetImageInfo            000000000000d630 f   HiiDatabase:ImageEx.obj
 0001:0000d550       GetImageIdOrAddress        000000000000d810 f   HiiDatabase:Image.obj
 0001:0000d8d8       CopyGopToRgbPixel          000000000000db98 f   HiiDatabase:Image.obj
 0001:0000d948       CopyRgbToGopPixel          000000000000dc08 f   HiiDatabase:Image.obj
 0001:0000d9b8       Output1bitPixel            000000000000dc78 f   HiiDatabase:Image.obj
 0001:0000dbd0       Output4bitPixel            000000000000de90 f   HiiDatabase:Image.obj
 0001:0000dddc       Output8bitPixel            000000000000e09c f   HiiDatabase:Image.obj
 0001:0000df60       ImageToBlt                 000000000000e220 f   HiiDatabase:Image.obj
 0001:0000e0a8       LocatePackageList          000000000000e368 f   HiiDatabase:Image.obj
 0001:0000e17c       HiiNewImage                000000000000e43c f   HiiDatabase:Image.obj
 0001:0000e434       IGetImage                  000000000000e6f4 f   HiiDatabase:Image.obj
 0001:0000e734       HiiGetImage                000000000000e9f4 f   HiiDatabase:Image.obj
 0001:0000e7ac       HiiSetImage                000000000000ea6c f   HiiDatabase:Image.obj
 0001:0000ebec       HiiDrawImage               000000000000eeac f   HiiDatabase:Image.obj
 0001:0000f048       HiiDrawImageId             000000000000f308 f   HiiDatabase:Image.obj
 0001:0000f0e4       ExtractDevicePath          000000000000f3a4 f   HiiDatabase:ConfigKeywordHandler.obj
 0001:0000f2f4       ExtractNameSpace           000000000000f5b4 f   HiiDatabase:ConfigKeywordHandler.obj
 0001:0000f584       ExtractKeyword             000000000000f844 f   HiiDatabase:ConfigKeywordHandler.obj
 0001:0000f6a0       ExtractValue               000000000000f960 f   HiiDatabase:ConfigKeywordHandler.obj
 0001:0000f7b0       ExtractFilter              000000000000fa70 f   HiiDatabase:ConfigKeywordHandler.obj
 0001:0000f9ec       ValidateFilter             000000000000fcac f   HiiDatabase:ConfigKeywordHandler.obj
 0001:0000fb18       GetRecordFromDevicePath    000000000000fdd8 f   HiiDatabase:ConfigKeywordHandler.obj
 0001:0000fbe4       GetUnicodeStringTextAndSize 000000000000fea4 f   HiiDatabase:ConfigKeywordHandler.obj
 0001:0000fca8       GetStringIdFromString      000000000000ff68 f   HiiDatabase:ConfigKeywordHandler.obj
 0001:00010204       GetNextStringId            00000000000104c4 f   HiiDatabase:ConfigKeywordHandler.obj
 0001:000106f0       GetStringIdFromRecord      00000000000109b0 f   HiiDatabase:ConfigKeywordHandler.obj
 0001:00010824       FindQuestionFromStringId   0000000000010ae4 f   HiiDatabase:ConfigKeywordHandler.obj
 0001:000108bc       FindStorageFromVarId       0000000000010b7c f   HiiDatabase:ConfigKeywordHandler.obj
 0001:00010958       GetWidth                   0000000000010c18 f   HiiDatabase:ConfigKeywordHandler.obj
 0001:00010ac0       ConstructConfigHdr         0000000000010d80 f   HiiDatabase:ConfigKeywordHandler.obj
 0001:00010de0       ConstructRequestElement    00000000000110a0 f   HiiDatabase:ConfigKeywordHandler.obj
 0001:00010e9c       GetNameFromId              000000000001115c f   HiiDatabase:ConfigKeywordHandler.obj
 0001:00011014       ExtractConfigRequest       00000000000112d4 f   HiiDatabase:ConfigKeywordHandler.obj
 0001:00011214       ExtractConfigResp          00000000000114d4 f   HiiDatabase:ConfigKeywordHandler.obj
 0001:000114a0       ExtractValueFromDriver     0000000000011760 f   HiiDatabase:ConfigKeywordHandler.obj
 0001:00011598       GetStringIdFromDatabase    0000000000011858 f   HiiDatabase:ConfigKeywordHandler.obj
 0001:00011784       GenerateKeywordResp        0000000000011a44 f   HiiDatabase:ConfigKeywordHandler.obj
 0001:00011964       EnumerateAllKeywords       0000000000011c24 f   HiiDatabase:ConfigKeywordHandler.obj
 0001:00011d6c       EfiConfigKeywordHandlerSetData 000000000001202c f   HiiDatabase:ConfigKeywordHandler.obj
 0001:0001224c       EfiConfigKeywordHandlerGetData 000000000001250c f   HiiDatabase:ConfigKeywordHandler.obj
 0001:000126cc       GenerateHiiDatabaseRecord  000000000001298c f   HiiDatabase:Database.obj
 0001:000128b0       InvokeRegisteredFunction   0000000000012b70 f   HiiDatabase:Database.obj
 0001:00012c04       ExportGuidPackages         0000000000012ec4 f   HiiDatabase:Database.obj
 0001:00012d6c       RemoveGuidPackages         000000000001302c f   HiiDatabase:Database.obj
 0001:00012e38       FindQuestionDefaultSetting 00000000000130f8 f   HiiDatabase:Database.obj
 0001:00013144       UpdateDefaultSettingInFormPackage 0000000000013404 f   HiiDatabase:Database.obj
 0001:00013a30       ExportFormPackages         0000000000013cf0 f   HiiDatabase:Database.obj
 0001:00013bc0       RemoveFormPackages         0000000000013e80 f   HiiDatabase:Database.obj
 0001:00013ca4       InsertStringPackage        0000000000013f64 f   HiiDatabase:Database.obj
 0001:00013f40       AdjustStringPackage        0000000000014200 f   HiiDatabase:Database.obj
 0001:000140a4       ExportStringPackages       0000000000014364 f   HiiDatabase:Database.obj
 0001:00014234       RemoveStringPackages       00000000000144f4 f   HiiDatabase:Database.obj
 0001:00014360       InsertFontPackage          0000000000014620 f   HiiDatabase:Database.obj
 0001:000145f0       ExportFontPackages         00000000000148b0 f   HiiDatabase:Database.obj
 0001:00014780       RemoveFontPackages         0000000000014a40 f   HiiDatabase:Database.obj
 0001:0001490c       ExportImagePackages        0000000000014bcc f   HiiDatabase:Database.obj
 0001:00014a6c       RemoveImagePackages        0000000000014d2c f   HiiDatabase:Database.obj
 0001:00014ad8       ExportSimpleFontPackages   0000000000014d98 f   HiiDatabase:Database.obj
 0001:00014c40       RemoveSimpleFontPackages   0000000000014f00 f   HiiDatabase:Database.obj
 0001:00014d04       InsertDevicePathPackage    0000000000014fc4 f   HiiDatabase:Database.obj
 0001:00014dc8       ExportDevicePathPackage    0000000000015088 f   HiiDatabase:Database.obj
 0001:00014f00       RemoveDevicePathPackage    00000000000151c0 f   HiiDatabase:Database.obj
 0001:00014f70       AddDevicePathPackage       0000000000015230 f   HiiDatabase:Database.obj
 0001:0001501c       ExportKeyboardLayoutPackages 00000000000152dc f   HiiDatabase:Database.obj
 0001:00015184       RemoveKeyboardLayoutPackages 0000000000015444 f   HiiDatabase:Database.obj
 0001:00015250       AddPackages                0000000000015510 f   HiiDatabase:Database.obj
 0001:00015f6c       ExportPackageList          000000000001622c f   HiiDatabase:Database.obj
 0001:00016234       HiiGetConfigRespInfo       00000000000164f4 f   HiiDatabase:Database.obj
 0001:00016384       HiiGetDatabaseInfo         0000000000016644 f   HiiDatabase:Database.obj
 0001:000164d0       HiiNewPackageList          0000000000016790 f   HiiDatabase:Database.obj
 0001:000166d4       HiiRemovePackageList       0000000000016994 f   HiiDatabase:Database.obj
 0001:00016934       HiiUpdatePackageList       0000000000016bf4 f   HiiDatabase:Database.obj
 0001:00016b88       HiiListPackageLists        0000000000016e48 f   HiiDatabase:Database.obj
 0001:00016da0       HiiExportPackageLists      0000000000017060 f   HiiDatabase:Database.obj
 0001:00016f84       HiiRegisterPackageNotify   0000000000017244 f   HiiDatabase:Database.obj
 0001:000170c8       HiiUnregisterPackageNotify 0000000000017388 f   HiiDatabase:Database.obj
 0001:00017220       HiiFindKeyboardLayouts     00000000000174e0 f   HiiDatabase:Database.obj
 0001:00017414       HiiGetKeyboardLayout       00000000000176d4 f   HiiDatabase:Database.obj
 0001:00017618       HiiSetKeyboardLayout       00000000000178d8 f   HiiDatabase:Database.obj
 0001:000177cc       HiiGetPackageListHandle    0000000000017a8c f   HiiDatabase:Database.obj
 0001:000178b8       GetPiPcdProtocol           0000000000017b78 f   DxePcdLib:DxePcdLib.obj
 0001:00017944       GetPiPcdInfoProtocolPointer 0000000000017c04 f   DxePcdLib:DxePcdLib.obj
 0001:000179d0       CopyGuid                   0000000000017c90 f   BaseMemoryLibRepStr:MemLibGuid.obj
 0001:00017a80       CompareGuid                0000000000017d40 f   BaseMemoryLibRepStr:MemLibGuid.obj
 0001:00017b44       CopyMem                    0000000000017e04 f   BaseMemoryLibRepStr:CopyMemWrapper.obj
 0001:00017be0       ZeroMem                    0000000000017ea0 f   BaseMemoryLibRepStr:ZeroMemWrapper.obj
 0001:00017c50       CompareMem                 0000000000017f10 f   BaseMemoryLibRepStr:CompareMemWrapper.obj
 0001:00017d28       SetMem32                   0000000000017fe8 f   BaseMemoryLibRepStr:SetMem32Wrapper.obj
 0001:00017dec       InternalBaseLibIsListValid 00000000000180ac f   BaseLib:LinkedList.obj
 0001:00017e58       InsertTailList             0000000000018118 f   BaseLib:LinkedList.obj
 0001:00017eac       IsListEmpty                000000000001816c f   BaseLib:LinkedList.obj
 0001:00017ee4       RemoveEntryList            00000000000181a4 f   BaseLib:LinkedList.obj
 0001:00017f2c       StrnLenS                   00000000000181ec f   BaseLib:SafeString.obj
 0001:00017f94       StrCpyS                    0000000000018254 f   BaseLib:SafeString.obj
 0001:00018138       StrCatS                    00000000000183f8 f   BaseLib:SafeString.obj
 0001:00018320       StrnCatS                   00000000000185e0 f   BaseLib:SafeString.obj
 0001:00018544       AsciiStrCpyS               0000000000018804 f   BaseLib:SafeString.obj
 0001:0001868c       UnicodeStrToAsciiStrS      000000000001894c f   BaseLib:SafeString.obj
 0001:0001882c       AsciiStrToUnicodeStrS      0000000000018aec f   BaseLib:SafeString.obj
 0001:000189b4       StrLen                     0000000000018c74 f   BaseLib:String.obj
 0001:00018a3c       StrCmp                     0000000000018cfc f   BaseLib:String.obj
 0001:00018ae4       StrnCmp                    0000000000018da4 f   BaseLib:String.obj
 0001:00018bcc       StrStr                     0000000000018e8c f   BaseLib:String.obj
 0001:00018c94       InternalHexCharToUintn     0000000000018f54 f   BaseLib:String.obj
 0001:00018cc4       StrHexToUint64             0000000000018f84 f   BaseLib:String.obj
 0001:00018e24       AsciiStrLen                00000000000190e4 f   BaseLib:String.obj
 0001:00018e90       AsciiStrCmp                0000000000019150 f   BaseLib:String.obj
 0001:00018f1c       AsciiStrnCmp               00000000000191dc f   BaseLib:String.obj
 0001:00018fe8       InternalBaseLibBitFieldOrUint 00000000000192a8 f   BaseLib:BitField.obj
 0001:00019068       BitFieldRead32             0000000000019328 f   BaseLib:BitField.obj
 0001:000190e4       BitFieldWrite32            00000000000193a4 f   BaseLib:BitField.obj
 0001:000191f8       BitFieldRead64             00000000000194b8 f   BaseLib:BitField.obj
 0001:0001927c       LShiftU64                  000000000001953c f   BaseLib:LShiftU64.obj
 0001:000192c0       RShiftU64                  0000000000019580 f   BaseLib:RShiftU64.obj
 0001:00019304       UnicodeSPrint              00000000000195c4 f   BasePrintLib:PrintLib.obj
 0001:00019388       UnicodeValueToStringS      0000000000019648 f   BasePrintLib:PrintLib.obj
 0001:000193e8       AsciiSPrint                00000000000196a8 f   BasePrintLib:PrintLib.obj
 0001:00019414       BasePrintLibFillBuffer     00000000000196d4 f   BasePrintLib:PrintLibInternal.obj
 0001:00019448       BasePrintLibValueToString  0000000000019708 f   BasePrintLib:PrintLibInternal.obj
 0001:000194b4       BasePrintLibConvertValueToStringS 0000000000019774 f   BasePrintLib:PrintLibInternal.obj
 0001:00019660       BasePrintLibSPrintMarker   0000000000019920 f   BasePrintLib:PrintLibInternal.obj
 0001:0001a578       BasePrintLibSPrint         000000000001a838 f   BasePrintLib:PrintLibInternal.obj
 0001:0001a59c       DebugPrint                 000000000001a85c f   BaseDebugLibSerialPort:DebugLib.obj
 0001:0001a5c0       DebugPrintMarker           000000000001a880 f   BaseDebugLibSerialPort:DebugLib.obj
 0001:0001a64c       DebugAssert                000000000001a90c f   BaseDebugLibSerialPort:DebugLib.obj
 0001:0001a6c8       AllocatePool               000000000001a988 f   UefiMemoryAllocationLib:MemoryAllocationLib.obj
 0001:0001a6fc       InternalAllocateZeroPool   000000000001a9bc f   UefiMemoryAllocationLib:MemoryAllocationLib.obj
 0001:0001a740       InternalAllocateCopyPool   000000000001aa00 f   UefiMemoryAllocationLib:MemoryAllocationLib.obj
 0001:0001a7e8       InternalReallocatePool     000000000001aaa8 f   UefiMemoryAllocationLib:MemoryAllocationLib.obj
 0001:0001a854       FreePool                   000000000001ab14 f   UefiMemoryAllocationLib:MemoryAllocationLib.obj
 0001:0001a898       DevicePathNodeLength       000000000001ab58 f   UefiDevicePathLibDevicePathProtocol:UefiDevicePathLib.obj
 0001:0001a8e0       DevicePathFromHandle       000000000001aba0 f   UefiDevicePathLibDevicePathProtocol:UefiDevicePathLib.obj
 0001:0001a914       EfiAcquireLock             000000000001abd4 f   UefiLib:UefiLib.obj
 0001:0001a960       EfiReleaseLock             000000000001ac20 f   UefiLib:UefiLib.obj
 0001:0001a9a8       GetEfiGlobalVariable2      000000000001ac68 f   UefiLib:UefiLib.obj
 0001:0001aaa0       GetBestLanguage            000000000001ad60 f   UefiLib:UefiLib.obj
 0001:0001abe0       SerialPortWrite            000000000001aea0 f   PcAtSerialPortLib:SerialPortLib.obj
 0001:0001ac64       IsTdxGuest                 000000000001af24 f   BaseIoLibIntrinsicSev:IoLibInternalTdx.obj
 0001:0001ac90       TdIoRead8                  000000000001af50 f   BaseIoLibIntrinsicSev:IoLibInternalTdx.obj
 0001:0001ace8       TdIoWrite8                 000000000001afa8 f   BaseIoLibIntrinsicSev:IoLibInternalTdx.obj
 0002:00000000       ??_C@_0CB@DMEJJJHA@?6ASSERT_EFI_ERROR?5?$CIStatus?5?$DN?5?$CFr?$CJ@ 000000000001b000     UefiDriverEntryPoint:DriverEntryPoint.obj
 0002:00000028       ??_C@_0CH@BBNBJKHK@?$CB?$CI?$CI?$CIINTN?$CJ?$CIRETURN_STATUS?$CJ?$CIStatus@ 000000000001b028     UefiDriverEntryPoint:DriverEntryPoint.obj
 0002:00000050       ??_C@_0M@NOMLFINA@HiiDatabase@ 000000000001b050     HiiDatabase:AutoGen.obj
 0002:00000060       ??_C@_0IM@MFGJNNPA@d?3?2uefi_specs_personal_collecti@ 000000000001b060     HiiDatabase:AutoGen.obj
 0002:000000ec       _gPcd_FixedAtBuild_PcdUefiVariableDefaultPlatformLang 000000000001b0ec     HiiDatabase:AutoGen.obj
 0002:00000100       ??_C@_0GB@JGKECOMG@D?3?2uefi_specs_personal_collecti@ 000000000001b100     HiiDatabase:HiiDatabaseEntry.obj
 0002:00000168       ??_C@_0DL@LBEMLKGK@?$CGgEfiHiiDatabaseProtocolGuid?5al@ 000000000001b168     HiiDatabase:HiiDatabaseEntry.obj
 0002:000001a8       ??_C@_0DH@NLDPGKDK@?$CGgEfiHiiFontProtocolGuid?5alread@ 000000000001b1a8     HiiDatabase:HiiDatabaseEntry.obj
 0002:000001e0       ??_C@_0DI@OBEFILKP@?$CGgEfiHiiImageProtocolGuid?5alrea@ 000000000001b1e0     HiiDatabase:HiiDatabaseEntry.obj
 0002:00000218       ??_C@_0DJ@DLDEGPMF@?$CGgEfiHiiStringProtocolGuid?5alre@ 000000000001b218     HiiDatabase:HiiDatabaseEntry.obj
 0002:00000260       ??_C@_0EA@DDCOHLFB@?$CGgEfiHiiConfigRoutingProtocolGu@ 000000000001b260     HiiDatabase:HiiDatabaseEntry.obj
 0002:000002a0       ??_C@_0EE@FFFPAKCF@?$CGgEfiConfigKeywordHandlerProtoc@ 000000000001b2a0     HiiDatabase:HiiDatabaseEntry.obj
 0002:000002e8       ??_C@_0BH@MAAHKCPC@String?5?$CB?$DN?5?$CI?$CIvoid?5?$CK?$CJ?50?$CJ@ 000000000001b2e8     HiiDatabase:ConfigRouting.obj
 0002:00000300       ??_C@_0FO@NJGPGBFJ@D?3?2uefi_specs_personal_collecti@ 000000000001b300     HiiDatabase:ConfigRouting.obj
 0002:00000360       ??_C@_1M@DPLGJLCD@?$AAG?$AAU?$AAI?$AAD?$AA?$DN@ 000000000001b360     HiiDatabase:ConfigRouting.obj
 0002:00000370       ??_C@_0DD@LHLPKNIP@StrnCmp?5?$CIString?0?5L?$CCGUID?$DN?$CC?0?5StrL@ 000000000001b370     HiiDatabase:ConfigRouting.obj
 0002:000003a8       ??_C@_1O@KAHOBHOF@?$AA?$CG?$AAG?$AAU?$AAI?$AAD?$AA?$DN@ 000000000001b3a8     HiiDatabase:ConfigRouting.obj
 0002:000003b8       ??_C@_1M@PJAPFKED@?$AAP?$AAA?$AAT?$AAH?$AA?$DN@ 000000000001b3b8     HiiDatabase:ConfigRouting.obj
 0002:000003c8       ??_C@_0BN@EHPNHAIF@ConfigString?5?$CB?$DN?5?$CI?$CIvoid?5?$CK?$CJ?50?$CJ@ 000000000001b3c8     HiiDatabase:ConfigRouting.obj
 0002:000003e8       ??_C@_0DB@CFICOEMJ@String?5?$CB?$DN?5?$CI?$CIvoid?5?$CK?$CJ?50?$CJ?5?$CG?$CG?5SubSt@ 000000000001b3e8     HiiDatabase:ConfigRouting.obj
 0002:00000420       ??_C@_0BI@LBGLHCOA@?$CKSubStr?5?$CB?$DN?5?$CI?$CIvoid?5?$CK?$CJ?50?$CJ@ 000000000001b420     HiiDatabase:ConfigRouting.obj
 0002:00000438       ??_C@_0BE@LNIAOOBG@Str?5?$CB?$DN?5?$CI?$CIvoid?5?$CK?$CJ?50?$CJ@ 000000000001b438     HiiDatabase:ConfigRouting.obj
 0002:00000450       ??_C@_0DC@PCMLEOGG@?$CIBufferLen?5?$CK?52?5?$CL?51?$CJ?5?$DO?$DN?5?$CIStrLen?5@ 000000000001b450     HiiDatabase:ConfigRouting.obj
 0002:00000484       ??_C@_13FLOCNAAB@?$AA?$CG@ 000000000001b484     HiiDatabase:ConfigRouting.obj
 0002:00000488       ??_C@_1BC@JFJKDJKC@?$AA?$CG?$AAA?$AAL?$AAT?$AAC?$AAF?$AAG?$AA?$DN@ 000000000001b488     HiiDatabase:ConfigRouting.obj
 0002:000004a0       ??_C@_0BN@DILICBAI@?$CKMultiString?5?$CB?$DN?5?$CI?$CIvoid?5?$CK?$CJ?50?$CJ@ 000000000001b4a0     HiiDatabase:ConfigRouting.obj
 0002:000004c0       ??_C@_0BL@KFJHHHLD@TempBuffer?5?$CB?$DN?5?$CI?$CIvoid?5?$CK?$CJ?50?$CJ@ 000000000001b4c0     HiiDatabase:ConfigRouting.obj
 0002:000004e0       ??_C@_0CA@JFAPBMEN@AltConfigHdrPtr?5?$CB?$DN?5?$CI?$CIvoid?5?$CK?$CJ?50?$CJ@ 000000000001b4e0     HiiDatabase:ConfigRouting.obj
 0002:00000500       ??_C@_1BC@KLGPJAMP@?$AA?$CG?$AAO?$AAF?$AAF?$AAS?$AAE?$AAT?$AA?$DN@ 000000000001b500     HiiDatabase:ConfigRouting.obj
 0002:00000518       ??_C@_0BK@OHHEMHCC@StringPtr?5?$CB?$DN?5?$CI?$CIvoid?5?$CK?$CJ?50?$CJ@ 000000000001b518     HiiDatabase:ConfigRouting.obj
 0002:00000538       ??_C@_0BM@GNPJMFNE@NvConfigPtr?5?$CB?$DN?5?$CI?$CIvoid?5?$CK?$CJ?50?$CJ@ 000000000001b538     HiiDatabase:ConfigRouting.obj
 0002:00000554       ??_C@_13NMPKAAJP@?$AA?$DN@ 000000000001b554     HiiDatabase:ConfigRouting.obj
 0002:00000558       ??_C@_0CB@GHIBCAIE@NvConfigValuePtr?5?$CB?$DN?5?$CI?$CIvoid?5?$CK?$CJ?50@ 000000000001b558     HiiDatabase:ConfigRouting.obj
 0002:00000580       ??_C@_1M@COKHDCDN@?$AA?$CG?$AAG?$AAU?$AAI?$AAD@ 000000000001b580     HiiDatabase:ConfigRouting.obj
 0002:00000590       ??_C@_1O@FMIENBLJ@?$AA?$CG?$AAN?$AAA?$AAM?$AAE?$AA?$DN@ 000000000001b590     HiiDatabase:ConfigRouting.obj
 0002:000005a0       ??_C@_1O@GGMHNGIF@?$AA?$CG?$AAP?$AAA?$AAT?$AAH?$AA?$DN@ 000000000001b5a0     HiiDatabase:ConfigRouting.obj
 0002:000005b0       ??_C@_0CC@KFDCKDOA@DefaultValueArray?5?$CB?$DN?5?$CI?$CIvoid?5?$CK?$CJ?5@ 000000000001b5b0     HiiDatabase:ConfigRouting.obj
 0002:000005d8       ??_C@_0BK@KLJHMMPJ@HiiHandle?5?$CB?$DN?5?$CI?$CIvoid?5?$CK?$CJ?50?$CJ@ 000000000001b5d8     HiiDatabase:ConfigRouting.obj
 0002:000005f8       ??_C@_0O@EMMLPDMJ@StringId?5?$CB?$DN?50@ 000000000001b5f8     HiiDatabase:ConfigRouting.obj
 0002:00000606       ??_C@_00CNPNBAHC@@         000000000001b606     HiiDatabase:ConfigRouting.obj
 0002:00000608       ??_C@_1BK@GGGENMOA@?$AAP?$AAl?$AAa?$AAt?$AAf?$AAo?$AAr?$AAm?$AAL?$AAa?$AAn?$AAg@ 000000000001b608     HiiDatabase:ConfigRouting.obj
 0002:00000628       ??_C@_0BF@OGAHIMFI@Name?5?$CB?$DN?5?$CI?$CIvoid?5?$CK?$CJ?50?$CJ@ 000000000001b628     HiiDatabase:ConfigRouting.obj
 0002:00000640       ??_C@_1M@MDEMFNHP@?$AAN?$AAA?$AAM?$AAE?$AA?$DN@ 000000000001b640     HiiDatabase:ConfigRouting.obj
 0002:00000650       ??_C@_0BL@MKDFFADJ@TmpRequest?5?$CB?$DN?5?$CI?$CIvoid?5?$CK?$CJ?50?$CJ@ 000000000001b650     HiiDatabase:ConfigRouting.obj
 0002:00000670       ??_C@_1O@DICEHLNO@?$AAN?$AAA?$AAM?$AAE?$AA?$DN?$AA?$CG@ 000000000001b670     HiiDatabase:ConfigRouting.obj
 0002:00000680       ??_C@_0BK@IKGKLHMJ@BlockData?5?$CB?$DN?5?$CI?$CIvoid?5?$CK?$CJ?50?$CJ@ 000000000001b680     HiiDatabase:ConfigRouting.obj
 0002:000006a0       ??_C@_1BA@BPJBLIJE@?$AA?$CG?$AAW?$AAI?$AAD?$AAT?$AAH?$AA?$DN@ 000000000001b6a0     HiiDatabase:ConfigRouting.obj
 0002:000006b0       ??_C@_1BA@OHHBHMKI@?$AA?$CG?$AAV?$AAA?$AAL?$AAU?$AAE?$AA?$DN@ 000000000001b6b0     HiiDatabase:ConfigRouting.obj
 0002:000006c0       ??_C@_17ILCPNALA@?$AA?$CG?$AA?$CF?$AAs@ 000000000001b6c0     HiiDatabase:ConfigRouting.obj
 0002:000006c8       ??_C@_1DA@JIFMPMJE@?$AA?$CG?$AAO?$AAF?$AAF?$AAS?$AAE?$AAT?$AA?$DN?$AA?$CF?$AA0?$AA4?$AAX?$AA?$CG?$AAW?$AAI@ 000000000001b6c8     HiiDatabase:ConfigRouting.obj
 0002:000006f8       ??_C@_1CA@GGACGAGD@?$AA?$CG?$AA?$CF?$AAs?$AA?$CG?$AAA?$AAL?$AAT?$AAC?$AAF?$AAG?$AA?$DN?$AA?$CF?$AA0?$AA4?$AAX@ 000000000001b6f8     HiiDatabase:ConfigRouting.obj
 0002:00000718       ??_C@_19GAFHNHDP@?$AA?$CG?$AA?$CF?$AAs?$AA?$DN@ 000000000001b718     HiiDatabase:ConfigRouting.obj
 0002:00000728       ??_C@_1DO@NCNJHDGD@?$AA?$CG?$AAO?$AAF?$AAF?$AAS?$AAE?$AAT?$AA?$DN?$AA?$CF?$AA0?$AA4?$AAX?$AA?$CG?$AAW?$AAI@ 000000000001b728     HiiDatabase:ConfigRouting.obj
 0002:00000768       ??_C@_0BK@EPANLNGJ@TmpBuffer?5?$CB?$DN?5?$CI?$CIvoid?5?$CK?$CJ?50?$CJ@ 000000000001b768     HiiDatabase:ConfigRouting.obj
 0002:00000788       ??_C@_0BJ@HKDHKLNC@VarStore?5?$CB?$DN?5?$CI?$CIvoid?5?$CK?$CJ?50?$CJ@ 000000000001b788     HiiDatabase:ConfigRouting.obj
 0002:000007a8       ??_C@_0BN@NEAOLGCP@The?5variable?5does?5not?5exist?$CB@ 000000000001b7a8     HiiDatabase:ConfigRouting.obj
 0002:000007c8       ??_C@_0BF@NDBIKIKC@CR?5has?5Bad?5Signature@ 000000000001b7c8     HiiDatabase:ConfigRouting.obj
 0002:000007e0       ??_C@_0BP@CHLHGMI@AccessProgress?5?$CB?$DN?5?$CI?$CIvoid?5?$CK?$CJ?50?$CJ@ 000000000001b7e0     HiiDatabase:ConfigRouting.obj
 0002:00000800       ??_C@_0BF@GFADBPJJ@?$CKAccessProgress?5?$DN?$DN?50@ 000000000001b800     HiiDatabase:ConfigRouting.obj
 0002:00000818       ??_C@_0BI@GONLCNCH@Private?5?$CB?$DN?5?$CI?$CIvoid?5?$CK?$CJ?50?$CJ@ 000000000001b818     HiiDatabase:ConfigRouting.obj
 0002:00000830       ??_C@_1BA@HDPFBAGC@?$AAO?$AAF?$AAF?$AAS?$AAE?$AAT?$AA?$DN@ 000000000001b830     HiiDatabase:ConfigRouting.obj
 0002:00000840       ??_C@_1O@JONPFMKD@?$AAV?$AAA?$AAL?$AAU?$AAE?$AA?$DN@ 000000000001b840     HiiDatabase:ConfigRouting.obj
 0002:00000850       ??_C@_1BA@ENAALJAP@?$AAA?$AAL?$AAT?$AAC?$AAF?$AAG?$AA?$DN@ 000000000001b850     HiiDatabase:ConfigRouting.obj
 0002:00000860       ??_C@_0HM@JBFKAAEF@Private?5?$CB?$DN?5?$CI?$CIvoid?5?$CK?$CJ?50?$CJ?5?$CG?$CG?5Stri@ 000000000001b860     HiiDatabase:String.obj
 0002:000008e0       ??_C@_0FH@IAJHMIHA@D?3?2uefi_specs_personal_collecti@ 000000000001b8e0     HiiDatabase:String.obj
 0002:00000938       ??_C@_0BK@LPAGOJEE@LocalFont?5?$CB?$DN?5?$CI?$CIvoid?5?$CK?$CJ?50?$CJ@ 000000000001b938     HiiDatabase:String.obj
 0002:00000958       ??_C@_0DI@BFKAJOKH@StringSrc?5?$CB?$DN?5?$CI?$CIvoid?5?$CK?$CJ?50?$CJ?5?$CG?$CG?5Bu@ 000000000001b958     HiiDatabase:String.obj
 0002:00000990       ??_C@_0EA@MHHLLLEI@StringFontInfo?5?$CB?$DN?5?$CI?$CIvoid?5?$CK?$CJ?50?$CJ?5@ 000000000001b990     HiiDatabase:String.obj
 0002:000009d0       ??_C@_0BO@DGNLHLCI@StringPackage?5?$CB?$DN?5?$CI?$CIvoid?5?$CK?$CJ?50?$CJ@ 000000000001b9d0     HiiDatabase:String.obj
 0002:000009f0       ??_C@_0FC@FJMCODKF@StringPackage?9?$DOSignature?5?$DN?$DN?5?$CI?$CI?$CI@ 000000000001b9f0     HiiDatabase:String.obj
 0002:00000a50       ??_C@_0GB@GDNHNHKN@BlockType?5?$CB?$DN?5?$CI?$CIvoid?5?$CK?$CJ?50?$CJ?5?$CG?$CG?5St@ 000000000001ba50     HiiDatabase:String.obj
 0002:00000ac0       ??_C@_0GH@GJCDMCGP@Private?5?$CB?$DN?5?$CI?$CIvoid?5?$CK?$CJ?50?$CJ?5?$CG?$CG?5Priv@ 000000000001bac0     HiiDatabase:String.obj
 0002:00000b28       ??_C@_0BM@KAGBBICE@StringId?5?$CB?$DN?5CurrentStringId@ 000000000001bb28     HiiDatabase:String.obj
 0002:00000b48       ??_C@_0CJ@IFNGKCKJ@?$CKBlockType?5?$DN?$DN?50x22?5?$HM?$HM?5?$CKBlockTyp@ 000000000001bb48     HiiDatabase:String.obj
 0002:00000b80       ??_C@_0FD@NPKBDFKJ@Private?5?$CB?$DN?5?$CI?$CIvoid?5?$CK?$CJ?50?$CJ?5?$CG?$CG?5Stri@ 000000000001bb80     HiiDatabase:String.obj
 0002:00000be0       ??_C@_0EM@GDEIOGJC@Private?9?$DOSignature?5?$DN?$DN?5?$CI?$CI?$CI?8H?8?$CJ?5?$HM@ 000000000001bbe0     HiiDatabase:String.obj
 0002:00000c30       ??_C@_0BC@FEDIJHFF@?$CI?$CIBOOLEAN?$CJ?$CI0?$DN?$DN1?$CJ?$CJ@ 000000000001bc30     HiiDatabase:String.obj
 0002:00000c44       ??_C@_01ICJEACDI@?$DL@     000000000001bc44     HiiDatabase:String.obj
 0002:00000c48       ??_C@_0BF@DOBDPAPC@Lan1?5?$CB?$DN?5?$CI?$CIvoid?5?$CK?$CJ?50?$CJ@ 000000000001bc48     HiiDatabase:String.obj
 0002:00000c60       ??_C@_0BF@NEJFCNJA@Lan2?5?$CB?$DN?5?$CI?$CIvoid?5?$CK?$CJ?50?$CJ@ 000000000001bc60     HiiDatabase:String.obj
 0002:00000c78       ??_C@_0DG@IHDLCIDM@Cell?5?$CB?$DN?5?$CI?$CIvoid?5?$CK?$CJ?50?$CJ?5?$CG?$CG?5GlyphIn@ 000000000001bc78     HiiDatabase:Font.obj
 0002:00000cb0       ??_C@_0FF@FOAPCKML@D?3?2uefi_specs_personal_collecti@ 000000000001bcb0     HiiDatabase:Font.obj
 0002:00000d10       ??_C@_0FB@NKDAFHPL@GlyphBuffer?5?$CB?$DN?5?$CI?$CIvoid?5?$CK?$CJ?50?$CJ?5?$CG?$CG?5@ 000000000001bd10     HiiDatabase:Font.obj
 0002:00000d70       ??_C@_0EK@IJHDKPAG@Origin?5?$CB?$DN?5?$CI?$CIvoid?5?$CK?$CJ?50?$CJ?5?$CG?$CG?5?$CKOrig@ 000000000001bd70     HiiDatabase:Font.obj
 0002:00000dc0       ??_C@_0BM@BBEAFKJB@FontPackage?5?$CB?$DN?5?$CI?$CIvoid?5?$CK?$CJ?50?$CJ@ 000000000001bdc0     HiiDatabase:Font.obj
 0002:00000de0       ??_C@_0FA@GBHOFNKI@FontPackage?9?$DOSignature?5?$DN?$DN?5?$CI?$CI?$CI?8h@ 000000000001bde0     HiiDatabase:Font.obj
 0002:00000e30       ??_C@_0DF@LOENGHAO@FontName?5?$CB?$DN?5?$CI?$CIvoid?5?$CK?$CJ?50?$CJ?5?$CG?$CG?5Fon@ 000000000001be30     HiiDatabase:Font.obj
 0002:00000e68       ??_C@_1BG@PCIHAGAA@?$AAs?$AAy?$AAs?$AAd?$AAe?$AAf?$AAa?$AAu?$AAl?$AAt@ 000000000001be68     HiiDatabase:Font.obj
 0002:00000e80       ??_C@_0BO@KOIHLCNC@?$CIPrivate?9?$DOAttribute?5?$DO?$DO?54?$CJ?5?$DM?58@ 000000000001be80     HiiDatabase:Font.obj
 0002:00000ea0       ??_C@_0DF@FEDHOBLL@?$CISystemDefault?5?$CB?$DN?5?$CI?$CIvoid?5?$CK?$CJ?50?$CJ?$CJ@ 000000000001bea0     HiiDatabase:Font.obj
 0002:00000ed8       ??_C@_0BJ@FFPEFLGO@FontInfo?5?$CB?$DN?5?$CI?$CIvoid?5?$CK?$CJ?50?$CJ@ 000000000001bed8     HiiDatabase:Font.obj
 0002:00000ef8       ??_C@_0BJ@KMEIBEC@GlyphBuf?5?$CB?$DN?5?$CI?$CIvoid?5?$CK?$CJ?50?$CJ@ 000000000001bef8     HiiDatabase:Font.obj
 0002:00000f18       ??_C@_0BF@CPNKHBOH@Cell?5?$CB?$DN?5?$CI?$CIvoid?5?$CK?$CJ?50?$CJ@ 000000000001bf18     HiiDatabase:Font.obj
 0002:00000f30       ??_C@_0BL@PMPKEABA@Attributes?5?$CB?$DN?5?$CI?$CIvoid?5?$CK?$CJ?50?$CJ@ 000000000001bf30     HiiDatabase:Font.obj
 0002:00000f50       ??_C@_0BO@HMFAAOIE@SystemDefault?5?$CB?$DN?5?$CI?$CIvoid?5?$CK?$CJ?50?$CJ@ 000000000001bf50     HiiDatabase:Font.obj
 0002:00000f70       ??_C@_0BL@BBPNKGPN@StringInfo?5?$CB?$DN?5?$CI?$CIvoid?5?$CK?$CJ?50?$CJ@ 000000000001bf70     HiiDatabase:Font.obj
 0002:00000f90       ??_C@_0BO@JAOLLJBB@StringInfoOut?5?$CB?$DN?5?$CI?$CIvoid?5?$CK?$CJ?50?$CJ@ 000000000001bf90     HiiDatabase:Font.obj
 0002:00000fb0       ??_C@_0BN@PACIKCEF@StringInfoIn?5?$CB?$DN?5?$CI?$CIvoid?5?$CK?$CJ?50?$CJ@ 000000000001bfb0     HiiDatabase:Font.obj
 0002:00000fd0       mHiiEfiColors              000000000001bfd0     HiiDatabase:Font.obj
 0002:00001010       ??_C@_0FI@MLFDLEEE@D?3?2uefi_specs_personal_collecti@ 000000000001c010     HiiDatabase:ImageEx.obj
 0002:00001068       ??_C@_0DH@NFJDOGLB@ImageBlocks?5?$CB?$DN?5?$CI?$CIvoid?5?$CK?$CJ?50?$CJ?5?$CG?$CG?5@ 000000000001c068     HiiDatabase:Image.obj
 0002:000010a0       ??_C@_0FG@OOMGLBNL@D?3?2uefi_specs_personal_collecti@ 000000000001c0a0     HiiDatabase:Image.obj
 0002:000010f8       ??_C@_0BL@HMPOLNFB@?$CKImageId?5?$CB?$DN?5ImageIdCurrent@ 000000000001c0f8     HiiDatabase:Image.obj
 0002:00001118       ??_C@_0O@FOALKCBJ@?$CKImageId?5?$CB?$DN?50@ 000000000001c118     HiiDatabase:Image.obj
 0002:00001128       ??_C@_0DG@CMCHKEMN@BitMapOut?5?$CB?$DN?5?$CI?$CIvoid?5?$CK?$CJ?50?$CJ?5?$CG?$CG?5Bi@ 000000000001c128     HiiDatabase:Image.obj
 0002:00001160       ??_C@_0EN@ELLNHLCC@Image?5?$CB?$DN?5?$CI?$CIvoid?5?$CK?$CJ?50?$CJ?5?$CG?$CG?5Data?5?$CB@ 000000000001c160     HiiDatabase:Image.obj
 0002:000011b0       ??_C@_0BI@KJHDIOKD@Palette?5?$CB?$DN?5?$CI?$CIvoid?5?$CK?$CJ?50?$CJ@ 000000000001c1b0     HiiDatabase:Image.obj
 0002:000011c8       ??_C@_0CO@MJKHFAPP@Image?5?$CB?$DN?5?$CI?$CIvoid?5?$CK?$CJ?50?$CJ?5?$CG?$CG?5Data?5?$CB@ 000000000001c1c8     HiiDatabase:Image.obj
 0002:000011f8       ??_C@_0CG@IBCJOBGA@PaletteIndex?5?$DN?$DN?5Iibt1bit?4Palett@ 000000000001c1f8     HiiDatabase:Image.obj
 0002:00001220       ??_C@_0DN@PNNBIPEP@NextString?5?$CB?$DN?5?$CI?$CIvoid?5?$CK?$CJ?50?$CJ?5?$CG?$CG?5D@ 000000000001c220     HiiDatabase:ConfigKeywordHandler.obj
 0002:00001260       ??_C@_0GF@GFEINOEN@D?3?2uefi_specs_personal_collecti@ 000000000001c260     HiiDatabase:ConfigKeywordHandler.obj
 0002:000012c8       ??_C@_1BC@KEBNFPJO@?$AAK?$AAE?$AAY?$AAW?$AAO?$AAR?$AAD?$AA?$DN@ 000000000001c2c8     HiiDatabase:ConfigKeywordHandler.obj
 0002:000012e0       ??_C@_0BK@LHDBFBNG@NameSpace?5?$CB?$DN?5?$CI?$CIvoid?5?$CK?$CJ?50?$CJ@ 000000000001c2e0     HiiDatabase:ConfigKeywordHandler.obj
 0002:00001300       ??_C@_1BG@PHBLLIBG@?$AAN?$AAA?$AAM?$AAE?$AAS?$AAP?$AAA?$AAC?$AAE?$AA?$DN@ 000000000001c300     HiiDatabase:ConfigKeywordHandler.obj
 0002:00001318       ??_C@_0DK@OHOIFGHP@?$CIKeyword?5?$CB?$DN?5?$CI?$CIvoid?5?$CK?$CJ?50?$CJ?$CJ?5?$CG?$CG?5?$CIN@ 000000000001c318     HiiDatabase:ConfigKeywordHandler.obj
 0002:00001360       ??_C@_0FE@GBOKANMP@?$CIValue?5?$CB?$DN?5?$CI?$CIvoid?5?$CK?$CJ?50?$CJ?$CJ?5?$CG?$CG?5?$CINex@ 000000000001c360     HiiDatabase:ConfigKeywordHandler.obj
 0002:000013b8       ??_C@_0DO@PFGBFFJL@?$CIFilterFlags?5?$CB?$DN?5?$CI?$CIvoid?5?$CK?$CJ?50?$CJ?$CJ?5?$CG@ 000000000001c3b8     HiiDatabase:ConfigKeywordHandler.obj
 0002:000013f8       ??_C@_1BC@LDFBNAGD@?$AAR?$AAe?$AAa?$AAd?$AAO?$AAn?$AAl?$AAy@ 000000000001c3f8     HiiDatabase:ConfigKeywordHandler.obj
 0002:00001410       ??_C@_1BE@HADLJAO@?$AAR?$AAe?$AAa?$AAd?$AAW?$AAr?$AAi?$AAt?$AAe@ 000000000001c410     HiiDatabase:ConfigKeywordHandler.obj
 0002:00001428       ??_C@_1O@GBAIGIHF@?$AAB?$AAu?$AAf?$AAf?$AAe?$AAr@ 000000000001c428     HiiDatabase:ConfigKeywordHandler.obj
 0002:00001438       ??_C@_1BA@BKFKFLJD@?$AAN?$AAu?$AAm?$AAe?$AAr?$AAi?$AAc@ 000000000001c438     HiiDatabase:ConfigKeywordHandler.obj
 0002:00001448       ??_C@_1M@OGLKDJIA@?$AA?$CG?$AAP?$AAA?$AAT?$AAH@ 000000000001c448     HiiDatabase:ConfigKeywordHandler.obj
 0002:00001458       ??_C@_1BC@CFPGDLKH@?$AA?$CG?$AAK?$AAE?$AAY?$AAW?$AAO?$AAR?$AAD@ 000000000001c458     HiiDatabase:ConfigKeywordHandler.obj
 0002:00001470       ??_C@_0BL@FCLLAFBK@OpCodeData?5?$CB?$DN?5?$CI?$CIvoid?5?$CK?$CJ?50?$CJ@ 000000000001c470     HiiDatabase:ConfigKeywordHandler.obj
 0002:00001490       ??_C@_0BL@JFODOCGB@DevicePath?5?$CB?$DN?5?$CI?$CIvoid?5?$CK?$CJ?50?$CJ@ 000000000001c490     HiiDatabase:ConfigKeywordHandler.obj
 0002:000014b0       ??_C@_0FG@CNJOIDE@StringSrc?5?$CB?$DN?5?$CI?$CIvoid?5?$CK?$CJ?50?$CJ?5?$CG?$CG?5Bu@ 000000000001c4b0     HiiDatabase:ConfigKeywordHandler.obj
 0002:00001510       ??_C@_0FK@IABCBAEM@StringPackage?5?$CB?$DN?5?$CI?$CIvoid?5?$CK?$CJ?50?$CJ?5?$CG@ 000000000001c510     HiiDatabase:ConfigKeywordHandler.obj
 0002:00001570       ??_C@_0FM@MOEDEKOL@DatabaseRecord?5?$CB?$DN?5?$CI?$CIvoid?5?$CK?$CJ?50?$CJ?5@ 000000000001c570     HiiDatabase:ConfigKeywordHandler.obj
 0002:000015cc       ??_C@_06PLDEFKP@x?9UEFI@   000000000001c5cc     HiiDatabase:ConfigKeywordHandler.obj
 0002:000015d8       ??_C@_0BM@BFDIJOFM@FormPackage?5?$CB?$DN?5?$CI?$CIvoid?5?$CK?$CJ?50?$CJ@ 000000000001c5d8     HiiDatabase:ConfigKeywordHandler.obj
 0002:000015f8       ??_C@_0DG@NNKHLNIL@?$CI?$CIEFI_IFR_OP_HEADER?5?$CK?$CJNextOpCod@ 000000000001c5f8     HiiDatabase:ConfigKeywordHandler.obj
 0002:00001630       ??_C@_15GANGMFKL@?$AA?$CF?$AAs@ 000000000001c630     HiiDatabase:ConfigKeywordHandler.obj
 0002:00001638       ??_C@_1CO@DPPGKPKG@?$AAO?$AAF?$AAF?$AAS?$AAE?$AAT?$AA?$DN?$AA?$CF?$AA0?$AA4?$AAX?$AA?$CG?$AAW?$AAI?$AAD@ 000000000001c638     HiiDatabase:ConfigKeywordHandler.obj
 0002:00001668       ??_C@_05JJLPJMLG@en?9US@   000000000001c668     HiiDatabase:ConfigKeywordHandler.obj
 0002:00001670       ??_C@_0BN@HPBNKDMG@BestLanguage?5?$CB?$DN?5?$CI?$CIvoid?5?$CK?$CJ?50?$CJ@ 000000000001c670     HiiDatabase:ConfigKeywordHandler.obj
 0002:00001690       ??_C@_0FO@OMKBEEGB@DatabaseRecord?5?$CB?$DN?5?$CI?$CIvoid?5?$CK?$CJ?50?$CJ?5@ 000000000001c690     HiiDatabase:ConfigKeywordHandler.obj
 0002:000016f0       ??_C@_0BI@LBDBFON@Storage?5?$CB?$DN?5?$CI?$CIvoid?5?$CK?$CJ?50?$CJ@ 000000000001c6f0     HiiDatabase:ConfigKeywordHandler.obj
 0002:00001708       ??_C@_0BK@LFDBOAFJ@ConfigHdr?5?$CB?$DN?5?$CI?$CIvoid?5?$CK?$CJ?50?$CJ@ 000000000001c708     HiiDatabase:ConfigKeywordHandler.obj
 0002:00001730       ??_C@_0ID@IKKDDEDB@?$CIDatabaseRecord?5?$CB?$DN?5?$CI?$CIvoid?5?$CK?$CJ?50?$CJ@ 000000000001c730     HiiDatabase:ConfigKeywordHandler.obj
 0002:000017b8       ??_C@_0BI@EGABAPFI@Header?9?$DOVarStoreId?5?$CB?$DN?50@ 000000000001c7b8     HiiDatabase:ConfigKeywordHandler.obj
 0002:000017d0       ??_C@_0BD@FANLLMHJ@Varstore?5Id?3?50x?$CFx?6@ 000000000001c7d0     HiiDatabase:ConfigKeywordHandler.obj
 0002:000017f0       ??_C@_0EC@IMNKLNNG@?$CIConfigRequest?5?$CB?$DN?5?$CI?$CIvoid?5?$CK?$CJ?50?$CJ?$CJ@ 000000000001c7f0     HiiDatabase:ConfigKeywordHandler.obj
 0002:00001840       ??_C@_0KH@OPAIADAK@?$CINameSpace?5?$CB?$DN?5?$CI?$CIvoid?5?$CK?$CJ?50?$CJ?$CJ?5?$CG?$CG?5@ 000000000001c840     HiiDatabase:ConfigKeywordHandler.obj
 0002:000018e8       ??_C@_0BL@EPOEPBPG@?$CKProgressErr?5?$DN?$DN?50x00000004@ 000000000001c8e8     HiiDatabase:ConfigKeywordHandler.obj
 0002:00001910       ??_C@_0JM@BHIIIHDI@?$CINameSpace?5?$CB?$DN?5?$CI?$CIvoid?5?$CK?$CJ?50?$CJ?$CJ?5?$CG?$CG?5@ 000000000001c910     HiiDatabase:ConfigKeywordHandler.obj
 0002:000019b0       ??_C@_1BE@NJMCFJHO@?$AA?$CG?$AAR?$AAE?$AAA?$AAD?$AAO?$AAN?$AAL?$AAY@ 000000000001c9b0     HiiDatabase:ConfigKeywordHandler.obj
 0002:000019c8       ??_C@_0BL@GNJCLPEO@TempString?5?$CB?$DN?5?$CI?$CIvoid?5?$CK?$CJ?50?$CJ@ 000000000001c9c8     HiiDatabase:ConfigKeywordHandler.obj
 0002:000019e8       ??_C@_0BH@IACGKAP@Buffer?5?$CB?$DN?5?$CI?$CIvoid?5?$CK?$CJ?50?$CJ@ 000000000001c9e8     HiiDatabase:Database.obj
 0002:00001a00       ??_C@_0FJ@NECHMEHJ@D?3?2uefi_specs_personal_collecti@ 000000000001ca00     HiiDatabase:Database.obj
 0002:00001a60       ??_C@_0CA@PCMGHPMF@VariableStorage?5?$CB?$DN?5?$CI?$CIvoid?5?$CK?$CJ?50?$CJ@ 000000000001ca60     HiiDatabase:Database.obj
 0002:00001a80       ??_C@_0HO@ICAHMDKK@Package?9?$DOImagePkgHdr?4Header?4Len@ 000000000001ca80     HiiDatabase:Database.obj
 0002:00001b00       ??_C@_0BP@FEPODHBK@DatabaseRecord?5?$CB?$DN?5?$CI?$CIvoid?5?$CK?$CJ?50?$CJ@ 000000000001cb00     HiiDatabase:Database.obj
 0002:00001b20       ??_C@_0FD@KKBJAAKD@Private?5?$CB?$DN?5?$CI?$CIvoid?5?$CK?$CJ?50?$CJ?5?$CG?$CG?5Pack@ 000000000001cb20     HiiDatabase:Database.obj
 0002:00001b78       ??_C@_0BK@BBKIEBOB@IsHiiHandleValid?5?$CIHandle?$CJ@ 000000000001cb78     HiiDatabase:Database.obj
 0002:00001ba0       ??_C@_0HI@CJGCGGJK@?$FLHiiDatabase?$FN?3?5Memory?5allocatio@ 000000000001cba0     HiiDatabase:Database.obj
 0002:00001c20       ??_C@_0EK@CIOIMHBH@?$FLHiiDatabase?$FN?3?5No?5enough?5memory@ 000000000001cc20     HiiDatabase:Database.obj
 0002:00001c70       ??_C@_0DJ@CIDFFKAG@Status?5?$DN?$DN?5?$CI?$CIRETURN_STATUS?$CJ?$CI0x80@ 000000000001cc70     HiiDatabase:Database.obj
 0002:00001cb0       ??_C@_0EJ@JBAODEFD@?$FLHiiDatabase?$FN?3?5No?5enough?5memory@ 000000000001ccb0     HiiDatabase:Database.obj
 0002:00001d00       ??_C@_0BM@JEBIDOHP@PackageList?5?$CB?$DN?5?$CI?$CIvoid?5?$CK?$CJ?50?$CJ@ 000000000001cd00     HiiDatabase:Database.obj
 0002:00001d20       ??_C@_0BN@GGKEKANL@Private?9?$DOHiiHandleCount?5?$DO?$DN?50@ 000000000001cd20     HiiDatabase:Database.obj
 0002:00001d40       ??_C@_0BP@NFJAKEPG@KeyboardLayout?5?$CB?$DN?5?$CI?$CIvoid?5?$CK?$CJ?50?$CJ@ 000000000001cd40     HiiDatabase:Database.obj
 0002:00001d60       ??_C@_0EN@ENFGNHA@D?3?2uefi_specs_personal_collecti@ 000000000001cd60     DxePcdLib:DxePcdLib.obj
 0002:00001db0       ??_C@_0BH@DAPONKEH@mPiPcd?5?$CB?$DN?5?$CI?$CIvoid?5?$CK?$CJ?50?$CJ@ 000000000001cdb0     DxePcdLib:DxePcdLib.obj
 0002:00001dc8       ??_C@_0BL@BJHAIJFF@mPiPcdInfo?5?$CB?$DN?5?$CI?$CIvoid?5?$CK?$CJ?50?$CJ@ 000000000001cdc8     DxePcdLib:DxePcdLib.obj
 0002:00001de8       ??_C@_0DG@EEENIGGL@Length?5?$DM?$DN?5?$CI0xFFFFFFFFFFFFFFFFUL@ 000000000001cde8     BaseMemoryLibRepStr:MemLibGuid.obj
 0002:00001e20       ??_C@_0ED@MKGCMJG@?$CILength?5?9?51?$CJ?5?$DM?$DN?5?$CI0xFFFFFFFFFFFF@ 000000000001ce20     BaseMemoryLibRepStr:CopyMemWrapper.obj
 0002:00001e70       ??_C@_0FM@IDPIEKJH@D?3?2uefi_specs_personal_collecti@ 000000000001ce70     BaseMemoryLibRepStr:CopyMemWrapper.obj
 0002:00001ed0       ??_C@_0DO@MAOBOFEG@?$CILength?5?9?51?$CJ?5?$DM?$DN?5?$CI0xFFFFFFFFFFFF@ 000000000001ced0     BaseMemoryLibRepStr:CopyMemWrapper.obj
 0002:00001f10       ??_C@_0FM@DHFKCLFA@D?3?2uefi_specs_personal_collecti@ 000000000001cf10     BaseMemoryLibRepStr:ZeroMemWrapper.obj
 0002:00001f70       ??_C@_0CC@JOEHDGKB@DestinationBuffer?5?$CB?$DN?5?$CI?$CIvoid?5?$CK?$CJ?5@ 000000000001cf70     BaseMemoryLibRepStr:CompareMemWrapper.obj
 0002:00001fa0       ??_C@_0FP@MJKEJMKF@D?3?2uefi_specs_personal_collecti@ 000000000001cfa0     BaseMemoryLibRepStr:CompareMemWrapper.obj
 0002:00002000       ??_C@_0BN@MDMCNBCC@SourceBuffer?5?$CB?$DN?5?$CI?$CIvoid?5?$CK?$CJ?50?$CJ@ 000000000001d000     BaseMemoryLibRepStr:CompareMemWrapper.obj
 0002:00002020       ??_C@_0FN@KMADKPA@D?3?2uefi_specs_personal_collecti@ 000000000001d020     BaseMemoryLibRepStr:SetMem32Wrapper.obj
 0002:00002080       ??_C@_0DI@DAGDPLPG@?$CILength?5?9?51?$CJ?5?$DM?$DN?5?$CI0xFFFFFFFFFFFF@ 000000000001d080     BaseMemoryLibRepStr:SetMem32Wrapper.obj
 0002:000020b8       ??_C@_0CO@LECKNDNC@?$CI?$CI?$CIUINTN?$CJBuffer?$CJ?5?$CG?5?$CIsizeof?5?$CIVal@ 000000000001d0b8     BaseMemoryLibRepStr:SetMem32Wrapper.obj
 0002:000020e8       ??_C@_0CF@LEICOABD@?$CILength?5?$CG?5?$CIsizeof?5?$CIValue?$CJ?5?9?51?$CJ?$CJ@ 000000000001d0e8     BaseMemoryLibRepStr:SetMem32Wrapper.obj
 0002:00002110       ??_C@_0BF@NJNGJMPC@List?5?$CB?$DN?5?$CI?$CIvoid?5?$CK?$CJ?50?$CJ@ 000000000001d110     BaseLib:LinkedList.obj
 0002:00002130       ??_C@_0EM@NCJPOFNN@D?3?2uefi_specs_personal_collecti@ 000000000001d130     BaseLib:LinkedList.obj
 0002:00002180       ??_C@_0CC@KDLPLAED@List?9?$DOForwardLink?5?$CB?$DN?5?$CI?$CIvoid?5?$CK?$CJ?5@ 000000000001d180     BaseLib:LinkedList.obj
 0002:000021a8       ??_C@_0BP@IJJCCMAK@List?9?$DOBackLink?5?$CB?$DN?5?$CI?$CIvoid?5?$CK?$CJ?50?$CJ@ 000000000001d1a8     BaseLib:LinkedList.obj
 0002:000021c8       ??_C@_0BJ@NJABNCDK@ListHead?5?$CB?$DN?5?$CI?$CIvoid?5?$CK?$CJ?50?$CJ@ 000000000001d1c8     BaseLib:LinkedList.obj
 0002:000021e8       ??_C@_0CG@LGIALJFK@InternalBaseLibIsListValid?5?$CILis@ 000000000001d1e8     BaseLib:LinkedList.obj
 0002:00002210       ??_C@_0CC@JLDICICM@InternalBaseLibIsListValid?5?$CILis@ 000000000001d210     BaseLib:LinkedList.obj
 0002:00002238       ??_C@_0BF@NMBJJECB@?$CBIsListEmpty?5?$CIEntry?$CJ@ 000000000001d238     BaseLib:LinkedList.obj
 0002:00002250       ??_C@_0CC@GFNLNIOC@?$CI?$CIUINTN?$CJString?5?$CG?50x00000001?$CJ?5?$DN?$DN@ 000000000001d250     BaseLib:SafeString.obj
 0002:00002280       ??_C@_0EM@OAPOMMAE@D?3?2uefi_specs_personal_collecti@ 000000000001d280     BaseLib:SafeString.obj
 0002:000022d0       ??_C@_0CH@LALFPBMC@?$CI?$CIUINTN?$CJDestination?5?$CG?50x0000000@ 000000000001d2d0     BaseLib:SafeString.obj
 0002:000022f8       ??_C@_0CC@HEBCMBPF@?$CI?$CIUINTN?$CJSource?5?$CG?50x00000001?$CJ?5?$DN?$DN@ 000000000001d2f8     BaseLib:SafeString.obj
 0002:00002320       ??_C@_0BO@ECNIOIHG@?$CIDestination?5?$CB?$DN?5?$CI?$CIvoid?5?$CK?$CJ?50?$CJ?$CJ@ 000000000001d320     BaseLib:SafeString.obj
 0002:00002340       ??_C@_07KBGDFDAM@StrCpyS@  000000000001d340     BaseLib:SafeString.obj
 0002:00002350       ??_C@_0EA@PDPDJJNN@?$CFa?$CI?$CFd?$CJ?5?$CFa?3?5SAFE_STRING_CONSTRAI@ 000000000001d350     BaseLib:SafeString.obj
 0002:00002390       ??_C@_0BJ@EAEEJIP@?$CISource?5?$CB?$DN?5?$CI?$CIvoid?5?$CK?$CJ?50?$CJ?$CJ@ 000000000001d390     BaseLib:SafeString.obj
 0002:000023b0       ??_C@_0EA@BBALOHPI@?$CIDestMax?5?$DM?$DN?5?$CI_gPcd_FixedAtBuild@ 000000000001d3b0     BaseLib:SafeString.obj
 0002:000023f0       ??_C@_0P@PMIMLIHM@?$CIDestMax?5?$CB?$DN?50?$CJ@ 000000000001d3f0     BaseLib:SafeString.obj
 0002:00002400       ??_C@_0BG@EEGIIOKH@?$CIDestMax?5?$DO?5SourceLen?$CJ@ 000000000001d400     BaseLib:SafeString.obj
 0002:00002420       ??_C@_0FH@PPBLBDBJ@InternalSafeStringNoStrOverlap?5@ 000000000001d420     BaseLib:SafeString.obj
 0002:00002478       ??_C@_08INOAHJON@StrnCpyS@ 000000000001d478     BaseLib:SafeString.obj
 0002:00002488       ??_C@_0DP@PBOJGJC@?$CILength?5?$DM?$DN?5?$CI_gPcd_FixedAtBuild_@ 000000000001d488     BaseLib:SafeString.obj
 0002:000024c8       ??_C@_07EBBOPAKF@StrCatS@  000000000001d4c8     BaseLib:SafeString.obj
 0002:000024d0       ??_C@_0P@BHOOOJPD@?$CICopyLen?5?$CB?$DN?50?$CJ@ 000000000001d4d0     BaseLib:SafeString.obj
 0002:000024e0       ??_C@_0BG@BPGICNPK@?$CICopyLen?5?$DO?5SourceLen?$CJ@ 000000000001d4e0     BaseLib:SafeString.obj
 0002:000024f8       ??_C@_08GNJNNKEE@StrnCatS@ 000000000001d4f8     BaseLib:SafeString.obj
 0002:00002508       ??_C@_0BJ@MBBOBCLN@?$CIString?5?$CB?$DN?5?$CI?$CIvoid?5?$CK?$CJ?50?$CJ?$CJ@ 000000000001d508     BaseLib:SafeString.obj
 0002:00002530       ??_C@_0IC@CFBPEAPC@?$CIStrnLenS?5?$CIString?0?5?$CI_gPcd_Fixed@ 000000000001d530     BaseLib:SafeString.obj
 0002:000025b8       ??_C@_0BA@PLPLKCD@StrHexToUint64S@ 000000000001d5b8     BaseLib:SafeString.obj
 0002:000025c8       ??_C@_0BJ@CNKJJNE@?$CIBuffer?5?$CB?$DN?5?$CI?$CIvoid?5?$CK?$CJ?50?$CJ?$CJ@ 000000000001d5c8     BaseLib:SafeString.obj
 0002:000025e8       ??_C@_0N@OMPODJLB@AsciiStrCpyS@ 000000000001d5e8     BaseLib:SafeString.obj
 0002:000025f8       ??_C@_0DO@LJFOOPII@?$CIDestMax?5?$DM?$DN?5?$CI_gPcd_FixedAtBuild@ 000000000001d5f8     BaseLib:SafeString.obj
 0002:00002640       ??_C@_0FL@CDANCHFO@InternalSafeStringNoAsciiStrOve@ 000000000001d640     BaseLib:SafeString.obj
 0002:000026a0       ??_C@_0BG@ECBHNCII@UnicodeStrToAsciiStrS@ 000000000001d6a0     BaseLib:SafeString.obj
 0002:000026c0       ??_C@_0GH@OGMKEJDK@?$CBInternalSafeStringIsOverlap?5?$CID@ 000000000001d6c0     BaseLib:SafeString.obj
 0002:00002728       ??_C@_0BA@MFHLDCJH@?$CKSource?5?$DM?50x100@ 000000000001d728     BaseLib:SafeString.obj
 0002:00002738       ??_C@_0BG@MFINJFHO@AsciiStrToUnicodeStrS@ 000000000001d738     BaseLib:SafeString.obj
 0002:00002750       ??_C@_0GF@GCLJAOAI@?$CBInternalSafeStringIsOverlap?5?$CID@ 000000000001d750     BaseLib:SafeString.obj
 0002:000027c0       ??_C@_0EI@LOLLHGDK@D?3?2uefi_specs_personal_collecti@ 000000000001d7c0     BaseLib:String.obj
 0002:00002808       ??_C@_0DK@EOJCOAME@Length?5?$DM?5_gPcd_FixedAtBuild_Pcd@ 000000000001d808     BaseLib:String.obj
 0002:00002848       ??_C@_0BL@JAAMOCAJ@StrSize?5?$CIFirstString?$CJ?5?$CB?$DN?50@ 000000000001d848     BaseLib:String.obj
 0002:00002868       ??_C@_0BM@DALBOILC@StrSize?5?$CISecondString?$CJ?5?$CB?$DN?50@ 000000000001d868     BaseLib:String.obj
 0002:00002888       ??_C@_0DL@LFIMEMJP@Length?5?$DM?$DN?5_gPcd_FixedAtBuild_Pc@ 000000000001d888     BaseLib:String.obj
 0002:000028c8       ??_C@_0BG@KBNOLIGE@StrSize?5?$CIString?$CJ?5?$CB?$DN?50@ 000000000001d8c8     BaseLib:String.obj
 0002:000028e0       ??_C@_0BM@NNBLOHJD@StrSize?5?$CISearchString?$CJ?5?$CB?$DN?50@ 000000000001d8e0     BaseLib:String.obj
 0002:00002900       ??_C@_0DI@MDIKFADO@Length?5?$DM?5_gPcd_FixedAtBuild_Pcd@ 000000000001d900     BaseLib:String.obj
 0002:00002938       ??_C@_0BL@IKFBNFIL@AsciiStrSize?5?$CIFirstString?$CJ@ 000000000001d938     BaseLib:String.obj
 0002:00002958       ??_C@_0BM@EDNOKLLE@AsciiStrSize?5?$CISecondString?$CJ@ 000000000001d958     BaseLib:String.obj
 0002:00002978       ??_C@_0DJ@JJHGIFMP@Length?5?$DM?$DN?5_gPcd_FixedAtBuild_Pc@ 000000000001d978     BaseLib:String.obj
 0002:000029b8       ??_C@_0BL@OFIBAIAL@AsciiStrSize?5?$CIString?$CJ?5?$CB?$DN?50@ 000000000001d9b8     BaseLib:String.obj
 0002:000029d8       ??_C@_0CB@NAIDGIOA@AsciiStrSize?5?$CISearchString?$CJ?5?$CB?$DN?5@ 000000000001d9d8     BaseLib:String.obj
 0002:00002a00       ??_C@_0EJ@KBPJPBK@?$CIOrData?5?$DO?$DO?5?$CIEndBit?5?9?5StartBit?$CJ?$CJ@ 000000000001da00     BaseLib:BitField.obj
 0002:00002a50       ??_C@_0EK@DJCDFDHD@D?3?2uefi_specs_personal_collecti@ 000000000001da50     BaseLib:BitField.obj
 0002:00002aa0       ??_C@_0BD@JDBPFJOM@StartBit?5?$DM?$DN?5EndBit@ 000000000001daa0     BaseLib:BitField.obj
 0002:00002ab8       ??_C@_0M@NJLBHEFK@EndBit?5?$DM?532@ 000000000001dab8     BaseLib:BitField.obj
 0002:00002ac8       ??_C@_0M@IJCABBDH@EndBit?5?$DM?564@ 000000000001dac8     BaseLib:BitField.obj
 0002:00002ad8       ??_C@_0L@MEMPDLHB@Count?5?$DM?564@ 000000000001dad8     BaseLib:LShiftU64.obj
 0002:00002af0       ??_C@_0EL@PKACDBFD@D?3?2uefi_specs_personal_collecti@ 000000000001daf0     BaseLib:LShiftU64.obj
 0002:00002b40       ??_C@_0EL@GLNKFHII@D?3?2uefi_specs_personal_collecti@ 000000000001db40     BaseLib:Unaligned.obj
 0002:00002b90       ??_C@_0N@KGHEHMDL@Divisor?5?$CB?$DN?50@ 000000000001db90     BaseLib:DivU64x32.obj
 0002:00002ba0       ??_C@_0EL@BPCLAPLB@D?3?2uefi_specs_personal_collecti@ 000000000001dba0     BaseLib:RShiftU64.obj
 0002:00002bf0       ??_C@_0CI@BGLNHBLM@?$CI?$CI?$CIUINTN?$CJ?5?$CIStartOfBuffer?$CJ?$CJ?5?$CG?50x@ 000000000001dbf0     BasePrintLib:PrintLib.obj
 0002:00002c20       ??_C@_0EP@OFLCNDBG@D?3?2uefi_specs_personal_collecti@ 000000000001dc20     BasePrintLib:PrintLib.obj
 0002:00002c70       ??_C@_0CH@KJLBGOBB@?$CI?$CI?$CIUINTN?$CJ?5?$CIFormatString?$CJ?$CJ?5?$CG?50x0@ 000000000001dc70     BasePrintLib:PrintLib.obj
 0002:00002c98       ??_C@_0CB@LDBAOPMG@?$CI?$CI?$CIUINTN?$CJ?5?$CIBuffer?$CJ?$CJ?5?$CG?50x01?$CJ?5?$DN?$DN?5@ 000000000001dc98     BasePrintLib:PrintLib.obj
 0002:00002cc0       ??_C@_0FH@MODEAFEI@D?3?2uefi_specs_personal_collecti@ 000000000001dcc0     BasePrintLib:PrintLibInternal.obj
 0002:00002d20       ??_C@_0EB@HDGIDCIO@?$CIBufferSize?5?$DM?$DN?5?$CI_gPcd_FixedAtBu@ 000000000001dd20     BasePrintLib:PrintLibInternal.obj
 0002:00002d70       ??_C@_0FJ@HAEMOBLP@?$CIBufferSize?5?$DM?$DN?5?$CI_gPcd_FixedAtBu@ 000000000001dd70     BasePrintLib:PrintLibInternal.obj
 0002:00002dd0       ??_C@_0N@PNKFBKME@?$CIWidth?5?$DM?538?$CJ@ 000000000001ddd0     BasePrintLib:PrintLibInternal.obj
 0002:00002de0       ??_C@_0CI@HPJOGFNE@?$CIBufferSize?5?$DO?$DN?5?$CIWidth?5?$CL?51?$CJ?5?$CK?5In@ 000000000001dde0     BasePrintLib:PrintLibInternal.obj
 0002:00002e08       ??_C@_0BJ@PPAKKDJG@?$CIFormat?5?$CB?$DN?5?$CI?$CIvoid?5?$CK?$CJ?50?$CJ?$CJ@ 000000000001de08     BasePrintLib:PrintLibInternal.obj
 0002:00002e30       ??_C@_0ED@LPDDCECB@?$CIBufferSize?5?$DM?$DN?5?$CI_gPcd_FixedAtBu@ 000000000001de30     BasePrintLib:PrintLibInternal.obj
 0002:00002e80       ??_C@_0IM@BFJJFLGB@?$CIStrnLenS?5?$CI?$CICHAR16?5?$CK?$CJFormat?0?5?$CI_@ 000000000001de80     BasePrintLib:PrintLibInternal.obj
 0002:00002f10       ??_C@_0ID@PLGJGION@?$CIAsciiStrnLenS?5?$CIFormat?0?5?$CI_gPcd_@ 000000000001df10     BasePrintLib:PrintLibInternal.obj
 0002:00002f98       ??_C@_0O@MLOLIMFM@?$DMnull?5string?$DO@ 000000000001df98     BasePrintLib:PrintLibInternal.obj
 0002:00002fa8       ??_C@_0M@BJJDNPHK@?$DMnull?5guid?$DO@ 000000000001dfa8     BasePrintLib:PrintLibInternal.obj
 0002:00002fb8       ??_C@_0DB@PMLHLBMO@?$CF08x?9?$CF04x?9?$CF04x?9?$CF02x?$CF02x?9?$CF02x?$CF02@ 000000000001dfb8     BasePrintLib:PrintLibInternal.obj
 0002:00002ff0       ??_C@_0M@LHGBCIKM@?$DMnull?5time?$DO@ 000000000001dff0     BasePrintLib:PrintLibInternal.obj
 0002:00003000       ??_C@_0BK@FCPKCIDD@?$CF02d?1?$CF02d?1?$CF04d?5?5?$CF02d?3?$CF02d@ 000000000001e000     BasePrintLib:PrintLibInternal.obj
 0002:0000301c       ??_C@_04JIMNDDED@?$CF08X@  000000000001e01c     BasePrintLib:PrintLibInternal.obj
 0002:00003024       ??_C@_02PCIJFNDE@?$AN?6@   000000000001e024     BasePrintLib:PrintLibInternal.obj
 0002:00003028       ??_C@_01LIIJDEN@?$AN@      000000000001e028     BasePrintLib:PrintLibInternal.obj
 0002:00003030       mWarningString             000000000001e030     BasePrintLib:PrintLibInternal.obj
 0002:00003100       mErrorString               000000000001e100     BasePrintLib:PrintLibInternal.obj
 0002:000033e0       mHexStr                    000000000001e3e0     BasePrintLib:PrintLibInternal.obj
 0002:000033f0       ??_C@_0BH@LKMBFCBF@Format?5?$CB?$DN?5?$CI?$CIvoid?5?$CK?$CJ?50?$CJ@ 000000000001e3f0     BaseDebugLibSerialPort:DebugLib.obj
 0002:00003410       ??_C@_0FJ@BNNHJMAJ@D?3?2uefi_specs_personal_collecti@ 000000000001e410     BaseDebugLibSerialPort:DebugLib.obj
 0002:00003470       ??_C@_0BI@NOCKJDBJ@ASSERT?5?$FL?$CFa?$FN?5?$CFa?$CI?$CFd?$CJ?3?5?$CFa?6@ 000000000001e470     BaseDebugLibSerialPort:DebugLib.obj
 0002:00003488       ??_C@_0BN@COECPDCC@gImageHandle?5?$CB?$DN?5?$CI?$CIvoid?5?$CK?$CJ?50?$CJ@ 000000000001e488     UefiBootServicesTableLib:UefiBootServicesTableLib.obj
 0002:000034b0       ??_C@_0GL@PJCPJLGM@D?3?2uefi_specs_personal_collecti@ 000000000001e4b0     UefiBootServicesTableLib:UefiBootServicesTableLib.obj
 0002:00003520       ??_C@_0BE@DGNHAHIL@gST?5?$CB?$DN?5?$CI?$CIvoid?5?$CK?$CJ?50?$CJ@ 000000000001e520     UefiBootServicesTableLib:UefiBootServicesTableLib.obj
 0002:00003538       ??_C@_0BE@BDFJLGLN@gBS?5?$CB?$DN?5?$CI?$CIvoid?5?$CK?$CJ?50?$CJ@ 000000000001e538     UefiBootServicesTableLib:UefiBootServicesTableLib.obj
 0002:00003550       ??_C@_0GF@KMHDEKMA@D?3?2uefi_specs_personal_collecti@ 000000000001e550     UefiMemoryAllocationLib:MemoryAllocationLib.obj
 0002:000035b8       ??_C@_0DO@GEEICOOO@AllocationSize?5?$DM?$DN?5?$CI0xFFFFFFFFFF@ 000000000001e5b8     UefiMemoryAllocationLib:MemoryAllocationLib.obj
 0002:000035f8       ??_C@_0BE@OBDFIHND@gRT?5?$CB?$DN?5?$CI?$CIvoid?5?$CK?$CJ?50?$CJ@ 000000000001e5f8     UefiRuntimeServicesTableLib:UefiRuntimeServicesTableLib.obj
 0002:00003610       ??_C@_0HB@NCAPNEDO@D?3?2uefi_specs_personal_collecti@ 000000000001e610     UefiRuntimeServicesTableLib:UefiRuntimeServicesTableLib.obj
 0002:00003690       ??_C@_0GP@HEOOPGAM@D?3?2uefi_specs_personal_collecti@ 000000000001e690     UefiDevicePathLibDevicePathProtocol:UefiDevicePathLib.obj
 0002:00003700       ??_C@_0DC@CNNBPJA@mDevicePathLibDevicePathUtiliti@ 000000000001e700     UefiDevicePathLibDevicePathProtocol:UefiDevicePathLib.obj
 0002:00003738       ??_C@_0BF@CBLMFKOC@Node?5?$CB?$DN?5?$CI?$CIvoid?5?$CK?$CJ?50?$CJ@ 000000000001e738     UefiDevicePathLibDevicePathProtocol:UefiDevicePathLib.obj
 0002:00003750       ??_C@_0EJ@PPOMJLJB@D?3?2uefi_specs_personal_collecti@ 000000000001e750     UefiLib:UefiLib.obj
 0002:000037a0       ??_C@_0BO@IJOPPPFL@Lock?9?$DOLock?5?$DN?$DN?5EfiLockReleased@ 000000000001e7a0     UefiLib:UefiLib.obj
 0002:000037c0       ??_C@_0BO@FHNOFLFJ@Lock?9?$DOLock?5?$DN?$DN?5EfiLockAcquired@ 000000000001e7c0     UefiLib:UefiLib.obj
 0002:000037e0       ??_C@_0EG@GOBFPEEP@Name?5?$CB?$DN?5?$CI?$CIvoid?5?$CK?$CJ?50?$CJ?5?$CG?$CG?5Guid?5?$CB?$DN@ 000000000001e7e0     UefiLib:UefiLib.obj
 0002:00003828       ??_C@_0BH@FMEOEIBC@?$CKValue?5?$CB?$DN?5?$CI?$CIvoid?5?$CK?$CJ?50?$CJ@ 000000000001e828     UefiLib:UefiLib.obj
 0002:00003840       ??_C@_0CD@OLFKAJF@SupportedLanguages?5?$CB?$DN?5?$CI?$CIvoid?5?$CK?$CJ@ 000000000001e840     UefiLib:UefiLib.obj
 0002:00003870       ??_C@_0FE@LIGPAOFO@D?3?2uefi_specs_personal_collecti@ 000000000001e870     BaseLib:DivU64x32Remainder.obj
 0002:00003918       __volatile_metadata        000000000001e918     <linker-defined>
 0003:00000000       gEfiGlobalVariableGuid     000000000001eac0     HiiDatabase:AutoGen.obj
 0003:00000010       gEfiHiiImageDecoderNamePngGuid 000000000001ead0     HiiDatabase:AutoGen.obj
 0003:00000020       gEfiConfigKeywordHandlerProtocolGuid 000000000001eae0     HiiDatabase:AutoGen.obj
 0003:00000030       gEfiHiiImageExProtocolGuid 000000000001eaf0     HiiDatabase:AutoGen.obj
 0003:00000040       gEfiGetPcdInfoProtocolGuid 000000000001eb00     HiiDatabase:AutoGen.obj
 0003:00000050       gEfiDevicePathProtocolGuid 000000000001eb10     HiiDatabase:AutoGen.obj
 0003:00000060       gEfiHiiConfigRoutingProtocolGuid 000000000001eb20     HiiDatabase:AutoGen.obj
 0003:00000070       gEfiPcdProtocolGuid        000000000001eb30     HiiDatabase:AutoGen.obj
 0003:00000080       gEfiHiiImageProtocolGuid   000000000001eb40     HiiDatabase:AutoGen.obj
 0003:00000090       gEfiDevicePathUtilitiesProtocolGuid 000000000001eb50     HiiDatabase:AutoGen.obj
 0003:000000a0       gEfiHiiDatabaseProtocolGuid 000000000001eb60     HiiDatabase:AutoGen.obj
 0003:000000b0       gEfiHiiStringProtocolGuid  000000000001eb70     HiiDatabase:AutoGen.obj
 0003:000000c0       gEfiHiiKeyBoardLayoutGuid  000000000001eb80     HiiDatabase:AutoGen.obj
 0003:000000d0       gEfiMdeModulePkgTokenSpaceGuid 000000000001eb90     HiiDatabase:AutoGen.obj
 0003:000000e0       gEfiHiiConfigAccessProtocolGuid 000000000001eba0     HiiDatabase:AutoGen.obj
 0003:000000f0       gEfiHiiImageDecoderProtocolGuid 000000000001ebb0     HiiDatabase:AutoGen.obj
 0003:00000100       gEfiHiiImageDecoderNameJpegGuid 000000000001ebc0     HiiDatabase:AutoGen.obj
 0003:00000110       gEdkiiIfrBitVarstoreGuid   000000000001ebd0     HiiDatabase:AutoGen.obj
 0003:00000120       gEfiCallerIdGuid           000000000001ebe0     HiiDatabase:AutoGen.obj
 0003:00000130       gEfiHiiFontProtocolGuid    000000000001ebf0     HiiDatabase:AutoGen.obj
 0003:00000140       mPrivate                   000000000001ec00     HiiDatabase:HiiDatabaseEntry.obj
 0003:000002e8       mLanguageWindow            000000000001eda8     HiiDatabase:String.obj
 0003:00000308       mHiiDatabaseLock           000000000001edc8     HiiDatabase:Database.obj
 0003:00000320       gSkuId                     000000000001ede0     HiiDatabase:Database.obj
 0003:00000328       gVarStorageList            000000000001ede8     HiiDatabase:Database.obj
 0003:00000338       gExportAfterReadyToBoot    000000000001edf8     HiiDatabase:HiiDatabaseEntry.obj
 0003:00000340       gRTDatabaseInfoBuffer      000000000001ee00     HiiDatabase:Database.obj
 0003:00000348       gDatabaseInfoSize          000000000001ee08     HiiDatabase:Database.obj
 0003:00000350       gNvDefaultStoreSize        000000000001ee10     HiiDatabase:Database.obj
 0003:00000358       gConfigRespSize            000000000001ee18     HiiDatabase:Database.obj
 0003:00000360       gExportConfigResp          000000000001ee20     HiiDatabase:Database.obj
 0003:00000368       gRTConfigRespBuffer        000000000001ee28     HiiDatabase:Database.obj
 0003:00000370       mPiPcdInfo                 000000000001ee30     DxePcdLib:DxePcdLib.obj
 0003:00000378       mPiPcd                     000000000001ee38     DxePcdLib:DxePcdLib.obj
 0003:00000388       gST                        000000000001ee48     UefiBootServicesTableLib:UefiBootServicesTableLib.obj
 0003:00000390       gBS                        000000000001ee50     UefiBootServicesTableLib:UefiBootServicesTableLib.obj
 0003:00000398       gImageHandle               000000000001ee58     UefiBootServicesTableLib:UefiBootServicesTableLib.obj
 0003:000003a0       gRT                        000000000001ee60     UefiRuntimeServicesTableLib:UefiRuntimeServicesTableLib.obj
 0003:000003a8       mDevicePathLibDevicePathUtilities 000000000001ee68     UefiDevicePathLibDevicePathProtocol:UefiDevicePathLib.obj
 0003:000003b8       gParity                    000000000001ee78     PcAtSerialPortLib:SerialPortLib.obj
 0003:000003b9       gBreakSet                  000000000001ee79     PcAtSerialPortLib:SerialPortLib.obj
 0003:000003c0       gHiiKeyboardLayoutChanged  000000000001ee80     <common>

 entry point at        0001:000001c8

 Static symbols

 0001:0000001a       InternalMemCopyMem.0       00000000000002da     BaseMemoryLibRepStr:CopyMem.obj
 0001:0000002a       @CopyBackward              00000000000002ea     BaseMemoryLibRepStr:CopyMem.obj
 0001:00000033       @CopyBytes                 00000000000002f3     BaseMemoryLibRepStr:CopyMem.obj
 0001:00000149       TdVmCall.no_return_data    0000000000000409     BaseLib:TdVmcall.obj
 0001:000001bb       TdCall.exit                000000000000047b     BaseLib:TdCall.obj
 0003:00000380       mCcProbeGuestType          000000000001ee40     DxeCcProbeLib:DxeCcProbeLib.obj
 0003:00000381       mCcProbed                  000000000001ee41     DxeCcProbeLib:DxeCcProbeLib.obj
 0003:000003b0       mDeadLoopComparator        000000000001ee70     BaseLib:CpuDeadLoop.obj
 0005:00000000       $unwind$GetPiPcdInfoProtocolPointer 000000000001f8c0     DxePcdLib:DxePcdLib.obj
 0005:00000000       $unwind$GetPiPcdProtocol   000000000001f8c0     DxePcdLib:DxePcdLib.obj
 0005:00000000       $unwind$DevicePathFromHandle 000000000001f8c0     UefiDevicePathLibDevicePathProtocol:UefiDevicePathLib.obj
 0005:00000000       $unwind$_ModuleEntryPoint  000000000001f8c0     UefiDriverEntryPoint:DriverEntryPoint.obj
 0005:00000000       $unwind$EfiAcquireLock     000000000001f8c0     UefiLib:UefiLib.obj
 0005:00000000       $unwind$EfiReleaseLock     000000000001f8c0     UefiLib:UefiLib.obj
 0005:00000000       $unwind$AllocatePool       000000000001f8c0     UefiMemoryAllocationLib:MemoryAllocationLib.obj
 0005:00000000       $unwind$FreePool           000000000001f8c0     UefiMemoryAllocationLib:MemoryAllocationLib.obj
 0005:00000008       $unwind$ProcessLibraryConstructorList 000000000001f8c8     HiiDatabase:AutoGen.obj
 0005:00000008       $unwind$FindQuestionFromStringId 000000000001f8c8     HiiDatabase:ConfigKeywordHandler.obj
 0005:00000008       $unwind$FindStorageFromVarId 000000000001f8c8     HiiDatabase:ConfigKeywordHandler.obj
 0005:00000008       $unwind$InsertDefaultValue 000000000001f8c8     HiiDatabase:ConfigRouting.obj
 0005:00000008       $unwind$SaveFontName       000000000001f8c8     HiiDatabase:Font.obj
 0005:00000008       $unwind$WriteOutputParam   000000000001f8c8     HiiDatabase:Font.obj
 0005:00000008       $unwind$CopyGopToRgbPixel  000000000001f8c8     HiiDatabase:Image.obj
 0005:00000008       $unwind$CopyRgbToGopPixel  000000000001f8c8     HiiDatabase:Image.obj
 0005:00000008       $unwind$LocatePackageList  000000000001f8c8     HiiDatabase:Image.obj
 0005:00000008       $unwind$BitFieldRead32     000000000001f8c8     BaseLib:BitField.obj
 0005:00000008       $unwind$BitFieldRead64     000000000001f8c8     BaseLib:BitField.obj
 0005:00000008       $unwind$AsciiStrnCmp       000000000001f8c8     BaseLib:String.obj
 0005:00000008       $unwind$StrCmp             000000000001f8c8     BaseLib:String.obj
 0005:00000008       $unwind$StrLen             000000000001f8c8     BaseLib:String.obj
 0005:00000008       $unwind$StrStr             000000000001f8c8     BaseLib:String.obj
 0005:00000008       $unwind$CopyGuid           000000000001f8c8     BaseMemoryLibRepStr:MemLibGuid.obj
 0005:00000008       $unwind$SetMem32           000000000001f8c8     BaseMemoryLibRepStr:SetMem32Wrapper.obj
 0005:00000008       $unwind$BasePrintLibValueToString 000000000001f8c8     BasePrintLib:PrintLibInternal.obj
 0005:00000008       $unwind$InternalAllocateCopyPool 000000000001f8c8     UefiMemoryAllocationLib:MemoryAllocationLib.obj
 0005:00000008       $unwind$SerialPortWrite    000000000001f8c8     PcAtSerialPortLib:SerialPortLib.obj
 0005:00000018       $unwind$InitializeHiiDatabase 000000000001f8d8     HiiDatabase:HiiDatabaseEntry.obj
 0005:00000028       $unwind$CalculateConfigStringLen 000000000001f8e8     HiiDatabase:ConfigRouting.obj
 0005:00000028       $unwind$GetElementsFromRequest 000000000001f8e8     HiiDatabase:ConfigRouting.obj
 0005:00000028       $unwind$HiiGetConfigRespInfo 000000000001f8e8     HiiDatabase:Database.obj
 0005:00000028       $unwind$HiiGetDatabaseInfo 000000000001f8e8     HiiDatabase:Database.obj
 0005:00000028       $unwind$InternalBaseLibIsListValid 000000000001f8e8     BaseLib:LinkedList.obj
 0005:00000028       $unwind$IsListEmpty        000000000001f8e8     BaseLib:LinkedList.obj
 0005:00000028       $unwind$RemoveEntryList    000000000001f8e8     BaseLib:LinkedList.obj
 0005:00000028       $unwind$DevicePathNodeLength 000000000001f8e8     UefiDevicePathLibDevicePathProtocol:UefiDevicePathLib.obj
 0005:00000028       $unwind$InternalAllocateZeroPool 000000000001f8e8     UefiMemoryAllocationLib:MemoryAllocationLib.obj
 0005:00000030       $unwind$ExtractDevicePath  000000000001f8f0     HiiDatabase:ConfigKeywordHandler.obj
 0005:00000030       $unwind$GetDevicePath      000000000001f8f0     HiiDatabase:ConfigRouting.obj
 0005:00000030       $unwind$HiiSetKeyboardLayout 000000000001f8f0     HiiDatabase:Database.obj
 0005:00000048       $unwind$GetSupportedLanguages 000000000001f908     HiiDatabase:ConfigRouting.obj
 0005:00000048       $unwind$HiiToLower         000000000001f908     HiiDatabase:ConfigRouting.obj
 0005:00000048       $unwind$InsertBlockData    000000000001f908     HiiDatabase:ConfigRouting.obj
 0005:00000048       $unwind$LShiftU64          000000000001f908     BaseLib:LShiftU64.obj
 0005:00000048       $unwind$InsertTailList     000000000001f908     BaseLib:LinkedList.obj
 0005:00000048       $unwind$RShiftU64          000000000001f908     BaseLib:RShiftU64.obj
 0005:00000048       $unwind$StrnLenS           000000000001f908     BaseLib:SafeString.obj
 0005:00000048       $unwind$AsciiStrCmp        000000000001f908     BaseLib:String.obj
 0005:00000048       $unwind$AsciiStrLen        000000000001f908     BaseLib:String.obj
 0005:00000048       $unwind$ZeroMem            000000000001f908     BaseMemoryLibRepStr:ZeroMemWrapper.obj
 0005:00000054       $unwind$GenerateConfigRequest 000000000001f914     HiiDatabase:ConfigRouting.obj
 0005:00000054       $unwind$GenerateSubStr     000000000001f914     HiiDatabase:ConfigRouting.obj
 0005:00000054       $unwind$FindQuestionDefaultSetting 000000000001f914     HiiDatabase:Database.obj
 0005:00000054       $unwind$RemoveFontPackages 000000000001f914     HiiDatabase:Database.obj
 0005:00000070       $unwind$GetWidth           000000000001f930     HiiDatabase:ConfigKeywordHandler.obj
 0005:00000070       $unwind$AppendToMultiString 000000000001f930     HiiDatabase:ConfigRouting.obj
 0005:00000070       $unwind$ConfigRequestValidate 000000000001f930     HiiDatabase:ConfigRouting.obj
 0005:00000070       $unwind$OffsetWidthValidate 000000000001f930     HiiDatabase:ConfigRouting.obj
 0005:00000070       $unwind$OutputConfigBody   000000000001f930     HiiDatabase:ConfigRouting.obj
 0005:00000070       $unwind$GetCell            000000000001f930     HiiDatabase:Font.obj
 0005:00000070       $unwind$HiiNewImageEx      000000000001f930     HiiDatabase:ImageEx.obj
 0005:00000070       $unwind$HiiSetImageEx      000000000001f930     HiiDatabase:ImageEx.obj
 0005:00000070       $unwind$HiiCompareLanguage 000000000001f930     HiiDatabase:String.obj
 0005:00000070       $unwind$BitFieldWrite32    000000000001f930     BaseLib:BitField.obj
 0005:00000070       $unwind$InternalBaseLibBitFieldOrUint 000000000001f930     BaseLib:BitField.obj
 0005:00000070       $unwind$StrnCmp            000000000001f930     BaseLib:String.obj
 0005:00000070       $unwind$CompareMem         000000000001f930     BaseMemoryLibRepStr:CompareMemWrapper.obj
 0005:00000070       $unwind$CopyMem            000000000001f930     BaseMemoryLibRepStr:CopyMemWrapper.obj
 0005:00000070       $unwind$InternalReallocatePool 000000000001f930     UefiMemoryAllocationLib:MemoryAllocationLib.obj
 0005:00000084       $unwind$GetValueOfNumber   000000000001f944     HiiDatabase:ConfigRouting.obj
 0005:0000009c       $unwind$CompareBlockElementDefault 000000000001f95c     HiiDatabase:ConfigRouting.obj
 0005:000000b4       $unwind$CompareNameElementDefault 000000000001f974     HiiDatabase:ConfigRouting.obj
 0005:000000cc       $unwind$CompareAndMergeDefaultString 000000000001f98c     HiiDatabase:ConfigRouting.obj
 0005:000000e4       $unwind$MergeDefaultString 000000000001f9a4     HiiDatabase:ConfigRouting.obj
 0005:000000fc       $unwind$InternalGetString  000000000001f9bc     HiiDatabase:ConfigRouting.obj
 0005:00000110       $unwind$ExtractKeyword     000000000001f9d0     HiiDatabase:ConfigKeywordHandler.obj
 0005:00000110       $unwind$ExtractValue       000000000001f9d0     HiiDatabase:ConfigKeywordHandler.obj
 0005:00000110       $unwind$GetUnicodeStringTextAndSize 000000000001f9d0     HiiDatabase:ConfigKeywordHandler.obj
 0005:00000110       $unwind$BlockArrayCheck    000000000001f9d0     HiiDatabase:ConfigRouting.obj
 0005:00000110       $unwind$HiiRemovePackageList 000000000001f9d0     HiiDatabase:Database.obj
 0005:00000110       $unwind$GetUnicodeStringTextOrSize 000000000001f9d0     HiiDatabase:String.obj
 0005:00000110       $unwind$HiiGetLanguages    000000000001f9d0     HiiDatabase:String.obj
 0005:00000110       $unwind$HiiGetSecondaryLanguages 000000000001f9d0     HiiDatabase:String.obj
 0005:00000128       $unwind$GetFormPackageData 000000000001f9e8     HiiDatabase:ConfigRouting.obj
 0005:0000013c       $unwind$GetVarStoreType    000000000001f9fc     HiiDatabase:ConfigRouting.obj
 0005:00000154       $unwind$IsThisVarstore     000000000001fa14     HiiDatabase:ConfigRouting.obj
 0005:00000154       $unwind$IsSystemFontInfo   000000000001fa14     HiiDatabase:Font.obj
 0005:00000168       $unwind$IsThisPackageList  000000000001fa28     HiiDatabase:ConfigRouting.obj
 0005:00000180       $unwind$IsThisOpcodeRequired 000000000001fa40     HiiDatabase:ConfigRouting.obj
 0005:00000180       $unwind$RouteConfigRespForEfiVarStore 000000000001fa40     HiiDatabase:ConfigRouting.obj
 0005:00000198       $unwind$ParseIfrData       000000000001fa58     HiiDatabase:ConfigRouting.obj
 0005:000001b0       $unwind$GetBlockElement    000000000001fa70     HiiDatabase:ConfigRouting.obj
 0005:000001c4       $unwind$GetNameElement     000000000001fa84     HiiDatabase:ConfigRouting.obj
 0005:000001c4       $unwind$HiiUpdatePackageList 000000000001fa84     HiiDatabase:Database.obj
 0005:000001e0       $unwind$GenerateHdr        000000000001faa0     HiiDatabase:ConfigRouting.obj
 0005:000001f4       $unwind$UpdateBlockDataArray 000000000001fab4     HiiDatabase:ConfigRouting.obj
 0005:000001f4       $unwind$GenerateHiiDatabaseRecord 000000000001fab4     HiiDatabase:Database.obj
 0005:000001f4       $unwind$NarrowGlyphToBlt   000000000001fab4     HiiDatabase:Font.obj
 0005:000001f4       $unwind$GetImageIdOrAddress 000000000001fab4     HiiDatabase:Image.obj
 0005:000001f4       $unwind$HiiNewImage        000000000001fab4     HiiDatabase:Image.obj
 0005:00000210       $unwind$GenerateAltConfigResp 000000000001fad0     HiiDatabase:ConfigRouting.obj
 0005:00000228       $unwind$GetFullStringFromHiiFormPackages 000000000001fae8     HiiDatabase:ConfigRouting.obj
 0005:00000240       $unwind$ExtractConfigRequest 000000000001fb00     HiiDatabase:ConfigKeywordHandler.obj
 0005:00000240       $unwind$GetConfigRespFromEfiVarStore 000000000001fb00     HiiDatabase:ConfigRouting.obj
 0005:00000258       $unwind$HiiConfigRoutingExtractConfig 000000000001fb18     HiiDatabase:ConfigRouting.obj
 0005:00000270       $unwind$HiiConfigRoutingExportConfig 000000000001fb30     HiiDatabase:ConfigRouting.obj
 0005:00000288       $unwind$HiiConfigRoutingRouteConfig 000000000001fb48     HiiDatabase:ConfigRouting.obj
 0005:00000288       $unwind$HiiGetAltCfg       000000000001fb48     HiiDatabase:ConfigRouting.obj
 0005:000002a0       $unwind$HiiBlockToConfig   000000000001fb60     HiiDatabase:ConfigRouting.obj
 0005:000002b8       $unwind$HiiConfigToBlock   000000000001fb78     HiiDatabase:ConfigRouting.obj
 0005:000002d0       $unwind$ReferFontInfoLocally 000000000001fb90     HiiDatabase:String.obj
 0005:000002ec       $unwind$ExtractFilter      000000000001fbac     HiiDatabase:ConfigKeywordHandler.obj
 0005:000002ec       $unwind$GetRecordFromDevicePath 000000000001fbac     HiiDatabase:ConfigKeywordHandler.obj
 0005:000002ec       $unwind$NewCell            000000000001fbac     HiiDatabase:Font.obj
 0005:000002ec       $unwind$GetStringFontInfo  000000000001fbac     HiiDatabase:String.obj
 0005:00000304       $unwind$FindStringBlock    000000000001fbc4     HiiDatabase:String.obj
 0005:0000031c       $unwind$GetStringWorker    000000000001fbdc     HiiDatabase:String.obj
 0005:00000334       $unwind$InsertLackStringBlock 000000000001fbf4     HiiDatabase:String.obj
 0005:0000034c       $unwind$SetStringWorker    000000000001fc0c     HiiDatabase:String.obj
 0005:0000036c       $unwind$HiiNewString       000000000001fc2c     HiiDatabase:String.obj
 0005:00000384       $unwind$HiiGetString       000000000001fc44     HiiDatabase:String.obj
 0005:0000039c       $unwind$HiiSetString       000000000001fc5c     HiiDatabase:String.obj
 0005:000003b8       $unwind$GetGlyphBuffer     000000000001fc78     HiiDatabase:Font.obj
 0005:000003d0       $unwind$GlyphToBlt         000000000001fc90     HiiDatabase:Font.obj
 0005:000003ec       $unwind$GlyphToImage       000000000001fcac     HiiDatabase:Font.obj
 0005:00000408       $unwind$FindGlyphBlock     000000000001fcc8     HiiDatabase:Font.obj
 0005:00000420       $unwind$GetStringIdFromRecord 000000000001fce0     HiiDatabase:ConfigKeywordHandler.obj
 0005:00000420       $unwind$HiiRegisterPackageNotify 000000000001fce0     HiiDatabase:Database.obj
 0005:00000420       $unwind$GetSystemFont      000000000001fce0     HiiDatabase:Font.obj
 0005:0000043c       $unwind$HiiFindKeyboardLayouts 000000000001fcfc     HiiDatabase:Database.obj
 0005:0000043c       $unwind$IsFontInfoExisted  000000000001fcfc     HiiDatabase:Font.obj
 0005:00000454       $unwind$HiiStringToImage   000000000001fd14     HiiDatabase:Font.obj
 0005:00000470       $unwind$HiiStringIdToImage 000000000001fd30     HiiDatabase:Font.obj
 0005:00000488       $unwind$HiiGetGlyph        000000000001fd48     HiiDatabase:Font.obj
 0005:000004a4       $unwind$HiiGetFontInfo     000000000001fd64     HiiDatabase:Font.obj
 0005:000004bc       $unwind$ConstructRequestElement 000000000001fd7c     HiiDatabase:ConfigKeywordHandler.obj
 0005:000004bc       $unwind$AddDevicePathPackage 000000000001fd7c     HiiDatabase:Database.obj
 0005:000004bc       $unwind$ExportImagePackages 000000000001fd7c     HiiDatabase:Database.obj
 0005:000004bc       $unwind$HiiGetImage        000000000001fd7c     HiiDatabase:Image.obj
 0005:000004bc       $unwind$HiiDrawImageEx     000000000001fd7c     HiiDatabase:ImageEx.obj
 0005:000004bc       $unwind$HiiGetImageEx      000000000001fd7c     HiiDatabase:ImageEx.obj
 0005:000004d0       $unwind$HiiDrawImageId     000000000001fd90     HiiDatabase:Image.obj
 0005:000004d0       $unwind$HiiDrawImageIdEx   000000000001fd90     HiiDatabase:ImageEx.obj
 0005:000004e0       $unwind$LocateHiiImageDecoder 000000000001fda0     HiiDatabase:ImageEx.obj
 0005:000004f4       $unwind$HiiGetImageInfo    000000000001fdb4     HiiDatabase:ImageEx.obj
 0005:00000508       $unwind$Output1bitPixel    000000000001fdc8     HiiDatabase:Image.obj
 0005:00000520       $unwind$Output4bitPixel    000000000001fde0     HiiDatabase:Image.obj
 0005:0000053c       $unwind$Output8bitPixel    000000000001fdfc     HiiDatabase:Image.obj
 0005:00000558       $unwind$ImageToBlt         000000000001fe18     HiiDatabase:Image.obj
 0005:00000574       $unwind$IGetImage          000000000001fe34     HiiDatabase:Image.obj
 0005:0000058c       $unwind$HiiSetImage        000000000001fe4c     HiiDatabase:Image.obj
 0005:000005a4       $unwind$HiiDrawImage       000000000001fe64     HiiDatabase:Image.obj
 0005:000005bc       $unwind$ExtractNameSpace   000000000001fe7c     HiiDatabase:ConfigKeywordHandler.obj
 0005:000005bc       $unwind$StrCatS            000000000001fe7c     BaseLib:SafeString.obj
 0005:000005d8       $unwind$ValidateFilter     000000000001fe98     HiiDatabase:ConfigKeywordHandler.obj
 0005:000005ec       $unwind$GetStringIdFromString 000000000001feac     HiiDatabase:ConfigKeywordHandler.obj
 0005:00000604       $unwind$GetNextStringId    000000000001fec4     HiiDatabase:ConfigKeywordHandler.obj
 0005:0000061c       $unwind$ConstructConfigHdr 000000000001fedc     HiiDatabase:ConfigKeywordHandler.obj
 0005:00000638       $unwind$GetNameFromId      000000000001fef8     HiiDatabase:ConfigKeywordHandler.obj
 0005:00000648       $unwind$ExtractConfigResp  000000000001ff08     HiiDatabase:ConfigKeywordHandler.obj
 0005:00000660       $unwind$ExtractValueFromDriver 000000000001ff20     HiiDatabase:ConfigKeywordHandler.obj
 0005:00000670       $unwind$GetStringIdFromDatabase 000000000001ff30     HiiDatabase:ConfigKeywordHandler.obj
 0005:00000688       $unwind$GenerateKeywordResp 000000000001ff48     HiiDatabase:ConfigKeywordHandler.obj
 0005:000006a4       $unwind$EnumerateAllKeywords 000000000001ff64     HiiDatabase:ConfigKeywordHandler.obj
 0005:000006bc       $unwind$EfiConfigKeywordHandlerSetData 000000000001ff7c     HiiDatabase:ConfigKeywordHandler.obj
 0005:000006d8       $unwind$EfiConfigKeywordHandlerGetData 000000000001ff98     HiiDatabase:ConfigKeywordHandler.obj
 0005:000006f4       $unwind$InvokeRegisteredFunction 000000000001ffb4     HiiDatabase:Database.obj
 0005:0000070c       $unwind$ExportGuidPackages 000000000001ffcc     HiiDatabase:Database.obj
 0005:0000070c       $unwind$ExportKeyboardLayoutPackages 000000000001ffcc     HiiDatabase:Database.obj
 0005:00000720       $unwind$RemoveGuidPackages 000000000001ffe0     HiiDatabase:Database.obj
 0005:00000720       $unwind$RemoveKeyboardLayoutPackages 000000000001ffe0     HiiDatabase:Database.obj
 0005:00000734       $unwind$UpdateDefaultSettingInFormPackage 000000000001fff4     HiiDatabase:Database.obj
 0005:00000750       $unwind$ExportFormPackages 0000000000020010     HiiDatabase:Database.obj
 0005:00000764       $unwind$RemoveFormPackages 0000000000020024     HiiDatabase:Database.obj
 0005:00000764       $unwind$RemoveSimpleFontPackages 0000000000020024     HiiDatabase:Database.obj
 0005:0000077c       $unwind$InsertStringPackage 000000000002003c     HiiDatabase:Database.obj
 0005:00000794       $unwind$AdjustStringPackage 0000000000020054     HiiDatabase:Database.obj
 0005:000007ac       $unwind$ExportFontPackages 000000000002006c     HiiDatabase:Database.obj
 0005:000007ac       $unwind$ExportSimpleFontPackages 000000000002006c     HiiDatabase:Database.obj
 0005:000007ac       $unwind$ExportStringPackages 000000000002006c     HiiDatabase:Database.obj
 0005:000007c4       $unwind$RemoveStringPackages 0000000000020084     HiiDatabase:Database.obj
 0005:000007e0       $unwind$InsertFontPackage  00000000000200a0     HiiDatabase:Database.obj
 0005:000007f8       $unwind$RemoveDevicePathPackage 00000000000200b8     HiiDatabase:Database.obj
 0005:000007f8       $unwind$RemoveImagePackages 00000000000200b8     HiiDatabase:Database.obj
 0005:00000804       $unwind$InsertDevicePathPackage 00000000000200c4     HiiDatabase:Database.obj
 0005:00000818       $unwind$ExportDevicePathPackage 00000000000200d8     HiiDatabase:Database.obj
 0005:00000830       $unwind$AddPackages        00000000000200f0     HiiDatabase:Database.obj
 0005:00000848       $unwind$ExportPackageList  0000000000020108     HiiDatabase:Database.obj
 0005:00000864       $unwind$HiiNewPackageList  0000000000020124     HiiDatabase:Database.obj
 0005:00000880       $unwind$HiiListPackageLists 0000000000020140     HiiDatabase:Database.obj
 0005:00000898       $unwind$HiiExportPackageLists 0000000000020158     HiiDatabase:Database.obj
 0005:000008b0       $unwind$HiiUnregisterPackageNotify 0000000000020170     HiiDatabase:Database.obj
 0005:000008c4       $unwind$HiiGetKeyboardLayout 0000000000020184     HiiDatabase:Database.obj
 0005:000008dc       $unwind$HiiGetPackageListHandle 000000000002019c     HiiDatabase:Database.obj
 0005:000008f0       $unwind$CompareGuid        00000000000201b0     BaseMemoryLibRepStr:MemLibGuid.obj
 0005:00000908       $unwind$StrCpyS            00000000000201c8     BaseLib:SafeString.obj
 0005:00000908       $unwind$UnicodeStrToAsciiStrS 00000000000201c8     BaseLib:SafeString.obj
 0005:00000920       $unwind$StrnCatS           00000000000201e0     BaseLib:SafeString.obj
 0005:0000093c       $unwind$AsciiStrCpyS       00000000000201fc     BaseLib:SafeString.obj
 0005:00000944       $unwind$AsciiStrToUnicodeStrS 0000000000020204     BaseLib:SafeString.obj
 0005:00000958       $unwind$StrHexToUint64     0000000000020218     BaseLib:String.obj
 0005:00000964       $unwind$UnicodeSPrint      0000000000020224     BasePrintLib:PrintLib.obj
 0005:00000970       $unwind$UnicodeValueToStringS 0000000000020230     BasePrintLib:PrintLib.obj
 0005:00000980       $unwind$AsciiSPrint        0000000000020240     BasePrintLib:PrintLib.obj
 0005:00000988       $unwind$BasePrintLibConvertValueToStringS 0000000000020248     BasePrintLib:PrintLibInternal.obj
 0005:000009a0       $unwind$BasePrintLibSPrintMarker 0000000000020260     BasePrintLib:PrintLibInternal.obj
 0005:000009bc       $unwind$TdIoRead8          000000000002027c     BaseIoLibIntrinsicSev:IoLibInternalTdx.obj
 0005:000009bc       $unwind$BasePrintLibSPrint 000000000002027c     BasePrintLib:PrintLibInternal.obj
 0005:000009c4       $unwind$DebugPrint         0000000000020284     BaseDebugLibSerialPort:DebugLib.obj
 0005:000009cc       $unwind$DebugPrintMarker   000000000002028c     BaseDebugLibSerialPort:DebugLib.obj
 0005:000009e0       $unwind$DebugAssert        00000000000202a0     BaseDebugLibSerialPort:DebugLib.obj
 0005:000009e8       $unwind$GetEfiGlobalVariable2 00000000000202a8     UefiLib:UefiLib.obj
 0005:000009f4       $unwind$GetBestLanguage    00000000000202b4     UefiLib:UefiLib.obj
 0005:00000a08       $unwind$TdIoWrite8         00000000000202c8     BaseIoLibIntrinsicSev:IoLibInternalTdx.obj
