 ResetSystemRuntimeDxe

 Timestamp is 6725e4aa (Sat Nov  2 16:36:58 2024)

 Preferred load address is 0000000000000000

 Start         Length     Name                   Class
 0001:00000000 000001d8H .text                   CODE
 0001:000001d8 00002c58H .text$mn                CODE
 0002:00000000 00001650H .rdata                  DATA
 0002:00001650 00000038H .rdata$voltmd           DATA
 0002:00001688 00000180H .rdata$zzzdbg           DATA
 0003:00000000 00000138H .data                   DATA
 0003:00000138 000000a8H .bss                    DATA
 0004:00000000 00000288H .pdata                  DATA
 0005:00000000 0000011cH .xdata                  DATA

  Address         Publics by Value              Rva+Base               Lib:Object

 0000:00000000       __x64_code_ranges_to_entry_points_count 0000000000000000     <absolute>
 0000:00000000       __guard_iat_table          0000000000000000     <absolute>
 0000:00000000       __guard_longjmp_table      0000000000000000     <absolute>
 0000:00000000       __x64_code_ranges_to_entry_points 0000000000000000     <absolute>
 0000:00000000       __guard_fids_count         0000000000000000     <absolute>
 0000:00000000       __guard_iat_count          0000000000000000     <absolute>
 0000:00000000       __guard_longjmp_count      0000000000000000     <absolute>
 0000:00000000       __dynamic_value_reloc_table 0000000000000000     <absolute>
 0000:00000000       __arm64x_extra_rfe_table   0000000000000000     <absolute>
 0000:00000000       __hybrid_auxiliary_iat     0000000000000000     <absolute>
 0000:00000000       __hybrid_code_map_count    0000000000000000     <absolute>
 0000:00000000       __hybrid_auxiliary_iat_copy 0000000000000000     <absolute>
 0000:00000000       __arm64x_redirection_metadata 0000000000000000     <absolute>
 0000:00000000       __hybrid_code_map          0000000000000000     <absolute>
 0000:00000000       __arm64x_extra_rfe_table_size 0000000000000000     <absolute>
 0000:00000000       __AbsoluteZero             0000000000000000     <absolute>
 0000:00000000       __guard_check_icall_a64n_fptr 0000000000000000     <absolute>
 0000:00000000       __guard_fids_table         0000000000000000     <absolute>
 0000:00000000       __guard_flags              0000000000000000     <absolute>
 0000:00000000       __guard_eh_cont_count      0000000000000000     <absolute>
 0000:00000000       __arm64x_native_entrypoint 0000000000000000     <absolute>
 0000:00000000       __arm64x_redirection_metadata_count 0000000000000000     <absolute>
 0000:00000000       __enclave_config           0000000000000000     <absolute>
 0000:00000000       __guard_eh_cont_table      0000000000000000     <absolute>
 0001:00000000       InternalMemSetMem          00000000000002c0     BaseMemoryLibRepStr:SetMem.obj
 0001:00000020       InternalMemCopyMem         00000000000002e0     BaseMemoryLibRepStr:CopyMem.obj
 0001:00000060       InternalMemZeroMem         0000000000000320     BaseMemoryLibRepStr:ZeroMem.obj
 0001:00000080       InternalMemSetMem64        0000000000000340     BaseMemoryLibRepStr:SetMem64.obj
 0001:000000a0       InternalMemSetMem32        0000000000000360     BaseMemoryLibRepStr:SetMem32.obj
 0001:000000c0       CpuPause                   0000000000000380     BaseLib:CpuPause.obj
 0001:000000d0       TdVmCall                   0000000000000390     BaseLib:TdVmcall.obj
 0001:00000150       EnableInterrupts           0000000000000410     BaseLib:EnableInterrupts.obj
 0001:00000160       DisableInterrupts          0000000000000420     BaseLib:DisableInterrupts.obj
 0001:00000170       AsmReadEflags              0000000000000430     BaseLib:ReadEflags.obj
 0001:00000180       TdCall                     0000000000000440     BaseLib:TdCall.obj
 0001:000001d8       _ModuleEntryPoint          0000000000000498 f   UefiDriverEntryPoint:DriverEntryPoint.obj
 0001:00000200       ProcessLibraryConstructorList 00000000000004c0 f   ResetSystemRuntimeDxe:AutoGen.obj
 0001:000007f4       ProcessLibraryDestructorList 0000000000000ab4 f   ResetSystemRuntimeDxe:AutoGen.obj
 0001:00000978       ProcessModuleEntryPointList 0000000000000c38 f   ResetSystemRuntimeDxe:AutoGen.obj
 0001:00000a7c       RegisterResetNotify        0000000000000d3c f   ResetSystemRuntimeDxe:ResetSystem.obj
 0001:00000b98       UnregisterResetNotify      0000000000000e58 f   ResetSystemRuntimeDxe:ResetSystem.obj
 0001:00000c6c       RuntimeServiceResetSystem  0000000000000f2c f   ResetSystemRuntimeDxe:ResetSystem.obj
 0001:00000ee4       InternalBaseLibIsListValid 00000000000011a4 f   BaseLib:LinkedList.obj
 0001:00000f50       InsertTailList             0000000000001210 f   BaseLib:LinkedList.obj
 0001:00000fa4       GetFirstNode               0000000000001264 f   BaseLib:LinkedList.obj
 0001:00000fd8       GetNextNode                0000000000001298 f   BaseLib:LinkedList.obj
 0001:0000100c       IsNull                     00000000000012cc f   BaseLib:LinkedList.obj
 0001:00001050       RemoveEntryList            0000000000001310 f   BaseLib:LinkedList.obj
 0001:000010b8       DebugPrint                 0000000000001378 f   BaseDebugLibSerialPort:DebugLib.obj
 0001:000010dc       DebugPrintMarker           000000000000139c f   BaseDebugLibSerialPort:DebugLib.obj
 0001:00001168       DebugAssert                0000000000001428 f   BaseDebugLibSerialPort:DebugLib.obj
 0001:000011c0       InternalAllocatePool       0000000000001480 f   UefiMemoryAllocationLib:MemoryAllocationLib.obj
 0001:000011f8       FreePool                   00000000000014b8 f   UefiMemoryAllocationLib:MemoryAllocationLib.obj
 0001:0000123c       GetHobList                 00000000000014fc f   DxeHobLib:HobLib.obj
 0001:0000131c       RuntimeLibExitBootServicesEvent 00000000000015dc f   UefiRuntimeLib:RuntimeLib.obj
 0001:00001324       RuntimeLibVirtualNotifyEvent 00000000000015e4 f   UefiRuntimeLib:RuntimeLib.obj
 0001:00001338       ResetShutdown              00000000000015f8 f   DxeResetSystemLib:DxeResetShutdown.obj
 0001:000013b8       ResetCold                  0000000000001678 f   DxeResetSystemLib:ResetSystemLib.obj
 0001:00001414       InternalGetReportStatusCode 00000000000016d4 f   RuntimeDxeReportStatusCodeLib:ReportStatusCodeLib.obj
 0001:00001474       ReportStatusCodeLibVirtualAddressChange 0000000000001734 f   RuntimeDxeReportStatusCodeLib:ReportStatusCodeLib.obj
 0001:0000149c       ReportStatusCodeLibExitBootServices 000000000000175c f   RuntimeDxeReportStatusCodeLib:ReportStatusCodeLib.obj
 0001:000014b4       ReportStatusCode           0000000000001774 f   RuntimeDxeReportStatusCodeLib:ReportStatusCodeLib.obj
 0001:000014f8       GetPcdProtocol             00000000000017b8 f   DxePcdLib:DxePcdLib.obj
 0001:00001584       CompareGuid                0000000000001844 f   BaseMemoryLibRepStr:MemLibGuid.obj
 0001:00001648       AsciiStrLen                0000000000001908 f   BaseLib:String.obj
 0001:000016b4       CpuDeadLoop                0000000000001974 f   BaseLib:CpuDeadLoop.obj
 0001:000016e4       StrnLenS                   00000000000019a4 f   BaseLib:SafeString.obj
 0001:0000173c       IoRead8                    00000000000019fc f   BaseIoLibIntrinsicSev:IoLibMsc.obj
 0001:00001760       IoRead16                   0000000000001a20 f   BaseIoLibIntrinsicSev:IoLibMsc.obj
 0001:000017ac       IoWrite16                  0000000000001a6c f   BaseIoLibIntrinsicSev:IoLibMsc.obj
 0001:00001808       IoRead32                   0000000000001ac8 f   BaseIoLibIntrinsicSev:IoLibMsc.obj
 0001:00001850       IoWrite32                  0000000000001b10 f   BaseIoLibIntrinsicSev:IoLibMsc.obj
 0001:0000187c       IsTdxGuest                 0000000000001b3c f   BaseIoLibIntrinsicSev:IoLibInternalTdx.obj
 0001:000018a8       TdIoRead8                  0000000000001b68 f   BaseIoLibIntrinsicSev:IoLibInternalTdx.obj
 0001:00001900       TdIoRead16                 0000000000001bc0 f   BaseIoLibIntrinsicSev:IoLibInternalTdx.obj
 0001:00001974       TdIoRead32                 0000000000001c34 f   BaseIoLibIntrinsicSev:IoLibInternalTdx.obj
 0001:000019e8       TdIoWrite8                 0000000000001ca8 f   BaseIoLibIntrinsicSev:IoLibInternalTdx.obj
 0001:00001a38       TdIoWrite16                0000000000001cf8 f   BaseIoLibIntrinsicSev:IoLibInternalTdx.obj
 0001:00001ab4       TdIoWrite32                0000000000001d74 f   BaseIoLibIntrinsicSev:IoLibInternalTdx.obj
 0001:00001b08       MmioRead32                 0000000000001dc8 f   BaseIoLibIntrinsicSev:IoLib.obj
 0001:00001b7c       AsciiSPrint                0000000000001e3c f   BasePrintLib:PrintLib.obj
 0001:00001ba8       BasePrintLibFillBuffer     0000000000001e68 f   BasePrintLib:PrintLibInternal.obj
 0001:00001bdc       BasePrintLibValueToString  0000000000001e9c f   BasePrintLib:PrintLibInternal.obj
 0001:00001c2c       BasePrintLibSPrintMarker   0000000000001eec f   BasePrintLib:PrintLibInternal.obj
 0001:00002b38       BasePrintLibSPrint         0000000000002df8 f   BasePrintLib:PrintLibInternal.obj
 0001:00002b5c       SerialPortWrite            0000000000002e1c f   PcAtSerialPortLib:SerialPortLib.obj
 0001:00002bcc       PciExpressRead32           0000000000002e8c f   BasePciExpressLib:PciExpressLib.obj
 0001:00002c1c       PciCf8Read32               0000000000002edc f   BasePciCf8Lib:PciCf8Lib.obj
 0001:00002cb8       InternalAcpiDelay          0000000000002f78 f   DxeAcpiTimerLib:AcpiTimerLib.obj
 0001:00002d1c       DivU64x32Remainder         0000000000002fdc f   BaseLib:DivU64x32Remainder.obj
 0001:00002d7c       SaveAndDisableInterrupts   000000000000303c f   BaseLib:Cpu.obj
 0001:00002da0       GetTdInfo                  0000000000003060 f   TdxLib:TdInfo.obj
 0001:00002e04       TdSharedPageMask           00000000000030c4 f   TdxLib:TdInfo.obj
 0002:00000000       ??_C@_0CB@DMEJJJHA@?6ASSERT_EFI_ERROR?5?$CIStatus?5?$DN?5?$CFr?$CJ@ 0000000000003100     UefiDriverEntryPoint:DriverEntryPoint.obj
 0002:00000028       ??_C@_0CH@BBNBJKHK@?$CB?$CI?$CI?$CIINTN?$CJ?$CIRETURN_STATUS?$CJ?$CIStatus@ 0000000000003128     UefiDriverEntryPoint:DriverEntryPoint.obj
 0002:00000050       ??_C@_0BG@HIEKLKEP@ResetSystemRuntimeDxe@ 0000000000003150     ResetSystemRuntimeDxe:AutoGen.obj
 0002:00000068       ??_C@_0CE@IBFOBMLB@?6ASSERT_RETURN_ERROR?5?$CIStatus?5?$DN?5@ 0000000000003168     ResetSystemRuntimeDxe:AutoGen.obj
 0002:00000090       ??_C@_0JK@GEPCMGDD@d?3?2uefi_specs_personal_collecti@ 0000000000003190     ResetSystemRuntimeDxe:AutoGen.obj
 0002:00000130       ??_C@_19KLEBDGEI@?$AAC?$AAo?$AAl?$AAd@ 0000000000003230     ResetSystemRuntimeDxe:ResetSystem.obj
 0002:00000140       ??_C@_19NEFKCJIJ@?$AAW?$AAa?$AAr?$AAm@ 0000000000003240     ResetSystemRuntimeDxe:ResetSystem.obj
 0002:00000150       ??_C@_1BC@PJIHBPJH@?$AAS?$AAh?$AAu?$AAt?$AAd?$AAo?$AAw?$AAn@ 0000000000003250     ResetSystemRuntimeDxe:ResetSystem.obj
 0002:00000168       ??_C@_1CC@ILBHFEOF@?$AAP?$AAl?$AAa?$AAt?$AAf?$AAo?$AAr?$AAm?$AAS?$AAp?$AAe?$AAc?$AAi?$AAf?$AAi@ 0000000000003268     ResetSystemRuntimeDxe:ResetSystem.obj
 0002:00000190       ??_C@_0BF@NDBIKIKC@CR?5has?5Bad?5Signature@ 0000000000003290     ResetSystemRuntimeDxe:ResetSystem.obj
 0002:000001b0       ??_C@_0GD@PNCEJMFM@D?3?2uefi_specs_personal_collecti@ 00000000000032b0     ResetSystemRuntimeDxe:ResetSystem.obj
 0002:00000218       ??_C@_0CI@GFKMOIKI@IsNull?5?$CI?$CGInstance?9?$DOResetNotifie@ 0000000000003318     ResetSystemRuntimeDxe:ResetSystem.obj
 0002:00000240       ??_C@_0DJ@CCAELAAB@?$CGgEfiResetArchProtocolGuid?5alre@ 0000000000003340     ResetSystemRuntimeDxe:ResetSystem.obj
 0002:00000280       ??_C@_0DC@CPDEEBO@DXE?5ResetSystem2?3?5ResetType?5?$CFs?0@ 0000000000003380     ResetSystemRuntimeDxe:ResetSystem.obj
 0002:000002b8       ??_C@_0CB@HPLICMKJ@DXE?5ResetSystem2?3?5ResetData?3?5?$CFs@ 00000000000033b8     ResetSystemRuntimeDxe:ResetSystem.obj
 0002:000002e0       ??_C@_0ED@NIHMCMIK@ResetType?5?$DM?5?$CIsizeof?5?$CImResetType@ 00000000000033e0     ResetSystemRuntimeDxe:ResetSystem.obj
 0002:00000330       ??_C@_0FE@HJAKCOHP@DXE?5ResetSystem2?3?5Maximum?5reset@ 0000000000003430     ResetSystemRuntimeDxe:ResetSystem.obj
 0002:00000388       ??_C@_0BC@FEDIJHFF@?$CI?$CIBOOLEAN?$CJ?$CI0?$DN?$DN1?$CJ?$CJ@ 0000000000003488     ResetSystemRuntimeDxe:ResetSystem.obj
 0002:000003a0       mResetTypeStr              00000000000034a0     ResetSystemRuntimeDxe:ResetSystem.obj
 0002:000003c0       ??_C@_0BF@NJNGJMPC@List?5?$CB?$DN?5?$CI?$CIvoid?5?$CK?$CJ?50?$CJ@ 00000000000034c0     BaseLib:LinkedList.obj
 0002:000003e0       ??_C@_0EM@NCJPOFNN@D?3?2uefi_specs_personal_collecti@ 00000000000034e0     BaseLib:LinkedList.obj
 0002:00000430       ??_C@_0CC@KDLPLAED@List?9?$DOForwardLink?5?$CB?$DN?5?$CI?$CIvoid?5?$CK?$CJ?5@ 0000000000003530     BaseLib:LinkedList.obj
 0002:00000458       ??_C@_0BP@IJJCCMAK@List?9?$DOBackLink?5?$CB?$DN?5?$CI?$CIvoid?5?$CK?$CJ?50?$CJ@ 0000000000003558     BaseLib:LinkedList.obj
 0002:00000478       ??_C@_0CG@LGIALJFK@InternalBaseLibIsListValid?5?$CILis@ 0000000000003578     BaseLib:LinkedList.obj
 0002:000004a0       ??_C@_0CC@JLDICICM@InternalBaseLibIsListValid?5?$CILis@ 00000000000035a0     BaseLib:LinkedList.obj
 0002:000004c8       ??_C@_0BF@NMBJJECB@?$CBIsListEmpty?5?$CIEntry?$CJ@ 00000000000035c8     BaseLib:LinkedList.obj
 0002:000004e0       ??_C@_0BH@LKMBFCBF@Format?5?$CB?$DN?5?$CI?$CIvoid?5?$CK?$CJ?50?$CJ@ 00000000000035e0     BaseDebugLibSerialPort:DebugLib.obj
 0002:00000500       ??_C@_0FJ@BNNHJMAJ@D?3?2uefi_specs_personal_collecti@ 0000000000003600     BaseDebugLibSerialPort:DebugLib.obj
 0002:00000560       ??_C@_0BI@NOCKJDBJ@ASSERT?5?$FL?$CFa?$FN?5?$CFa?$CI?$CFd?$CJ?3?5?$CFa?6@ 0000000000003660     BaseDebugLibSerialPort:DebugLib.obj
 0002:00000578       ??_C@_0BH@IACGKAP@Buffer?5?$CB?$DN?5?$CI?$CIvoid?5?$CK?$CJ?50?$CJ@ 0000000000003678     BaseDebugLibSerialPort:DebugLib.obj
 0002:00000590       ??_C@_0BN@COECPDCC@gImageHandle?5?$CB?$DN?5?$CI?$CIvoid?5?$CK?$CJ?50?$CJ@ 0000000000003690     UefiBootServicesTableLib:UefiBootServicesTableLib.obj
 0002:000005b0       ??_C@_0GL@PJCPJLGM@D?3?2uefi_specs_personal_collecti@ 00000000000036b0     UefiBootServicesTableLib:UefiBootServicesTableLib.obj
 0002:00000620       ??_C@_0BE@DGNHAHIL@gST?5?$CB?$DN?5?$CI?$CIvoid?5?$CK?$CJ?50?$CJ@ 0000000000003720     UefiBootServicesTableLib:UefiBootServicesTableLib.obj
 0002:00000638       ??_C@_0BE@BDFJLGLN@gBS?5?$CB?$DN?5?$CI?$CIvoid?5?$CK?$CJ?50?$CJ@ 0000000000003738     UefiBootServicesTableLib:UefiBootServicesTableLib.obj
 0002:00000650       ??_C@_0GF@KMHDEKMA@D?3?2uefi_specs_personal_collecti@ 0000000000003750     UefiMemoryAllocationLib:MemoryAllocationLib.obj
 0002:000006c0       ??_C@_0GP@HEOOPGAM@D?3?2uefi_specs_personal_collecti@ 00000000000037c0     UefiDevicePathLibDevicePathProtocol:UefiDevicePathLib.obj
 0002:00000730       ??_C@_0DC@CNNBPJA@mDevicePathLibDevicePathUtiliti@ 0000000000003830     UefiDevicePathLibDevicePathProtocol:UefiDevicePathLib.obj
 0002:00000768       ??_C@_0BE@OBDFIHND@gRT?5?$CB?$DN?5?$CI?$CIvoid?5?$CK?$CJ?50?$CJ@ 0000000000003868     UefiRuntimeServicesTableLib:UefiRuntimeServicesTableLib.obj
 0002:00000780       ??_C@_0HB@NCAPNEDO@D?3?2uefi_specs_personal_collecti@ 0000000000003880     UefiRuntimeServicesTableLib:UefiRuntimeServicesTableLib.obj
 0002:00000800       ??_C@_0EK@CGIIDOCH@D?3?2uefi_specs_personal_collecti@ 0000000000003900     DxeHobLib:HobLib.obj
 0002:00000850       ??_C@_0BJ@OBFMLLDO@mHobList?5?$CB?$DN?5?$CI?$CIvoid?5?$CK?$CJ?50?$CJ@ 0000000000003950     DxeHobLib:HobLib.obj
 0002:00000870       ??_C@_0BJ@NOLLDKJB@HobStart?5?$CB?$DN?5?$CI?$CIvoid?5?$CK?$CJ?50?$CJ@ 0000000000003970     DxeHobLib:HobLib.obj
 0002:00000890       ??_C@_0BP@LHBKJBMC@PlatformInfoHob?5is?5not?5found?4?6@ 0000000000003990     DxeAcpiTimerLib:DxeAcpiTimerLib.obj
 0002:000008b0       ??_C@_0FH@PGONMIHN@D?3?2uefi_specs_personal_collecti@ 00000000000039b0     DxeAcpiTimerLib:DxeAcpiTimerLib.obj
 0002:00000908       ??_C@_0BI@HAGPDMHJ@AcpiTimerLibConstructor@ 0000000000003a08     DxeAcpiTimerLib:DxeAcpiTimerLib.obj
 0002:00000920       ??_C@_0CL@DGCOIACG@?$CFa?3?5Unknown?5Host?5Bridge?5Device?5@ 0000000000003a20     DxeAcpiTimerLib:DxeAcpiTimerLib.obj
 0002:00000950       ??_C@_0FD@PFFCCHBO@D?3?2uefi_specs_personal_collecti@ 0000000000003a50     UefiRuntimeLib:RuntimeLib.obj
 0002:000009b0       ??_C@_0FK@KIDPKNPG@D?3?2uefi_specs_personal_collecti@ 0000000000003ab0     DxeResetSystemLib:DxeResetShutdown.obj
 0002:00000a10       ??_C@_0HB@CFAEHNAK@D?3?2uefi_specs_personal_collecti@ 0000000000003b10     RuntimeDxeReportStatusCodeLib:ReportStatusCodeLib.obj
 0002:00000a90       ??_C@_0EN@ENFGNHA@D?3?2uefi_specs_personal_collecti@ 0000000000003b90     DxePcdLib:DxePcdLib.obj
 0002:00000ae0       ??_C@_0BF@OOKDELHM@mPcd?5?$CB?$DN?5?$CI?$CIvoid?5?$CK?$CJ?50?$CJ@ 0000000000003be0     DxePcdLib:DxePcdLib.obj
 0002:00000af8       ??_C@_0BH@MAAHKCPC@String?5?$CB?$DN?5?$CI?$CIvoid?5?$CK?$CJ?50?$CJ@ 0000000000003bf8     BaseLib:String.obj
 0002:00000b10       ??_C@_0EI@LOLLHGDK@D?3?2uefi_specs_personal_collecti@ 0000000000003c10     BaseLib:String.obj
 0002:00000b58       ??_C@_0CC@GFNLNIOC@?$CI?$CIUINTN?$CJString?5?$CG?50x00000001?$CJ?5?$DN?$DN@ 0000000000003c58     BaseLib:String.obj
 0002:00000b80       ??_C@_0DI@MDIKFADO@Length?5?$DM?5_gPcd_FixedAtBuild_Pcd@ 0000000000003c80     BaseLib:String.obj
 0002:00000bc0       ??_C@_0EL@GLNKFHII@D?3?2uefi_specs_personal_collecti@ 0000000000003cc0     BaseLib:Unaligned.obj
 0002:00000c10       ??_C@_0EM@OAPOMMAE@D?3?2uefi_specs_personal_collecti@ 0000000000003d10     BaseLib:SafeString.obj
 0002:00000c60       ??_C@_0BJ@CNKJJNE@?$CIBuffer?5?$CB?$DN?5?$CI?$CIvoid?5?$CK?$CJ?50?$CJ?$CJ@ 0000000000003d60     BaseLib:SafeString.obj
 0002:00000c80       ??_C@_0N@KGHEHMDL@Divisor?5?$CB?$DN?50@ 0000000000003d80     BaseLib:DivU64x32.obj
 0002:00000c90       ??_C@_0BA@DAGHIEBA@?$CIPort?5?$CG?51?$CJ?5?$DN?$DN?50@ 0000000000003d90     BaseIoLibIntrinsicSev:IoLibMsc.obj
 0002:00000ca0       ??_C@_0FF@GCKLFLDF@D?3?2uefi_specs_personal_collecti@ 0000000000003da0     BaseIoLibIntrinsicSev:IoLibMsc.obj
 0002:00000cf8       ??_C@_0BA@HCECIDGN@?$CIPort?5?$CG?53?$CJ?5?$DN?$DN?50@ 0000000000003df8     BaseIoLibIntrinsicSev:IoLibMsc.obj
 0002:00000d10       ??_C@_0FN@DOAHIAPG@D?3?2uefi_specs_personal_collecti@ 0000000000003e10     BaseIoLibIntrinsicSev:IoLibInternalTdx.obj
 0002:00000d70       ??_C@_0BD@OMMAJMCK@?$CIAddress?5?$CG?53?$CJ?5?$DN?$DN?50@ 0000000000003e70     BaseIoLibIntrinsicSev:IoLibInternalTdx.obj
 0002:00000d90       ??_C@_0FC@MAJHMCGF@D?3?2uefi_specs_personal_collecti@ 0000000000003e90     BaseIoLibIntrinsicSev:IoLib.obj
 0002:00000df0       ??_C@_0FH@MODEAFEI@D?3?2uefi_specs_personal_collecti@ 0000000000003ef0     BasePrintLib:PrintLibInternal.obj
 0002:00000e50       ??_C@_0EB@HDGIDCIO@?$CIBufferSize?5?$DM?$DN?5?$CI_gPcd_FixedAtBu@ 0000000000003f50     BasePrintLib:PrintLibInternal.obj
 0002:00000e98       ??_C@_0BJ@PPAKKDJG@?$CIFormat?5?$CB?$DN?5?$CI?$CIvoid?5?$CK?$CJ?50?$CJ?$CJ@ 0000000000003f98     BasePrintLib:PrintLibInternal.obj
 0002:00000ec0       ??_C@_0ED@LPDDCECB@?$CIBufferSize?5?$DM?$DN?5?$CI_gPcd_FixedAtBu@ 0000000000003fc0     BasePrintLib:PrintLibInternal.obj
 0002:00000f10       ??_C@_0IM@BFJJFLGB@?$CIStrnLenS?5?$CI?$CICHAR16?5?$CK?$CJFormat?0?5?$CI_@ 0000000000004010     BasePrintLib:PrintLibInternal.obj
 0002:00000fa0       ??_C@_0ID@PLGJGION@?$CIAsciiStrnLenS?5?$CIFormat?0?5?$CI_gPcd_@ 00000000000040a0     BasePrintLib:PrintLibInternal.obj
 0002:00001028       ??_C@_0O@MLOLIMFM@?$DMnull?5string?$DO@ 0000000000004128     BasePrintLib:PrintLibInternal.obj
 0002:00001038       ??_C@_0M@BJJDNPHK@?$DMnull?5guid?$DO@ 0000000000004138     BasePrintLib:PrintLibInternal.obj
 0002:00001048       ??_C@_0DB@PMLHLBMO@?$CF08x?9?$CF04x?9?$CF04x?9?$CF02x?$CF02x?9?$CF02x?$CF02@ 0000000000004148     BasePrintLib:PrintLibInternal.obj
 0002:00001080       ??_C@_0M@LHGBCIKM@?$DMnull?5time?$DO@ 0000000000004180     BasePrintLib:PrintLibInternal.obj
 0002:00001090       ??_C@_0BK@FCPKCIDD@?$CF02d?1?$CF02d?1?$CF04d?5?5?$CF02d?3?$CF02d@ 0000000000004190     BasePrintLib:PrintLibInternal.obj
 0002:000010ac       ??_C@_04JIMNDDED@?$CF08X@  00000000000041ac     BasePrintLib:PrintLibInternal.obj
 0002:000010b4       ??_C@_02PCIJFNDE@?$AN?6@   00000000000041b4     BasePrintLib:PrintLibInternal.obj
 0002:000010b8       ??_C@_01LIIJDEN@?$AN@      00000000000041b8     BasePrintLib:PrintLibInternal.obj
 0002:000010c0       mWarningString             00000000000041c0     BasePrintLib:PrintLibInternal.obj
 0002:00001190       mErrorString               0000000000004290     BasePrintLib:PrintLibInternal.obj
 0002:00001470       mHexStr                    0000000000004570     BasePrintLib:PrintLibInternal.obj
 0002:00001480       ??_C@_0BO@BAKALPJK@?$CI?$CIAddress?$CJ?5?$CG?5?$HO0xfffffff?$CJ?5?$DN?$DN?50@ 0000000000004580     BasePciExpressLib:PciExpressLib.obj
 0002:000014a0       ??_C@_0FJ@LPMKGGAK@D?3?2uefi_specs_personal_collecti@ 00000000000045a0     BasePciExpressLib:PciExpressLib.obj
 0002:00001500       ??_C@_0FB@PDIKDBMH@D?3?2uefi_specs_personal_collecti@ 0000000000004600     BasePciCf8Lib:PciCf8Lib.obj
 0002:00001558       ??_C@_0CG@EDKLCMBO@?$CI?$CIAddress?$CJ?5?$CG?5?$CI?$HO0xffff0ff?5?$HM?5?$CI3?$CJ?$CJ@ 0000000000004658     BasePciCf8Lib:PciCf8Lib.obj
 0002:00001580       ??_C@_0FE@LIGPAOFO@D?3?2uefi_specs_personal_collecti@ 0000000000004680     BaseLib:DivU64x32Remainder.obj
 0002:000015d8       ??_C@_0CB@GEABOFIF@Failed?5call?5TDCALL_TDINFO?4?5?$CFllx@ 00000000000046d8     TdxLib:TdInfo.obj
 0002:00001650       __volatile_metadata        0000000000004750     <linker-defined>
 0003:00000000       gEfiResetArchProtocolGuid  0000000000004920     ResetSystemRuntimeDxe:AutoGen.obj
 0003:00000010       gEfiStatusCodeRuntimeProtocolGuid 0000000000004930     ResetSystemRuntimeDxe:AutoGen.obj
 0003:00000020       gEdkiiPlatformSpecificResetFilterProtocolGuid 0000000000004940     ResetSystemRuntimeDxe:AutoGen.obj
 0003:00000030       gPcdProtocolGuid           0000000000004950     ResetSystemRuntimeDxe:AutoGen.obj
 0003:00000040       gEfiResetNotificationProtocolGuid 0000000000004960     ResetSystemRuntimeDxe:AutoGen.obj
 0003:00000050       gUefiOvmfPkgPlatformInfoGuid 0000000000004970     ResetSystemRuntimeDxe:AutoGen.obj
 0003:00000060       gEfiDevicePathUtilitiesProtocolGuid 0000000000004980     ResetSystemRuntimeDxe:AutoGen.obj
 0003:00000070       gEfiHobListGuid            0000000000004990     ResetSystemRuntimeDxe:AutoGen.obj
 0003:00000080       gEfiEventExitBootServicesGuid 00000000000049a0     ResetSystemRuntimeDxe:AutoGen.obj
 0003:00000090       gEfiEventVirtualAddressChangeGuid 00000000000049b0     ResetSystemRuntimeDxe:AutoGen.obj
 0003:000000a0       gEdkiiPlatformSpecificResetHandlerProtocolGuid 00000000000049c0     ResetSystemRuntimeDxe:AutoGen.obj
 0003:000000b0       gEfiCallerIdGuid           00000000000049d0     ResetSystemRuntimeDxe:AutoGen.obj
 0003:000000c0       mPlatformSpecificResetHandler 00000000000049e0     ResetSystemRuntimeDxe:ResetSystem.obj
 0003:000000e8       mPlatformSpecificResetFilter 0000000000004a08     ResetSystemRuntimeDxe:ResetSystem.obj
 0003:00000110       mResetNotification         0000000000004a30     ResetSystemRuntimeDxe:ResetSystem.obj
 0003:00000138       mResetNotifyDepth          0000000000004a58     ResetSystemRuntimeDxe:ResetSystem.obj
 0003:00000148       gST                        0000000000004a68     UefiBootServicesTableLib:UefiBootServicesTableLib.obj
 0003:00000150       gBS                        0000000000004a70     UefiBootServicesTableLib:UefiBootServicesTableLib.obj
 0003:00000158       gImageHandle               0000000000004a78     UefiBootServicesTableLib:UefiBootServicesTableLib.obj
 0003:00000160       mDevicePathLibDevicePathUtilities 0000000000004a80     UefiDevicePathLibDevicePathProtocol:UefiDevicePathLib.obj
 0003:00000168       gRT                        0000000000004a88     UefiRuntimeServicesTableLib:UefiRuntimeServicesTableLib.obj
 0003:00000170       mHobList                   0000000000004a90     DxeHobLib:HobLib.obj
 0003:00000178       mEfiAtRuntime              0000000000004a98     UefiRuntimeLib:RuntimeLib.obj
 0003:00000179       mHaveExitedBootServices    0000000000004a99     RuntimeDxeReportStatusCodeLib:ReportStatusCodeLib.obj
 0003:00000180       mReportStatusCodeLibStatusCodeProtocol 0000000000004aa0     RuntimeDxeReportStatusCodeLib:ReportStatusCodeLib.obj
 0003:00000188       mPcd                       0000000000004aa8     DxePcdLib:DxePcdLib.obj
 0003:00000198       gParity                    0000000000004ab8     PcAtSerialPortLib:SerialPortLib.obj
 0003:00000199       gBreakSet                  0000000000004ab9     PcAtSerialPortLib:SerialPortLib.obj
 0003:0000019a       mTdDataReturned            0000000000004aba     TdxLib:TdInfo.obj
 0003:000001a0       mTdSharedPageMask          0000000000004ac0     TdxLib:TdInfo.obj
 0003:000001b8       mReportStatusCodeLibVirtualAddressChangeEvent 0000000000004ad8     <common>
 0003:000001c0       mReportStatusCodeLibExitBootServicesEvent 0000000000004ae0     <common>
 0003:000001c8       mEfiVirtualNotifyEvent     0000000000004ae8     <common>
 0003:000001d0       mInternalRT                0000000000004af0     <common>
 0003:000001d8       mEfiExitBootServicesEvent  0000000000004af8     <common>

 entry point at        0001:000001d8

 Static symbols

 0001:0000003a       InternalMemCopyMem.0       00000000000002fa     BaseMemoryLibRepStr:CopyMem.obj
 0001:0000004a       @CopyBackward              000000000000030a     BaseMemoryLibRepStr:CopyMem.obj
 0001:00000053       @CopyBytes                 0000000000000313     BaseMemoryLibRepStr:CopyMem.obj
 0001:00000129       TdVmCall.no_return_data    00000000000003e9     BaseLib:TdVmcall.obj
 0001:000001cb       TdCall.exit                000000000000048b     BaseLib:TdCall.obj
 0003:00000140       mCcProbeGuestType          0000000000004a60     DxeCcProbeLib:DxeCcProbeLib.obj
 0003:00000141       mCcProbed                  0000000000004a61     DxeCcProbeLib:DxeCcProbeLib.obj
 0003:00000190       mDeadLoopComparator        0000000000004ab0     BaseLib:CpuDeadLoop.obj
 0003:000001a8       mRunningOnQ35              0000000000004ac8     DxePciLibI440FxQ35:PciLib.obj
 0003:000001ac       mAcpiTimerIoAddr           0000000000004acc     DxeAcpiTimerLib:DxeAcpiTimerLib.obj
 0003:000001b0       mAcpiHwReducedSleepCtl     0000000000004ad0     DxeResetSystemLib:DxeResetShutdown.obj
 0003:000001b4       mAcpiPmBaseAddress         0000000000004ad4     DxeResetSystemLib:DxeResetShutdown.obj
 0005:00000000       $unwind$InternalGetReportStatusCode 0000000000004da0     RuntimeDxeReportStatusCodeLib:ReportStatusCodeLib.obj
 0005:00000000       $unwind$IoRead16           0000000000004da0     BaseIoLibIntrinsicSev:IoLibMsc.obj
 0005:00000000       $unwind$IoRead32           0000000000004da0     BaseIoLibIntrinsicSev:IoLibMsc.obj
 0005:00000000       $unwind$IoWrite32          0000000000004da0     BaseIoLibIntrinsicSev:IoLibMsc.obj
 0005:00000000       $unwind$SaveAndDisableInterrupts 0000000000004da0     BaseLib:Cpu.obj
 0005:00000000       $unwind$GetFirstNode       0000000000004da0     BaseLib:LinkedList.obj
 0005:00000000       $unwind$GetNextNode        0000000000004da0     BaseLib:LinkedList.obj
 0005:00000000       $unwind$InternalBaseLibIsListValid 0000000000004da0     BaseLib:LinkedList.obj
 0005:00000000       $unwind$RemoveEntryList    0000000000004da0     BaseLib:LinkedList.obj
 0005:00000000       $unwind$StrnLenS           0000000000004da0     BaseLib:SafeString.obj
 0005:00000000       $unwind$PciExpressRead32   0000000000004da0     BasePciExpressLib:PciExpressLib.obj
 0005:00000000       $unwind$_ModuleEntryPoint  0000000000004da0     UefiDriverEntryPoint:DriverEntryPoint.obj
 0005:00000000       $unwind$ResetShutdown      0000000000004da0     DxeResetSystemLib:DxeResetShutdown.obj
 0005:00000008       $unwind$ProcessLibraryConstructorList 0000000000004da8     ResetSystemRuntimeDxe:AutoGen.obj
 0005:00000020       $unwind$ProcessLibraryDestructorList 0000000000004dc0     ResetSystemRuntimeDxe:AutoGen.obj
 0005:00000020       $unwind$UnregisterResetNotify 0000000000004dc0     ResetSystemRuntimeDxe:ResetSystem.obj
 0005:00000034       $unwind$ProcessModuleEntryPointList 0000000000004dd4     ResetSystemRuntimeDxe:AutoGen.obj
 0005:0000003c       $unwind$RegisterResetNotify 0000000000004ddc     ResetSystemRuntimeDxe:ResetSystem.obj
 0005:0000003c       $unwind$DivU64x32Remainder 0000000000004ddc     BaseLib:DivU64x32Remainder.obj
 0005:0000003c       $unwind$PciCf8Read32       0000000000004ddc     BasePciCf8Lib:PciCf8Lib.obj
 0005:0000003c       $unwind$GetHobList         0000000000004ddc     DxeHobLib:HobLib.obj
 0005:0000003c       $unwind$InternalAcpiDelay  0000000000004ddc     DxeAcpiTimerLib:AcpiTimerLib.obj
 0005:0000003c       $unwind$SerialPortWrite    0000000000004ddc     PcAtSerialPortLib:SerialPortLib.obj
 0005:0000004c       $unwind$RuntimeServiceResetSystem 0000000000004dec     ResetSystemRuntimeDxe:ResetSystem.obj
 0005:00000068       $unwind$IoWrite16          0000000000004e08     BaseIoLibIntrinsicSev:IoLibMsc.obj
 0005:00000068       $unwind$InsertTailList     0000000000004e08     BaseLib:LinkedList.obj
 0005:00000068       $unwind$IsNull             0000000000004e08     BaseLib:LinkedList.obj
 0005:00000068       $unwind$AsciiStrLen        0000000000004e08     BaseLib:String.obj
 0005:00000074       $unwind$DebugPrint         0000000000004e14     BaseDebugLibSerialPort:DebugLib.obj
 0005:0000007c       $unwind$DebugPrintMarker   0000000000004e1c     BaseDebugLibSerialPort:DebugLib.obj
 0005:00000090       $unwind$DebugAssert        0000000000004e30     BaseDebugLibSerialPort:DebugLib.obj
 0005:00000098       $unwind$InternalAllocatePool 0000000000004e38     UefiMemoryAllocationLib:MemoryAllocationLib.obj
 0005:000000a0       $unwind$ReportStatusCodeLibExitBootServices 0000000000004e40     RuntimeDxeReportStatusCodeLib:ReportStatusCodeLib.obj
 0005:000000a0       $unwind$ReportStatusCodeLibVirtualAddressChange 0000000000004e40     RuntimeDxeReportStatusCodeLib:ReportStatusCodeLib.obj
 0005:000000a0       $unwind$IoRead8            0000000000004e40     BaseIoLibIntrinsicSev:IoLibMsc.obj
 0005:000000a0       $unwind$CpuDeadLoop        0000000000004e40     BaseLib:CpuDeadLoop.obj
 0005:000000a0       $unwind$GetPcdProtocol     0000000000004e40     DxePcdLib:DxePcdLib.obj
 0005:000000a0       $unwind$TdSharedPageMask   0000000000004e40     TdxLib:TdInfo.obj
 0005:000000a0       $unwind$FreePool           0000000000004e40     UefiMemoryAllocationLib:MemoryAllocationLib.obj
 0005:000000a0       $unwind$ResetCold          0000000000004e40     DxeResetSystemLib:ResetSystemLib.obj
 0005:000000a8       $unwind$ReportStatusCode   0000000000004e48     RuntimeDxeReportStatusCodeLib:ReportStatusCodeLib.obj
 0005:000000b0       $unwind$CompareGuid        0000000000004e50     BaseMemoryLibRepStr:MemLibGuid.obj
 0005:000000c8       $unwind$TdIoRead8          0000000000004e68     BaseIoLibIntrinsicSev:IoLibInternalTdx.obj
 0005:000000c8       $unwind$BasePrintLibSPrint 0000000000004e68     BasePrintLib:PrintLibInternal.obj
 0005:000000d0       $unwind$MmioRead32         0000000000004e70     BaseIoLibIntrinsicSev:IoLib.obj
 0005:000000d0       $unwind$TdIoRead16         0000000000004e70     BaseIoLibIntrinsicSev:IoLibInternalTdx.obj
 0005:000000d0       $unwind$TdIoRead32         0000000000004e70     BaseIoLibIntrinsicSev:IoLibInternalTdx.obj
 0005:000000d0       $unwind$TdIoWrite32        0000000000004e70     BaseIoLibIntrinsicSev:IoLibInternalTdx.obj
 0005:000000d0       $unwind$TdIoWrite8         0000000000004e70     BaseIoLibIntrinsicSev:IoLibInternalTdx.obj
 0005:000000d8       $unwind$TdIoWrite16        0000000000004e78     BaseIoLibIntrinsicSev:IoLibInternalTdx.obj
 0005:000000e4       $unwind$AsciiSPrint        0000000000004e84     BasePrintLib:PrintLib.obj
 0005:000000ec       $unwind$BasePrintLibValueToString 0000000000004e8c     BasePrintLib:PrintLibInternal.obj
 0005:000000f8       $unwind$BasePrintLibSPrintMarker 0000000000004e98     BasePrintLib:PrintLibInternal.obj
 0005:00000114       $unwind$GetTdInfo          0000000000004eb4     TdxLib:TdInfo.obj
