 BootScriptExecutorDxe

 Timestamp is 6725e4a6 (Sat Nov  2 16:36:54 2024)

 Preferred load address is 0000000000000000

 Start         Length     Name                   Class
 0001:00000000 00001a98H .text                   CODE
 0001:00001a98 0000bb89H .text$mn                CODE
 0002:00000000 00004308H .rdata                  DATA
 0002:00004308 000001b8H .rdata$voltmd           DATA
 0002:000044c0 00000184H .rdata$zzzdbg           DATA
 0003:00000000 00000180H .data                   DATA
 0003:00000180 00006978H .bss                    DATA
 0004:00000000 00000798H .pdata                  DATA
 0005:00000000 000004ecH .xdata                  DATA

  Address         Publics by Value              Rva+Base               Lib:Object

 0000:00000000       __arm64x_redirection_metadata 0000000000000000     <absolute>
 0000:00000000       __x64_code_ranges_to_entry_points_count 0000000000000000     <absolute>
 0000:00000000       __guard_iat_count          0000000000000000     <absolute>
 0000:00000000       __guard_longjmp_count      0000000000000000     <absolute>
 0000:00000000       __dynamic_value_reloc_table 0000000000000000     <absolute>
 0000:00000000       __hybrid_auxiliary_iat     0000000000000000     <absolute>
 0000:00000000       __hybrid_auxiliary_iat_copy 0000000000000000     <absolute>
 0000:00000000       __guard_iat_table          0000000000000000     <absolute>
 0000:00000000       __guard_longjmp_table      0000000000000000     <absolute>
 0000:00000000       __x64_code_ranges_to_entry_points 0000000000000000     <absolute>
 0000:00000000       __AbsoluteZero             0000000000000000     <absolute>
 0000:00000000       __guard_fids_count         0000000000000000     <absolute>
 0000:00000000       __guard_check_icall_a64n_fptr 0000000000000000     <absolute>
 0000:00000000       __arm64x_extra_rfe_table   0000000000000000     <absolute>
 0000:00000000       __guard_fids_table         0000000000000000     <absolute>
 0000:00000000       __hybrid_code_map          0000000000000000     <absolute>
 0000:00000000       __arm64x_extra_rfe_table_size 0000000000000000     <absolute>
 0000:00000000       __arm64x_redirection_metadata_count 0000000000000000     <absolute>
 0000:00000000       __enclave_config           0000000000000000     <absolute>
 0000:00000000       __guard_eh_cont_table      0000000000000000     <absolute>
 0000:00000000       __guard_flags              0000000000000000     <absolute>
 0000:00000000       __guard_eh_cont_count      0000000000000000     <absolute>
 0000:00000000       __arm64x_native_entrypoint 0000000000000000     <absolute>
 0000:00000000       __hybrid_code_map_count    0000000000000000     <absolute>
 0000:00000000       __ImageBase                0000000000000000     <linker-defined>
 0001:00000000       AsmTransferControl         00000000000002c0     BootScriptExecutorDxe:S3Asm.obj
 0001:00000059       AsmTransferControl32       0000000000000319     BootScriptExecutorDxe:S3Asm.obj
 0001:0000005e       AsmFixAddress16            000000000000031e     BootScriptExecutorDxe:S3Asm.obj
 0001:00000066       AsmTransferControl16       0000000000000326     BootScriptExecutorDxe:S3Asm.obj
 0001:00000083       AsmJmpAddr32               0000000000000343     BootScriptExecutorDxe:S3Asm.obj
 0001:00000087       PageFaultHandlerHook       0000000000000347     BootScriptExecutorDxe:S3Asm.obj
 0001:00000120       AsmWbinvd                  00000000000003e0     BaseLib:Wbinvd.obj
 0001:00000130       AsmCpuid                   00000000000003f0     BaseLib:CpuId.obj
 0001:00000160       AsmReadCr3                 0000000000000420     BaseLib:ReadCr3.obj
 0001:00000170       AsmReadCr2                 0000000000000430     BaseLib:ReadCr2.obj
 0001:00000180       AsmReadCs                  0000000000000440     BaseLib:ReadCs.obj
 0001:00000190       AsmFlushCacheLine          0000000000000450     BaseLib:FlushCacheLine.obj
 0001:000001a0       AsmInvd                    0000000000000460     BaseLib:Invd.obj
 0001:000001b0       InternalX86DisablePaging64 0000000000000470     BaseLib:DisablePaging64.obj
 0001:00000220       InternalX86ReadIdtr        00000000000004e0     BaseLib:ReadIdtr.obj
 0001:00000230       InternalSwitchStack        00000000000004f0     BaseLib:SwitchStack.obj
 0001:00000240       CpuPause                   0000000000000500     BaseLib:CpuPause.obj
 0001:00000250       InternalX86WriteIdtr       0000000000000510     BaseLib:WriteIdtr.obj
 0001:00000260       InternalMemZeroMem         0000000000000520     BaseMemoryLibRepStr:ZeroMem.obj
 0001:000014b4       CommonInterruptEntry       0000000000001774     DxeCpuExceptionHandlerLib:ExceptionHandlerAsm.obj
 0001:000016ea       AsmGetTemplateAddressMap   00000000000019aa     DxeCpuExceptionHandlerLib:ExceptionHandlerAsm.obj
 0001:00001708       AsmVectorNumFixup          00000000000019c8     DxeCpuExceptionHandlerLib:ExceptionHandlerAsm.obj
 0001:00001710       TdVmCallCpuid              00000000000019d0     CcExitLib:TdVmcallCpuid.obj
 0001:000017a0       AsmWriteTr                 0000000000001a60     BaseLib:WriteTr.obj
 0001:000017b0       AsmCpuidEx                 0000000000001a70     BaseLib:CpuIdEx.obj
 0001:000017e0       TdVmCall                   0000000000001aa0     BaseLib:TdVmcall.obj
 0001:00001860       EnableInterrupts           0000000000001b20     BaseLib:EnableInterrupts.obj
 0001:00001870       DisableInterrupts          0000000000001b30     BaseLib:DisableInterrupts.obj
 0001:00001880       TdCall                     0000000000001b40     BaseLib:TdCall.obj
 0001:000018e0       AsmXGetBv                  0000000000001ba0     BaseLib:XGetBv.obj
 0001:000018f0       AsmReadCr4                 0000000000001bb0     BaseLib:ReadCr4.obj
 0001:00001900       AsmVmgExit                 0000000000001bc0     BaseLib:VmgExit.obj
 0001:00001910       InternalX86WriteGdtr       0000000000001bd0     BaseLib:WriteGdtr.obj
 0001:00001920       InternalX86ReadGdtr        0000000000001be0     BaseLib:ReadGdtr.obj
 0001:00001930       AsmReadEflags              0000000000001bf0     BaseLib:ReadEflags.obj
 0001:00001940       InternalMemCopyMem         0000000000001c00     BaseMemoryLibRepStr:CopyMem.obj
 0001:00001980       InternalMemSetMem          0000000000001c40     BaseMemoryLibRepStr:SetMem.obj
 0001:000019a0       InternalMemSetMem64        0000000000001c60     BaseMemoryLibRepStr:SetMem64.obj
 0001:000019c0       InternalMemSetMem32        0000000000001c80     BaseMemoryLibRepStr:SetMem32.obj
 0001:000019e0       AsmRmpAdjust               0000000000001ca0     BaseLib:RmpAdjust.obj
 0001:000019f0       AsmVmgExitSvsm             0000000000001cb0     BaseLib:VmgExitSvsm.obj
 0001:00001a50       AsmPvalidate               0000000000001d10     BaseLib:Pvalidate.obj
 0001:00001a70       AsmReadCr0                 0000000000001d30     BaseLib:ReadCr0.obj
 0001:00001a80       AsmWriteCr0                0000000000001d40     BaseLib:WriteCr0.obj
 0001:00001a90       AsmWriteCr3                0000000000001d50     BaseLib:WriteCr3.obj
 0001:00001a98       _ModuleEntryPoint          0000000000001d58 f   UefiDriverEntryPoint:DriverEntryPoint.obj
 0001:00001ac0       ProcessLibraryConstructorList 0000000000001d80 f   BootScriptExecutorDxe:AutoGen.obj
 0001:00001f50       ProcessLibraryDestructorList 0000000000002210 f   BootScriptExecutorDxe:AutoGen.obj
 0001:00001f90       S3BootScriptExecutorEntryFunction 0000000000002250 f   BootScriptExecutorDxe:ScriptExecute.obj
 0001:0000222c       ReadyToLockEventNotify     00000000000024ec f   BootScriptExecutorDxe:ScriptExecute.obj
 0001:00002580       BootScriptExecutorEntryPoint 0000000000002840 f   BootScriptExecutorDxe:ScriptExecute.obj
 0001:000027ac       HookPageFaultHandler       0000000000002a6c f   BootScriptExecutorDxe:SetIdtEntry.obj
 0001:000028c4       AcquirePage                0000000000002b84 f   BootScriptExecutorDxe:SetIdtEntry.obj
 0001:00002950       PageFaultHandler           0000000000002c10 f   BootScriptExecutorDxe:SetIdtEntry.obj
 0001:00002a74       AsmDisablePaging64         0000000000002d34 f   BaseLib:X86DisablePaging64.obj
 0001:00002b00       SwitchStack                0000000000002dc0 f   BaseLib:SwitchStack.obj
 0001:00002bb4       CpuDeadLoop                0000000000002e74 f   BaseLib:CpuDeadLoop.obj
 0001:00002be4       LShiftU64                  0000000000002ea4 f   BaseLib:LShiftU64.obj
 0001:00002c28       BitFieldRead64             0000000000002ee8 f   BaseLib:BitField.obj
 0001:00002cac       RShiftU64                  0000000000002f6c f   BaseLib:RShiftU64.obj
 0001:00002cf0       ZeroMem                    0000000000002fb0 f   BaseMemoryLibRepStr:ZeroMemWrapper.obj
 0001:00002d60       GetPcdProtocol             0000000000003020 f   DxePcdLib:DxePcdLib.obj
 0001:00002dec       DebugPrint                 00000000000030ac f   BaseDebugLibSerialPort:DebugLib.obj
 0001:00002e10       DebugPrintMarker           00000000000030d0 f   BaseDebugLibSerialPort:DebugLib.obj
 0001:00002e9c       DebugAssert                000000000000315c f   BaseDebugLibSerialPort:DebugLib.obj
 0001:00002ef4       EfiGetSystemConfigurationTable 00000000000031b4 f   UefiLib:UefiLib.obj
 0001:00002fb8       EfiCreateProtocolNotifyEvent 0000000000003278 f   UefiLib:UefiLib.obj
 0001:000030cc       GetHobList                 000000000000338c f   DxeHobLib:HobLib.obj
 0001:00003150       AllocateAcpiNvsPool        0000000000003410 f   LockBoxDxeLib:LockBoxDxe.obj
 0001:00003284       SaveLockBox                0000000000003544 f   LockBoxDxeLib:LockBoxLib.obj
 0001:00003374       SetLockBoxAttributes       0000000000003634 f   LockBoxDxeLib:LockBoxLib.obj
 0001:000033e4       RestoreLockBox             00000000000036a4 f   LockBoxDxeLib:LockBoxLib.obj
 0001:0000345c       S3BootScriptInternalCloseTable 000000000000371c f   DxeS3BootScriptLib:BootScriptSave.obj
 0001:000034b8       SaveBootScriptDataToLockBox 0000000000003778 f   DxeS3BootScriptLib:BootScriptSave.obj
 0001:000035d4       S3BootScriptEventCallBack  0000000000003894 f   DxeS3BootScriptLib:BootScriptSave.obj
 0001:00003620       S3BootScriptSmmEventCallBack 00000000000038e0 f   DxeS3BootScriptLib:BootScriptSave.obj
 0001:00003678       SaveSmmPriviateDataToLockBoxAtRuntime 0000000000003938 f   DxeS3BootScriptLib:BootScriptSave.obj
 0001:0000371c       S3BootScriptSmmAtRuntimeCallBack 00000000000039dc f   DxeS3BootScriptLib:BootScriptSave.obj
 0001:000037d8       S3BootScriptLibInitialize  0000000000003a98 f   DxeS3BootScriptLib:BootScriptSave.obj
 0001:00003b18       S3BootScriptLibDeinitialize 0000000000003dd8 f   DxeS3BootScriptLib:BootScriptSave.obj
 0001:00003d9c       InternalSmbusExecute       000000000000405c f   DxeS3BootScriptLib:BootScriptExecute.obj
 0001:00004284       BuildLoopData              0000000000004544 f   DxeS3BootScriptLib:BootScriptExecute.obj
 0001:000042d8       ScriptIoRead               0000000000004598 f   DxeS3BootScriptLib:BootScriptExecute.obj
 0001:0000447c       ScriptIoWrite              000000000000473c f   DxeS3BootScriptLib:BootScriptExecute.obj
 0001:0000471c       ScriptMemoryRead           00000000000049dc f   DxeS3BootScriptLib:BootScriptExecute.obj
 0001:000048b8       ScriptMemoryWrite          0000000000004b78 f   DxeS3BootScriptLib:BootScriptExecute.obj
 0001:00004b18       ScriptPciCfg2Read          0000000000004dd8 f   DxeS3BootScriptLib:BootScriptExecute.obj
 0001:00004cc8       ScriptPciCfg2Write         0000000000004f88 f   DxeS3BootScriptLib:BootScriptExecute.obj
 0001:00004f1c       BootScriptExecutePciCfgWrite 00000000000051dc f   DxeS3BootScriptLib:BootScriptExecute.obj
 0001:00004fdc       BootScriptExecutePciCfgReadWrite 000000000000529c f   DxeS3BootScriptLib:BootScriptExecute.obj
 0001:000050c0       BootScriptExecuteMemPoll   0000000000005380 f   DxeS3BootScriptLib:BootScriptExecute.obj
 0001:00005198       CheckAndOrMask             0000000000005458 f   DxeS3BootScriptLib:BootScriptExecute.obj
 0001:00005248       BootScriptExecuteIoPoll    0000000000005508 f   DxeS3BootScriptLib:BootScriptExecute.obj
 0001:0000531c       BootScriptExecutePciCfg2Write 00000000000055dc f   DxeS3BootScriptLib:BootScriptExecute.obj
 0001:00005400       BootScriptExecutePciCfg2ReadWrite 00000000000056c0 f   DxeS3BootScriptLib:BootScriptExecute.obj
 0001:00005548       BootScriptPciCfgPoll       0000000000005808 f   DxeS3BootScriptLib:BootScriptExecute.obj
 0001:0000566c       BootScriptPciCfg2Poll      000000000000592c f   DxeS3BootScriptLib:BootScriptExecute.obj
 0001:000057e4       S3BootScriptExecute        0000000000005aa4 f   DxeS3BootScriptLib:BootScriptExecute.obj
 0001:00005f88       PeCoffLoaderGetPeHeader    0000000000006248 f   BasePeCoffLib:BasePeCoff.obj
 0001:00006498       PeCoffLoaderGetImageInfo   0000000000006758 f   BasePeCoffLib:BasePeCoff.obj
 0001:00006878       PeCoffLoaderRelocateImage  0000000000006b38 f   BasePeCoffLib:BasePeCoff.obj
 0001:00006b70       PeCoffLoaderLoadImage      0000000000006e30 f   BasePeCoffLib:BasePeCoff.obj
 0001:00007158       PeCoffLoaderImageReadFromMemory 0000000000007418 f   BasePeCoffLib:BasePeCoff.obj
 0001:000071f8       InternalImageHandleToFvHandle 00000000000074b8 f   DxeServicesLib:DxeServicesLib.obj
 0001:00007280       InternalGetSectionFromFv   0000000000007540 f   DxeServicesLib:DxeServicesLib.obj
 0001:00007354       GetSectionFromAnyFv        0000000000007614 f   DxeServicesLib:DxeServicesLib.obj
 0001:0000744c       CommonExceptionHandler     000000000000770c f   DxeCpuExceptionHandlerLib:DxeException.obj
 0001:00007454       CommonExceptionHandlerWorker 0000000000007714 f   DxeCpuExceptionHandlerLib:PeiDxeSmmCpuException.obj
 0001:000076c8       UpdateIdtTable             0000000000007988 f   DxeCpuExceptionHandlerLib:PeiDxeSmmCpuException.obj
 0001:000077e8       DumpCpuContext             0000000000007aa8 f   DxeCpuExceptionHandlerLib:ArchExceptionHandler.obj
 0001:00007acc       InternalPrintMessage       0000000000007d8c f   DxeCpuExceptionHandlerLib:CpuExceptionCommon.obj
 0001:00007b2c       DumpModuleImageInfo        0000000000007dec f   DxeCpuExceptionHandlerLib:CpuExceptionCommon.obj
 0001:00007c60       AccessMsrTdxCall           0000000000007f20 f   BaseXApicX2ApicLib:BaseXApicX2ApicLib.obj
 0001:00007d7c       LocalApicReadMsrReg64      000000000000803c f   BaseXApicX2ApicLib:BaseXApicX2ApicLib.obj
 0001:00007de8       LocalApicBaseAddressMsrSupported 00000000000080a8 f   BaseXApicX2ApicLib:BaseXApicX2ApicLib.obj
 0001:00007e24       GetLocalApicBaseAddress    00000000000080e4 f   BaseXApicX2ApicLib:BaseXApicX2ApicLib.obj
 0001:00007e60       ReadLocalApicReg           0000000000008120 f   BaseXApicX2ApicLib:BaseXApicX2ApicLib.obj
 0001:00007e90       GetApicMode                0000000000008150 f   BaseXApicX2ApicLib:BaseXApicX2ApicLib.obj
 0001:00007ee0       GetApicId                  00000000000081a0 f   BaseXApicX2ApicLib:BaseXApicX2ApicLib.obj
 0001:00007f98       CcExitHandleVc             0000000000008258 f   CcExitLib:PeiDxeCcExitVcHandler.obj
 0001:00008960       CcExitHandleVe             0000000000008c20 f   CcExitLib:CcExitVeHandler.obj
 0001:0000a094       InternalVmgExitHandleVc    000000000000a354 f   CcExitLib:CcExitVcHandler.obj
 0001:0000a3d4       CcGetRegisterPointer       000000000000a694 f   CcExitLib:CcInstruction.obj
 0001:0000a654       CcDecodeModRm              000000000000a914 f   CcExitLib:CcInstruction.obj
 0001:0000a758       CcInitInstructionData      000000000000aa18 f   CcExitLib:CcInstruction.obj
 0001:0000a884       CcExitVmgExit              000000000000ab44 f   CcExitLib:CcExitLib.obj
 0001:0000a970       FreePool                   000000000000ac30 f   UefiMemoryAllocationLib:MemoryAllocationLib.obj
 0001:0000a9b4       IoRead8                    000000000000ac74 f   BaseIoLibIntrinsicSev:IoLibMsc.obj
 0001:0000a9d8       IoRead16                   000000000000ac98 f   BaseIoLibIntrinsicSev:IoLibMsc.obj
 0001:0000aa24       IoWrite16                  000000000000ace4 f   BaseIoLibIntrinsicSev:IoLibMsc.obj
 0001:0000aa80       IoRead32                   000000000000ad40 f   BaseIoLibIntrinsicSev:IoLibMsc.obj
 0001:0000aac8       IoWrite32                  000000000000ad88 f   BaseIoLibIntrinsicSev:IoLibMsc.obj
 0001:0000ab20       IoRead64                   000000000000ade0 f   BaseIoLibIntrinsicSev:IoLib.obj
 0001:0000ab44       MmioRead8                  000000000000ae04 f   BaseIoLibIntrinsicSev:IoLib.obj
 0001:0000ab9c       MmioWrite8                 000000000000ae5c f   BaseIoLibIntrinsicSev:IoLib.obj
 0001:0000ac00       MmioRead16                 000000000000aec0 f   BaseIoLibIntrinsicSev:IoLib.obj
 0001:0000ac78       MmioWrite16                000000000000af38 f   BaseIoLibIntrinsicSev:IoLib.obj
 0001:0000ad18       MmioRead32                 000000000000afd8 f   BaseIoLibIntrinsicSev:IoLib.obj
 0001:0000ad8c       MmioWrite32                000000000000b04c f   BaseIoLibIntrinsicSev:IoLib.obj
 0001:0000ae28       MmioRead64                 000000000000b0e8 f   BaseIoLibIntrinsicSev:IoLib.obj
 0001:0000ae94       MmioWrite64                000000000000b154 f   BaseIoLibIntrinsicSev:IoLib.obj
 0001:0000af34       IsTdxGuest                 000000000000b1f4 f   BaseIoLibIntrinsicSev:IoLibInternalTdx.obj
 0001:0000af60       TdIoRead8                  000000000000b220 f   BaseIoLibIntrinsicSev:IoLibInternalTdx.obj
 0001:0000afb0       TdIoRead16                 000000000000b270 f   BaseIoLibIntrinsicSev:IoLibInternalTdx.obj
 0001:0000b024       TdIoRead32                 000000000000b2e4 f   BaseIoLibIntrinsicSev:IoLibInternalTdx.obj
 0001:0000b098       TdIoWrite8                 000000000000b358 f   BaseIoLibIntrinsicSev:IoLibInternalTdx.obj
 0001:0000b0e8       TdIoWrite16                000000000000b3a8 f   BaseIoLibIntrinsicSev:IoLibInternalTdx.obj
 0001:0000b164       TdIoWrite32                000000000000b424 f   BaseIoLibIntrinsicSev:IoLibInternalTdx.obj
 0001:0000b1e0       AsciiStrLen                000000000000b4a0 f   BaseLib:String.obj
 0001:0000b24c       SaveAndDisableInterrupts   000000000000b50c f   BaseLib:Cpu.obj
 0001:0000b270       StrnLenS                   000000000000b530 f   BaseLib:SafeString.obj
 0001:0000b2c8       CopyMem                    000000000000b588 f   BaseMemoryLibRepStr:CopyMemWrapper.obj
 0001:0000b364       SetMem                     000000000000b624 f   BaseMemoryLibRepStr:SetMemWrapper.obj
 0001:0000b3c8       CopyGuid                   000000000000b688 f   BaseMemoryLibRepStr:MemLibGuid.obj
 0001:0000b478       CompareGuid                000000000000b738 f   BaseMemoryLibRepStr:MemLibGuid.obj
 0001:0000b53c       AsciiSPrint                000000000000b7fc f   BasePrintLib:PrintLib.obj
 0001:0000b568       BasePrintLibFillBuffer     000000000000b828 f   BasePrintLib:PrintLibInternal.obj
 0001:0000b59c       BasePrintLibValueToString  000000000000b85c f   BasePrintLib:PrintLibInternal.obj
 0001:0000b5ec       BasePrintLibSPrintMarker   000000000000b8ac f   BasePrintLib:PrintLibInternal.obj
 0001:0000c4f8       BasePrintLibSPrint         000000000000c7b8 f   BasePrintLib:PrintLibInternal.obj
 0001:0000c51c       SerialPortInitialize       000000000000c7dc f   PcAtSerialPortLib:SerialPortLib.obj
 0001:0000c5dc       SerialPortWrite            000000000000c89c f   PcAtSerialPortLib:SerialPortLib.obj
 0001:0000c654       PciExpressRead8            000000000000c914 f   BasePciExpressLib:PciExpressLib.obj
 0001:0000c6a4       PciExpressWrite8           000000000000c964 f   BasePciExpressLib:PciExpressLib.obj
 0001:0000c700       PciExpressRead16           000000000000c9c0 f   BasePciExpressLib:PciExpressLib.obj
 0001:0000c750       PciExpressWrite16          000000000000ca10 f   BasePciExpressLib:PciExpressLib.obj
 0001:0000c7ac       PciExpressRead32           000000000000ca6c f   BasePciExpressLib:PciExpressLib.obj
 0001:0000c7fc       PciExpressWrite32          000000000000cabc f   BasePciExpressLib:PciExpressLib.obj
 0001:0000c854       PciCf8Read8                000000000000cb14 f   BasePciCf8Lib:PciCf8Lib.obj
 0001:0000c90c       PciCf8Write8               000000000000cbcc f   BasePciCf8Lib:PciCf8Lib.obj
 0001:0000c9ec       PciCf8Read16               000000000000ccac f   BasePciCf8Lib:PciCf8Lib.obj
 0001:0000caa4       PciCf8Write16              000000000000cd64 f   BasePciCf8Lib:PciCf8Lib.obj
 0001:0000cb70       PciCf8Read32               000000000000ce30 f   BasePciCf8Lib:PciCf8Lib.obj
 0001:0000cc1c       PciCf8Write32              000000000000cedc f   BasePciCf8Lib:PciCf8Lib.obj
 0001:0000ccdc       InternalAcpiDelay          000000000000cf9c f   DxeAcpiTimerLib:AcpiTimerLib.obj
 0001:0000cd40       MicroSecondDelay           000000000000d000 f   DxeAcpiTimerLib:AcpiTimerLib.obj
 0001:0000cd74       PciSegmentRead8            000000000000d034 f   BasePciSegmentLibPci:PciSegmentLib.obj
 0001:0000cdc0       PciSegmentWrite8           000000000000d080 f   BasePciSegmentLibPci:PciSegmentLib.obj
 0001:0000ce18       PciSegmentRead16           000000000000d0d8 f   BasePciSegmentLibPci:PciSegmentLib.obj
 0001:0000ce64       PciSegmentWrite16          000000000000d124 f   BasePciSegmentLibPci:PciSegmentLib.obj
 0001:0000cebc       PciSegmentRead32           000000000000d17c f   BasePciSegmentLibPci:PciSegmentLib.obj
 0001:0000cf08       PciSegmentWrite32          000000000000d1c8 f   BasePciSegmentLibPci:PciSegmentLib.obj
 0001:0000cf5c       SmBusQuickRead             000000000000d21c f   BaseSmbusLibNull:BaseSmbusLibNull.obj
 0001:0000d010       SmBusQuickWrite            000000000000d2d0 f   BaseSmbusLibNull:BaseSmbusLibNull.obj
 0001:0000d0c4       AcquireSpinLockOrFail      000000000000d384 f   BaseSynchronizationLib:SynchronizationMsc.obj
 0001:0000d144       ReleaseSpinLock            000000000000d404 f   BaseSynchronizationLib:SynchronizationMsc.obj
 0001:0000d1b4       PeCoffLoaderGetPdbPointer  000000000000d474 f   BasePeCoffGetEntryPointLib:PeCoffGetEntryPoint.obj
 0001:0000d358       InternalMemEncryptSevGetAddressRangeState 000000000000d618 f   DxeMemEncryptSevLib:VirtualMemory.obj
 0001:0000d534       GetTdInfo                  000000000000d7f4 f   TdxLib:TdInfo.obj
 0001:0000d598       TdSharedPageMask           000000000000d858 f   TdxLib:TdInfo.obj
 0001:0000d5c4       DivU64x32Remainder         000000000000d884 f   BaseLib:DivU64x32Remainder.obj
 0002:00000000       ??_C@_0CB@DMEJJJHA@?6ASSERT_EFI_ERROR?5?$CIStatus?5?$DN?5?$CFr?$CJ@ 000000000000d900     UefiDriverEntryPoint:DriverEntryPoint.obj
 0002:00000028       ??_C@_0CH@BBNBJKHK@?$CB?$CI?$CI?$CIINTN?$CJ?$CIRETURN_STATUS?$CJ?$CIStatus@ 000000000000d928     UefiDriverEntryPoint:DriverEntryPoint.obj
 0002:00000050       ??_C@_0BG@JCIOPOAJ@BootScriptExecutorDxe@ 000000000000d950     BootScriptExecutorDxe:AutoGen.obj
 0002:00000068       ??_C@_0CE@IBFOBMLB@?6ASSERT_RETURN_ERROR?5?$CIStatus?5?$DN?5@ 000000000000d968     BootScriptExecutorDxe:AutoGen.obj
 0002:00000090       ??_C@_0JP@MMMCICGN@d?3?2uefi_specs_personal_collecti@ 000000000000d990     BootScriptExecutorDxe:AutoGen.obj
 0002:00000130       ??_C@_0GK@LFPHBMAK@D?3?2uefi_specs_personal_collecti@ 000000000000da30     BootScriptExecutorDxe:ScriptExecute.obj
 0002:000001a0       ??_C@_0DI@LOHDKIDM@Call?5SwitchStack?$CI?$CJ?5to?5return?5to@ 000000000000daa0     BootScriptExecutorDxe:ScriptExecute.obj
 0002:000001d8       ??_C@_0DJ@OCODLJGH@Transfer?5from?564bit?5DXE?5to?564bi@ 000000000000dad8     BootScriptExecutorDxe:ScriptExecute.obj
 0002:00000218       ??_C@_0BC@FEDIJHFF@?$CI?$CIBOOLEAN?$CJ?$CI0?$DN?$DN1?$CJ?$CJ@ 000000000000db18     BootScriptExecutorDxe:ScriptExecute.obj
 0002:00000230       ??_C@_0CK@KECEMKCP@Transfer?5to?532bit?5OS?5waking?5vec@ 000000000000db30     BootScriptExecutorDxe:ScriptExecute.obj
 0002:00000260       ??_C@_0CK@ILILGOOO@Transfer?5to?516bit?5OS?5waking?5vec@ 000000000000db60     BootScriptExecutorDxe:ScriptExecute.obj
 0002:00000290       ??_C@_0CB@BLFCJBIC@ReadyToLockEvent?5?$CB?$DN?5?$CI?$CIvoid?5?$CK?$CJ?50@ 000000000000db90     BootScriptExecutorDxe:ScriptExecute.obj
 0002:000002b8       ??_C@_0CK@NPKGAHLB@BootScript?5?9?5PageFaultHandler?3?5@ 000000000000dbb8     BootScriptExecutorDxe:SetIdtEntry.obj
 0002:000002e8       ??_C@_0DJ@EPHLDLOO@?$CILength?5?9?51?$CJ?5?$DM?$DN?5?$CI0xFFFFFFFFFFFF@ 000000000000dbe8     BaseCacheMaintenanceLib:X86Cache.obj
 0002:00000330       ??_C@_0FK@NPNBOPHL@D?3?2uefi_specs_personal_collecti@ 000000000000dc30     BaseCacheMaintenanceLib:X86Cache.obj
 0002:00000390       ??_C@_0BA@BDDFCMFO@EntryPoint?5?$CB?$DN?50@ 000000000000dc90     BaseLib:X86DisablePaging64.obj
 0002:000003a0       ??_C@_0FE@MLLIBOIH@D?3?2uefi_specs_personal_collecti@ 000000000000dca0     BaseLib:X86DisablePaging64.obj
 0002:000003f8       ??_C@_0O@HLBMMCPF@NewStack?5?$CB?$DN?50@ 000000000000dcf8     BaseLib:X86DisablePaging64.obj
 0002:00000408       ??_C@_0BF@KGOGCKLE@Idtr?5?$CB?$DN?5?$CI?$CIvoid?5?$CK?$CJ?50?$CJ@ 000000000000dd08     BaseLib:X86ReadIdtr.obj
 0002:00000420       ??_C@_0BL@OOFMKHJH@EntryPoint?5?$CB?$DN?5?$CI?$CIvoid?5?$CK?$CJ?50?$CJ@ 000000000000dd20     BaseLib:SwitchStack.obj
 0002:00000440       ??_C@_0EN@IBNPPBNO@D?3?2uefi_specs_personal_collecti@ 000000000000dd40     BaseLib:SwitchStack.obj
 0002:00000490       ??_C@_0BJ@DIHHCIKP@NewStack?5?$CB?$DN?5?$CI?$CIvoid?5?$CK?$CJ?50?$CJ@ 000000000000dd90     BaseLib:SwitchStack.obj
 0002:000004b0       ??_C@_0CC@MPFKDGJI@?$CI?$CIUINTN?$CJNewStack?5?$CG?5?$CI16?5?9?51?$CJ?$CJ?5?$DN?$DN@ 000000000000ddb0     BaseLib:SwitchStack.obj
 0002:000004e0       ??_C@_0EO@ILPDFBIA@D?3?2uefi_specs_personal_collecti@ 000000000000dde0     BaseLib:X86WriteIdtr.obj
 0002:00000530       ??_C@_0L@MEMPDLHB@Count?5?$DM?564@ 000000000000de30     BaseLib:LShiftU64.obj
 0002:00000540       ??_C@_0EL@PKACDBFD@D?3?2uefi_specs_personal_collecti@ 000000000000de40     BaseLib:LShiftU64.obj
 0002:00000590       ??_C@_0EK@DJCDFDHD@D?3?2uefi_specs_personal_collecti@ 000000000000de90     BaseLib:BitField.obj
 0002:000005e0       ??_C@_0BD@JDBPFJOM@StartBit?5?$DM?$DN?5EndBit@ 000000000000dee0     BaseLib:BitField.obj
 0002:000005f8       ??_C@_0M@IJCABBDH@EndBit?5?$DM?564@ 000000000000def8     BaseLib:BitField.obj
 0002:00000610       ??_C@_0EL@BPCLAPLB@D?3?2uefi_specs_personal_collecti@ 000000000000df10     BaseLib:RShiftU64.obj
 0002:00000660       ??_C@_0BH@IACGKAP@Buffer?5?$CB?$DN?5?$CI?$CIvoid?5?$CK?$CJ?50?$CJ@ 000000000000df60     BaseMemoryLibRepStr:ZeroMemWrapper.obj
 0002:00000680       ??_C@_0FM@DHFKCLFA@D?3?2uefi_specs_personal_collecti@ 000000000000df80     BaseMemoryLibRepStr:ZeroMemWrapper.obj
 0002:000006e0       ??_C@_0DG@EEENIGGL@Length?5?$DM?$DN?5?$CI0xFFFFFFFFFFFFFFFFUL@ 000000000000dfe0     BaseMemoryLibRepStr:ZeroMemWrapper.obj
 0002:00000720       ??_C@_0EN@ENFGNHA@D?3?2uefi_specs_personal_collecti@ 000000000000e020     DxePcdLib:DxePcdLib.obj
 0002:00000770       ??_C@_0BF@OOKDELHM@mPcd?5?$CB?$DN?5?$CI?$CIvoid?5?$CK?$CJ?50?$CJ@ 000000000000e070     DxePcdLib:DxePcdLib.obj
 0002:00000788       ??_C@_0BH@LKMBFCBF@Format?5?$CB?$DN?5?$CI?$CIvoid?5?$CK?$CJ?50?$CJ@ 000000000000e088     BaseDebugLibSerialPort:DebugLib.obj
 0002:000007a0       ??_C@_0FJ@BNNHJMAJ@D?3?2uefi_specs_personal_collecti@ 000000000000e0a0     BaseDebugLibSerialPort:DebugLib.obj
 0002:00000800       ??_C@_0BI@NOCKJDBJ@ASSERT?5?$FL?$CFa?$FN?5?$CFa?$CI?$CFd?$CJ?3?5?$CFa?6@ 000000000000e100     BaseDebugLibSerialPort:DebugLib.obj
 0002:00000818       ??_C@_0BN@COECPDCC@gImageHandle?5?$CB?$DN?5?$CI?$CIvoid?5?$CK?$CJ?50?$CJ@ 000000000000e118     UefiBootServicesTableLib:UefiBootServicesTableLib.obj
 0002:00000840       ??_C@_0GL@PJCPJLGM@D?3?2uefi_specs_personal_collecti@ 000000000000e140     UefiBootServicesTableLib:UefiBootServicesTableLib.obj
 0002:000008b0       ??_C@_0BE@DGNHAHIL@gST?5?$CB?$DN?5?$CI?$CIvoid?5?$CK?$CJ?50?$CJ@ 000000000000e1b0     UefiBootServicesTableLib:UefiBootServicesTableLib.obj
 0002:000008c8       ??_C@_0BE@BDFJLGLN@gBS?5?$CB?$DN?5?$CI?$CIvoid?5?$CK?$CJ?50?$CJ@ 000000000000e1c8     UefiBootServicesTableLib:UefiBootServicesTableLib.obj
 0002:000008e0       ??_C@_0BE@OBDFIHND@gRT?5?$CB?$DN?5?$CI?$CIvoid?5?$CK?$CJ?50?$CJ@ 000000000000e1e0     UefiRuntimeServicesTableLib:UefiRuntimeServicesTableLib.obj
 0002:00000900       ??_C@_0HB@NCAPNEDO@D?3?2uefi_specs_personal_collecti@ 000000000000e200     UefiRuntimeServicesTableLib:UefiRuntimeServicesTableLib.obj
 0002:00000980       ??_C@_0GP@HEOOPGAM@D?3?2uefi_specs_personal_collecti@ 000000000000e280     UefiDevicePathLibDevicePathProtocol:UefiDevicePathLib.obj
 0002:000009f0       ??_C@_0DC@CNNBPJA@mDevicePathLibDevicePathUtiliti@ 000000000000e2f0     UefiDevicePathLibDevicePathProtocol:UefiDevicePathLib.obj
 0002:00000a28       ??_C@_0BF@MBJFHGBE@Size?5?$CB?$DN?5?$CI?$CIvoid?5?$CK?$CJ?50?$CJ@ 000000000000e328     UefiDevicePathLibDevicePathProtocol:UefiDevicePathLib.obj
 0002:00000a40       ??_C@_0BK@PPOBBAMB@TableGuid?5?$CB?$DN?5?$CI?$CIvoid?5?$CK?$CJ?50?$CJ@ 000000000000e340     UefiLib:UefiLib.obj
 0002:00000a60       ??_C@_0EJ@PPOMJLJB@D?3?2uefi_specs_personal_collecti@ 000000000000e360     UefiLib:UefiLib.obj
 0002:00000ab0       ??_C@_0BG@JDKEGFNB@Table?5?$CB?$DN?5?$CI?$CIvoid?5?$CK?$CJ?50?$CJ@ 000000000000e3b0     UefiLib:UefiLib.obj
 0002:00000ac8       ??_C@_0BP@DEIEJICI@NotifyFunction?5?$CB?$DN?5?$CI?$CIvoid?5?$CK?$CJ?50?$CJ@ 000000000000e3c8     UefiLib:UefiLib.obj
 0002:00000ae8       ??_C@_0BN@OMCJCPAI@Registration?5?$CB?$DN?5?$CI?$CIvoid?5?$CK?$CJ?50?$CJ@ 000000000000e3e8     UefiLib:UefiLib.obj
 0002:00000b10       ??_C@_0EK@CGIIDOCH@D?3?2uefi_specs_personal_collecti@ 000000000000e410     DxeHobLib:HobLib.obj
 0002:00000b60       ??_C@_0BJ@OBFMLLDO@mHobList?5?$CB?$DN?5?$CI?$CIvoid?5?$CK?$CJ?50?$CJ@ 000000000000e460     DxeHobLib:HobLib.obj
 0002:00000b80       ??_C@_0BJ@NOLLDKJB@HobStart?5?$CB?$DN?5?$CI?$CIvoid?5?$CK?$CJ?50?$CJ@ 000000000000e480     DxeHobLib:HobLib.obj
 0002:00000ba0       ??_C@_0BP@LHBKJBMC@PlatformInfoHob?5is?5not?5found?4?6@ 000000000000e4a0     DxeAcpiTimerLib:DxeAcpiTimerLib.obj
 0002:00000bc0       ??_C@_0FH@PGONMIHN@D?3?2uefi_specs_personal_collecti@ 000000000000e4c0     DxeAcpiTimerLib:DxeAcpiTimerLib.obj
 0002:00000c18       ??_C@_0BI@HAGPDMHJ@AcpiTimerLibConstructor@ 000000000000e518     DxeAcpiTimerLib:DxeAcpiTimerLib.obj
 0002:00000c30       ??_C@_0CL@DGCOIACG@?$CFa?3?5Unknown?5Host?5Bridge?5Device?5@ 000000000000e530     DxeAcpiTimerLib:DxeAcpiTimerLib.obj
 0002:00000c60       ??_C@_0FD@MCIEJHJA@mLockBoxGlobal?9?$DOSignature?5?$DN?$DN?5?$CI?$CI@ 000000000000e560     LockBoxDxeLib:LockBoxDxe.obj
 0002:00000cc0       ??_C@_0FA@HMDGAECD@D?3?2uefi_specs_personal_collecti@ 000000000000e5c0     LockBoxDxeLib:LockBoxDxe.obj
 0002:00000d10       ??_C@_0M@EFAIPGPD@SaveLockBox@ 000000000000e610     LockBoxDxeLib:LockBoxLib.obj
 0002:00000d20       ??_C@_0CD@BILDOJL@?$CFa?3?5Guid?$DN?$CFg?5Buffer?$DN?$CFp?5Length?$DN0x@ 000000000000e620     LockBoxDxeLib:LockBoxLib.obj
 0002:00000d48       ??_C@_0BF@LEKHCMKM@SetLockBoxAttributes@ 000000000000e648     LockBoxDxeLib:LockBoxLib.obj
 0002:00000d60       ??_C@_0BO@LNLAPELH@?$CFa?3?5Guid?$DN?$CFg?5Attributes?$DN0x?$CFLx?6@ 000000000000e660     LockBoxDxeLib:LockBoxLib.obj
 0002:00000d80       ??_C@_0P@PHGFCONN@RestoreLockBox@ 000000000000e680     LockBoxDxeLib:LockBoxLib.obj
 0002:00000d90       ??_C@_0BH@NJEMLHJE@?$CFa?3?5Guid?$DN?$CFg?5Buffer?$DN?$CFp?6@ 000000000000e690     LockBoxDxeLib:LockBoxLib.obj
 0002:00000db0       ??_C@_0GD@GFHAPEPH@D?3?2uefi_specs_personal_collecti@ 000000000000e6b0     DxeS3BootScriptLib:BootScriptSave.obj
 0002:00000e18       ??_C@_0DB@EPFOJDPK@?$CFa?3?5Skip?5S3BootScript?5because?5A@ 000000000000e718     DxeS3BootScriptLib:BootScriptSave.obj
 0002:00000e50       ??_C@_0CI@CLAOGJJK@mEventDxeSmmReadyToLock?5?$CB?$DN?5?$CI?$CIvo@ 000000000000e750     DxeS3BootScriptLib:BootScriptSave.obj
 0002:00000e78       ??_C@_0BM@NEMCHGKL@S3BootScriptLibDeinitialize@ 000000000000e778     DxeS3BootScriptLib:BootScriptSave.obj
 0002:00000e98       ??_C@_0BD@GLKGDELO@?$CFa?$CI?$CJ?5in?5?$CFa?5module?6@ 000000000000e798     DxeS3BootScriptLib:BootScriptSave.obj
 0002:00000eb0       ??_C@_0BM@JILKCCGE@EfiSmbusQuickRead?5?9?50x?$CF08x?6@ 000000000000e7b0     DxeS3BootScriptLib:BootScriptExecute.obj
 0002:00000ed0       ??_C@_0BN@LPNGCLKF@EfiSmbusQuickWrite?5?9?50x?$CF08x?6@ 000000000000e7d0     DxeS3BootScriptLib:BootScriptExecute.obj
 0002:00000ef0       ??_C@_0BO@PGPGJHBB@EfiSmbusReceiveByte?5?9?50x?$CF08x?6@ 000000000000e7f0     DxeS3BootScriptLib:BootScriptExecute.obj
 0002:00000f10       ??_C@_0CE@JOLBPBOB@EfiSmbusSendByte?5?9?50x?$CF08x?5?$CI0x?$CF0@ 000000000000e810     DxeS3BootScriptLib:BootScriptExecute.obj
 0002:00000f38       ??_C@_0BL@NBPPMDNN@EfiSmbusReadByte?5?9?50x?$CF08x?6@ 000000000000e838     DxeS3BootScriptLib:BootScriptExecute.obj
 0002:00000f58       ??_C@_0CF@CEEGNBHL@EfiSmbusWriteByte?5?9?50x?$CF08x?5?$CI0x?$CF@ 000000000000e858     DxeS3BootScriptLib:BootScriptExecute.obj
 0002:00000f80       ??_C@_0BL@DCKAGHB@EfiSmbusReadWord?5?9?50x?$CF08x?6@ 000000000000e880     DxeS3BootScriptLib:BootScriptExecute.obj
 0002:00000fa0       ??_C@_0CF@DNNNINLG@EfiSmbusWriteWord?5?9?50x?$CF08x?5?$CI0x?$CF@ 000000000000e8a0     DxeS3BootScriptLib:BootScriptExecute.obj
 0002:00000fc8       ??_C@_0CH@MOPLLPPE@EfiSmbusProcessCall?5?9?50x?$CF08x?5?$CI0@ 000000000000e8c8     DxeS3BootScriptLib:BootScriptExecute.obj
 0002:00000ff0       ??_C@_0BM@DIPNLKEF@EfiSmbusReadBlock?5?9?50x?$CF08x?6@ 000000000000e8f0     DxeS3BootScriptLib:BootScriptExecute.obj
 0002:00001010       ??_C@_0BN@MLOOHKIC@EfiSmbusWriteBlock?5?9?50x?$CF08x?6@ 000000000000e910     DxeS3BootScriptLib:BootScriptExecute.obj
 0002:00001030       ??_C@_0CC@IGJIJAG@EfiSmbusBWBRProcessCall?5?9?50x?$CF08@ 000000000000e930     DxeS3BootScriptLib:BootScriptExecute.obj
 0002:00001058       ??_C@_0CB@BBHCPCNJ@S3BootScriptWidthUint8?5?9?50x?$CF08x@ 000000000000e958     DxeS3BootScriptLib:BootScriptExecute.obj
 0002:00001080       ??_C@_0CF@HCODNOEI@S3BootScriptWidthFifoUint8?5?9?50x@ 000000000000e980     DxeS3BootScriptLib:BootScriptExecute.obj
 0002:000010a8       ??_C@_0CF@DDPMEAED@S3BootScriptWidthFillUint8?5?9?50x@ 000000000000e9a8     DxeS3BootScriptLib:BootScriptExecute.obj
 0002:000010d0       ??_C@_0CC@OEJLFLPP@S3BootScriptWidthUint16?5?9?50x?$CF08@ 000000000000e9d0     DxeS3BootScriptLib:BootScriptExecute.obj
 0002:000010f8       ??_C@_0CG@GDPAGJAB@S3BootScriptWidthFifoUint16?5?9?50@ 000000000000e9f8     DxeS3BootScriptLib:BootScriptExecute.obj
 0002:00001120       ??_C@_0CG@PEGDKPBH@S3BootScriptWidthFillUint16?5?9?50@ 000000000000ea20     DxeS3BootScriptLib:BootScriptExecute.obj
 0002:00001148       ??_C@_0CC@IHMBNFML@S3BootScriptWidthUint32?5?9?50x?$CF08@ 000000000000ea48     DxeS3BootScriptLib:BootScriptExecute.obj
 0002:00001170       ??_C@_0CG@KKOHDF@S3BootScriptWidthFifoUint32?5?9?50@ 000000000000ea70     DxeS3BootScriptLib:BootScriptExecute.obj
 0002:00001198       ??_C@_0CG@JHDJCBCD@S3BootScriptWidthFillUint32?5?9?50@ 000000000000ea98     DxeS3BootScriptLib:BootScriptExecute.obj
 0002:000011c0       ??_C@_0CC@HFNDMDDI@S3BootScriptWidthUint64?5?9?50x?$CF08@ 000000000000eac0     DxeS3BootScriptLib:BootScriptExecute.obj
 0002:000011e8       ??_C@_0CG@PCLIPBMG@S3BootScriptWidthFifoUint64?5?9?50@ 000000000000eae8     DxeS3BootScriptLib:BootScriptExecute.obj
 0002:00001210       ??_C@_0CG@GFCLDHNA@S3BootScriptWidthFillUint64?5?9?50@ 000000000000eb10     DxeS3BootScriptLib:BootScriptExecute.obj
 0002:00001238       ??_C@_0CK@POEMMNAP@S3BootScriptWidthUint8?5?9?50x?$CF08x@ 000000000000eb38     DxeS3BootScriptLib:BootScriptExecute.obj
 0002:00001268       ??_C@_0CO@EKKEOMBH@S3BootScriptWidthFifoUint8?5?9?50x@ 000000000000eb68     DxeS3BootScriptLib:BootScriptExecute.obj
 0002:00001298       ??_C@_0CO@KHGJOBOH@S3BootScriptWidthFillUint8?5?9?50x@ 000000000000eb98     DxeS3BootScriptLib:BootScriptExecute.obj
 0002:000012c8       ??_C@_0CL@OGICFEEP@S3BootScriptWidthUint16?5?9?50x?$CF08@ 000000000000ebc8     DxeS3BootScriptLib:BootScriptExecute.obj
 0002:000012f8       ??_C@_0CP@PFFKCEDI@S3BootScriptWidthFifoUint16?5?9?50@ 000000000000ebf8     DxeS3BootScriptLib:BootScriptExecute.obj
 0002:00001328       ??_C@_0CP@EIAKBLCJ@S3BootScriptWidthFillUint16?5?9?50@ 000000000000ec28     DxeS3BootScriptLib:BootScriptExecute.obj
 0002:00001358       ??_C@_0CL@BPNLHEHF@S3BootScriptWidthUint32?5?9?50x?$CF08@ 000000000000ec58     DxeS3BootScriptLib:BootScriptExecute.obj
 0002:00001388       ??_C@_0CP@MADAEAC@S3BootScriptWidthFifoUint32?5?9?50@ 000000000000ec88     DxeS3BootScriptLib:BootScriptExecute.obj
 0002:000013b8       ??_C@_0CP@LBFDDLBD@S3BootScriptWidthFillUint32?5?9?50@ 000000000000ecb8     DxeS3BootScriptLib:BootScriptExecute.obj
 0002:000013e8       ??_C@_0CN@DMFFKKEL@S3BootScriptWidthUint64?5?9?50x?$CF08@ 000000000000ece8     DxeS3BootScriptLib:BootScriptExecute.obj
 0002:00001418       ??_C@_0DB@MCOCHJO@S3BootScriptWidthFifoUint64?5?9?50@ 000000000000ed18     DxeS3BootScriptLib:BootScriptExecute.obj
 0002:00001450       ??_C@_0DB@OJJBJEOD@S3BootScriptWidthFillUint64?5?9?50@ 000000000000ed50     DxeS3BootScriptLib:BootScriptExecute.obj
 0002:00001488       ??_C@_0DD@DMOHBMPG@BootScriptExecuteIoWrite?5?9?50x?$CF0@ 000000000000ed88     DxeS3BootScriptLib:BootScriptExecute.obj
 0002:000014c0       ??_C@_0DH@NMJGJPKK@BootScriptExecuteMemoryWrite?5?9?5@ 000000000000edc0     DxeS3BootScriptLib:BootScriptExecute.obj
 0002:000014f8       ??_C@_0CD@HNMFDCEJ@S3BootScriptWidthUint8?5?9?50x?$CF016@ 000000000000edf8     DxeS3BootScriptLib:BootScriptExecute.obj
 0002:00001520       ??_C@_0CH@CHEHIGGA@S3BootScriptWidthFifoUint8?5?9?50x@ 000000000000ee20     DxeS3BootScriptLib:BootScriptExecute.obj
 0002:00001548       ??_C@_0CH@NDAEKAPH@S3BootScriptWidthFillUint8?5?9?50x@ 000000000000ee48     DxeS3BootScriptLib:BootScriptExecute.obj
 0002:00001570       ??_C@_0CE@BBBBFPMI@S3BootScriptWidthUint16?5?9?50x?$CF01@ 000000000000ee70     DxeS3BootScriptLib:BootScriptExecute.obj
 0002:00001598       ??_C@_0CI@FDPJEFBA@S3BootScriptWidthFifoUint16?5?9?50@ 000000000000ee98     DxeS3BootScriptLib:BootScriptExecute.obj
 0002:000015c0       ??_C@_0CI@DNGGAANB@S3BootScriptWidthFillUint16?5?9?50@ 000000000000eec0     DxeS3BootScriptLib:BootScriptExecute.obj
 0002:000015e8       ??_C@_0CE@KADLGBEC@S3BootScriptWidthUint32?5?9?50x?$CF01@ 000000000000eee8     DxeS3BootScriptLib:BootScriptExecute.obj
 0002:00001610       ??_C@_0CI@OCNDHLJK@S3BootScriptWidthFifoUint32?5?9?50@ 000000000000ef10     DxeS3BootScriptLib:BootScriptExecute.obj
 0002:00001638       ??_C@_0CI@IMEMDOFL@S3BootScriptWidthFillUint32?5?9?50@ 000000000000ef38     DxeS3BootScriptLib:BootScriptExecute.obj
 0002:00001660       ??_C@_0CM@NEJLHGAJ@S3BootScriptWidthUint8?5?9?50x?$CF016@ 000000000000ef60     DxeS3BootScriptLib:BootScriptExecute.obj
 0002:00001690       ??_C@_0DA@BKOJEKOG@S3BootScriptWidthFifoUint8?5?9?50x@ 000000000000ef90     DxeS3BootScriptLib:BootScriptExecute.obj
 0002:000016c0       ??_C@_0DA@HAOEDKCL@S3BootScriptWidthFillUint8?5?9?50x@ 000000000000efc0     DxeS3BootScriptLib:BootScriptExecute.obj
 0002:000016f0       ??_C@_0CN@EBKBMKLI@S3BootScriptWidthUint16?5?9?50x?$CF01@ 000000000000eff0     DxeS3BootScriptLib:BootScriptExecute.obj
 0002:00001720       ??_C@_0DB@HBNKEHGN@S3BootScriptWidthFifoUint16?5?9?50@ 000000000000f020     DxeS3BootScriptLib:BootScriptExecute.obj
 0002:00001758       ??_C@_0DB@JEGFPEBA@S3BootScriptWidthFillUint16?5?9?50@ 000000000000f058     DxeS3BootScriptLib:BootScriptExecute.obj
 0002:00001790       ??_C@_0CN@FNDGEKCF@S3BootScriptWidthUint32?5?9?50x?$CF01@ 000000000000f090     DxeS3BootScriptLib:BootScriptExecute.obj
 0002:000017c0       ??_C@_0DB@GNENMHPA@S3BootScriptWidthFifoUint32?5?9?50@ 000000000000f0c0     DxeS3BootScriptLib:BootScriptExecute.obj
 0002:000017f8       ??_C@_0DB@IIPCHEIN@S3BootScriptWidthFillUint32?5?9?50@ 000000000000f0f8     DxeS3BootScriptLib:BootScriptExecute.obj
 0002:00001830       ??_C@_0DJ@IJOLFKIA@BootScriptExecutePciCfgWrite?5?9?5@ 000000000000f130     DxeS3BootScriptLib:BootScriptExecute.obj
 0002:00001870       ??_C@_0DL@FPBCFBAB@BootScriptExecuteIoReadWrite?5?9?5@ 000000000000f170     DxeS3BootScriptLib:BootScriptExecute.obj
 0002:000018b0       ??_C@_0DP@MMPFOFM@BootScriptExecuteMemoryReadWrit@ 000000000000f1b0     DxeS3BootScriptLib:BootScriptExecute.obj
 0002:000018f0       ??_C@_0EB@IBAGDKEL@BootScriptExecutePciCfgReadWrit@ 000000000000f1f0     DxeS3BootScriptLib:BootScriptExecute.obj
 0002:00001938       ??_C@_0DA@DDHGANOM@BootScriptExecuteSmbusExecute?5?9@ 000000000000f238     DxeS3BootScriptLib:BootScriptExecute.obj
 0002:00001968       ??_C@_0CB@BEFJPDNN@BootScriptExecuteStall?5?9?50x?$CF08x@ 000000000000f268     DxeS3BootScriptLib:BootScriptExecute.obj
 0002:00001990       ??_C@_0CE@CMICFDEL@BootScriptExecuteDispatch?5?9?50x?$CF@ 000000000000f290     DxeS3BootScriptLib:BootScriptExecute.obj
 0002:000019b8       ??_C@_0CN@HGMNJINI@BootScriptExecuteDispatch2?5?9?50x@ 000000000000f2b8     DxeS3BootScriptLib:BootScriptExecute.obj
 0002:000019e8       ??_C@_0DH@INCKANOO@BootScriptExecuteMemPoll?5?9?50x?$CF0@ 000000000000f2e8     DxeS3BootScriptLib:BootScriptExecute.obj
 0002:00001a20       ??_C@_0CH@IOMLIO@BootScriptExecuteInformation?5?9?5@ 000000000000f320     DxeS3BootScriptLib:BootScriptExecute.obj
 0002:00001a48       ??_C@_0BI@FODKAIAF@BootScriptInformation?3?5@ 000000000000f348     DxeS3BootScriptLib:BootScriptExecute.obj
 0002:00001a60       ??_C@_05CNDJFPDP@?$CF02x?5@ 000000000000f360     DxeS3BootScriptLib:BootScriptExecute.obj
 0002:00001a68       ??_C@_01EEMJAFIK@?6@       000000000000f368     DxeS3BootScriptLib:BootScriptExecute.obj
 0002:00001a70       ??_C@_0CB@PAIFKEIO@BootScriptExecuteLabel?5?9?50x?$CF08x@ 000000000000f370     DxeS3BootScriptLib:BootScriptExecute.obj
 0002:00001a98       ??_C@_0BC@HDHJCIHJ@BootScriptLabel?3?5@ 000000000000f398     DxeS3BootScriptLib:BootScriptExecute.obj
 0002:00001ab0       ??_C@_0DG@POLBLJLI@BootScriptExecuteIoPoll?5?9?50x?$CF08@ 000000000000f3b0     DxeS3BootScriptLib:BootScriptExecute.obj
 0002:00001ae8       ??_C@_0DK@HGCGKJGE@BootScriptExecutePciCfg2Write?5?9@ 000000000000f3e8     DxeS3BootScriptLib:BootScriptExecute.obj
 0002:00001b30       ??_C@_0EC@LEBIPLHC@BootScriptExecutePciCfg2ReadWri@ 000000000000f430     DxeS3BootScriptLib:BootScriptExecute.obj
 0002:00001b78       ??_C@_0DF@PCCCBPDH@BootScriptPciCfgPoll?5?9?50x?$CF016lx@ 000000000000f478     DxeS3BootScriptLib:BootScriptExecute.obj
 0002:00001bb0       ??_C@_0DG@KJMPNFMH@BootScriptPciCfg2Poll?5?9?50x?$CF016l@ 000000000000f4b0     DxeS3BootScriptLib:BootScriptExecute.obj
 0002:00001be8       ??_C@_0BG@LIOHDEDL@S3BootScriptExecute?3?6@ 000000000000f4e8     DxeS3BootScriptLib:BootScriptExecute.obj
 0002:00001c00       ??_C@_0BG@DDICANLN@TableHeader?5?9?50x?$CF08x?6@ 000000000000f500     DxeS3BootScriptLib:BootScriptExecute.obj
 0002:00001c18       ??_C@_0BO@OPGOFKCF@TableHeader?4Version?5?9?50x?$CF04x?6@ 000000000000f518     DxeS3BootScriptLib:BootScriptExecute.obj
 0002:00001c38       ??_C@_0CC@PGIOLMJJ@TableHeader?4TableLength?5?9?50x?$CF08@ 000000000000f538     DxeS3BootScriptLib:BootScriptExecute.obj
 0002:00001c60       ??_C@_0BK@CCPHMGEN@ExecuteBootScript?5?9?5?$CF08x?6@ 000000000000f560     DxeS3BootScriptLib:BootScriptExecute.obj
 0002:00001c80       ??_C@_0CC@PCKDLHGF@EFI_BOOT_SCRIPT_MEM_WRITE_OPCOD@ 000000000000f580     DxeS3BootScriptLib:BootScriptExecute.obj
 0002:00001ca8       ??_C@_0CH@MMOFEBPF@EFI_BOOT_SCRIPT_MEM_READ_WRITE_@ 000000000000f5a8     DxeS3BootScriptLib:BootScriptExecute.obj
 0002:00001cd0       ??_C@_0CB@IBJMMAJG@EFI_BOOT_SCRIPT_IO_WRITE_OPCODE@ 000000000000f5d0     DxeS3BootScriptLib:BootScriptExecute.obj
 0002:00001cf8       ??_C@_0CJ@BIPCOBCA@EFI_BOOT_SCRIPT_PCI_CONFIG_WRIT@ 000000000000f5f8     DxeS3BootScriptLib:BootScriptExecute.obj
 0002:00001d28       ??_C@_0CO@HLHPJJFD@EFI_BOOT_SCRIPT_PCI_CONFIG_READ@ 000000000000f628     DxeS3BootScriptLib:BootScriptExecute.obj
 0002:00001d58       ??_C@_0CK@LIDABDIB@EFI_BOOT_SCRIPT_PCI_CONFIG2_WRI@ 000000000000f658     DxeS3BootScriptLib:BootScriptExecute.obj
 0002:00001d88       ??_C@_0CP@CGHLAPJO@EFI_BOOT_SCRIPT_PCI_CONFIG2_REA@ 000000000000f688     DxeS3BootScriptLib:BootScriptExecute.obj
 0002:00001db8       ??_C@_0CB@JMCHFLK@EFI_BOOT_SCRIPT_DISPATCH_OPCODE@ 000000000000f6b8     DxeS3BootScriptLib:BootScriptExecute.obj
 0002:00001de0       ??_C@_0CD@IELCFCGE@EFI_BOOT_SCRIPT_DISPATCH_2_OPCO@ 000000000000f6e0     DxeS3BootScriptLib:BootScriptExecute.obj
 0002:00001e08       ??_C@_0CE@OHIHDKIB@EFI_BOOT_SCRIPT_INFORMATION_OPC@ 000000000000f708     DxeS3BootScriptLib:BootScriptExecute.obj
 0002:00001e30       ??_C@_0CF@LLDFAFND@S3_BOOT_SCRIPT_LIB_TERMINATE_OP@ 000000000000f730     DxeS3BootScriptLib:BootScriptExecute.obj
 0002:00001e58       ??_C@_0BH@JDHNACKG@S3BootScriptDone?5?9?5?$CFr?6@ 000000000000f758     DxeS3BootScriptLib:BootScriptExecute.obj
 0002:00001e70       ??_C@_0CG@BOLMHLMF@EFI_BOOT_SCRIPT_IO_READ_WRITE_O@ 000000000000f770     DxeS3BootScriptLib:BootScriptExecute.obj
 0002:00001e98       ??_C@_0CG@HMKJMBKE@EFI_BOOT_SCRIPT_SMBUS_EXECUTE_O@ 000000000000f798     DxeS3BootScriptLib:BootScriptExecute.obj
 0002:00001ec0       ??_C@_0BO@NIDPIICC@EFI_BOOT_SCRIPT_STALL_OPCODE?6@ 000000000000f7c0     DxeS3BootScriptLib:BootScriptExecute.obj
 0002:00001ee0       ??_C@_0CB@LONLHDHC@EFI_BOOT_SCRIPT_MEM_POLL_OPCODE@ 000000000000f7e0     DxeS3BootScriptLib:BootScriptExecute.obj
 0002:00001f08       ??_C@_0CA@FNLKADPF@EFI_BOOT_SCRIPT_IO_POLL_OPCODE?6@ 000000000000f808     DxeS3BootScriptLib:BootScriptExecute.obj
 0002:00001f28       ??_C@_0CI@DKMKAPPG@EFI_BOOT_SCRIPT_PCI_CONFIG_POLL@ 000000000000f828     DxeS3BootScriptLib:BootScriptExecute.obj
 0002:00001f50       ??_C@_0CJ@PCNKNGBG@EFI_BOOT_SCRIPT_PCI_CONFIG2_POL@ 000000000000f850     DxeS3BootScriptLib:BootScriptExecute.obj
 0002:00001f80       ??_C@_0CB@GCEJJDCD@S3_BOOT_SCRIPT_LIB_LABEL_OPCODE@ 000000000000f880     DxeS3BootScriptLib:BootScriptExecute.obj
 0002:00001fa8       ??_C@_0BN@MJEPDGEJ@ImageContext?5?$CB?$DN?5?$CI?$CIvoid?5?$CK?$CJ?50?$CJ@ 000000000000f8a8     BasePeCoffLib:BasePeCoff.obj
 0002:00001fd0       ??_C@_0FC@HNOEKHOI@D?3?2uefi_specs_personal_collecti@ 000000000000f8d0     BasePeCoffLib:BasePeCoff.obj
 0002:00002030       ??_C@_0FB@MOCPCCHF@?$CIUINTN?$CJFixupData?5?$DM?$DN?5?$CIUINTN?$CJImag@ 000000000000f930     BasePeCoffLib:BasePeCoff.obj
 0002:00002088       ??_C@_0BJ@KIAHAFBF@ReadSize?5?$CB?$DN?5?$CI?$CIvoid?5?$CK?$CJ?50?$CJ@ 000000000000f988     BasePeCoffLib:BasePeCoff.obj
 0002:000020a8       ??_C@_0BL@INAOLIJI@FileHandle?5?$CB?$DN?5?$CI?$CIvoid?5?$CK?$CJ?50?$CJ@ 000000000000f9a8     BasePeCoffLib:BasePeCoff.obj
 0002:000020c8       ??_C@_0BM@PHFBGKMM@ImageHandle?5?$CB?$DN?5?$CI?$CIvoid?5?$CK?$CJ?50?$CJ@ 000000000000f9c8     DxeServicesLib:DxeServicesLib.obj
 0002:000020f0       ??_C@_0FH@ONKDGBKO@D?3?2uefi_specs_personal_collecti@ 000000000000f9f0     DxeServicesLib:DxeServicesLib.obj
 0002:00002148       mDoFarReturnFlag           000000000000fa48     DxeCpuExceptionHandlerLib:DxeException.obj
 0002:00002150       ??_C@_0CK@DADKKMEM@TemplateMap?4ExceptionStubHeader@ 000000000000fa50     DxeCpuExceptionHandlerLib:PeiDxeSmmCpuException.obj
 0002:00002180       ??_C@_0GK@PIKMMKGE@D?3?2uefi_specs_personal_collecti@ 000000000000fa80     DxeCpuExceptionHandlerLib:PeiDxeSmmCpuException.obj
 0002:000021f0       ??_C@_0DN@OILJOCCP@?$CB?$CB?$CB?$CB?5X64?5Exception?5Type?5?9?5?$CF02x?$CI@ 000000000000faf0     DxeCpuExceptionHandlerLib:ArchExceptionHandler.obj
 0002:00002230       ??_C@_0BH@GDPLHCJG@ExceptionData?5?9?5?$CF016lx@ 000000000000fb30     DxeCpuExceptionHandlerLib:ArchExceptionHandler.obj
 0002:00002248       ??_C@_0CO@BBEHDOI@?5?5I?3?$CFx?5R?3?$CFx?5U?3?$CFx?5W?3?$CFx?5P?3?$CFx?5PK?3?$CF@ 000000000000fb48     DxeCpuExceptionHandlerLib:ArchExceptionHandler.obj
 0002:00002278       ??_C@_0CO@OABPHBNC@RIP?5?5?9?5?$CF016lx?0?5CS?5?5?9?5?$CF016lx?0?5RF@ 000000000000fb78     DxeCpuExceptionHandlerLib:ArchExceptionHandler.obj
 0002:000022a8       ??_C@_0CL@EBCIBAPN@RAX?5?5?9?5?$CF016lx?0?5RCX?5?9?5?$CF016lx?0?5RD@ 000000000000fba8     DxeCpuExceptionHandlerLib:ArchExceptionHandler.obj
 0002:000022d8       ??_C@_0CL@NEKHLEEE@RBX?5?5?9?5?$CF016lx?0?5RSP?5?9?5?$CF016lx?0?5RB@ 000000000000fbd8     DxeCpuExceptionHandlerLib:ArchExceptionHandler.obj
 0002:00002308       ??_C@_0BN@KJEBEAEC@RSI?5?5?9?5?$CF016lx?0?5RDI?5?9?5?$CF016lx?6@ 000000000000fc08     DxeCpuExceptionHandlerLib:ArchExceptionHandler.obj
 0002:00002328       ??_C@_0CL@IAICEOHO@R8?5?5?5?9?5?$CF016lx?0?5R9?5?5?9?5?$CF016lx?0?5R1@ 000000000000fc28     DxeCpuExceptionHandlerLib:ArchExceptionHandler.obj
 0002:00002358       ??_C@_0CL@JAMCECPD@R11?5?5?9?5?$CF016lx?0?5R12?5?9?5?$CF016lx?0?5R1@ 000000000000fc58     DxeCpuExceptionHandlerLib:ArchExceptionHandler.obj
 0002:00002388       ??_C@_0BN@PKAAKNBO@R14?5?5?9?5?$CF016lx?0?5R15?5?9?5?$CF016lx?6@ 000000000000fc88     DxeCpuExceptionHandlerLib:ArchExceptionHandler.obj
 0002:000023a8       ??_C@_0CL@DLLIMCBJ@DS?5?5?5?9?5?$CF016lx?0?5ES?5?5?9?5?$CF016lx?0?5FS@ 000000000000fca8     DxeCpuExceptionHandlerLib:ArchExceptionHandler.obj
 0002:000023d8       ??_C@_0BN@EICEFBKL@GS?5?5?5?9?5?$CF016lx?0?5SS?5?5?9?5?$CF016lx?6@ 000000000000fcd8     DxeCpuExceptionHandlerLib:ArchExceptionHandler.obj
 0002:000023f8       ??_C@_0CL@DIOBDFLD@CR0?5?5?9?5?$CF016lx?0?5CR2?5?9?5?$CF016lx?0?5CR@ 000000000000fcf8     DxeCpuExceptionHandlerLib:ArchExceptionHandler.obj
 0002:00002428       ??_C@_0BN@JAPKHAJM@CR4?5?5?9?5?$CF016lx?0?5CR8?5?9?5?$CF016lx?6@ 000000000000fd28     DxeCpuExceptionHandlerLib:ArchExceptionHandler.obj
 0002:00002448       ??_C@_0CL@DONNALBH@DR0?5?5?9?5?$CF016lx?0?5DR1?5?9?5?$CF016lx?0?5DR@ 000000000000fd48     DxeCpuExceptionHandlerLib:ArchExceptionHandler.obj
 0002:00002478       ??_C@_0CL@JNPELAID@DR3?5?5?9?5?$CF016lx?0?5DR6?5?9?5?$CF016lx?0?5DR@ 000000000000fd78     DxeCpuExceptionHandlerLib:ArchExceptionHandler.obj
 0002:000024a8       ??_C@_0CF@MGIBIPBB@GDTR?5?9?5?$CF016lx?5?$CF016lx?0?5LDTR?5?9?5?$CF0@ 000000000000fda8     DxeCpuExceptionHandlerLib:ArchExceptionHandler.obj
 0002:000024d0       ??_C@_0CF@DMFPLAJK@IDTR?5?9?5?$CF016lx?5?$CF016lx?0?5?5?5TR?5?9?5?$CF0@ 000000000000fdd0     DxeCpuExceptionHandlerLib:ArchExceptionHandler.obj
 0002:000024f8       ??_C@_0BH@PFOFIBPH@FXSAVE_STATE?5?9?5?$CF016lx?6@ 000000000000fdf8     DxeCpuExceptionHandlerLib:ArchExceptionHandler.obj
 0002:00002510       mErrorCodeFlag             000000000000fe10     DxeCpuExceptionHandlerLib:CpuExceptionCommon.obj
 0002:00002518       ??_C@_0BD@PANICNEP@?$CDDE?5?9?5Divide?5Error@ 000000000000fe18     DxeCpuExceptionHandlerLib:CpuExceptionCommon.obj
 0002:00002530       ??_C@_0M@BENGJJME@?$CDDB?5?9?5Debug@ 000000000000fe30     DxeCpuExceptionHandlerLib:CpuExceptionCommon.obj
 0002:00002540       ??_C@_0O@PELAMGDH@NMI?5Interrupt@ 000000000000fe40     DxeCpuExceptionHandlerLib:CpuExceptionCommon.obj
 0002:00002550       ??_C@_0BB@ONIBFOGK@?$CDBP?5?9?5Breakpoint@ 000000000000fe50     DxeCpuExceptionHandlerLib:CpuExceptionCommon.obj
 0002:00002568       ??_C@_0P@BBLCINEF@?$CDOF?5?9?5Overflow@ 000000000000fe68     DxeCpuExceptionHandlerLib:CpuExceptionCommon.obj
 0002:00002578       ??_C@_0BL@FGFNPPKN@?$CDBR?5?9?5BOUND?5Range?5Exceeded@ 000000000000fe78     DxeCpuExceptionHandlerLib:CpuExceptionCommon.obj
 0002:00002598       ??_C@_0BF@PAJDEHLF@?$CDUD?5?9?5Invalid?5Opcode@ 000000000000fe98     DxeCpuExceptionHandlerLib:CpuExceptionCommon.obj
 0002:000025b0       ??_C@_0BL@HAMCGOMD@?$CDNM?5?9?5Device?5Not?5Available@ 000000000000feb0     DxeCpuExceptionHandlerLib:CpuExceptionCommon.obj
 0002:000025d0       ??_C@_0BD@POLKFCFP@?$CDDF?5?9?5Double?5Fault@ 000000000000fed0     DxeCpuExceptionHandlerLib:CpuExceptionCommon.obj
 0002:000025e8       ??_C@_0BM@LFJODCLN@Coprocessor?5Segment?5Overrun@ 000000000000fee8     DxeCpuExceptionHandlerLib:CpuExceptionCommon.obj
 0002:00002608       ??_C@_0BC@NJGFAHLO@?$CDTS?5?9?5Invalid?5TSS@ 000000000000ff08     DxeCpuExceptionHandlerLib:CpuExceptionCommon.obj
 0002:00002620       ??_C@_0BK@CJDBEANG@?$CDNP?5?9?5Segment?5Not?5Present@ 000000000000ff20     DxeCpuExceptionHandlerLib:CpuExceptionCommon.obj
 0002:00002640       ??_C@_0BI@DKNGHJJN@?$CDSS?5?9?5Stack?5Fault?5Fault@ 000000000000ff40     DxeCpuExceptionHandlerLib:CpuExceptionCommon.obj
 0002:00002658       ??_C@_0BJ@OPPOMNHK@?$CDGP?5?9?5General?5Protection@ 000000000000ff58     DxeCpuExceptionHandlerLib:CpuExceptionCommon.obj
 0002:00002678       ??_C@_0BB@CJKCEJGM@?$CDPF?5?9?5Page?9Fault@ 000000000000ff78     DxeCpuExceptionHandlerLib:CpuExceptionCommon.obj
 0002:00002690       ??_C@_08NKCLJDKG@Reserved@ 000000000000ff90     DxeCpuExceptionHandlerLib:CpuExceptionCommon.obj
 0002:000026a0       ??_C@_0CD@DAPDALEP@?$CDMF?5?9?5x87?5FPU?5Floating?9Point?5Er@ 000000000000ffa0     DxeCpuExceptionHandlerLib:CpuExceptionCommon.obj
 0002:000026c8       ??_C@_0BG@JJECJFKO@?$CDAC?5?9?5Alignment?5Check@ 000000000000ffc8     DxeCpuExceptionHandlerLib:CpuExceptionCommon.obj
 0002:000026e0       ??_C@_0BE@CIGFNHHH@?$CDMC?5?9?5Machine?9Check@ 000000000000ffe0     DxeCpuExceptionHandlerLib:CpuExceptionCommon.obj
 0002:000026f8       ??_C@_0BK@IKBNPED@?$CDXM?5?9?5SIMD?5floating?9point@ 000000000000fff8     DxeCpuExceptionHandlerLib:CpuExceptionCommon.obj
 0002:00002718       ??_C@_0BF@MIEADEIE@?$CDVE?5?9?5Virtualization@ 0000000000010018     DxeCpuExceptionHandlerLib:CpuExceptionCommon.obj
 0002:00002730       ??_C@_0BJ@POMBGBMH@?$CDCP?5?9?5Control?5Protection@ 0000000000010030     DxeCpuExceptionHandlerLib:CpuExceptionCommon.obj
 0002:00002750       ??_C@_0BI@HOPEKCJH@?$CDVC?5?9?5VMM?5Communication@ 0000000000010050     DxeCpuExceptionHandlerLib:CpuExceptionCommon.obj
 0002:00002768       ??_C@_0CJ@NIJFIMND@?$CB?$CB?$CB?$CB?5Can?8t?5find?5image?5informati@ 0000000000010068     DxeCpuExceptionHandlerLib:CpuExceptionCommon.obj
 0002:00002798       ??_C@_0CD@FDHAHDMO@?$CB?$CB?$CB?$CB?5Find?5image?5based?5on?5IP?$CI0x?$CF@ 0000000000010098     DxeCpuExceptionHandlerLib:CpuExceptionCommon.obj
 0002:000027bc       ??_C@_02ECNOPIAA@?$CFa@    00000000000100bc     DxeCpuExceptionHandlerLib:CpuExceptionCommon.obj
 0002:000027c0       ??_C@_09KCCBLILG@?$CINo?5PDB?$CJ?5@ 00000000000100c0     DxeCpuExceptionHandlerLib:CpuExceptionCommon.obj
 0002:000027d0       ??_C@_0CM@GKFIOCPE@?5?$CIImageBase?$DN?$CF016lp?0?5EntryPoint?$DN@ 00000000000100d0     DxeCpuExceptionHandlerLib:CpuExceptionCommon.obj
 0002:00002800       mExceptionNameStr          0000000000010100     DxeCpuExceptionHandlerLib:CpuExceptionCommon.obj
 0002:000028f0       mExceptionReservedStr      00000000000101f0     DxeCpuExceptionHandlerLib:CpuExceptionCommon.obj
 0002:00002900       ??_C@_0GB@FAJPOEDK@D?3?2uefi_specs_personal_collecti@ 0000000000010200     DxeServicesTableLib:DxeServicesTableLib.obj
 0002:00002968       ??_C@_0BE@IOIFLNKO@gDS?5?$CB?$DN?5?$CI?$CIvoid?5?$CK?$CJ?50?$CJ@ 0000000000010268     DxeServicesTableLib:DxeServicesTableLib.obj
 0002:00002980       ??_C@_0GD@BIPDCFCA@D?3?2uefi_specs_personal_collecti@ 0000000000010280     BaseXApicX2ApicLib:BaseXApicX2ApicLib.obj
 0002:000029e8       ??_C@_0BJ@MBLFAKBO@ApicBaseMsr?4Bits?4EN?5?$CB?$DN?50@ 00000000000102e8     BaseXApicX2ApicLib:BaseXApicX2ApicLib.obj
 0002:00002a08       ??_C@_0BL@KIAIPKNJ@Msr?4GhcbInfo?4Function?5?$DN?$DN?50@ 0000000000010308     CcExitLib:PeiDxeCcExitVcHandler.obj
 0002:00002a30       ??_C@_0FK@FLJAFGOA@D?3?2uefi_specs_personal_collecti@ 0000000000010330     CcExitLib:PeiDxeCcExitVcHandler.obj
 0002:00002a90       ??_C@_0O@EHFDMHO@Msr?4Ghcb?5?$CB?$DN?50@ 0000000000010390     CcExitLib:PeiDxeCcExitVcHandler.obj
 0002:00002aa0       ??_C@_0CA@INIPEKFI@TDX?3?5?$CDTD?$FLEPT?$FN?5instruction?5?$CI?$CFp?$CJ?3@ 00000000000103a0     CcExitLib:CcExitVeHandler.obj
 0002:00002ac0       ??_C@_0BB@LFIJDNII@TdxMmioReadWrite@ 00000000000103c0     CcExitLib:CcExitVeHandler.obj
 0002:00002ad8       ??_C@_0BL@CIFHDCEM@?$CFa?3?5Invalid?5MmioSize?5?9?5?$CFd?6@ 00000000000103d8     CcExitLib:CcExitVeHandler.obj
 0002:00002af8       ??_C@_0BP@DCBJNAPP@?$CFa?3?5TdVmcall?5failed?5with?5?$CFllx?6@ 00000000000103f8     CcExitLib:CcExitVeHandler.obj
 0002:00002b18       ??_C@_0BK@PGIIJAFB@ParseMmioExitInstructions@ 0000000000010418     CcExitLib:CcExitVeHandler.obj
 0002:00002b38       ??_C@_0CN@GHADFEKA@?$CFa?3?5Initialize?5InstructionData?5@ 0000000000010438     CcExitLib:CcExitVeHandler.obj
 0002:00002b68       ??_C@_0CP@BMANJKEM@?$CFa?3?5Parse?5Ext?4ModRm?4Mod?5error?$CB?5@ 0000000000010468     CcExitLib:CcExitVeHandler.obj
 0002:00002b98       ??_C@_0BO@JCPJJNNJ@?$CFa?3?5Invalid?5MMIO?5opcode?5?$CI?$CFx?$CJ?6@ 0000000000010498     CcExitLib:CcExitVeHandler.obj
 0002:00002bb8       ??_C@_08KIIEBNMF@MmioExit@ 00000000000104b8     CcExitLib:CcExitVeHandler.obj
 0002:00002bc8       ??_C@_0CE@LGDLDEEP@?$CFa?3?5TDCALL?5failed?5with?5status?$DN?$CF@ 00000000000104c8     CcExitLib:CcExitVeHandler.obj
 0002:00002bf0       ??_C@_0DI@FMKEJOOF@?$CFa?3?5EPT?9violation?5?$CDVE?5on?5privat@ 00000000000104f0     CcExitLib:CcExitVeHandler.obj
 0002:00002c28       ??_C@_0DE@LIAFHCLG@?$CFa?3?5Address?5is?5not?5correct?$CB?5?$CI?$CFd@ 0000000000010528     CcExitLib:CcExitVeHandler.obj
 0002:00002c60       ??_C@_0M@JADJBBKG@Status?5?$DN?$DN?50@ 0000000000010560     CcExitLib:CcExitVeHandler.obj
 0002:00002c70       ??_C@_0FE@LMLNMBBO@D?3?2uefi_specs_personal_collecti@ 0000000000010570     CcExitLib:CcExitVeHandler.obj
 0002:00002cc8       ??_C@_0DH@CLLFIEPJ@?$CDVE?5happened?4?5TDGETVEINFO?5faile@ 00000000000105c8     CcExitLib:CcExitVeHandler.obj
 0002:00002d00       ??_C@_0EC@HCHGOLKM@CPUID?5?$CDVE?5happened?0?5ExitReasion@ 0000000000010600     CcExitLib:CcExitVeHandler.obj
 0002:00002d50       ??_C@_0EL@EJGLLOEK@IO_Instruction?5?$CDVE?5happened?0?5Ex@ 0000000000010650     CcExitLib:CcExitVeHandler.obj
 0002:00002da0       ??_C@_0GE@POMGBPLO@RDMSR?5?$CDVE?5happened?0?5ExitReasion@ 00000000000106a0     CcExitLib:CcExitVeHandler.obj
 0002:00002e10       ??_C@_0GE@ICDDODDA@WRMSR?5?$CDVE?5happened?0?5ExitReasion@ 0000000000010710     CcExitLib:CcExitVeHandler.obj
 0002:00002e80       ??_C@_0EB@LIHEBDAF@MMIO?5?$CDVE?5happened?0?5ExitReasion?5@ 0000000000010780     CcExitLib:CcExitVeHandler.obj
 0002:00002ed0       ??_C@_0EH@CMBBBEBM@Unsupported?5?$CDVE?5happened?0?5ExitR@ 00000000000107d0     CcExitLib:CcExitVeHandler.obj
 0002:00002f20       ??_C@_0FE@FHEKCDPF@?$CDVE?5Error?5?$CI0x?$CFllx?$CJ?5returned?5fro@ 0000000000010820     CcExitLib:CcExitVeHandler.obj
 0002:00002f78       ??_C@_0CC@NFFCFAPI@MMIO?5using?5encrypted?5memory?3?5?$CFl@ 0000000000010878     CcExitLib:CcExitVcHandler.obj
 0002:00002fa0       ??_C@_0BK@ENLBMHMC@Invalid?5MMIO?5opcode?5?$CI?$CFx?$CJ?6@ 00000000000108a0     CcExitLib:CcExitVcHandler.obj
 0002:00002fc0       ??_C@_0FE@FEAIALFN@D?3?2uefi_specs_personal_collecti@ 00000000000108c0     CcExitLib:CcExitVcHandler.obj
 0002:00003018       ??_C@_0BE@NGBOFDPN@Reg?5?$CB?$DN?5?$CI?$CIvoid?5?$CK?$CJ?50?$CJ@ 0000000000010918     CcExitLib:CcInstruction.obj
 0002:00003030       ??_C@_0FC@GJGFCDJA@D?3?2uefi_specs_personal_collecti@ 0000000000010930     CcExitLib:CcInstruction.obj
 0002:00003090       ??_C@_0EN@HLCGLLBG@?$CIExitInfo?4Elements?4Lower32Bits?5@ 0000000000010990     CcExitLib:CcExitLib.obj
 0002:000030e0       ??_C@_0EO@PKMHJHBC@D?3?2uefi_specs_personal_collecti@ 00000000000109e0     CcExitLib:CcExitLib.obj
 0002:00003130       ??_C@_0CA@KLMDHBCA@Ghcb?9?$DOSaveArea?4SwExitInfo2?5?$CB?$DN?50@ 0000000000010a30     CcExitLib:CcExitLib.obj
 0002:00003150       ??_C@_0GF@KMHDEKMA@D?3?2uefi_specs_personal_collecti@ 0000000000010a50     UefiMemoryAllocationLib:MemoryAllocationLib.obj
 0002:000031b8       ??_C@_0BA@DAGHIEBA@?$CIPort?5?$CG?51?$CJ?5?$DN?$DN?50@ 0000000000010ab8     BaseIoLibIntrinsicSev:IoLibMsc.obj
 0002:000031d0       ??_C@_0FF@GCKLFLDF@D?3?2uefi_specs_personal_collecti@ 0000000000010ad0     BaseIoLibIntrinsicSev:IoLibMsc.obj
 0002:00003228       ??_C@_0BA@HCECIDGN@?$CIPort?5?$CG?53?$CJ?5?$DN?$DN?50@ 0000000000010b28     BaseIoLibIntrinsicSev:IoLibMsc.obj
 0002:00003240       ??_C@_0FC@MAJHMCGF@D?3?2uefi_specs_personal_collecti@ 0000000000010b40     BaseIoLibIntrinsicSev:IoLib.obj
 0002:00003298       ??_C@_0BD@KOOFJLFH@?$CIAddress?5?$CG?51?$CJ?5?$DN?$DN?50@ 0000000000010b98     BaseIoLibIntrinsicSev:IoLib.obj
 0002:000032b0       ??_C@_0BD@OMMAJMCK@?$CIAddress?5?$CG?53?$CJ?5?$DN?$DN?50@ 0000000000010bb0     BaseIoLibIntrinsicSev:IoLib.obj
 0002:000032c8       ??_C@_0BD@GIIKJCNA@?$CIAddress?5?$CG?57?$CJ?5?$DN?$DN?50@ 0000000000010bc8     BaseIoLibIntrinsicSev:IoLib.obj
 0002:000032e0       ??_C@_0FN@DOAHIAPG@D?3?2uefi_specs_personal_collecti@ 0000000000010be0     BaseIoLibIntrinsicSev:IoLibInternalTdx.obj
 0002:00003340       ??_C@_0BH@MAAHKCPC@String?5?$CB?$DN?5?$CI?$CIvoid?5?$CK?$CJ?50?$CJ@ 0000000000010c40     BaseLib:String.obj
 0002:00003360       ??_C@_0EI@LOLLHGDK@D?3?2uefi_specs_personal_collecti@ 0000000000010c60     BaseLib:String.obj
 0002:000033a8       ??_C@_0CC@GFNLNIOC@?$CI?$CIUINTN?$CJString?5?$CG?50x00000001?$CJ?5?$DN?$DN@ 0000000000010ca8     BaseLib:String.obj
 0002:000033d0       ??_C@_0DI@MDIKFADO@Length?5?$DM?5_gPcd_FixedAtBuild_Pcd@ 0000000000010cd0     BaseLib:String.obj
 0002:00003410       ??_C@_0EL@GLNKFHII@D?3?2uefi_specs_personal_collecti@ 0000000000010d10     BaseLib:Unaligned.obj
 0002:00003460       ??_C@_0EM@OAPOMMAE@D?3?2uefi_specs_personal_collecti@ 0000000000010d60     BaseLib:SafeString.obj
 0002:000034b0       ??_C@_0BJ@CNKJJNE@?$CIBuffer?5?$CB?$DN?5?$CI?$CIvoid?5?$CK?$CJ?50?$CJ?$CJ@ 0000000000010db0     BaseLib:SafeString.obj
 0002:000034d0       ??_C@_0N@KGHEHMDL@Divisor?5?$CB?$DN?50@ 0000000000010dd0     BaseLib:DivU64x32.obj
 0002:000034e0       ??_C@_0ED@MKGCMJG@?$CILength?5?9?51?$CJ?5?$DM?$DN?5?$CI0xFFFFFFFFFFFF@ 0000000000010de0     BaseMemoryLibRepStr:CopyMemWrapper.obj
 0002:00003530       ??_C@_0FM@IDPIEKJH@D?3?2uefi_specs_personal_collecti@ 0000000000010e30     BaseMemoryLibRepStr:CopyMemWrapper.obj
 0002:00003590       ??_C@_0DO@MAOBOFEG@?$CILength?5?9?51?$CJ?5?$DM?$DN?5?$CI0xFFFFFFFFFFFF@ 0000000000010e90     BaseMemoryLibRepStr:CopyMemWrapper.obj
 0002:000035d0       ??_C@_0DI@DAGDPLPG@?$CILength?5?9?51?$CJ?5?$DM?$DN?5?$CI0xFFFFFFFFFFFF@ 0000000000010ed0     BaseMemoryLibRepStr:SetMemWrapper.obj
 0002:00003610       ??_C@_0FL@MFFLICHL@D?3?2uefi_specs_personal_collecti@ 0000000000010f10     BaseMemoryLibRepStr:SetMemWrapper.obj
 0002:00003670       ??_C@_0FH@MODEAFEI@D?3?2uefi_specs_personal_collecti@ 0000000000010f70     BasePrintLib:PrintLibInternal.obj
 0002:000036d0       ??_C@_0EB@HDGIDCIO@?$CIBufferSize?5?$DM?$DN?5?$CI_gPcd_FixedAtBu@ 0000000000010fd0     BasePrintLib:PrintLibInternal.obj
 0002:00003718       ??_C@_0BJ@PPAKKDJG@?$CIFormat?5?$CB?$DN?5?$CI?$CIvoid?5?$CK?$CJ?50?$CJ?$CJ@ 0000000000011018     BasePrintLib:PrintLibInternal.obj
 0002:00003740       ??_C@_0ED@LPDDCECB@?$CIBufferSize?5?$DM?$DN?5?$CI_gPcd_FixedAtBu@ 0000000000011040     BasePrintLib:PrintLibInternal.obj
 0002:00003790       ??_C@_0IM@BFJJFLGB@?$CIStrnLenS?5?$CI?$CICHAR16?5?$CK?$CJFormat?0?5?$CI_@ 0000000000011090     BasePrintLib:PrintLibInternal.obj
 0002:00003820       ??_C@_0ID@PLGJGION@?$CIAsciiStrnLenS?5?$CIFormat?0?5?$CI_gPcd_@ 0000000000011120     BasePrintLib:PrintLibInternal.obj
 0002:000038a8       ??_C@_0O@MLOLIMFM@?$DMnull?5string?$DO@ 00000000000111a8     BasePrintLib:PrintLibInternal.obj
 0002:000038b8       ??_C@_0M@BJJDNPHK@?$DMnull?5guid?$DO@ 00000000000111b8     BasePrintLib:PrintLibInternal.obj
 0002:000038c8       ??_C@_0DB@PMLHLBMO@?$CF08x?9?$CF04x?9?$CF04x?9?$CF02x?$CF02x?9?$CF02x?$CF02@ 00000000000111c8     BasePrintLib:PrintLibInternal.obj
 0002:00003900       ??_C@_0M@LHGBCIKM@?$DMnull?5time?$DO@ 0000000000011200     BasePrintLib:PrintLibInternal.obj
 0002:00003910       ??_C@_0BK@FCPKCIDD@?$CF02d?1?$CF02d?1?$CF04d?5?5?$CF02d?3?$CF02d@ 0000000000011210     BasePrintLib:PrintLibInternal.obj
 0002:0000392c       ??_C@_04JIMNDDED@?$CF08X@  000000000001122c     BasePrintLib:PrintLibInternal.obj
 0002:00003934       ??_C@_02PCIJFNDE@?$AN?6@   0000000000011234     BasePrintLib:PrintLibInternal.obj
 0002:00003938       ??_C@_01LIIJDEN@?$AN@      0000000000011238     BasePrintLib:PrintLibInternal.obj
 0002:00003940       mWarningString             0000000000011240     BasePrintLib:PrintLibInternal.obj
 0002:00003a10       mErrorString               0000000000011310     BasePrintLib:PrintLibInternal.obj
 0002:00003cf0       mHexStr                    00000000000115f0     BasePrintLib:PrintLibInternal.obj
 0002:00003d00       ??_C@_0BO@BAKALPJK@?$CI?$CIAddress?$CJ?5?$CG?5?$HO0xfffffff?$CJ?5?$DN?$DN?50@ 0000000000011600     BasePciExpressLib:PciExpressLib.obj
 0002:00003d20       ??_C@_0FJ@LPMKGGAK@D?3?2uefi_specs_personal_collecti@ 0000000000011620     BasePciExpressLib:PciExpressLib.obj
 0002:00003d80       ??_C@_0CG@KIJMJHBN@?$CI?$CIAddress?$CJ?5?$CG?5?$CI?$HO0xffff0ff?5?$HM?5?$CI0?$CJ?$CJ@ 0000000000011680     BasePciCf8Lib:PciCf8Lib.obj
 0002:00003db0       ??_C@_0FB@PDIKDBMH@D?3?2uefi_specs_personal_collecti@ 00000000000116b0     BasePciCf8Lib:PciCf8Lib.obj
 0002:00003e08       ??_C@_0CG@EHFOPMCD@?$CI?$CIAddress?$CJ?5?$CG?5?$CI?$HO0xffff0ff?5?$HM?5?$CI1?$CJ?$CJ@ 0000000000011708     BasePciCf8Lib:PciCf8Lib.obj
 0002:00003e30       ??_C@_0CG@EDKLCMBO@?$CI?$CIAddress?$CJ?5?$CG?5?$CI?$HO0xffff0ff?5?$HM?5?$CI3?$CJ?$CJ@ 0000000000011730     BasePciCf8Lib:PciCf8Lib.obj
 0002:00003e58       ??_C@_0DB@KLAMONNG@?$CI?$CIAddress?$CJ?5?$CG?5?$CI0xfffffffff000000@ 0000000000011758     BasePciSegmentLibPci:PciSegmentLib.obj
 0002:00003e90       ??_C@_0FM@DFPPBAEL@D?3?2uefi_specs_personal_collecti@ 0000000000011790     BasePciSegmentLibPci:PciSegmentLib.obj
 0002:00003ef0       ??_C@_0DB@EEMOIGOI@?$CI?$CIAddress?$CJ?5?$CG?5?$CI0xfffffffff000000@ 00000000000117f0     BasePciSegmentLibPci:PciSegmentLib.obj
 0002:00003f28       ??_C@_0DB@EADLFGNF@?$CI?$CIAddress?$CJ?5?$CG?5?$CI0xfffffffff000000@ 0000000000011828     BasePciSegmentLibPci:PciSegmentLib.obj
 0002:00003f60       ??_C@_0DC@MNBGGAMA@?$CB?$CI?$CIBOOLEAN?$CJ?5?$CI?$CI?$CISmBusAddress?$CJ?5?$CG?5@ 0000000000011860     BaseSmbusLibNull:BaseSmbusLibNull.obj
 0002:00003fa0       ??_C@_0FL@EAEHJIKA@D?3?2uefi_specs_personal_collecti@ 00000000000118a0     BaseSmbusLibNull:BaseSmbusLibNull.obj
 0002:00004000       ??_C@_0CE@OJFHDCAM@?$CI?$CI?$CISmBusAddress?$CJ?5?$DO?$DO?58?$CJ?5?$CG?50xff?$CJ?5@ 0000000000011900     BaseSmbusLibNull:BaseSmbusLibNull.obj
 0002:00004028       ??_C@_0CF@PEDOHLEG@?$CI?$CI?$CISmBusAddress?$CJ?5?$DO?$DO?516?$CJ?5?$CG?50x3f?$CJ@ 0000000000011928     BaseSmbusLibNull:BaseSmbusLibNull.obj
 0002:00004050       ??_C@_0CK@KLMJNBBF@?$CI?$CISmBusAddress?$CJ?5?$CG?5?$HO?$CI0x00800000?5@ 0000000000011950     BaseSmbusLibNull:BaseSmbusLibNull.obj
 0002:00004080       ??_C@_0CF@KKIFDANH@?$CI?$CI?$CISmBusAddress?$CJ?5?$DO?$DO?516?$CJ?5?$CG?50x3f?$CJ@ 0000000000011980     BaseSmbusLibNull:BaseSmbusLibNull.obj
 0002:000040a8       ??_C@_0CG@LLCBODFD@?$CI?$CI?$CISmBusAddress?$CJ?5?$DO?$DO?516?$CJ?5?$CG?50x3f?$CJ@ 00000000000119a8     BaseSmbusLibNull:BaseSmbusLibNull.obj
 0002:000040d0       ??_C@_0BM@HEGGCHLH@WriteBuffer?5?$CB?$DN?5?$CI?$CIvoid?5?$CK?$CJ?50?$CJ@ 00000000000119d0     BaseSmbusLibNull:BaseSmbusLibNull.obj
 0002:000040f0       ??_C@_0BJ@FKJAAJLB@SpinLock?5?$CB?$DN?5?$CI?$CIvoid?5?$CK?$CJ?50?$CJ@ 00000000000119f0     BaseSynchronizationLib:SynchronizationMsc.obj
 0002:00004110       ??_C@_0GD@DAFBJEGP@D?3?2uefi_specs_personal_collecti@ 0000000000011a10     BaseSynchronizationLib:SynchronizationMsc.obj
 0002:00004178       ??_C@_0DF@GPAOIIHK@LockValue?5?$DN?$DN?5?$CI?$CIUINTN?$CJ?52?$CJ?5?$HM?$HM?5Loc@ 0000000000011a78     BaseSynchronizationLib:SynchronizationMsc.obj
 0002:000041b0       ??_C@_0BJ@OAAKNPEN@Pe32Data?5?$CB?$DN?5?$CI?$CIvoid?5?$CK?$CJ?50?$CJ@ 0000000000011ab0     BasePeCoffGetEntryPointLib:PeCoffGetEntryPoint.obj
 0002:000041d0       ??_C@_0GI@BGLOKNAK@D?3?2uefi_specs_personal_collecti@ 0000000000011ad0     BasePeCoffGetEntryPointLib:PeCoffGetEntryPoint.obj
 0002:00004238       ??_C@_0CB@GEABOFIF@Failed?5call?5TDCALL_TDINFO?4?5?$CFllx@ 0000000000011b38     TdxLib:TdInfo.obj
 0002:00004260       ??_C@_0FE@LIGPAOFO@D?3?2uefi_specs_personal_collecti@ 0000000000011b60     BaseLib:DivU64x32Remainder.obj
 0002:00004308       __volatile_metadata        0000000000011c08     <linker-defined>
 0003:00000000       gEfiLoadedImageProtocolGuid 0000000000011f60     BootScriptExecutorDxe:AutoGen.obj
 0003:00000010       gEfiBootScriptExecutorVariableGuid 0000000000011f70     BootScriptExecutorDxe:AutoGen.obj
 0003:00000020       gEdkiiSmmLegacyBootProtocolGuid 0000000000011f80     BootScriptExecutorDxe:AutoGen.obj
 0003:00000030       gEfiLockBoxProtocolGuid    0000000000011f90     BootScriptExecutorDxe:AutoGen.obj
 0003:00000040       gPcdProtocolGuid           0000000000011fa0     BootScriptExecutorDxe:AutoGen.obj
 0003:00000050       gEfiDxeSmmReadyToLockProtocolGuid 0000000000011fb0     BootScriptExecutorDxe:AutoGen.obj
 0003:00000060       gEdkiiSmmExitBootServicesProtocolGuid 0000000000011fc0     BootScriptExecutorDxe:AutoGen.obj
 0003:00000070       gEfiFirmwareVolume2ProtocolGuid 0000000000011fd0     BootScriptExecutorDxe:AutoGen.obj
 0003:00000080       gUefiOvmfPkgPlatformInfoGuid 0000000000011fe0     BootScriptExecutorDxe:AutoGen.obj
 0003:00000090       gEfiDevicePathUtilitiesProtocolGuid 0000000000011ff0     BootScriptExecutorDxe:AutoGen.obj
 0003:000000a0       gEfiBootScriptExecutorContextGuid 0000000000012000     BootScriptExecutorDxe:AutoGen.obj
 0003:000000b0       gEfiSmmReadyToLockProtocolGuid 0000000000012010     BootScriptExecutorDxe:AutoGen.obj
 0003:000000c0       gEfiHobListGuid            0000000000012020     BootScriptExecutorDxe:AutoGen.obj
 0003:000000d0       gEfiSmmBase2ProtocolGuid   0000000000012030     BootScriptExecutorDxe:AutoGen.obj
 0003:000000e0       gEfiDxeServicesTableGuid   0000000000012040     BootScriptExecutorDxe:AutoGen.obj
 0003:000000f0       gEfiCallerIdGuid           0000000000012050     BootScriptExecutorDxe:AutoGen.obj
 0003:00000100       mBootScriptExecutorImageGuid 0000000000012060     BootScriptExecutorDxe:ScriptExecute.obj
 0003:00000110       mBootScriptSmmPrivateDataGuid 0000000000012070     DxeS3BootScriptLib:BootScriptSave.obj
 0003:00000120       mBootScriptDataBootTimeGuid 0000000000012080     DxeS3BootScriptLib:BootScriptSave.obj
 0003:00000130       mS3BootScriptAcpiS3Enable  0000000000012090     DxeS3BootScriptLib:BootScriptSave.obj
 0003:00000138       mBootScriptTableBaseGuid   0000000000012098     DxeS3BootScriptLib:BootScriptSave.obj
 0003:00000148       mBootScriptDataGuid        00000000000120a8     DxeS3BootScriptLib:BootScriptSave.obj
 0003:00000160       mExceptionHandlerData      00000000000120c0     DxeCpuExceptionHandlerLib:DxeException.obj
 0003:00000180       mAddressEncMask            00000000000120e0     BootScriptExecutorDxe:ScriptExecute.obj
 0003:00000188       mPage1GSupport             00000000000120e8     BootScriptExecutorDxe:ScriptExecute.obj
 0003:00000190       mPageFaultIndex            00000000000120f0     BootScriptExecutorDxe:SetIdtEntry.obj
 0003:000001a0       mPcd                       0000000000012100     DxePcdLib:DxePcdLib.obj
 0003:000001a8       gST                        0000000000012108     UefiBootServicesTableLib:UefiBootServicesTableLib.obj
 0003:000001b0       gBS                        0000000000012110     UefiBootServicesTableLib:UefiBootServicesTableLib.obj
 0003:000001b8       gImageHandle               0000000000012118     UefiBootServicesTableLib:UefiBootServicesTableLib.obj
 0003:000001c0       gRT                        0000000000012120     UefiRuntimeServicesTableLib:UefiRuntimeServicesTableLib.obj
 0003:000001c8       mDevicePathLibDevicePathUtilities 0000000000012128     UefiDevicePathLibDevicePathProtocol:UefiDevicePathLib.obj
 0003:000001d0       mHobList                   0000000000012130     DxeHobLib:HobLib.obj
 0003:000001e0       mLockBoxGlobal             0000000000012140     LockBoxDxeLib:LockBoxLib.obj
 0003:000001f8       mRegistrationSmmLegacyBoot 0000000000012158     DxeS3BootScriptLib:BootScriptSave.obj
 0003:00000200       mS3BootScriptTableAllocated 0000000000012160     DxeS3BootScriptLib:BootScriptSave.obj
 0003:00000208       mEventDxeSmmReadyToLock    0000000000012168     DxeS3BootScriptLib:BootScriptSave.obj
 0003:00000210       mBootScriptSmst            0000000000012170     DxeS3BootScriptLib:BootScriptSave.obj
 0003:00000218       mRegistrationSmmExitBootServices 0000000000012178     DxeS3BootScriptLib:BootScriptSave.obj
 0003:00000220       mRegistrationSmmReadyToLock 0000000000012180     DxeS3BootScriptLib:BootScriptSave.obj
 0003:00000228       mS3BootScriptTableSmmAllocated 0000000000012188     DxeS3BootScriptLib:BootScriptSave.obj
 0003:00000230       gDS                        0000000000012190     DxeServicesTableLib:DxeServicesTableLib.obj
 0003:00000238       gParity                    0000000000012198     PcAtSerialPortLib:SerialPortLib.obj
 0003:00000239       gBreakSet                  0000000000012199     PcAtSerialPortLib:SerialPortLib.obj
 0003:00000251       mTdDataReturned            00000000000121b1     TdxLib:TdInfo.obj
 0003:00000258       mTdSharedPageMask          00000000000121b8     TdxLib:TdInfo.obj
 0003:00000280       mReservedVectorsData       00000000000121e0     <common>
 0003:00006280       mExternalInterruptHandlerTable 00000000000181e0     <common>
 0003:00006a80       mS3BootScriptTablePtr      00000000000189e0     <common>
 0003:00006a88       mS3BootScriptTableSmmPtr   00000000000189e8     <common>
 0003:00006aa0       mPageFaultUplink           0000000000018a00     <common>
 0003:00006ae0       mPhyMask                   0000000000018a40     <common>
 0003:00006ae8       mOriginalHandler           0000000000018a48     <common>
 0003:00006af0       mPageFaultBuffer           0000000000018a50     <common>

 entry point at        0001:00001a98

 Static symbols

 0001:00000025       AsmTransferControl.0       00000000000002e5     BootScriptExecutorDxe:S3Asm.obj
 0001:00000054       @jmp_addr                  0000000000000314     BootScriptExecutorDxe:S3Asm.obj
 0001:0000010c       PageFaultHandlerHook.1     00000000000003cc     BootScriptExecutorDxe:S3Asm.obj
 0001:0000013f       AsmCpuid.0                 00000000000003ff     BaseLib:CpuId.obj
 0001:00000144       AsmCpuid.1                 0000000000000404     BaseLib:CpuId.obj
 0001:0000014b       AsmCpuid.2                 000000000000040b     BaseLib:CpuId.obj
 0001:00000154       AsmCpuid.3                 0000000000000414     BaseLib:CpuId.obj
 0001:000001ea       InternalX86DisablePaging64.0 00000000000004aa     BaseLib:DisablePaging64.obj
 0001:00000211       mTransitionEnd             00000000000004d1     BaseLib:DisablePaging64.obj
 0001:00000280       AsmIdtVectorBegin          0000000000000540     DxeCpuExceptionHandlerLib:ExceptionHandlerAsm.obj
 0001:00001480       AsmIdtVectorEnd            0000000000001740     DxeCpuExceptionHandlerLib:ExceptionHandlerAsm.obj
 0001:00001480       HookAfterStubHeaderBegin   0000000000001740     DxeCpuExceptionHandlerLib:ExceptionHandlerAsm.obj
 0001:00001485       VectorNum                  0000000000001745     DxeCpuExceptionHandlerLib:ExceptionHandlerAsm.obj
 0001:00001492       HookAfterStubHeaderEnd     0000000000001752     DxeCpuExceptionHandlerLib:ExceptionHandlerAsm.obj
 0001:000014ae       HookAfterStubHeaderEnd.0   000000000000176e     DxeCpuExceptionHandlerLib:ExceptionHandlerAsm.obj
 0001:000014cf       NoErrorCode                000000000000178f     DxeCpuExceptionHandlerLib:ExceptionHandlerAsm.obj
 0001:000014db       HasErrorCode               000000000000179b     DxeCpuExceptionHandlerLib:ExceptionHandlerAsm.obj
 0001:000015a9       VcDebugRegs                0000000000001869     DxeCpuExceptionHandlerLib:ExceptionHandlerAsm.obj
 0001:000015b2       DrFinish                   0000000000001872     DxeCpuExceptionHandlerLib:ExceptionHandlerAsm.obj
 0001:0000163e       CetDone                    00000000000018fe     DxeCpuExceptionHandlerLib:ExceptionHandlerAsm.obj
 0001:000016be       ErrorCode                  000000000000197e     DxeCpuExceptionHandlerLib:ExceptionHandlerAsm.obj
 0001:000016c6       DoReturn                   0000000000001986     DxeCpuExceptionHandlerLib:ExceptionHandlerAsm.obj
 0001:000016e8       DoIret                     00000000000019a8     DxeCpuExceptionHandlerLib:ExceptionHandlerAsm.obj
 0001:0000177a       TdVmCallCpuid.no_return_data 0000000000001a3a     CcExitLib:TdVmcallCpuid.obj
 0001:000017c5       AsmCpuidEx.0               0000000000001a85     BaseLib:CpuIdEx.obj
 0001:000017cc       AsmCpuidEx.1               0000000000001a8c     BaseLib:CpuIdEx.obj
 0001:000017d3       AsmCpuidEx.2               0000000000001a93     BaseLib:CpuIdEx.obj
 0001:000017dc       AsmCpuidEx.3               0000000000001a9c     BaseLib:CpuIdEx.obj
 0001:00001839       TdVmCall.no_return_data    0000000000001af9     BaseLib:TdVmcall.obj
 0001:000018cb       TdCall.exit                0000000000001b8b     BaseLib:TdCall.obj
 0001:0000195a       InternalMemCopyMem.0       0000000000001c1a     BaseMemoryLibRepStr:CopyMem.obj
 0001:0000196a       @CopyBackward              0000000000001c2a     BaseMemoryLibRepStr:CopyMem.obj
 0001:00001973       @CopyBytes                 0000000000001c33     BaseMemoryLibRepStr:CopyMem.obj
 0001:00001a6a       PvalidateExit              0000000000001d2a     BaseLib:Pvalidate.obj
 0001:00003238       FindHeaderByGuid           00000000000034f8 f   LockBoxDxeLib:LockBoxLib.obj
 0001:00007d54       $LN47                      0000000000008014     BaseXApicX2ApicLib:BaseXApicX2ApicLib.obj
 0001:00007d5c       $LN46                      000000000000801c     BaseXApicX2ApicLib:BaseXApicX2ApicLib.obj
 0001:00008110       IoExit                     00000000000083d0 f   CcExitLib:CcExitVeHandler.obj
 0001:000082a8       TdxMmioReadWrite           0000000000008568 f   CcExitLib:CcExitVeHandler.obj
 0001:00008350       ParseMmioExitInstructions  0000000000008610 f   CcExitLib:CcExitVeHandler.obj
 0001:00008768       MmioExit                   0000000000008a28 f   CcExitLib:CcExitVeHandler.obj
 0001:00008c74       UnsupportedExit            0000000000008f34 f   CcExitLib:CcExitVcHandler.obj
 0001:00008ca4       ValidateMmioMemory         0000000000008f64 f   CcExitLib:CcExitVcHandler.obj
 0001:00008cec       MmioExit                   0000000000008fac f   CcExitLib:CcExitVcHandler.obj
 0001:000092a8       MwaitExit                  0000000000009568 f   CcExitLib:CcExitVcHandler.obj
 0001:000092f8       MonitorExit                00000000000095b8 f   CcExitLib:CcExitVcHandler.obj
 0001:00009368       WbinvdExit                 0000000000009628 f   CcExitLib:CcExitVcHandler.obj
 0001:00009378       RdtscpExit                 0000000000009638 f   CcExitLib:CcExitVcHandler.obj
 0001:00009414       VmmCallExit                00000000000096d4 f   CcExitLib:CcExitVcHandler.obj
 0001:000094b8       MsrExit                    0000000000009778 f   CcExitLib:CcExitVcHandler.obj
 0001:00009610       IoioExit                   00000000000098d0 f   CcExitLib:CcExitVcHandler.obj
 0001:00009930       InvdExit                   0000000000009bf0 f   CcExitLib:CcExitVcHandler.obj
 0001:00009940       GetCpuidHyp                0000000000009c00 f   CcExitLib:CcExitVcHandler.obj
 0001:00009a34       GetCpuidFw                 0000000000009cf4 f   CcExitLib:CcExitVcHandler.obj
 0001:00009d40       CpuidExit                  000000000000a000 f   CcExitLib:CcExitVcHandler.obj
 0001:00009e7c       RdpmcExit                  000000000000a13c f   CcExitLib:CcExitVcHandler.obj
 0001:00009f18       RdtscExit                  000000000000a1d8 f   CcExitLib:CcExitVcHandler.obj
 0001:00009f94       Dr7WriteExit               000000000000a254 f   CcExitLib:CcExitVcHandler.obj
 0001:0000a02c       Dr7ReadExit                000000000000a2ec f   CcExitLib:CcExitVcHandler.obj
 0001:0000a4e8       GetEffectiveMemoryAddress  000000000000a7a8 f   CcExitLib:CcInstruction.obj
 0001:0000d300       ConfidentialComputingGuestHas 000000000000d5c0 f   DxeMemEncryptSevLib:DxeMemEncryptSevLibInternal.obj
 0003:00000198       mDeadLoopComparator        00000000000120f8     BaseLib:CpuDeadLoop.obj
 0003:000001d8       mCcProbeGuestType          0000000000012138     DxeCcProbeLib:DxeCcProbeLib.obj
 0003:000001d9       mCcProbed                  0000000000012139     DxeCcProbeLib:DxeCcProbeLib.obj
 0003:000001e8       StartOfEntries             0000000000012148     LockBoxDxeLib:LockBoxLib.obj
 0003:000001f0       EndOfEntries               0000000000012150     LockBoxDxeLib:LockBoxLib.obj
 0003:0000023a       mSevEncryptionMaskSaved    000000000001219a     DxeMemEncryptSevLib:DxeMemEncryptSevLibInternal.obj
 0003:00000240       mCurrentAttr               00000000000121a0     DxeMemEncryptSevLib:DxeMemEncryptSevLibInternal.obj
 0003:00000248       mSevEncryptionMask         00000000000121a8     DxeMemEncryptSevLib:DxeMemEncryptSevLibInternal.obj
 0003:00000250       mCurrentAttrRead           00000000000121b0     DxeMemEncryptSevLib:DxeMemEncryptSevLibInternal.obj
 0003:00000260       mRunningOnQ35              00000000000121c0     DxePciLibI440FxQ35:PciLib.obj
 0003:00000264       mAcpiTimerIoAddr           00000000000121c4     DxeAcpiTimerLib:DxeAcpiTimerLib.obj
 0005:00000000       $unwind$S3BootScriptInternalCloseTable 0000000000019200     DxeS3BootScriptLib:BootScriptSave.obj
 0005:00000000       $unwind$S3BootScriptSmmAtRuntimeCallBack 0000000000019200     DxeS3BootScriptLib:BootScriptSave.obj
 0005:00000000       $unwind$SaveSmmPriviateDataToLockBoxAtRuntime 0000000000019200     DxeS3BootScriptLib:BootScriptSave.obj
 0005:00000000       $unwind$IoRead16           0000000000019200     BaseIoLibIntrinsicSev:IoLibMsc.obj
 0005:00000000       $unwind$IoRead32           0000000000019200     BaseIoLibIntrinsicSev:IoLibMsc.obj
 0005:00000000       $unwind$SaveAndDisableInterrupts 0000000000019200     BaseLib:Cpu.obj
 0005:00000000       $unwind$StrnLenS           0000000000019200     BaseLib:SafeString.obj
 0005:00000000       $unwind$PciExpressRead16   0000000000019200     BasePciExpressLib:PciExpressLib.obj
 0005:00000000       $unwind$PciExpressRead32   0000000000019200     BasePciExpressLib:PciExpressLib.obj
 0005:00000000       $unwind$PciExpressRead8    0000000000019200     BasePciExpressLib:PciExpressLib.obj
 0005:00000000       $unwind$PciSegmentRead16   0000000000019200     BasePciSegmentLibPci:PciSegmentLib.obj
 0005:00000000       $unwind$PciSegmentRead32   0000000000019200     BasePciSegmentLibPci:PciSegmentLib.obj
 0005:00000000       $unwind$PciSegmentRead8    0000000000019200     BasePciSegmentLibPci:PciSegmentLib.obj
 0005:00000000       $unwind$PeCoffLoaderGetPdbPointer 0000000000019200     BasePeCoffGetEntryPointLib:PeCoffGetEntryPoint.obj
 0005:00000000       $unwind$ReleaseSpinLock    0000000000019200     BaseSynchronizationLib:SynchronizationMsc.obj
 0005:00000000       $unwind$_ModuleEntryPoint  0000000000019200     UefiDriverEntryPoint:DriverEntryPoint.obj
 0005:00000000       $unwind$MicroSecondDelay   0000000000019200     DxeAcpiTimerLib:AcpiTimerLib.obj
 0005:00000000       $unwind$CcGetRegisterPointer 0000000000019200     CcExitLib:CcInstruction.obj
 0005:00000000       $unwind$GetApicMode        0000000000019200     BaseXApicX2ApicLib:BaseXApicX2ApicLib.obj
 0005:00000008       $unwind$ProcessLibraryConstructorList 0000000000019208     BootScriptExecutorDxe:AutoGen.obj
 0005:00000020       $unwind$S3BootScriptEventCallBack 0000000000019220     DxeS3BootScriptLib:BootScriptSave.obj
 0005:00000020       $unwind$S3BootScriptSmmEventCallBack 0000000000019220     DxeS3BootScriptLib:BootScriptSave.obj
 0005:00000020       $unwind$ProcessLibraryDestructorList 0000000000019220     BootScriptExecutorDxe:AutoGen.obj
 0005:00000020       $unwind$IoRead64           0000000000019220     BaseIoLibIntrinsicSev:IoLib.obj
 0005:00000020       $unwind$IoRead8            0000000000019220     BaseIoLibIntrinsicSev:IoLibMsc.obj
 0005:00000020       $unwind$CpuDeadLoop        0000000000019220     BaseLib:CpuDeadLoop.obj
 0005:00000020       $unwind$GetHobList         0000000000019220     DxeHobLib:HobLib.obj
 0005:00000020       $unwind$GetPcdProtocol     0000000000019220     DxePcdLib:DxePcdLib.obj
 0005:00000020       $unwind$TdSharedPageMask   0000000000019220     TdxLib:TdInfo.obj
 0005:00000020       $unwind$FreePool           0000000000019220     UefiMemoryAllocationLib:MemoryAllocationLib.obj
 0005:00000020       $unwind$ConfidentialComputingGuestHas 0000000000019220     DxeMemEncryptSevLib:DxeMemEncryptSevLibInternal.obj
 0005:00000020       $unwind$UnsupportedExit    0000000000019220     CcExitLib:CcExitVcHandler.obj
 0005:00000020       $unwind$SerialPortInitialize 0000000000019220     PcAtSerialPortLib:SerialPortLib.obj
 0005:00000020       $unwind$GetLocalApicBaseAddress 0000000000019220     BaseXApicX2ApicLib:BaseXApicX2ApicLib.obj
 0005:00000020       $unwind$ReadLocalApicReg   0000000000019220     BaseXApicX2ApicLib:BaseXApicX2ApicLib.obj
 0005:00000028       $unwind$S3BootScriptExecutorEntryFunction 0000000000019228     BootScriptExecutorDxe:ScriptExecute.obj
 0005:00000044       $unwind$ReadyToLockEventNotify 0000000000019244     BootScriptExecutorDxe:ScriptExecute.obj
 0005:00000060       $unwind$BootScriptExecutorEntryPoint 0000000000019260     BootScriptExecutorDxe:ScriptExecute.obj
 0005:0000006c       $unwind$HookPageFaultHandler 000000000001926c     BootScriptExecutorDxe:SetIdtEntry.obj
 0005:00000078       $unwind$AcquirePage        0000000000019278     BootScriptExecutorDxe:SetIdtEntry.obj
 0005:00000078       $unwind$PageFaultHandler   0000000000019278     BootScriptExecutorDxe:SetIdtEntry.obj
 0005:00000078       $unwind$IoWrite16          0000000000019278     BaseIoLibIntrinsicSev:IoLibMsc.obj
 0005:00000078       $unwind$IoWrite32          0000000000019278     BaseIoLibIntrinsicSev:IoLibMsc.obj
 0005:00000078       $unwind$LShiftU64          0000000000019278     BaseLib:LShiftU64.obj
 0005:00000078       $unwind$RShiftU64          0000000000019278     BaseLib:RShiftU64.obj
 0005:00000078       $unwind$AsciiStrLen        0000000000019278     BaseLib:String.obj
 0005:00000078       $unwind$ZeroMem            0000000000019278     BaseMemoryLibRepStr:ZeroMemWrapper.obj
 0005:00000078       $unwind$PciExpressWrite16  0000000000019278     BasePciExpressLib:PciExpressLib.obj
 0005:00000078       $unwind$PciExpressWrite32  0000000000019278     BasePciExpressLib:PciExpressLib.obj
 0005:00000078       $unwind$PciExpressWrite8   0000000000019278     BasePciExpressLib:PciExpressLib.obj
 0005:00000078       $unwind$PciSegmentWrite16  0000000000019278     BasePciSegmentLibPci:PciSegmentLib.obj
 0005:00000078       $unwind$PciSegmentWrite32  0000000000019278     BasePciSegmentLibPci:PciSegmentLib.obj
 0005:00000078       $unwind$PciSegmentWrite8   0000000000019278     BasePciSegmentLibPci:PciSegmentLib.obj
 0005:00000078       $unwind$SmBusQuickRead     0000000000019278     BaseSmbusLibNull:BaseSmbusLibNull.obj
 0005:00000078       $unwind$SmBusQuickWrite    0000000000019278     BaseSmbusLibNull:BaseSmbusLibNull.obj
 0005:00000078       $unwind$GetCpuidHyp        0000000000019278     CcExitLib:CcExitVcHandler.obj
 0005:00000078       $unwind$CcDecodeModRm      0000000000019278     CcExitLib:CcInstruction.obj
 0005:00000078       $unwind$FindHeaderByGuid   0000000000019278     LockBoxDxeLib:LockBoxLib.obj
 0005:00000078       $unwind$DumpModuleImageInfo 0000000000019278     DxeCpuExceptionHandlerLib:CpuExceptionCommon.obj
 0005:00000084       $unwind$AsmDisablePaging64 0000000000019284     BaseLib:X86DisablePaging64.obj
 0005:00000084       $unwind$SaveLockBox        0000000000019284     LockBoxDxeLib:LockBoxLib.obj
 0005:0000009c       $unwind$SwitchStack        000000000001929c     BaseLib:SwitchStack.obj
 0005:000000a8       $unwind$BitFieldRead64     00000000000192a8     BaseLib:BitField.obj
 0005:000000a8       $unwind$DivU64x32Remainder 00000000000192a8     BaseLib:DivU64x32Remainder.obj
 0005:000000a8       $unwind$CopyGuid           00000000000192a8     BaseMemoryLibRepStr:MemLibGuid.obj
 0005:000000a8       $unwind$SetMem             00000000000192a8     BaseMemoryLibRepStr:SetMemWrapper.obj
 0005:000000a8       $unwind$InternalAcpiDelay  00000000000192a8     DxeAcpiTimerLib:AcpiTimerLib.obj
 0005:000000a8       $unwind$Dr7ReadExit        00000000000192a8     CcExitLib:CcExitVcHandler.obj
 0005:000000a8       $unwind$Dr7WriteExit       00000000000192a8     CcExitLib:CcExitVcHandler.obj
 0005:000000a8       $unwind$RdpmcExit          00000000000192a8     CcExitLib:CcExitVcHandler.obj
 0005:000000a8       $unwind$RdtscExit          00000000000192a8     CcExitLib:CcExitVcHandler.obj
 0005:000000a8       $unwind$RdtscpExit         00000000000192a8     CcExitLib:CcExitVcHandler.obj
 0005:000000a8       $unwind$VmmCallExit        00000000000192a8     CcExitLib:CcExitVcHandler.obj
 0005:000000a8       $unwind$CcInitInstructionData 00000000000192a8     CcExitLib:CcInstruction.obj
 0005:000000a8       $unwind$SerialPortWrite    00000000000192a8     PcAtSerialPortLib:SerialPortLib.obj
 0005:000000b8       $unwind$DebugPrint         00000000000192b8     BaseDebugLibSerialPort:DebugLib.obj
 0005:000000c0       $unwind$DebugPrintMarker   00000000000192c0     BaseDebugLibSerialPort:DebugLib.obj
 0005:000000d4       $unwind$DebugAssert        00000000000192d4     BaseDebugLibSerialPort:DebugLib.obj
 0005:000000dc       $unwind$PciCf8Write16      00000000000192dc     BasePciCf8Lib:PciCf8Lib.obj
 0005:000000dc       $unwind$PciCf8Write32      00000000000192dc     BasePciCf8Lib:PciCf8Lib.obj
 0005:000000dc       $unwind$PciCf8Write8       00000000000192dc     BasePciCf8Lib:PciCf8Lib.obj
 0005:000000dc       $unwind$EfiGetSystemConfigurationTable 00000000000192dc     UefiLib:UefiLib.obj
 0005:000000dc       $unwind$MsrExit            00000000000192dc     CcExitLib:CcExitVcHandler.obj
 0005:000000dc       $unwind$CcExitHandleVc     00000000000192dc     CcExitLib:PeiDxeCcExitVcHandler.obj
 0005:000000f4       $unwind$EfiCreateProtocolNotifyEvent 00000000000192f4     UefiLib:UefiLib.obj
 0005:00000100       $unwind$AllocateAcpiNvsPool 0000000000019300     LockBoxDxeLib:LockBoxDxe.obj
 0005:00000110       $unwind$MmioRead16         0000000000019310     BaseIoLibIntrinsicSev:IoLib.obj
 0005:00000110       $unwind$MmioRead32         0000000000019310     BaseIoLibIntrinsicSev:IoLib.obj
 0005:00000110       $unwind$MmioRead64         0000000000019310     BaseIoLibIntrinsicSev:IoLib.obj
 0005:00000110       $unwind$MmioRead8          0000000000019310     BaseIoLibIntrinsicSev:IoLib.obj
 0005:00000110       $unwind$TdIoRead16         0000000000019310     BaseIoLibIntrinsicSev:IoLibInternalTdx.obj
 0005:00000110       $unwind$TdIoRead32         0000000000019310     BaseIoLibIntrinsicSev:IoLibInternalTdx.obj
 0005:00000110       $unwind$TdIoWrite8         0000000000019310     BaseIoLibIntrinsicSev:IoLibInternalTdx.obj
 0005:00000110       $unwind$SetLockBoxAttributes 0000000000019310     LockBoxDxeLib:LockBoxLib.obj
 0005:00000110       $unwind$GetApicId          0000000000019310     BaseXApicX2ApicLib:BaseXApicX2ApicLib.obj
 0005:00000110       $unwind$LocalApicReadMsrReg64 0000000000019310     BaseXApicX2ApicLib:BaseXApicX2ApicLib.obj
 0005:00000118       $unwind$TdIoRead8          0000000000019318     BaseIoLibIntrinsicSev:IoLibInternalTdx.obj
 0005:00000118       $unwind$TdxMmioReadWrite   0000000000019318     CcExitLib:CcExitVeHandler.obj
 0005:00000118       $unwind$RestoreLockBox     0000000000019318     LockBoxDxeLib:LockBoxLib.obj
 0005:00000118       $unwind$LocalApicBaseAddressMsrSupported 0000000000019318     BaseXApicX2ApicLib:BaseXApicX2ApicLib.obj
 0005:00000120       $unwind$SaveBootScriptDataToLockBox 0000000000019320     DxeS3BootScriptLib:BootScriptSave.obj
 0005:00000128       $unwind$S3BootScriptLibInitialize 0000000000019328     DxeS3BootScriptLib:BootScriptSave.obj
 0005:0000013c       $unwind$S3BootScriptLibDeinitialize 000000000001933c     DxeS3BootScriptLib:BootScriptSave.obj
 0005:00000150       $unwind$InternalSmbusExecute 0000000000019350     DxeS3BootScriptLib:BootScriptExecute.obj
 0005:00000164       $unwind$ScriptIoRead       0000000000019364     DxeS3BootScriptLib:BootScriptExecute.obj
 0005:0000017c       $unwind$ScriptIoWrite      000000000001937c     DxeS3BootScriptLib:BootScriptExecute.obj
 0005:00000194       $unwind$ScriptMemoryRead   0000000000019394     DxeS3BootScriptLib:BootScriptExecute.obj
 0005:000001ac       $unwind$ScriptMemoryWrite  00000000000193ac     DxeS3BootScriptLib:BootScriptExecute.obj
 0005:000001c4       $unwind$ScriptPciCfg2Read  00000000000193c4     DxeS3BootScriptLib:BootScriptExecute.obj
 0005:000001e0       $unwind$ScriptPciCfg2Write 00000000000193e0     DxeS3BootScriptLib:BootScriptExecute.obj
 0005:000001fc       $unwind$BootScriptExecutePciCfgWrite 00000000000193fc     DxeS3BootScriptLib:BootScriptExecute.obj
 0005:00000210       $unwind$BootScriptExecutePciCfgReadWrite 0000000000019410     DxeS3BootScriptLib:BootScriptExecute.obj
 0005:0000021c       $unwind$BootScriptExecuteIoPoll 000000000001941c     DxeS3BootScriptLib:BootScriptExecute.obj
 0005:0000021c       $unwind$BootScriptExecuteMemPoll 000000000001941c     DxeS3BootScriptLib:BootScriptExecute.obj
 0005:0000021c       $unwind$BootScriptExecutePciCfg2ReadWrite 000000000001941c     DxeS3BootScriptLib:BootScriptExecute.obj
 0005:0000021c       $unwind$BootScriptPciCfgPoll 000000000001941c     DxeS3BootScriptLib:BootScriptExecute.obj
 0005:00000230       $unwind$BootScriptExecutePciCfg2Write 0000000000019430     DxeS3BootScriptLib:BootScriptExecute.obj
 0005:00000248       $unwind$BootScriptPciCfg2Poll 0000000000019448     DxeS3BootScriptLib:BootScriptExecute.obj
 0005:0000025c       $unwind$S3BootScriptExecute 000000000001945c     DxeS3BootScriptLib:BootScriptExecute.obj
 0005:00000274       $unwind$PeCoffLoaderGetPeHeader 0000000000019474     BasePeCoffLib:BasePeCoff.obj
 0005:00000290       $unwind$PeCoffLoaderGetImageInfo 0000000000019490     BasePeCoffLib:BasePeCoff.obj
 0005:000002b0       $unwind$PeCoffLoaderRelocateImage 00000000000194b0     BasePeCoffLib:BasePeCoff.obj
 0005:000002cc       $unwind$PeCoffLoaderLoadImage 00000000000194cc     BasePeCoffLib:BasePeCoff.obj
 0005:000002e4       $unwind$CopyMem            00000000000194e4     BaseMemoryLibRepStr:CopyMemWrapper.obj
 0005:000002e4       $unwind$PciCf8Read16       00000000000194e4     BasePciCf8Lib:PciCf8Lib.obj
 0005:000002e4       $unwind$PciCf8Read32       00000000000194e4     BasePciCf8Lib:PciCf8Lib.obj
 0005:000002e4       $unwind$PciCf8Read8        00000000000194e4     BasePciCf8Lib:PciCf8Lib.obj
 0005:000002e4       $unwind$PeCoffLoaderImageReadFromMemory 00000000000194e4     BasePeCoffLib:BasePeCoff.obj
 0005:000002f8       $unwind$InternalImageHandleToFvHandle 00000000000194f8     DxeServicesLib:DxeServicesLib.obj
 0005:000002f8       $unwind$ValidateMmioMemory 00000000000194f8     CcExitLib:CcExitVcHandler.obj
 0005:00000300       $unwind$InternalGetSectionFromFv 0000000000019500     DxeServicesLib:DxeServicesLib.obj
 0005:00000310       $unwind$GetSectionFromAnyFv 0000000000019510     DxeServicesLib:DxeServicesLib.obj
 0005:00000324       $unwind$CommonExceptionHandlerWorker 0000000000019524     DxeCpuExceptionHandlerLib:PeiDxeSmmCpuException.obj
 0005:0000033c       $unwind$UpdateIdtTable     000000000001953c     DxeCpuExceptionHandlerLib:PeiDxeSmmCpuException.obj
 0005:00000358       $unwind$DumpCpuContext     0000000000019558     DxeCpuExceptionHandlerLib:ArchExceptionHandler.obj
 0005:00000368       $unwind$InternalPrintMessage 0000000000019568     DxeCpuExceptionHandlerLib:CpuExceptionCommon.obj
 0005:00000370       $unwind$AccessMsrTdxCall   0000000000019570     BaseXApicX2ApicLib:BaseXApicX2ApicLib.obj
 0005:0000037c       $unwind$IoioExit           000000000001957c     CcExitLib:CcExitVcHandler.obj
 0005:0000037c       $unwind$IoExit             000000000001957c     CcExitLib:CcExitVeHandler.obj
 0005:00000394       $unwind$ParseMmioExitInstructions 0000000000019594     CcExitLib:CcExitVeHandler.obj
 0005:000003ac       $unwind$MmioExit           00000000000195ac     CcExitLib:CcExitVeHandler.obj
 0005:000003c8       $unwind$CcExitHandleVe     00000000000195c8     CcExitLib:CcExitVeHandler.obj
 0005:000003dc       $unwind$MmioExit           00000000000195dc     CcExitLib:CcExitVcHandler.obj
 0005:000003f8       $unwind$GetCpuidFw         00000000000195f8     CcExitLib:CcExitVcHandler.obj
 0005:00000414       $unwind$CpuidExit          0000000000019614     CcExitLib:CcExitVcHandler.obj
 0005:0000042c       $unwind$InternalVmgExitHandleVc 000000000001962c     CcExitLib:CcExitVcHandler.obj
 0005:0000044c       $unwind$GetEffectiveMemoryAddress 000000000001964c     CcExitLib:CcInstruction.obj
 0005:00000460       $unwind$BasePrintLibValueToString 0000000000019660     BasePrintLib:PrintLibInternal.obj
 0005:00000460       $unwind$AcquireSpinLockOrFail 0000000000019660     BaseSynchronizationLib:SynchronizationMsc.obj
 0005:00000460       $unwind$CcExitVmgExit      0000000000019660     CcExitLib:CcExitLib.obj
 0005:0000046c       $unwind$MmioWrite16        000000000001966c     BaseIoLibIntrinsicSev:IoLib.obj
 0005:0000046c       $unwind$MmioWrite32        000000000001966c     BaseIoLibIntrinsicSev:IoLib.obj
 0005:0000046c       $unwind$MmioWrite64        000000000001966c     BaseIoLibIntrinsicSev:IoLib.obj
 0005:0000046c       $unwind$MmioWrite8         000000000001966c     BaseIoLibIntrinsicSev:IoLib.obj
 0005:0000047c       $unwind$TdIoWrite16        000000000001967c     BaseIoLibIntrinsicSev:IoLibInternalTdx.obj
 0005:0000047c       $unwind$TdIoWrite32        000000000001967c     BaseIoLibIntrinsicSev:IoLibInternalTdx.obj
 0005:00000488       $unwind$CompareGuid        0000000000019688     BaseMemoryLibRepStr:MemLibGuid.obj
 0005:000004a0       $unwind$AsciiSPrint        00000000000196a0     BasePrintLib:PrintLib.obj
 0005:000004a8       $unwind$BasePrintLibSPrintMarker 00000000000196a8     BasePrintLib:PrintLibInternal.obj
 0005:000004c4       $unwind$BasePrintLibSPrint 00000000000196c4     BasePrintLib:PrintLibInternal.obj
 0005:000004cc       $unwind$InternalMemEncryptSevGetAddressRangeState 00000000000196cc     DxeMemEncryptSevLib:VirtualMemory.obj
 0005:000004e4       $unwind$GetTdInfo          00000000000196e4     TdxLib:TdInfo.obj
