 MyHelloWorldLocatePPI

 Timestamp is 6725e498 (Sat Nov  2 16:36:40 2024)

 Preferred load address is 0000000000000000

 Start         Length     Name                   Class
 0001:00000000 000001c8H .text                   CODE
 0001:000001c8 00001458H .text$mn                CODE
 0002:00000000 00000b78H .rdata                  DATA
 0002:00000b78 00000030H .rdata$voltmd           DATA
 0002:00000ba8 00000174H .rdata$zzzdbg           DATA
 0003:00000000 00000010H .data                   DATA
 0003:00000010 0000000aH .bss                    DATA
 0004:00000000 000000b4H .pdata                  DATA
 0005:00000000 0000009cH .xdata                  DATA

  Address         Publics by Value              Rva+Base               Lib:Object

 0000:00000000       __guard_longjmp_table      0000000000000000     <absolute>
 0000:00000000       __guard_fids_count         0000000000000000     <absolute>
 0000:00000000       __arm64x_extra_rfe_table   0000000000000000     <absolute>
 0000:00000000       __x64_code_ranges_to_entry_points_count 0000000000000000     <absolute>
 0000:00000000       __hybrid_code_map          0000000000000000     <absolute>
 0000:00000000       __arm64x_extra_rfe_table_size 0000000000000000     <absolute>
 0000:00000000       __arm64x_redirection_metadata 0000000000000000     <absolute>
 0000:00000000       __hybrid_code_map_count    0000000000000000     <absolute>
 0000:00000000       __guard_iat_table          0000000000000000     <absolute>
 0000:00000000       __x64_code_ranges_to_entry_points 0000000000000000     <absolute>
 0000:00000000       __guard_iat_count          0000000000000000     <absolute>
 0000:00000000       __guard_longjmp_count      0000000000000000     <absolute>
 0000:00000000       __dynamic_value_reloc_table 0000000000000000     <absolute>
 0000:00000000       __hybrid_auxiliary_iat     0000000000000000     <absolute>
 0000:00000000       __arm64x_native_entrypoint 0000000000000000     <absolute>
 0000:00000000       __hybrid_auxiliary_iat_copy 0000000000000000     <absolute>
 0000:00000000       __guard_flags              0000000000000000     <absolute>
 0000:00000000       __guard_eh_cont_count      0000000000000000     <absolute>
 0000:00000000       __AbsoluteZero             0000000000000000     <absolute>
 0000:00000000       __guard_eh_cont_table      0000000000000000     <absolute>
 0000:00000000       __guard_check_icall_a64n_fptr 0000000000000000     <absolute>
 0000:00000000       __guard_fids_table         0000000000000000     <absolute>
 0000:00000000       __arm64x_redirection_metadata_count 0000000000000000     <absolute>
 0000:00000000       __enclave_config           0000000000000000     <absolute>
 0001:00000000       InternalMemSetMem          0000000000000280     BaseMemoryLibRepStr:SetMem.obj
 0001:00000020       InternalMemCopyMem         00000000000002a0     BaseMemoryLibRepStr:CopyMem.obj
 0001:00000060       InternalMemZeroMem         00000000000002e0     BaseMemoryLibRepStr:ZeroMem.obj
 0001:00000080       InternalMemSetMem64        0000000000000300     BaseMemoryLibRepStr:SetMem64.obj
 0001:000000a0       InternalMemSetMem32        0000000000000320     BaseMemoryLibRepStr:SetMem32.obj
 0001:000000c0       CpuPause                   0000000000000340     BaseLib:CpuPause.obj
 0001:000000d0       InternalX86ReadIdtr        0000000000000350     BaseLib:ReadIdtr.obj
 0001:000000e0       InternalX86WriteIdtr       0000000000000360     BaseLib:WriteIdtr.obj
 0001:000000f0       TdVmCall                   0000000000000370     BaseLib:TdVmcall.obj
 0001:00000170       TdCall                     00000000000003f0     BaseLib:TdCall.obj
 0001:000001c8       _ModuleEntryPoint          0000000000000448 f   PeimEntryPoint:PeimEntryPoint.obj
 0001:000002a8       DebugPrint                 0000000000000528 f   BaseDebugLibSerialPort:DebugLib.obj
 0001:000002cc       DebugPrintMarker           000000000000054c f   BaseDebugLibSerialPort:DebugLib.obj
 0001:00000358       DebugAssert                00000000000005d8 f   BaseDebugLibSerialPort:DebugLib.obj
 0001:000003d4       GetPeiServicesTablePointer 0000000000000654 f   PeiServicesTablePointerLibIdt:PeiServicesTablePointer.obj
 0001:00000414       AsciiStrLen                0000000000000694 f   BaseLib:String.obj
 0001:00000480       StrnLenS                   0000000000000700 f   BaseLib:SafeString.obj
 0001:000004d8       SerialPortWrite            0000000000000758 f   PcAtSerialPortLib:SerialPortLib.obj
 0001:00000550       AsciiSPrint                00000000000007d0 f   BasePrintLib:PrintLib.obj
 0001:0000057c       BasePrintLibFillBuffer     00000000000007fc f   BasePrintLib:PrintLibInternal.obj
 0001:000005b0       BasePrintLibValueToString  0000000000000830 f   BasePrintLib:PrintLibInternal.obj
 0001:0000061c       BasePrintLibSPrintMarker   000000000000089c f   BasePrintLib:PrintLibInternal.obj
 0001:00001528       BasePrintLibSPrint         00000000000017a8 f   BasePrintLib:PrintLibInternal.obj
 0001:0000154c       IoWrite8                   00000000000017cc f   BaseIoLibIntrinsicSev:IoLibMsc.obj
 0001:00001578       TdIoRead8                  00000000000017f8 f   BaseIoLibIntrinsicSev:IoLibInternalTdx.obj
 0001:000015d0       TdIoWrite8                 0000000000001850 f   BaseIoLibIntrinsicSev:IoLibInternalTdx.obj
 0002:00000000       ??_C@_0BG@EBEILPEC@MyHelloWorldLocatePPI@ 00000000000018a0     MyHelloWorldLocatePPI:AutoGen.obj
 0002:00000020       ??_C@_0EB@EBFBKHCO@?$FLMyHelloWorldPPI?$FN?5MyHelloWorldL@ 00000000000018c0     MyHelloWorldLocatePPI:MyHelloWorldLocatePPI.obj
 0002:00000070       ??_C@_0EC@MFFKJACO@?$FLMyHelloWorldPPI?$FN?5MyHelloWorldL@ 0000000000001910     MyHelloWorldLocatePPI:MyHelloWorldLocatePPI.obj
 0002:000000c0       ??_C@_1EM@PAHFBCIE@?$AA2?$AA0?$AA1?$AA9?$AA?5?$AAC?$AAS?$AAD?$AAN?$AA?5?$AAL?$AAo?$AAc?$AAa?$AAt@ 0000000000001960     MyHelloWorldLocatePPI:MyHelloWorldLocatePPI.obj
 0002:00000110       ??_C@_0DP@HLAFHENB@?$FLMyHelloWorldPPI?$FN?5MyHelloWorldL@ 00000000000019b0     MyHelloWorldLocatePPI:MyHelloWorldLocatePPI.obj
 0002:00000150       ??_C@_0BH@IACGKAP@Buffer?5?$CB?$DN?5?$CI?$CIvoid?5?$CK?$CJ?50?$CJ@ 00000000000019f0     BaseLib:Unaligned.obj
 0002:00000170       ??_C@_0EL@GLNKFHII@D?3?2uefi_specs_personal_collecti@ 0000000000001a10     BaseLib:Unaligned.obj
 0002:000001c0       ??_C@_0BH@LKMBFCBF@Format?5?$CB?$DN?5?$CI?$CIvoid?5?$CK?$CJ?50?$CJ@ 0000000000001a60     BaseDebugLibSerialPort:DebugLib.obj
 0002:000001e0       ??_C@_0FJ@BNNHJMAJ@D?3?2uefi_specs_personal_collecti@ 0000000000001a80     BaseDebugLibSerialPort:DebugLib.obj
 0002:00000240       ??_C@_0BI@NOCKJDBJ@ASSERT?5?$FL?$CFa?$FN?5?$CFa?$CI?$CFd?$CJ?3?5?$CFa?6@ 0000000000001ae0     BaseDebugLibSerialPort:DebugLib.obj
 0002:00000258       ??_C@_0BM@DAJCEFAH@PeiServices?5?$CB?$DN?5?$CI?$CIvoid?5?$CK?$CJ?50?$CJ@ 0000000000001af8     PeiServicesTablePointerLibIdt:PeiServicesTablePointer.obj
 0002:00000280       ??_C@_0GP@GHNMHLFN@D?3?2uefi_specs_personal_collecti@ 0000000000001b20     PeiServicesTablePointerLibIdt:PeiServicesTablePointer.obj
 0002:000002f0       ??_C@_0BH@MAAHKCPC@String?5?$CB?$DN?5?$CI?$CIvoid?5?$CK?$CJ?50?$CJ@ 0000000000001b90     BaseLib:String.obj
 0002:00000310       ??_C@_0EI@LOLLHGDK@D?3?2uefi_specs_personal_collecti@ 0000000000001bb0     BaseLib:String.obj
 0002:00000358       ??_C@_0CC@GFNLNIOC@?$CI?$CIUINTN?$CJString?5?$CG?50x00000001?$CJ?5?$DN?$DN@ 0000000000001bf8     BaseLib:String.obj
 0002:00000380       ??_C@_0DI@MDIKFADO@Length?5?$DM?5_gPcd_FixedAtBuild_Pcd@ 0000000000001c20     BaseLib:String.obj
 0002:000003c0       ??_C@_0EM@OAPOMMAE@D?3?2uefi_specs_personal_collecti@ 0000000000001c60     BaseLib:SafeString.obj
 0002:00000410       ??_C@_0BJ@CNKJJNE@?$CIBuffer?5?$CB?$DN?5?$CI?$CIvoid?5?$CK?$CJ?50?$CJ?$CJ@ 0000000000001cb0     BaseLib:SafeString.obj
 0002:00000430       ??_C@_0N@KGHEHMDL@Divisor?5?$CB?$DN?50@ 0000000000001cd0     BaseLib:DivU64x32.obj
 0002:00000440       ??_C@_0FH@MODEAFEI@D?3?2uefi_specs_personal_collecti@ 0000000000001ce0     BasePrintLib:PrintLibInternal.obj
 0002:000004a0       ??_C@_0EB@HDGIDCIO@?$CIBufferSize?5?$DM?$DN?5?$CI_gPcd_FixedAtBu@ 0000000000001d40     BasePrintLib:PrintLibInternal.obj
 0002:000004e8       ??_C@_0BJ@PPAKKDJG@?$CIFormat?5?$CB?$DN?5?$CI?$CIvoid?5?$CK?$CJ?50?$CJ?$CJ@ 0000000000001d88     BasePrintLib:PrintLibInternal.obj
 0002:00000510       ??_C@_0ED@LPDDCECB@?$CIBufferSize?5?$DM?$DN?5?$CI_gPcd_FixedAtBu@ 0000000000001db0     BasePrintLib:PrintLibInternal.obj
 0002:00000560       ??_C@_0IM@BFJJFLGB@?$CIStrnLenS?5?$CI?$CICHAR16?5?$CK?$CJFormat?0?5?$CI_@ 0000000000001e00     BasePrintLib:PrintLibInternal.obj
 0002:000005f0       ??_C@_0ID@PLGJGION@?$CIAsciiStrnLenS?5?$CIFormat?0?5?$CI_gPcd_@ 0000000000001e90     BasePrintLib:PrintLibInternal.obj
 0002:00000678       ??_C@_0O@MLOLIMFM@?$DMnull?5string?$DO@ 0000000000001f18     BasePrintLib:PrintLibInternal.obj
 0002:00000688       ??_C@_0M@BJJDNPHK@?$DMnull?5guid?$DO@ 0000000000001f28     BasePrintLib:PrintLibInternal.obj
 0002:00000698       ??_C@_0DB@PMLHLBMO@?$CF08x?9?$CF04x?9?$CF04x?9?$CF02x?$CF02x?9?$CF02x?$CF02@ 0000000000001f38     BasePrintLib:PrintLibInternal.obj
 0002:000006d0       ??_C@_0M@LHGBCIKM@?$DMnull?5time?$DO@ 0000000000001f70     BasePrintLib:PrintLibInternal.obj
 0002:000006e0       ??_C@_0BK@FCPKCIDD@?$CF02d?1?$CF02d?1?$CF04d?5?5?$CF02d?3?$CF02d@ 0000000000001f80     BasePrintLib:PrintLibInternal.obj
 0002:000006fc       ??_C@_04JIMNDDED@?$CF08X@  0000000000001f9c     BasePrintLib:PrintLibInternal.obj
 0002:00000704       ??_C@_02PCIJFNDE@?$AN?6@   0000000000001fa4     BasePrintLib:PrintLibInternal.obj
 0002:00000708       ??_C@_01LIIJDEN@?$AN@      0000000000001fa8     BasePrintLib:PrintLibInternal.obj
 0002:00000710       mWarningString             0000000000001fb0     BasePrintLib:PrintLibInternal.obj
 0002:000007e0       mErrorString               0000000000002080     BasePrintLib:PrintLibInternal.obj
 0002:00000ac0       mHexStr                    0000000000002360     BasePrintLib:PrintLibInternal.obj
 0002:00000ad0       ??_C@_0FE@LIGPAOFO@D?3?2uefi_specs_personal_collecti@ 0000000000002370     BaseLib:DivU64x32Remainder.obj
 0002:00000b78       __volatile_metadata        0000000000002418     <linker-defined>
 0003:00000000       gMyHelloWorldPEIGUID       00000000000025c0     MyHelloWorldLocatePPI:MyHelloWorldLocatePPI.obj
 0003:00000018       gParity                    00000000000025d8     PcAtSerialPortLib:SerialPortLib.obj
 0003:00000019       gBreakSet                  00000000000025d9     PcAtSerialPortLib:SerialPortLib.obj

 entry point at        0001:000001c8

 Static symbols

 0001:0000003a       InternalMemCopyMem.0       00000000000002ba     BaseMemoryLibRepStr:CopyMem.obj
 0001:0000004a       @CopyBackward              00000000000002ca     BaseMemoryLibRepStr:CopyMem.obj
 0001:00000053       @CopyBytes                 00000000000002d3     BaseMemoryLibRepStr:CopyMem.obj
 0001:00000149       TdVmCall.no_return_data    00000000000003c9     BaseLib:TdVmcall.obj
 0001:000001bb       TdCall.exit                000000000000043b     BaseLib:TdCall.obj
 0003:00000010       mDeadLoopComparator        00000000000025d0     BaseLib:CpuDeadLoop.obj
 0005:00000000       $unwind$_ModuleEntryPoint  00000000000026a0     PeimEntryPoint:PeimEntryPoint.obj
 0005:0000000c       $unwind$DebugPrint         00000000000026ac     BaseDebugLibSerialPort:DebugLib.obj
 0005:00000014       $unwind$DebugPrintMarker   00000000000026b4     BaseDebugLibSerialPort:DebugLib.obj
 0005:00000028       $unwind$DebugAssert        00000000000026c8     BaseDebugLibSerialPort:DebugLib.obj
 0005:00000030       $unwind$TdIoWrite8         00000000000026d0     BaseIoLibIntrinsicSev:IoLibInternalTdx.obj
 0005:00000030       $unwind$GetPeiServicesTablePointer 00000000000026d0     PeiServicesTablePointerLibIdt:PeiServicesTablePointer.obj
 0005:00000038       $unwind$AsciiStrLen        00000000000026d8     BaseLib:String.obj
 0005:00000044       $unwind$IoWrite8           00000000000026e4     BaseIoLibIntrinsicSev:IoLibMsc.obj
 0005:00000044       $unwind$StrnLenS           00000000000026e4     BaseLib:SafeString.obj
 0005:0000004c       $unwind$SerialPortWrite    00000000000026ec     PcAtSerialPortLib:SerialPortLib.obj
 0005:00000060       $unwind$AsciiSPrint        0000000000002700     BasePrintLib:PrintLib.obj
 0005:00000068       $unwind$BasePrintLibValueToString 0000000000002708     BasePrintLib:PrintLibInternal.obj
 0005:00000078       $unwind$BasePrintLibSPrintMarker 0000000000002718     BasePrintLib:PrintLibInternal.obj
 0005:00000094       $unwind$TdIoRead8          0000000000002734     BaseIoLibIntrinsicSev:IoLibInternalTdx.obj
 0005:00000094       $unwind$BasePrintLibSPrint 0000000000002734     BasePrintLib:PrintLibInternal.obj
