 DxeCore

 Timestamp is 6725e49a (Sat Nov  2 16:36:42 2024)

 Preferred load address is 0000000000000000

 Start         Length     Name                   Class
 0001:00000000 00001a98H .text                   CODE
 0001:00001a98 0001cc2dH .text$mn                CODE
 0002:00000000 00006a04H .rdata                  DATA
 0002:00006a04 00000098H .rdata$voltmd           DATA
 0002:00006a9c 0000014cH .rdata$zzzdbg           DATA
 0003:00000000 000015a0H .data                   DATA
 0003:000015a0 00007c90H .bss                    DATA
 0004:00000000 00000ff0H .pdata                  DATA
 0005:00000000 00000b90H .xdata                  DATA

  Address         Publics by Value              Rva+Base               Lib:Object

 0000:00000000       __arm64x_redirection_metadata 0000000000000000     <absolute>
 0000:00000000       __guard_fids_count         0000000000000000     <absolute>
 0000:00000000       __guard_iat_table          0000000000000000     <absolute>
 0000:00000000       __arm64x_extra_rfe_table   0000000000000000     <absolute>
 0000:00000000       __guard_longjmp_table      0000000000000000     <absolute>
 0000:00000000       __guard_iat_count          0000000000000000     <absolute>
 0000:00000000       __guard_longjmp_count      0000000000000000     <absolute>
 0000:00000000       __hybrid_code_map          0000000000000000     <absolute>
 0000:00000000       __arm64x_extra_rfe_table_size 0000000000000000     <absolute>
 0000:00000000       __dynamic_value_reloc_table 0000000000000000     <absolute>
 0000:00000000       __hybrid_auxiliary_iat     0000000000000000     <absolute>
 0000:00000000       __x64_code_ranges_to_entry_points_count 0000000000000000     <absolute>
 0000:00000000       __hybrid_auxiliary_iat_copy 0000000000000000     <absolute>
 0000:00000000       __x64_code_ranges_to_entry_points 0000000000000000     <absolute>
 0000:00000000       __AbsoluteZero             0000000000000000     <absolute>
 0000:00000000       __guard_check_icall_a64n_fptr 0000000000000000     <absolute>
 0000:00000000       __guard_fids_table         0000000000000000     <absolute>
 0000:00000000       __guard_flags              0000000000000000     <absolute>
 0000:00000000       __guard_eh_cont_count      0000000000000000     <absolute>
 0000:00000000       __arm64x_redirection_metadata_count 0000000000000000     <absolute>
 0000:00000000       __enclave_config           0000000000000000     <absolute>
 0000:00000000       __guard_eh_cont_table      0000000000000000     <absolute>
 0000:00000000       __arm64x_native_entrypoint 0000000000000000     <absolute>
 0000:00000000       __hybrid_code_map_count    0000000000000000     <absolute>
 0000:00000000       __ImageBase                0000000000000000     <linker-defined>
 0001:00000000       SetJump                    00000000000002c0     BaseLib:SetJump.obj
 0001:000000d0       CpuPause                   0000000000000390     BaseLib:CpuPause.obj
 0001:000000e0       InternalLongJump           00000000000003a0     BaseLib:LongJump.obj
 0001:00000190       InternalMemCopyMem         0000000000000450     BaseMemoryLibRepStr:CopyMem.obj
 0001:000001d0       InternalMemZeroMem         0000000000000490     BaseMemoryLibRepStr:ZeroMem.obj
 0001:000001f0       InternalMemSetMem          00000000000004b0     BaseMemoryLibRepStr:SetMem.obj
 0001:00000210       InternalMemCompareMem      00000000000004d0     BaseMemoryLibRepStr:CompareMem.obj
 0001:00000230       InternalMemSetMem64        00000000000004f0     BaseMemoryLibRepStr:SetMem64.obj
 0001:00000250       InternalMemSetMem32        0000000000000510     BaseMemoryLibRepStr:SetMem32.obj
 0001:000014a4       CommonInterruptEntry       0000000000001764     DxeCpuExceptionHandlerLib:ExceptionHandlerAsm.obj
 0001:000016da       AsmGetTemplateAddressMap   000000000000199a     DxeCpuExceptionHandlerLib:ExceptionHandlerAsm.obj
 0001:000016f8       AsmVectorNumFixup          00000000000019b8     DxeCpuExceptionHandlerLib:ExceptionHandlerAsm.obj
 0001:00001700       TdVmCallCpuid              00000000000019c0     CcExitLib:TdVmcallCpuid.obj
 0001:00001790       AsmWbinvd                  0000000000001a50     BaseLib:Wbinvd.obj
 0001:000017a0       AsmFlushCacheLine          0000000000001a60     BaseLib:FlushCacheLine.obj
 0001:000017b0       AsmInvd                    0000000000001a70     BaseLib:Invd.obj
 0001:000017c0       AsmCpuid                   0000000000001a80     BaseLib:CpuId.obj
 0001:000017f0       AsmReadCs                  0000000000001ab0     BaseLib:ReadCs.obj
 0001:00001800       AsmWriteTr                 0000000000001ac0     BaseLib:WriteTr.obj
 0001:00001810       TdVmCall                   0000000000001ad0     BaseLib:TdVmcall.obj
 0001:00001890       AsmCpuidEx                 0000000000001b50     BaseLib:CpuIdEx.obj
 0001:000018c0       EnableInterrupts           0000000000001b80     BaseLib:EnableInterrupts.obj
 0001:000018d0       DisableInterrupts          0000000000001b90     BaseLib:DisableInterrupts.obj
 0001:000018e0       TdCall                     0000000000001ba0     BaseLib:TdCall.obj
 0001:00001940       AsmXGetBv                  0000000000001c00     BaseLib:XGetBv.obj
 0001:00001950       AsmReadCr4                 0000000000001c10     BaseLib:ReadCr4.obj
 0001:00001960       AsmVmgExit                 0000000000001c20     BaseLib:VmgExit.obj
 0001:00001970       InternalX86ReadIdtr        0000000000001c30     BaseLib:ReadIdtr.obj
 0001:00001980       InternalX86WriteGdtr       0000000000001c40     BaseLib:WriteGdtr.obj
 0001:00001990       InternalX86ReadGdtr        0000000000001c50     BaseLib:ReadGdtr.obj
 0001:000019a0       AsmReadEflags              0000000000001c60     BaseLib:ReadEflags.obj
 0001:000019b0       InternalMemSetMem16        0000000000001c70     BaseMemoryLibRepStr:SetMem16.obj
 0001:000019d0       AsmRmpAdjust               0000000000001c90     BaseLib:RmpAdjust.obj
 0001:000019e0       AsmVmgExitSvsm             0000000000001ca0     BaseLib:VmgExitSvsm.obj
 0001:00001a40       AsmPvalidate               0000000000001d00     BaseLib:Pvalidate.obj
 0001:00001a60       AsmReadCr0                 0000000000001d20     BaseLib:ReadCr0.obj
 0001:00001a70       AsmReadCr3                 0000000000001d30     BaseLib:ReadCr3.obj
 0001:00001a80       AsmWriteCr0                0000000000001d40     BaseLib:WriteCr0.obj
 0001:00001a90       AsmWriteCr3                0000000000001d50     BaseLib:WriteCr3.obj
 0001:00001a98       _ModuleEntryPoint          0000000000001d58 f   DxeCoreEntryPoint:DxeCoreEntryPoint.obj
 0001:00001acc       ProcessLibraryConstructorList 0000000000001d8c f   DxeCore:AutoGen.obj
 0001:00001e34       DxeMain                    00000000000020f4 f   DxeCore:DxeMain.obj
 0001:00002984       CoreEfiNotAvailableYetArg2 0000000000002c44 f   DxeCore:DxeMain.obj
 0001:00002984       CoreEfiNotAvailableYetArg3 0000000000002c44 f   DxeCore:DxeMain.obj
 0001:00002984       CoreEfiNotAvailableYetArg5 0000000000002c44 f   DxeCore:DxeMain.obj
 0001:00002984       CoreEfiNotAvailableYetArg1 0000000000002c44 f   DxeCore:DxeMain.obj
 0001:00002984       CoreEfiNotAvailableYetArg4 0000000000002c44 f   DxeCore:DxeMain.obj
 0001:00002990       CalculateEfiHdrCrc         0000000000002c50 f   DxeCore:DxeMain.obj
 0001:000029c4       CoreExitBootServices       0000000000002c84 f   DxeCore:DxeMain.obj
 0001:00002bfc       DxeMainUefiDecompressGetInfo 0000000000002ebc f   DxeCore:DxeMain.obj
 0001:00002c34       DxeMainUefiDecompress      0000000000002ef4 f   DxeCore:DxeMain.obj
 0001:00002cb0       CoreDumpGcdMemorySpaceMap  0000000000002f70 f   DxeCore:Gcd.obj
 0001:00002dc8       CoreDumpGcdIoSpaceMap      0000000000003088 f   DxeCore:Gcd.obj
 0001:00002ed0       CoreAllocateGcdMapEntry    0000000000003190 f   DxeCore:Gcd.obj
 0001:00002f4c       CoreInsertGcdMapEntry      000000000000320c f   DxeCore:Gcd.obj
 0001:00003054       CoreMergeGcdMapEntry       0000000000003314 f   DxeCore:Gcd.obj
 0001:0000315c       CoreCleanupGcdMapEntry     000000000000341c f   DxeCore:Gcd.obj
 0001:000031c4       CoreSearchGcdMapEntry      0000000000003484 f   DxeCore:Gcd.obj
 0001:0000329c       CoreConvertSpace           000000000000355c f   DxeCore:Gcd.obj
 0001:00003760       CoreAllocateSpace          0000000000003a20 f   DxeCore:Gcd.obj
 0001:00003cf8       CoreInternalAddMemorySpace 0000000000003fb8 f   DxeCore:Gcd.obj
 0001:00003dc0       CoreAllocateMemorySpace    0000000000004080 f   DxeCore:Gcd.obj
 0001:00003f0c       CoreAddMemorySpace         00000000000041cc f   DxeCore:Gcd.obj
 0001:00004044       CoreFreeMemorySpace        0000000000004304 f   DxeCore:Gcd.obj
 0001:00004098       CoreRemoveMemorySpace      0000000000004358 f   DxeCore:Gcd.obj
 0001:000040ec       CoreGetMemorySpaceDescriptor 00000000000043ac f   DxeCore:Gcd.obj
 0001:00004208       CoreSetMemorySpaceAttributes 00000000000044c8 f   DxeCore:Gcd.obj
 0001:0000427c       CoreSetMemorySpaceCapabilities 000000000000453c f   DxeCore:Gcd.obj
 0001:00004348       CoreGetMemorySpaceMap      0000000000004608 f   DxeCore:Gcd.obj
 0001:000044b4       CoreAddIoSpace             0000000000004774 f   DxeCore:Gcd.obj
 0001:00004550       CoreAllocateIoSpace        0000000000004810 f   DxeCore:Gcd.obj
 0001:0000469c       CoreFreeIoSpace            000000000000495c f   DxeCore:Gcd.obj
 0001:000046f0       CoreRemoveIoSpace          00000000000049b0 f   DxeCore:Gcd.obj
 0001:00004744       CoreGetIoSpaceDescriptor   0000000000004a04 f   DxeCore:Gcd.obj
 0001:00004850       CoreGetIoSpaceMap          0000000000004b10 f   DxeCore:Gcd.obj
 0001:00004968       FindLargestFreeRegion      0000000000004c28 f   DxeCore:Gcd.obj
 0001:00004a60       CoreInitializeMemoryServices 0000000000004d20 f   DxeCore:Gcd.obj
 0001:000050f8       CoreInitializeGcdServices  00000000000053b8 f   DxeCore:Gcd.obj
 0001:00005744       GenericProtocolNotify      0000000000005a04 f   DxeCore:DxeProtocolNotify.obj
 0001:000058e4       CoreNotifyOnProtocolEntryTable 0000000000005ba4 f   DxeCore:DxeProtocolNotify.obj
 0001:000059b4       CoreValidateHandle         0000000000005c74 f   DxeCore:Handle.obj
 0001:00005a50       CoreFindProtocolEntry      0000000000005d10 f   DxeCore:Handle.obj
 0001:00005b98       CoreFindProtocolInterface  0000000000005e58 f   DxeCore:Handle.obj
 0001:00005c54       IsDevicePathInstalled      0000000000005f14 f   DxeCore:Handle.obj
 0001:00005d78       CoreUnregisterProtocolNotify 0000000000006038 f   DxeCore:Handle.obj
 0001:00005e74       CoreInstallProtocolInterface 0000000000006134 f   DxeCore:Handle.obj
 0001:00005e88       CoreInstallProtocolInterfaceNotify 0000000000006148 f   DxeCore:Handle.obj
 0001:00006104       CoreInstallMultipleProtocolInterfaces 00000000000063c4 f   DxeCore:Handle.obj
 0001:00006200       CoreDisconnectControllersUsingProtocolInterface 00000000000064c0 f   DxeCore:Handle.obj
 0001:00006340       CoreUninstallProtocolInterface 0000000000006600 f   DxeCore:Handle.obj
 0001:00006458       CoreUninstallMultipleProtocolInterfaces 0000000000006718 f   DxeCore:Handle.obj
 0001:0000656c       CoreHandleProtocol         000000000000682c f   DxeCore:Handle.obj
 0001:00006590       CoreOpenProtocol           0000000000006850 f   DxeCore:Handle.obj
 0001:00006924       CoreCloseProtocol          0000000000006be4 f   DxeCore:Handle.obj
 0001:00006a54       CoreOpenProtocolInformation 0000000000006d14 f   DxeCore:Handle.obj
 0001:00006bb8       CoreProtocolsPerHandle     0000000000006e78 f   DxeCore:Handle.obj
 0001:00006ce0       CoreConnectHandlesByKey    0000000000006fa0 f   DxeCore:Handle.obj
 0001:00006e14       CoreConnectController      00000000000070d4 f   DxeCore:DriverSupport.obj
 0001:00007180       AddSortedDriverBindingProtocol 0000000000007440 f   DxeCore:DriverSupport.obj
 0001:000072f4       CoreConnectSingleController 00000000000075b4 f   DxeCore:DriverSupport.obj
 0001:00007728       CoreDisconnectController   00000000000079e8 f   DxeCore:DriverSupport.obj
 0001:00007cc8       RemoveMemoryMapEntry       0000000000007f88 f   DxeCore:Page.obj
 0001:00007d08       CoreAddRange               0000000000007fc8 f   DxeCore:Page.obj
 0001:00007ed4       CoreFreeMemoryMapStack     0000000000008194 f   DxeCore:Page.obj
 0001:000080d8       PromoteMemoryResource      0000000000008398 f   DxeCore:Page.obj
 0001:00008200       CoreAddMemoryDescriptor    00000000000084c0 f   DxeCore:Page.obj
 0001:00008484       CoreConvertPagesEx         0000000000008744 f   DxeCore:Page.obj
 0001:0000893c       CoreFindFreePagesI         0000000000008bfc f   DxeCore:Page.obj
 0001:00008b20       FindFreePages              0000000000008de0 f   DxeCore:Page.obj
 0001:00008c0c       CoreInternalAllocatePages  0000000000008ecc f   DxeCore:Page.obj
 0001:00008e10       CoreAllocatePages          00000000000090d0 f   DxeCore:Page.obj
 0001:00008e70       CoreFreePages              0000000000009130 f   DxeCore:Page.obj
 0001:00008f90       MergeMemoryMapDescriptor   0000000000009250 f   DxeCore:Page.obj
 0001:00009014       CoreGetMemoryMap           00000000000092d4 f   DxeCore:Page.obj
 0001:000095ec       CoreAllocatePoolPages      00000000000098ac f   DxeCore:Page.obj
 0001:00009680       GetMachineTypeName         0000000000009940 f   DxeCore:Image.obj
 0001:0000978c       CoreInitializeImageServices 0000000000009a4c f   DxeCore:Image.obj
 0001:000099fc       CoreReadImageFile          0000000000009cbc f   DxeCore:Image.obj
 0001:00009bec       CoreLoadPeImage            0000000000009eac f   DxeCore:Image.obj
 0001:0000a054       CoreLoadedImageInfo        000000000000a314 f   DxeCore:Image.obj
 0001:0000a0e0       CoreUnloadAndCloseImage    000000000000a3a0 f   DxeCore:Image.obj
 0001:0000a404       CoreLoadImageCommon        000000000000a6c4 f   DxeCore:Image.obj
 0001:0000a8ec       CoreLoadImage              000000000000abac f   DxeCore:Image.obj
 0001:0000a914       CoreStartImage             000000000000abd4 f   DxeCore:Image.obj
 0001:0000abf0       CoreExit                   000000000000aeb0 f   DxeCore:Image.obj
 0001:0000ad48       CoreUnloadImage            000000000000b008 f   DxeCore:Image.obj
 0001:0000adc0       GetUefiImageProtectionPolicy 000000000000b080 f   DxeCore:MemoryProtection.obj
 0001:0000ae98       SetUefiImageMemoryAttributes 000000000000b158 f   DxeCore:MemoryProtection.obj
 0001:0000af68       SetUefiImageProtectionAttributes 000000000000b228 f   DxeCore:MemoryProtection.obj
 0001:0000b074       ProtectUefiImage           000000000000b334 f   DxeCore:MemoryProtection.obj
 0001:0000b1c4       MemoryProtectionCpuArchProtocolNotify 000000000000b484 f   DxeCore:MemoryProtection.obj
 0001:0000b2f8       CoreNotifyProtocolEntry    000000000000b5b8 f   DxeCore:Notify.obj
 0001:0000b374       CoreRemoveInterfaceFromProtocol 000000000000b634 f   DxeCore:Notify.obj
 0001:0000b43c       CoreRegisterProtocolNotify 000000000000b6fc f   DxeCore:Notify.obj
 0001:0000b508       CoreReinstallProtocolInterface 000000000000b7c8 f   DxeCore:Notify.obj
 0001:0000b630       CoreNotifyEvent            000000000000b8f0 f   DxeCore:Event.obj
 0001:0000b6b0       CoreNotifySignalList       000000000000b970 f   DxeCore:Event.obj
 0001:0000b74c       CoreCreateEvent            000000000000ba0c f   DxeCore:Event.obj
 0001:0000b790       CoreCreateEventEx          000000000000ba50 f   DxeCore:Event.obj
 0001:0000b7bc       CoreCreateEventInternal    000000000000ba7c f   DxeCore:Event.obj
 0001:0000b98c       CoreSignalEvent            000000000000bc4c f   DxeCore:Event.obj
 0001:0000ba50       CoreCheckEvent             000000000000bd10 f   DxeCore:Event.obj
 0001:0000bb38       CoreWaitForEvent           000000000000bdf8 f   DxeCore:Event.obj
 0001:0000bbd8       CoreCloseEvent             000000000000be98 f   DxeCore:Event.obj
 0001:0000bcb4       CoreSetWatchdogTimer       000000000000bf74 f   DxeCore:SetWatchdogTimer.obj
 0001:0000bcfc       CoreGetDepexSectionAndPreProccess 000000000000bfbc f   DxeCore:Dispatcher.obj
 0001:0000bdb8       CoreSchedule               000000000000c078 f   DxeCore:Dispatcher.obj
 0001:0000bea4       CoreTrust                  000000000000c164 f   DxeCore:Dispatcher.obj
 0001:0000bf78       CoreDispatcher             000000000000c238 f   DxeCore:Dispatcher.obj
 0001:0000c278       CoreInsertOnScheduledQueueWhileProcessingBeforeAndAfter 000000000000c538 f   DxeCore:Dispatcher.obj
 0001:0000c444       FvIsBeingProcessed         000000000000c704 f   DxeCore:Dispatcher.obj
 0001:0000c688       CoreFvToDevicePath         000000000000c948 f   DxeCore:Dispatcher.obj
 0001:0000c744       CoreAddToDriverList        000000000000ca04 f   DxeCore:Dispatcher.obj
 0001:0000c81c       GetFvUsedSize              000000000000cadc f   DxeCore:Dispatcher.obj
 0001:0000c984       CoreProcessFvImageFile     000000000000cc44 f   DxeCore:Dispatcher.obj
 0001:0000ccac       CoreFwVolEventProtocolNotify 000000000000cf6c f   DxeCore:Dispatcher.obj
 0001:0000d164       InternalCoreLocateHandle   000000000000d424 f   DxeCore:Locate.obj
 0001:0000d2e0       CoreLocateHandle           000000000000d5a0 f   DxeCore:Locate.obj
 0001:0000d34c       CoreGetNextLocateAllHandles 000000000000d60c f   DxeCore:Locate.obj
 0001:0000d3a4       CoreGetNextLocateByRegisterNotify 000000000000d664 f   DxeCore:Locate.obj
 0001:0000d454       CoreGetNextLocateByProtocol 000000000000d714 f   DxeCore:Locate.obj
 0001:0000d500       CoreLocateDevicePath       000000000000d7c0 f   DxeCore:Locate.obj
 0001:0000d768       CoreLocateProtocol         000000000000da28 f   DxeCore:Locate.obj
 0001:0000d868       CoreLocateHandleBuffer     000000000000db28 f   DxeCore:Locate.obj
 0001:0000d9a0       CoreInitializeDebugImageInfoTable 000000000000dc60 f   DxeCore:DebugImageInfo.obj
 0001:0000db54       CoreNewDebugImageInfoEntry 000000000000de14 f   DxeCore:DebugImageInfo.obj
 0001:0000dc8c       FwVolBlockGetAttributes    000000000000df4c f   DxeCore:FwVolBlock.obj
 0001:0000dcdc       FwVolBlockWriteBlock       000000000000df9c f   DxeCore:FwVolBlock.obj
 0001:0000dcdc       FvSetVolumeAttributes      000000000000df9c f   DxeCore:FwVolAttrib.obj
 0001:0000dcdc       FvSetVolumeInfo            000000000000df9c f   DxeCore:FwVolAttrib.obj
 0001:0000dcdc       FvGetVolumeInfo            000000000000df9c f   DxeCore:FwVolAttrib.obj
 0001:0000dcdc       FvWriteFile                000000000000df9c f   DxeCore:FwVolWrite.obj
 0001:0000dcdc       FwVolBlockSetAttributes    000000000000df9c f   DxeCore:FwVolBlock.obj
 0001:0000dce8       FwVolBlockEraseBlock       000000000000dfa8 f   DxeCore:FwVolBlock.obj
 0001:0000dd04       FwVolBlockReadBlock        000000000000dfc4 f   DxeCore:FwVolBlock.obj
 0001:0000dde0       FwVolBlockGetPhysicalAddress 000000000000e0a0 f   DxeCore:FwVolBlock.obj
 0001:0000de44       FwVolBlockGetBlockSize     000000000000e104 f   DxeCore:FwVolBlock.obj
 0001:0000deec       ProduceFVBProtocolOnBuffer 000000000000e1ac f   DxeCore:FwVolBlock.obj
 0001:0000e11c       CoreProcessFirmwareVolume  000000000000e3dc f   DxeCore:FwVolBlock.obj
 0001:0000e1b0       CoreInsertEventTimer       000000000000e470 f   DxeCore:Timer.obj
 0001:0000e260       CoreCheckTimers            000000000000e520 f   DxeCore:Timer.obj
 0001:0000e360       CoreTimerTick              000000000000e620 f   DxeCore:Timer.obj
 0001:0000e3f0       CoreSetTimer               000000000000e6b0 f   DxeCore:Timer.obj
 0001:0000e50c       LookupPoolHead             000000000000e7cc f   DxeCore:Pool.obj
 0001:0000e61c       CoreInternalAllocatePool   000000000000e8dc f   DxeCore:Pool.obj
 0001:0000e6c0       CoreAllocatePool           000000000000e980 f   DxeCore:Pool.obj
 0001:0000e790       CoreAllocatePoolI          000000000000ea50 f   DxeCore:Pool.obj
 0001:0000eb58       CoreInternalFreePool       000000000000ee18 f   DxeCore:Pool.obj
 0001:0000ebb0       CoreFreePool               000000000000ee70 f   DxeCore:Pool.obj
 0001:0000ec60       CoreFreePoolI              000000000000ef20 f   DxeCore:Pool.obj
 0001:0000ef7c       OpenSectionStreamEx        000000000000f23c f   DxeCore:CoreSectionExtraction.obj
 0001:0000f08c       VerifyGuidedSectionGuid    000000000000f34c f   DxeCore:CoreSectionExtraction.obj
 0001:0000f14c       NotifyGuidedExtraction     000000000000f40c f   DxeCore:CoreSectionExtraction.obj
 0001:0000f290       CreateChildNode            000000000000f550 f   DxeCore:CoreSectionExtraction.obj
 0001:0000f6c8       FindChildNode              000000000000f988 f   DxeCore:CoreSectionExtraction.obj
 0001:0000fa08       FindStreamNode             000000000000fcc8 f   DxeCore:CoreSectionExtraction.obj
 0001:0000fb00       GetSection                 000000000000fdc0 f   DxeCore:CoreSectionExtraction.obj
 0001:0000fd08       CloseSectionStream         000000000000ffc8 f   DxeCore:CoreSectionExtraction.obj
 0001:0000fe40       CustomGuidedSectionExtract 0000000000010100 f   DxeCore:CoreSectionExtraction.obj
 0001:00010008       CoreSetInterruptState      00000000000102c8 f   DxeCore:Tpl.obj
 0001:0001005c       CoreRaiseTpl               000000000001031c f   DxeCore:Tpl.obj
 0001:000100f4       CoreRestoreTpl             00000000000103b4 f   DxeCore:Tpl.obj
 0001:0001034c       InstallMemoryAttributesTable 000000000001060c f   DxeCore:MemoryAttributesTable.obj
 0001:000106ac       InstallMemoryAttributesTableOnReadyToBoot 000000000001096c f   DxeCore:MemoryAttributesTable.obj
 0001:000106c4       InstallMemoryAttributesTableOnEndOfDxe 0000000000010984 f   DxeCore:MemoryAttributesTable.obj
 0001:00010898       MergeMemoryMap             0000000000010b58 f   DxeCore:MemoryAttributesTable.obj
 0001:00010940       CoreGetMemoryMapWithSeparatedImageSection 0000000000010c00 f   DxeCore:MemoryAttributesTable.obj
 0001:00010ac4       InsertImageRecord          0000000000010d84 f   DxeCore:MemoryAttributesTable.obj
 0001:00010c78       RemoveImageRecord          0000000000010f38 f   DxeCore:MemoryAttributesTable.obj
 0001:00010d5c       CoreInternalWaitForTick    000000000001101c f   DxeCore:Stall.obj
 0001:00010db8       CoreStall                  0000000000011078 f   DxeCore:Stall.obj
 0001:00010e44       ReadFvbData                0000000000011104 f   DxeCore:FwVol.obj
 0001:00010f84       GetFwVolHeader             0000000000011244 f   DxeCore:FwVol.obj
 0001:00011088       FvCheck                    0000000000011348 f   DxeCore:FwVol.obj
 0001:000115e0       NotifyFwVolBlock           00000000000118a0 f   DxeCore:FwVol.obj
 0001:00011878       CoreInstallConfigurationTable 0000000000011b38 f   DxeCore:InstallConfigurationTable.obj
 0001:00011a24       CoreAcquireLockOrFail      0000000000011ce4 f   DxeCore:Library.obj
 0001:00011a94       CoreAcquireLock            0000000000011d54 f   DxeCore:Library.obj
 0001:00011af0       CoreReleaseLock            0000000000011db0 f   DxeCore:Library.obj
 0001:00011b48       FindGuardedMemoryMap       0000000000011e08 f   DxeCore:HeapGuard.obj
 0001:00011dd8       SetGuardedMemoryBits       0000000000012098 f   DxeCore:HeapGuard.obj
 0001:00011ef8       ClearGuardedMemoryBits     00000000000121b8 f   DxeCore:HeapGuard.obj
 0001:00012018       GetGuardedMemoryBits       00000000000122d8 f   DxeCore:HeapGuard.obj
 0001:00012158       IsGuardPage                0000000000012418 f   DxeCore:HeapGuard.obj
 0001:0001218c       SetGuardPage               000000000001244c f   DxeCore:HeapGuard.obj
 0001:000121f8       UnsetGuardPage             00000000000124b8 f   DxeCore:HeapGuard.obj
 0001:00012260       SetGuardForMemory          0000000000012520 f   DxeCore:HeapGuard.obj
 0001:000122c8       UnsetGuardForMemory        0000000000012588 f   DxeCore:HeapGuard.obj
 0001:00012368       AdjustMemoryF              0000000000012628 f   DxeCore:HeapGuard.obj
 0001:00012430       CoreConvertPagesWithGuard  00000000000126f0 f   DxeCore:HeapGuard.obj
 0001:000124dc       GrowDepexStack             000000000001279c f   DxeCore:Dependency.obj
 0001:00012580       PushBool                   0000000000012840 f   DxeCore:Dependency.obj
 0001:000125c0       PopBool                    0000000000012880 f   DxeCore:Dependency.obj
 0001:000125ec       CoreIsSchedulable          00000000000128ac f   DxeCore:Dependency.obj
 0001:000129ac       FvGetVolumeAttributes      0000000000012c6c f   DxeCore:FwVolAttrib.obj
 0001:00012a0c       FvGetNextFile              0000000000012ccc f   DxeCore:FwVolRead.obj
 0001:00012b80       FvReadFile                 0000000000012e40 f   DxeCore:FwVolRead.obj
 0001:00012d94       FvReadFileSection          0000000000013054 f   DxeCore:FwVolRead.obj
 0001:00012f94       InternalAllocateAlignedPages 0000000000013254 f   DxeCoreMemoryAllocationLib:MemoryAllocationLib.obj
 0001:00013124       AllocatePool               00000000000133e4 f   DxeCoreMemoryAllocationLib:MemoryAllocationLib.obj
 0001:00013158       InternalAllocateZeroPool   0000000000013418 f   DxeCoreMemoryAllocationLib:MemoryAllocationLib.obj
 0001:000131a0       InternalAllocateCopyPool   0000000000013460 f   DxeCoreMemoryAllocationLib:MemoryAllocationLib.obj
 0001:0001324c       InternalReallocatePool     000000000001350c f   DxeCoreMemoryAllocationLib:MemoryAllocationLib.obj
 0001:000132b8       FreePool                   0000000000013578 f   DxeCoreMemoryAllocationLib:MemoryAllocationLib.obj
 0001:000132f8       CpuDeadLoop                00000000000135b8 f   BaseLib:CpuDeadLoop.obj
 0001:00013328       InternalBaseLibIsListValid 00000000000135e8 f   BaseLib:LinkedList.obj
 0001:00013394       InsertHeadList             0000000000013654 f   BaseLib:LinkedList.obj
 0001:000133e4       InsertTailList             00000000000136a4 f   BaseLib:LinkedList.obj
 0001:00013438       GetFirstNode               00000000000136f8 f   BaseLib:LinkedList.obj
 0001:0001346c       GetNextNode                000000000001372c f   BaseLib:LinkedList.obj
 0001:000134a0       IsListEmpty                0000000000013760 f   BaseLib:LinkedList.obj
 0001:000134d8       IsNodeAtEnd                0000000000013798 f   BaseLib:LinkedList.obj
 0001:00013554       RemoveEntryList            0000000000013814 f   BaseLib:LinkedList.obj
 0001:0001359c       LShiftU64                  000000000001385c f   BaseLib:LShiftU64.obj
 0001:000135e0       RShiftU64                  00000000000138a0 f   BaseLib:RShiftU64.obj
 0001:00013624       AsciiStrLen                00000000000138e4 f   BaseLib:String.obj
 0001:00013690       DivU64x32Remainder         0000000000013950 f   BaseLib:DivU64x32Remainder.obj
 0001:000136f0       CalculateSum8              00000000000139b0 f   BaseLib:CheckSum.obj
 0001:0001376c       CalculateSum16             0000000000013a2c f   BaseLib:CheckSum.obj
 0001:0001381c       InternalAssertJumpBuffer   0000000000013adc f   BaseLib:SetJump.obj
 0001:00013854       StrnLenS                   0000000000013b14 f   BaseLib:SafeString.obj
 0001:000138ac       CopyMem                    0000000000013b6c f   BaseMemoryLibRepStr:CopyMemWrapper.obj
 0001:00013948       ZeroMem                    0000000000013c08 f   BaseMemoryLibRepStr:ZeroMemWrapper.obj
 0001:000139b8       SetMem                     0000000000013c78 f   BaseMemoryLibRepStr:SetMemWrapper.obj
 0001:00013a1c       CopyGuid                   0000000000013cdc f   BaseMemoryLibRepStr:MemLibGuid.obj
 0001:00013acc       CompareGuid                0000000000013d8c f   BaseMemoryLibRepStr:MemLibGuid.obj
 0001:00013b90       CompareMem                 0000000000013e50 f   BaseMemoryLibRepStr:CompareMemWrapper.obj
 0001:00013c68       SetMem64                   0000000000013f28 f   BaseMemoryLibRepStr:SetMem64Wrapper.obj
 0001:00013d2c       DebugPrint                 0000000000013fec f   BaseDebugLibSerialPort:DebugLib.obj
 0001:00013d50       DebugPrintMarker           0000000000014010 f   BaseDebugLibSerialPort:DebugLib.obj
 0001:00013ddc       DebugAssert                000000000001409c f   BaseDebugLibSerialPort:DebugLib.obj
 0001:00013e34       GetDevicePathSize          00000000000140f4 f   UefiDevicePathLib:UefiDevicePathLib.obj
 0001:00013eb8       DuplicateDevicePath        0000000000014178 f   UefiDevicePathLib:UefiDevicePathLib.obj
 0001:00013ee4       AppendDevicePath           00000000000141a4 f   UefiDevicePathLib:UefiDevicePathLib.obj
 0001:00013fb0       IsDevicePathValid          0000000000014270 f   UefiDevicePathLib:DevicePathUtilities.obj
 0001:00014090       DevicePathNodeLength       0000000000014350 f   UefiDevicePathLib:DevicePathUtilities.obj
 0001:000140d8       IsDevicePathEnd            0000000000014398 f   UefiDevicePathLib:DevicePathUtilities.obj
 0001:00014150       SetDevicePathNodeLength    0000000000014410 f   UefiDevicePathLib:DevicePathUtilities.obj
 0001:000141a0       EfiCreateProtocolNotifyEvent 0000000000014460 f   UefiLib:UefiLib.obj
 0001:000142e0       SzFree                     00000000000145a0 f   LzmaDecompressLib:LzmaDecompress.obj
 0001:000142e0       EfiEventEmptyFunction      00000000000145a0 f   UefiLib:UefiLib.obj
 0001:000142e4       GetHobList                 00000000000145a4 f   DxeCoreHobLib:HobLib.obj
 0001:00014318       GetNextHob                 00000000000145d8 f   DxeCoreHobLib:HobLib.obj
 0001:00014370       GetNextGuidHob             0000000000014630 f   DxeCoreHobLib:HobLib.obj
 0001:000143b8       PeCoffLoaderGetEntryPoint  0000000000014678 f   BasePeCoffGetEntryPointLib:PeCoffGetEntryPoint.obj
 0001:00014464       PeCoffLoaderGetPdbPointer  0000000000014724 f   BasePeCoffGetEntryPointLib:PeCoffGetEntryPoint.obj
 0001:000145b0       ReallocateExtractHandlerTable 0000000000014870 f   DxeExtractGuidedSectionLib:DxeExtractGuidedSectionLib.obj
 0001:00014694       ExtractGuidedSectionDecode 0000000000014954 f   DxeExtractGuidedSectionLib:DxeExtractGuidedSectionLib.obj
 0001:000147a8       FillBuf                    0000000000014a68 f   BaseUefiDecompressLib:BaseUefiDecompressLib.obj
 0001:00014850       MakeTable                  0000000000014b10 f   BaseUefiDecompressLib:BaseUefiDecompressLib.obj
 0001:00014b50       ReadPTLen                  0000000000014e10 f   BaseUefiDecompressLib:BaseUefiDecompressLib.obj
 0001:00014cf4       ReadCLen                   0000000000014fb4 f   BaseUefiDecompressLib:BaseUefiDecompressLib.obj
 0001:00014ebc       Decode                     000000000001517c f   BaseUefiDecompressLib:BaseUefiDecompressLib.obj
 0001:000150d0       UefiDecompressGetInfo      0000000000015390 f   BaseUefiDecompressLib:BaseUefiDecompressLib.obj
 0001:000151c4       UefiDecompress             0000000000015484 f   BaseUefiDecompressLib:BaseUefiDecompressLib.obj
 0001:000152f0       PeCoffLoaderGetPeHeader    00000000000155b0 f   BasePeCoffLib:BasePeCoff.obj
 0001:00015800       PeCoffLoaderGetImageInfo   0000000000015ac0 f   BasePeCoffLib:BasePeCoff.obj
 0001:00015be0       PeCoffLoaderRelocateImage  0000000000015ea0 f   BasePeCoffLib:BasePeCoff.obj
 0001:00015ed8       PeCoffLoaderLoadImage      0000000000016198 f   BasePeCoffLib:BasePeCoff.obj
 0001:000164c0       PeCoffLoaderImageReadFromMemory 0000000000016780 f   BasePeCoffLib:BasePeCoff.obj
 0001:00016560       InternalReportStatusCode   0000000000016820 f   DxeReportStatusCodeLib:ReportStatusCodeLib.obj
 0001:00016618       ReportStatusCodeWithExtendedData 00000000000168d8 f   DxeReportStatusCodeLib:ReportStatusCodeLib.obj
 0001:000166d8       GetFileBufferByFilePath    0000000000016998 f   DxeServicesLib:DxeServicesLib.obj
 0001:00016c70       CommonExceptionHandler     0000000000016f30 f   DxeCpuExceptionHandlerLib:DxeException.obj
 0001:00016c78       CommonExceptionHandlerWorker 0000000000016f38 f   DxeCpuExceptionHandlerLib:PeiDxeSmmCpuException.obj
 0001:00016eec       UpdateIdtTable             00000000000171ac f   DxeCpuExceptionHandlerLib:PeiDxeSmmCpuException.obj
 0001:0001700c       DumpCpuContext             00000000000172cc f   DxeCpuExceptionHandlerLib:ArchExceptionHandler.obj
 0001:000172f0       InternalPrintMessage       00000000000175b0 f   DxeCpuExceptionHandlerLib:CpuExceptionCommon.obj
 0001:00017350       DumpModuleImageInfo        0000000000017610 f   DxeCpuExceptionHandlerLib:CpuExceptionCommon.obj
 0001:000179d0       SplitTable                 0000000000017c90 f   ImagePropertiesRecordLib:ImagePropertiesRecordLib.obj
 0001:00017b70       SortImageRecordCodeSection 0000000000017e30 f   ImagePropertiesRecordLib:ImagePropertiesRecordLib.obj
 0001:00017c48       IsImageRecordCodeSectionValid 0000000000017f08 f   ImagePropertiesRecordLib:ImagePropertiesRecordLib.obj
 0001:00017d18       SortImageRecord            0000000000017fd8 f   ImagePropertiesRecordLib:ImagePropertiesRecordLib.obj
 0001:00017e88       CreateImagePropertiesRecord 0000000000018148 f   ImagePropertiesRecordLib:ImagePropertiesRecordLib.obj
 0001:000181f0       DeleteImagePropertiesRecord 00000000000184b0 f   ImagePropertiesRecordLib:ImagePropertiesRecordLib.obj
 0001:0001822c       LzmaGuidedSectionGetInfo   00000000000184ec f   LzmaDecompressLib:GuidedSectionExtraction.obj
 0001:00018358       LzmaGuidedSectionExtraction 0000000000018618 f   LzmaDecompressLib:GuidedSectionExtraction.obj
 0001:00018458       SzAlloc                    0000000000018718 f   LzmaDecompressLib:LzmaDecompress.obj
 0001:0001849c       LzmaUefiDecompressGetInfo  000000000001875c f   LzmaDecompressLib:LzmaDecompress.obj
 0001:0001851c       LzmaUefiDecompress         00000000000187dc f   LzmaDecompressLib:LzmaDecompress.obj
 0001:000198bc       LzmaDec_DecodeToDic        0000000000019b7c f   LzmaDecompressLib:LzmaDec.obj
 0001:00019b8c       LzmaProps_Decode           0000000000019e4c f   LzmaDecompressLib:LzmaDec.obj
 0001:00019c84       IoRead8                    0000000000019f44 f   BaseIoLibIntrinsicSev:IoLibMsc.obj
 0001:00019ca8       IoRead32                   0000000000019f68 f   BaseIoLibIntrinsicSev:IoLibMsc.obj
 0001:00019cf0       IoWrite32                  0000000000019fb0 f   BaseIoLibIntrinsicSev:IoLibMsc.obj
 0001:00019d48       IsTdxGuest                 000000000001a008 f   BaseIoLibIntrinsicSev:IoLibInternalTdx.obj
 0001:00019d74       TdIoRead8                  000000000001a034 f   BaseIoLibIntrinsicSev:IoLibInternalTdx.obj
 0001:00019dc4       TdIoRead16                 000000000001a084 f   BaseIoLibIntrinsicSev:IoLibInternalTdx.obj
 0001:00019e1c       TdIoRead32                 000000000001a0dc f   BaseIoLibIntrinsicSev:IoLibInternalTdx.obj
 0001:00019e90       TdIoWrite8                 000000000001a150 f   BaseIoLibIntrinsicSev:IoLibInternalTdx.obj
 0001:00019ee0       TdIoWrite32                000000000001a1a0 f   BaseIoLibIntrinsicSev:IoLibInternalTdx.obj
 0001:00019f5c       AccessMsrTdxCall           000000000001a21c f   BaseXApicX2ApicLib:BaseXApicX2ApicLib.obj
 0001:0001a078       LocalApicReadMsrReg64      000000000001a338 f   BaseXApicX2ApicLib:BaseXApicX2ApicLib.obj
 0001:0001a0e4       LocalApicBaseAddressMsrSupported 000000000001a3a4 f   BaseXApicX2ApicLib:BaseXApicX2ApicLib.obj
 0001:0001a120       GetLocalApicBaseAddress    000000000001a3e0 f   BaseXApicX2ApicLib:BaseXApicX2ApicLib.obj
 0001:0001a15c       ReadLocalApicReg           000000000001a41c f   BaseXApicX2ApicLib:BaseXApicX2ApicLib.obj
 0001:0001a18c       GetApicMode                000000000001a44c f   BaseXApicX2ApicLib:BaseXApicX2ApicLib.obj
 0001:0001a1dc       GetApicId                  000000000001a49c f   BaseXApicX2ApicLib:BaseXApicX2ApicLib.obj
 0001:0001a294       CcExitHandleVc             000000000001a554 f   CcExitLib:PeiDxeCcExitVcHandler.obj
 0001:0001ac5c       CcExitHandleVe             000000000001af1c f   CcExitLib:CcExitVeHandler.obj
 0001:0001c390       InternalVmgExitHandleVc    000000000001c650 f   CcExitLib:CcExitVcHandler.obj
 0001:0001c6d0       CcGetRegisterPointer       000000000001c990 f   CcExitLib:CcInstruction.obj
 0001:0001c950       CcDecodeModRm              000000000001cc10 f   CcExitLib:CcInstruction.obj
 0001:0001ca54       CcInitInstructionData      000000000001cd14 f   CcExitLib:CcInstruction.obj
 0001:0001cb80       CcExitVmgExit              000000000001ce40 f   CcExitLib:CcExitLib.obj
 0001:0001cc6c       SaveAndDisableInterrupts   000000000001cf2c f   BaseLib:Cpu.obj
 0001:0001cc90       SetMem16                   000000000001cf50 f   BaseMemoryLibRepStr:SetMem16Wrapper.obj
 0001:0001cd58       SerialPortInitialize       000000000001d018 f   PcAtSerialPortLib:SerialPortLib.obj
 0001:0001ce18       SerialPortWrite            000000000001d0d8 f   PcAtSerialPortLib:SerialPortLib.obj
 0001:0001ce90       AsciiSPrint                000000000001d150 f   BasePrintLib:PrintLib.obj
 0001:0001cebc       BasePrintLibFillBuffer     000000000001d17c f   BasePrintLib:PrintLibInternal.obj
 0001:0001cef0       BasePrintLibValueToString  000000000001d1b0 f   BasePrintLib:PrintLibInternal.obj
 0001:0001cf40       BasePrintLibSPrintMarker   000000000001d200 f   BasePrintLib:PrintLibInternal.obj
 0001:0001de4c       BasePrintLibSPrint         000000000001e10c f   BasePrintLib:PrintLibInternal.obj
 0001:0001de70       PciOr8                     000000000001e130 f   BasePciLibCf8:PciLib.obj
 0001:0001df5c       PciAndThenOr32             000000000001e21c f   BasePciLibCf8:PciLib.obj
 0001:0001e028       AcquireSpinLockOrFail      000000000001e2e8 f   BaseSynchronizationLib:SynchronizationMsc.obj
 0001:0001e0a8       ReleaseSpinLock            000000000001e368 f   BaseSynchronizationLib:SynchronizationMsc.obj
 0001:0001e170       InternalMemEncryptSevGetAddressRangeState 000000000001e430 f   DxeMemEncryptSevLib:VirtualMemory.obj
 0001:0001e34c       GetTdInfo                  000000000001e60c f   TdxLib:TdInfo.obj
 0001:0001e3b0       TdSharedPageMask           000000000001e670 f   TdxLib:TdInfo.obj
 0001:0001e3dc       MmioRead32                 000000000001e69c f   BaseIoLibIntrinsicSev:IoLib.obj
 0001:0001e450       GetPcdProtocol             000000000001e710 f   DxePcdLib:DxePcdLib.obj
 0001:0001e4dc       PciCf8Read8                000000000001e79c f   BasePciCf8Lib:PciCf8Lib.obj
 0001:0001e594       PciCf8Read16               000000000001e854 f   BasePciCf8Lib:PciCf8Lib.obj
 0001:0001e61c       PciCf8Read32               000000000001e8dc f   BasePciCf8Lib:PciCf8Lib.obj
 0002:00000000       ??_C@_0BC@FEDIJHFF@?$CI?$CIBOOLEAN?$CJ?$CI0?$DN?$DN1?$CJ?$CJ@ 000000000001e9a0     DxeCoreEntryPoint:DxeCoreEntryPoint.obj
 0002:00000020       ??_C@_0FN@GKJEONHM@D?3?2uefi_specs_personal_collecti@ 000000000001e9c0     DxeCoreEntryPoint:DxeCoreEntryPoint.obj
 0002:00000080       ??_C@_07IDFNAKDE@DxeCore@  000000000001ea20     DxeCore:AutoGen.obj
 0002:00000088       ??_C@_0CE@IBFOBMLB@?6ASSERT_RETURN_ERROR?5?$CIStatus?5?$DN?5@ 000000000001ea28     DxeCore:AutoGen.obj
 0002:000000b0       ??_C@_0CH@BBNBJKHK@?$CB?$CI?$CI?$CIINTN?$CJ?$CIRETURN_STATUS?$CJ?$CIStatus@ 000000000001ea50     DxeCore:AutoGen.obj
 0002:000000e0       ??_C@_0HF@GELMFKJJ@d?3?2uefi_specs_personal_collecti@ 000000000001ea80     DxeCore:AutoGen.obj
 0002:00000158       ??_C@_0CB@DMEJJJHA@?6ASSERT_EFI_ERROR?5?$CIStatus?5?$DN?5?$CFr?$CJ@ 000000000001eaf8     DxeCore:AutoGen.obj
 0002:0000017c       _gPcd_FixedAtBuild_PcdControlFlowEnforcementPropertyMask 000000000001eb1c     DxeCore:AutoGen.obj
 0002:00000180       ??_C@_0FA@LCMCGOMG@D?3?2uefi_specs_personal_collecti@ 000000000001eb20     DxeCore:DxeMain.obj
 0002:000001d0       ??_C@_0BL@KFDMJOEH@gDxeCoreST?5?$CB?$DN?5?$CI?$CIvoid?5?$CK?$CJ?50?$CJ@ 000000000001eb70     DxeCore:DxeMain.obj
 0002:000001f0       ??_C@_0BL@HCNOBOBP@gDxeCoreRT?5?$CB?$DN?5?$CI?$CIvoid?5?$CK?$CJ?50?$CJ@ 000000000001eb90     DxeCore:DxeMain.obj
 0002:00000210       ??_C@_07CPDFFGDM@DxeMain@  000000000001ebb0     DxeCore:DxeMain.obj
 0002:00000218       ??_C@_0DA@FJJALMKI@?$CFa?3?5MemoryBaseAddress?$DN0x?$CFLx?5Mem@ 000000000001ebb8     DxeCore:DxeMain.obj
 0002:00000248       ??_C@_0BP@JHIGBJBJ@HOBLIST?5address?5in?5DXE?5?$DN?50x?$CFp?6@ 000000000001ebe8     DxeCore:DxeMain.obj
 0002:00000268       ??_C@_0CK@DGGNNHLJ@Memory?5Allocation?50x?$CF08x?50x?$CF0lx@ 000000000001ec08     DxeCore:DxeMain.obj
 0002:00000298       ??_C@_0CD@IPELIEAD@FV?5Hob?5?5?5?5?5?5?5?5?5?5?5?50x?$CF0lx?5?9?50x?$CF0@ 000000000001ec38     DxeCore:DxeMain.obj
 0002:000002c0       ??_C@_0CD@PNLGIPJF@FV2?5Hob?5?5?5?5?5?5?5?5?5?5?50x?$CF0lx?5?9?50x?$CF0@ 000000000001ec60     DxeCore:DxeMain.obj
 0002:000002e8       ??_C@_0BL@HNODMJIL@?5?5?5?5?5?5?5?5?5?5?5?5?5?5?5?5?5?5?$CFg?5?9?5?$CFg?6@ 000000000001ec88     DxeCore:DxeMain.obj
 0002:00000308       ??_C@_0DB@OOMKHHHJ@FV3?5Hob?5?5?5?5?5?5?5?5?5?5?50x?$CF0lx?5?9?50x?$CF0@ 000000000001eca8     DxeCore:DxeMain.obj
 0002:00000340       ??_C@_0BL@JCKLHDNI@VectorInfo?5?$CB?$DN?5?$CI?$CIvoid?5?$CK?$CJ?50?$CJ@ 000000000001ece0     DxeCore:DxeMain.obj
 0002:00000360       ??_C@_09CLHHHE@NonExist?5@ 000000000001ed00     DxeCore:Gcd.obj
 0002:00000370       ??_C@_09KKOLAJOM@Reserved?5@ 000000000001ed10     DxeCore:Gcd.obj
 0002:00000380       ??_C@_09OGAEAMND@SystemMem@ 000000000001ed20     DxeCore:Gcd.obj
 0002:00000390       ??_C@_09BHOLMENB@MMIO?5?5?5?5?5@ 000000000001ed30     DxeCore:Gcd.obj
 0002:000003a0       ??_C@_09OGNINBDN@PersisMem@ 000000000001ed40     DxeCore:Gcd.obj
 0002:000003b0       ??_C@_09JJJEBDHA@MoreRelia@ 000000000001ed50     DxeCore:Gcd.obj
 0002:000003c0       ??_C@_09IOAJAMNF@Unaccepte@ 000000000001ed60     DxeCore:Gcd.obj
 0002:000003d0       ??_C@_09EFIBGIME@Unknown?5?5@ 000000000001ed70     DxeCore:Gcd.obj
 0002:000003e0       ??_C@_08BABJFEMI@NonExist@ 000000000001ed80     DxeCore:Gcd.obj
 0002:000003f0       ??_C@_08NKCLJDKG@Reserved@ 000000000001ed90     DxeCore:Gcd.obj
 0002:00000400       ??_C@_08DCEEMMCJ@I?1O?5?5?5?5?5@ 000000000001eda0     DxeCore:Gcd.obj
 0002:00000410       ??_C@_08GFFKJBOF@Unknown?5@ 000000000001edb0     DxeCore:Gcd.obj
 0002:00000420       ??_C@_0BK@CPLEOACC@AnySearchBottomUp?5?5?5?5?5?5?5?5@ 000000000001edc0     DxeCore:Gcd.obj
 0002:00000440       ??_C@_0BK@NJMEKB@MaxAddressSearchBottomUp?5@ 000000000001ede0     DxeCore:Gcd.obj
 0002:00000460       ??_C@_0BK@DEGJCJIH@AtAddress?5?5?5?5?5?5?5?5?5?5?5?5?5?5?5?5@ 000000000001ee00     DxeCore:Gcd.obj
 0002:00000480       ??_C@_0BK@OKALKAAN@AnySearchTopDown?5?5?5?5?5?5?5?5?5@ 000000000001ee20     DxeCore:Gcd.obj
 0002:000004a0       ??_C@_0BK@GHIGEAJF@MaxAddressSearchTopDown?5?5@ 000000000001ee40     DxeCore:Gcd.obj
 0002:000004c0       ??_C@_0BK@PEMENPCN@Unknown?5?5?5?5?5?5?5?5?5?5?5?5?5?5?5?5?5?5@ 000000000001ee60     DxeCore:Gcd.obj
 0002:000004e0       ??_C@_0DP@PHLGEMBJ@Status?5?$DN?$DN?5?$CIRETURN_STATUS?$CJ?$CI0?$CJ?5?$CG?$CG@ 000000000001ee80     DxeCore:Gcd.obj
 0002:00000520       ??_C@_0EI@PAKDEEPP@D?3?2uefi_specs_personal_collecti@ 000000000001eec0     DxeCore:Gcd.obj
 0002:00000568       ??_C@_0CC@PDPAILAB@GCD?3Initial?5GCD?5Memory?5Space?5Ma@ 000000000001ef08     DxeCore:Gcd.obj
 0002:00000590       ??_C@_0FA@NJMGIMOE@GCDMemType?5Range?5?5?5?5?5?5?5?5?5?5?5?5?5?5?5@ 000000000001ef30     DxeCore:Gcd.obj
 0002:000005e0       ??_C@_0FA@IPOENJGI@?$DN?$DN?$DN?$DN?$DN?$DN?$DN?$DN?$DN?$DN?5?$DN?$DN?$DN?$DN?$DN?$DN?$DN?$DN?$DN?$DN?$DN?$DN?$DN?$DN?$DN?$DN?$DN?$DN?$DN?$DN@ 000000000001ef80     DxeCore:Gcd.obj
 0002:00000630       ??_C@_0CD@IGLICNPJ@?$CFa?5?5?$CF016lx?9?$CF016lx?5?$CF016lx?5?$CF016lx@ 000000000001efd0     DxeCore:Gcd.obj
 0002:00000654       ??_C@_01EEMJAFIK@?6@       000000000001eff4     DxeCore:Gcd.obj
 0002:00000658       ??_C@_0DL@MLDONEBJ@Status?5?$DN?$DN?5?$CIRETURN_STATUS?$CJ?$CI0?$CJ?5?$CG?$CG@ 000000000001eff8     DxeCore:Gcd.obj
 0002:00000698       ??_C@_0BP@JBOEBKAB@GCD?3Initial?5GCD?5I?1O?5Space?5Map?6@ 000000000001f038     DxeCore:Gcd.obj
 0002:000006b8       ??_C@_0CO@EOOAKPNG@GCDIoType?5?5Range?5?5?5?5?5?5?5?5?5?5?5?5?5?5?5@ 000000000001f058     DxeCore:Gcd.obj
 0002:000006e8       ??_C@_0CO@HLPKCBGC@?$DN?$DN?$DN?$DN?$DN?$DN?$DN?$DN?$DN?$DN?5?$DN?$DN?$DN?$DN?$DN?$DN?$DN?$DN?$DN?$DN?$DN?$DN?$DN?$DN?$DN?$DN?$DN?$DN?$DN?$DN@ 000000000001f088     DxeCore:Gcd.obj
 0002:00000718       ??_C@_0BG@GLMAILEI@?$CFa?5?5?5?$CF016lx?9?$CF016lx?$CFc?6@ 000000000001f0b8     DxeCore:Gcd.obj
 0002:00000730       ??_C@_0EF@EKFPBING@?$CI?$CIAttributes?5?$CG?50x00000080?$CJ?5?$DN?$DN?50@ 000000000001f0d0     DxeCore:Gcd.obj
 0002:00000780       ??_C@_0EF@BHOJOGHC@?$CI?$CIAttributes?5?$CG?50x00000100?$CJ?5?$DN?$DN?50@ 000000000001f120     DxeCore:Gcd.obj
 0002:000007d0       ??_C@_0EF@FEKALAGL@?$CI?$CIAttributes?5?$CG?50x00000200?$CJ?5?$DN?$DN?50@ 000000000001f170     DxeCore:Gcd.obj
 0002:00000820       ??_C@_0EF@JFAOEMFI@?$CI?$CIAttributes?5?$CG?50x00040000?$CJ?5?$DN?$DN?50@ 000000000001f1c0     DxeCore:Gcd.obj
 0002:00000870       ??_C@_0EF@NMKLCIFM@?$CI?$CIAttributes?5?$CG?50x00800000?$CJ?5?$DN?$DN?50@ 000000000001f210     DxeCore:Gcd.obj
 0002:000008b8       ??_C@_0M@OJOIOPDA@Length?5?$CB?$DN?50@ 000000000001f258     DxeCore:Gcd.obj
 0002:000008c8       ??_C@_0BM@OMDEEKNK@BottomEntry?9?$DOSignature?5?$DN?$DN?50@ 000000000001f268     DxeCore:Gcd.obj
 0002:000008e8       ??_C@_0BJ@EIBDJLA@TopEntry?9?$DOSignature?5?$DN?$DN?50@ 000000000001f288     DxeCore:Gcd.obj
 0002:00000908       ??_C@_0BF@NDBIKIKC@CR?5has?5Bad?5Signature@ 000000000001f2a8     DxeCore:Gcd.obj
 0002:00000920       ??_C@_0P@IEHMCOMK@?5?5Status?5?$DN?5?$CFr?6@ 000000000001f2c0     DxeCore:Gcd.obj
 0002:00000930       ??_C@_0DF@KHIFOALB@StartLink?5?$CB?$DN?5?$CI?$CIvoid?5?$CK?$CJ?50?$CJ?5?$CG?$CG?5En@ 000000000001f2d0     DxeCore:Gcd.obj
 0002:00000968       ??_C@_0DI@DJEDOKDG@TopEntry?5?$CB?$DN?5?$CI?$CIvoid?5?$CK?$CJ?50?$CJ?5?$CG?$CG?5Bot@ 000000000001f308     DxeCore:Gcd.obj
 0002:000009a0       ??_C@_0O@CCLKPNAN@?5?5Status?5?$DN?5?$CFr@ 000000000001f340     DxeCore:Gcd.obj
 0002:000009b0       ??_C@_0BJ@DDJOAKJB@?5?5?$CIBaseAddress?5?$DN?5?$CF016lx?$CJ@ 000000000001f350     DxeCore:Gcd.obj
 0002:000009d0       ??_C@_0CP@CEAOLIMI@GCD?3AddMemorySpace?$CIBase?$DN?$CF016lx?0@ 000000000001f370     DxeCore:Gcd.obj
 0002:00000a00       ??_C@_0BI@GDHAEIMH@?5?5GcdMemoryType?5?5?5?$DN?5?$CFa?6@ 000000000001f3a0     DxeCore:Gcd.obj
 0002:00000a18       ??_C@_0BM@PIDCDDFH@?5?5Capabilities?5?5?5?5?$DN?5?$CF016lx?6@ 000000000001f3b8     DxeCore:Gcd.obj
 0002:00000a38       ??_C@_0DE@OCFOPPEM@GCD?3AllocateMemorySpace?$CIBase?$DN?$CF0@ 000000000001f3d8     DxeCore:Gcd.obj
 0002:00000a70       ??_C@_0DE@CDAAHKFC@GCD?3AllocateMemorySpace?$CIBase?$DN?$DMN@ 000000000001f410     DxeCore:Gcd.obj
 0002:00000aa8       ??_C@_0BI@PGPKBGLH@?5?5GcdAllocateType?5?$DN?5?$CFa?6@ 000000000001f448     DxeCore:Gcd.obj
 0002:00000ac0       ??_C@_0BM@OMGGPGCO@?5?5Alignment?5?5?5?5?5?5?5?$DN?5?$CF016lx?6@ 000000000001f460     DxeCore:Gcd.obj
 0002:00000ae0       ??_C@_0BI@GIOHJBHB@?5?5ImageHandle?5?5?5?5?5?$DN?5?$CFp?6@ 000000000001f480     DxeCore:Gcd.obj
 0002:00000af8       ??_C@_0BI@DEAPEPHO@?5?5DeviceHandle?5?5?5?5?$DN?5?$CFp?6@ 000000000001f498     DxeCore:Gcd.obj
 0002:00000b10       ??_C@_0DA@HMHHABJF@GCD?3FreeMemorySpace?$CIBase?$DN?$CF016lx@ 000000000001f4b0     DxeCore:Gcd.obj
 0002:00000b40       ??_C@_0DC@MCJPLFAC@GCD?3RemoveMemorySpace?$CIBase?$DN?$CF016@ 000000000001f4e0     DxeCore:Gcd.obj
 0002:00000b78       ??_C@_0DJ@BKEGNNKB@GCD?3SetMemorySpaceAttributes?$CIBa@ 000000000001f518     DxeCore:Gcd.obj
 0002:00000bb8       ??_C@_0BI@PMFKMIML@?5?5Attributes?5?5?$DN?5?$CF016lx?6@ 000000000001f558     DxeCore:Gcd.obj
 0002:00000bd0       ??_C@_0DP@KFHGIBOG@GCD?3CoreSetMemorySpaceCapabilit@ 000000000001f570     DxeCore:Gcd.obj
 0002:00000c10       ??_C@_0BK@LLICKKMF@?5?5Capabilities?5?5?$DN?5?$CF016lx?6@ 000000000001f5b0     DxeCore:Gcd.obj
 0002:00000c30       ??_C@_0CL@IHLLEJAB@GCD?3AddIoSpace?$CIBase?$DN?$CF016lx?0Leng@ 000000000001f5d0     DxeCore:Gcd.obj
 0002:00000c60       ??_C@_0BF@HMLBENFG@?5?5GcdIoType?5?5?5?5?$DN?5?$CFa?6@ 000000000001f600     DxeCore:Gcd.obj
 0002:00000c78       ??_C@_0DA@IIHELIHJ@GCD?3AllocateIoSpace?$CIBase?$DN?$CF016lx@ 000000000001f618     DxeCore:Gcd.obj
 0002:00000ca8       ??_C@_0DA@EJCKDNGH@GCD?3AllocateIoSpace?$CIBase?$DN?$DMNULL?$DO@ 000000000001f648     DxeCore:Gcd.obj
 0002:00000cd8       ??_C@_0BI@EKBMIDBF@?5?5GcdIoType?5?5?5?5?5?5?5?$DN?5?$CFa?6@ 000000000001f678     DxeCore:Gcd.obj
 0002:00000cf0       ??_C@_0CM@FKMOMCIM@GCD?3FreeIoSpace?$CIBase?$DN?$CF016lx?0Len@ 000000000001f690     DxeCore:Gcd.obj
 0002:00000d20       ??_C@_0CO@EMFMKEDD@GCD?3RemoveIoSpace?$CIBase?$DN?$CF016lx?0L@ 000000000001f6c0     DxeCore:Gcd.obj
 0002:00000d50       ??_C@_0DK@DDONJNGD@?$CI?$CI?$CK?$CIEFI_HOB_GENERIC_HEADER?5?$CK?$CK?$CJ?$CG@ 000000000001f6f0     DxeCore:Gcd.obj
 0002:00000d8c       ??_C@_05JDGHEPJG@Found@    000000000001f72c     DxeCore:Gcd.obj
 0002:00000d98       ??_C@_0BP@GPENAPDN@CoreInitializeMemoryServices?3?6@ 000000000001f738     DxeCore:Gcd.obj
 0002:00000dc0       ??_C@_0EG@HIPBHLMB@?5?5BaseAddress?5?9?50x?$CFlx?5Length?5?9?5@ 000000000001f760     DxeCore:Gcd.obj
 0002:00000e08       ??_C@_0CC@NHBJGGMC@Length?5?$DO?$DN?5MinimalMemorySizeNeed@ 000000000001f7a8     DxeCore:Gcd.obj
 0002:00000e30       ??_C@_0BH@LILALLBE@CpuHob?5?$CB?$DN?5?$CI?$CIvoid?5?$CK?$CJ?50?$CJ@ 000000000001f7d0     DxeCore:Gcd.obj
 0002:00000e48       ??_C@_0BG@LAOOPKAA@Entry?5?$CB?$DN?5?$CI?$CIvoid?5?$CK?$CJ?50?$CJ@ 000000000001f7e8     DxeCore:Gcd.obj
 0002:00000e60       ??_C@_0HJ@FLJHFJCH@?$CIDescriptor?4GcdMemoryType?5?$DN?$DN?5Ef@ 000000000001f800     DxeCore:Gcd.obj
 0002:00000ee0       ??_C@_0BN@BDINJONM@Status?5?$DN?$DN?5?$CIRETURN_STATUS?$CJ?$CI0?$CJ@ 000000000001f880     DxeCore:Gcd.obj
 0002:00000f00       ??_C@_0BL@KMGNLCAF@NewHobList?5?$CB?$DN?5?$CI?$CIvoid?5?$CK?$CJ?50?$CJ@ 000000000001f8a0     DxeCore:Gcd.obj
 0002:00000f20       mGcdMemoryTypeNames        000000000001f8c0     DxeCore:Gcd.obj
 0002:00000f60       mGcdAllocationTypeNames    000000000001f900     DxeCore:Gcd.obj
 0002:00000f90       mGcdIoTypeNames            000000000001f930     DxeCore:Gcd.obj
 0002:00000fb0       ??_C@_08EDKKPLCC@Security@ 000000000001f950     DxeCore:DxeProtocolNotify.obj
 0002:00000fbc       ??_C@_03PMGKFAJB@CPU@      000000000001f95c     DxeCore:DxeProtocolNotify.obj
 0002:00000fc0       ??_C@_09NGEINFHN@Metronome@ 000000000001f960     DxeCore:DxeProtocolNotify.obj
 0002:00000fcc       ??_C@_05NHFJDMOA@Timer@    000000000001f96c     DxeCore:DxeProtocolNotify.obj
 0002:00000fd4       ??_C@_03KEGKPJJM@Bds@      000000000001f974     DxeCore:DxeProtocolNotify.obj
 0002:00000fd8       ??_C@_0P@DENBLOAF@Watchdog?5Timer@ 000000000001f978     DxeCore:DxeProtocolNotify.obj
 0002:00000fe8       ??_C@_07BDIJHMJM@Runtime@  000000000001f988     DxeCore:DxeProtocolNotify.obj
 0002:00000ff0       ??_C@_08DMMJCAML@Variable@ 000000000001f990     DxeCore:DxeProtocolNotify.obj
 0002:00001000       ??_C@_0P@MMKCCJJA@Variable?5Write@ 000000000001f9a0     DxeCore:DxeProtocolNotify.obj
 0002:00001010       ??_C@_07KAPIMIBP@Capsule@  000000000001f9b0     DxeCore:DxeProtocolNotify.obj
 0002:00001018       ??_C@_0BC@PDACIGNG@Monotonic?5Counter@ 000000000001f9b8     DxeCore:DxeProtocolNotify.obj
 0002:0000102c       ??_C@_05CCGMLFNG@Reset@    000000000001f9cc     DxeCore:DxeProtocolNotify.obj
 0002:00001038       ??_C@_0BA@NFHCMGKF@Real?5Time?5Clock@ 000000000001f9d8     DxeCore:DxeProtocolNotify.obj
 0002:00001048       ??_C@_00CNPNBAHC@@         000000000001f9e8     DxeCore:DxeProtocolNotify.obj
 0002:00001050       ??_C@_0FK@OPLIIGG@D?3?2uefi_specs_personal_collecti@ 000000000001f9f0     DxeCore:DxeProtocolNotify.obj
 0002:000010b0       ??_C@_0CB@PCGLEABO@?6?$CFa?5Arch?5Protocol?5not?5present?$CB?$CB@ 000000000001fa50     DxeCore:DxeProtocolNotify.obj
 0002:000010e0       mMissingProtocols          000000000001fa80     DxeCore:DxeProtocolNotify.obj
 0002:000011c0       ??_C@_0EM@DNGKJOGJ@D?3?2uefi_specs_personal_collecti@ 000000000001fb60     DxeCore:Handle.obj
 0002:00001210       ??_C@_0CC@CBAFNOJA@?$CGgProtocolDatabaseLock?5not?5lock@ 000000000001fbb0     DxeCore:Handle.obj
 0002:00001238       ??_C@_0DC@CAHOHHBK@SourceSize?5?$DO?$DN?5?$CIsizeof?5?$CIEFI_DEVI@ 000000000001fbd8     DxeCore:Handle.obj
 0002:00001270       ??_C@_0CM@ICPGCNBM@Size?5?$DO?$DN?5?$CIsizeof?5?$CIEFI_DEVICE_PAT@ 000000000001fc10     DxeCore:Handle.obj
 0002:000012a0       ??_C@_0CB@FGNELNDC@InstallProtocolInterface?3?5?$CFg?5?$CFp@ 000000000001fc40     DxeCore:Handle.obj
 0002:000012c8       ??_C@_0DL@JMLDNLDN@InstallProtocolInterface?3?5input@ 000000000001fc68     DxeCore:Handle.obj
 0002:00001310       ??_C@_0EI@LMEPGOGI@CoreFindProtocolInterface?5?$CIHand@ 000000000001fcb0     DxeCore:Handle.obj
 0002:00001358       ??_C@_0DA@DJMJHNBL@InstallProtocolInterface?3?5?$CFg?5?$CFp@ 000000000001fcf8     DxeCore:Handle.obj
 0002:00001388       ??_C@_0BF@IEAGJIOD@Prot?5?$CB?$DN?5?$CI?$CIvoid?5?$CK?$CJ?50?$CJ@ 000000000001fd28     DxeCore:Handle.obj
 0002:000013a0       ??_C@_0CK@BNHBJELF@Count?5?$DN?$DN?5ProtocolInterface?9?$DOOpe@ 000000000001fd40     DxeCore:Handle.obj
 0002:000013d0       ??_C@_0BP@HJGHBKEE@HandleFilePath?5?$CB?$DN?5?$CI?$CIvoid?5?$CK?$CJ?50?$CJ@ 000000000001fd70     DxeCore:DriverSupport.obj
 0002:000013f0       ??_C@_0FD@MPPFFLOO@D?3?2uefi_specs_personal_collecti@ 000000000001fd90     DxeCore:DriverSupport.obj
 0002:00001448       ??_C@_0BN@JGHNALBE@TempFilePath?5?$CB?$DN?5?$CI?$CIvoid?5?$CK?$CJ?50?$CJ@ 000000000001fde8     DxeCore:DriverSupport.obj
 0002:00001468       ??_C@_0BF@DKMPHDPK@?$CIStart?5?$CG?50xFFF?$CJ?5?$DN?$DN?50@ 000000000001fe08     DxeCore:Page.obj
 0002:00001480       ??_C@_0EJ@LMHGFCAB@D?3?2uefi_specs_personal_collecti@ 000000000001fe20     DxeCore:Page.obj
 0002:000014d0       ??_C@_0M@DCLLLGMI@End?5?$DO?5Start@ 000000000001fe70     DxeCore:Page.obj
 0002:000014e0       ??_C@_0BI@ONJDKCMB@?$CGgMemoryLock?5not?5locked@ 000000000001fe80     DxeCore:Page.obj
 0002:000014f8       ??_C@_0BJ@PAOKAOFD@AddRange?3?5?$CFlx?9?$CFlx?5to?5?$CFd?6@ 000000000001fe98     DxeCore:Page.obj
 0002:00001518       ??_C@_0O@LJAPMOCN@mMapDepth?5?$DM?56@ 000000000001feb8     DxeCore:Page.obj
 0002:00001528       ??_C@_05HKHPEFOF@Entry@    000000000001fec8     DxeCore:Page.obj
 0002:00001530       ??_C@_0BN@HEIGHNIJ@Promote?5the?5memory?5resource?6@ 000000000001fed0     DxeCore:Page.obj
 0002:00001550       ??_C@_0CC@IJEELBDC@CoreSetMemoryTypeInformationRan@ 000000000001fef0     DxeCore:Page.obj
 0002:00001578       ??_C@_0CA@CPDGFJCI@?$CFa?3?5Ignored?4?5Bins?5already?5set?4?6@ 000000000001ff18     DxeCore:Page.obj
 0002:00001598       ??_C@_0O@IJLJOHG@NumberOfPages@ 000000000001ff38     DxeCore:Page.obj
 0002:000015b0       ??_C@_0FB@EAPGANKD@?$CIChangingType?5?$DN?$DN?5?$CI?$CIBOOLEAN?$CJ?$CI0?$DN?$DN@ 000000000001ff50     DxeCore:Page.obj
 0002:00001608       ??_C@_0CO@EJFJFKFK@ConvertPages?3?5failed?5to?5find?5ra@ 000000000001ffa8     DxeCore:Page.obj
 0002:00001638       ??_C@_0DH@BHHHBMDC@ConvertPages?3?5range?5?$CFlx?5?9?5?$CFlx?5c@ 000000000001ffd8     DxeCore:Page.obj
 0002:00001670       ??_C@_0CC@IIKOLMNI@ConvertRange?3?5?$CFlx?9?$CFlx?5to?5type?5?$CF@ 0000000000020010     DxeCore:Page.obj
 0002:00001698       ??_C@_0CD@PGFFIJEA@ConvertRange?3?5?$CFlx?9?$CFlx?5to?5attr?5?$CF@ 0000000000020038     DxeCore:Page.obj
 0002:000016c0       ??_C@_0CK@FPPGCKMP@ConvertPages?3?5Incompatible?5memo@ 0000000000020060     DxeCore:Page.obj
 0002:000016f0       ??_C@_0CD@FCKMKELM@the?5pages?5to?5free?5have?5been?5fre@ 0000000000020090     DxeCore:Page.obj
 0002:00001718       ??_C@_0CL@CLDEPKJP@the?5pages?5to?5allocate?5have?5been@ 00000000000200b8     DxeCore:Page.obj
 0002:00001748       ??_C@_0BK@OGIMILJG@Entry?9?$DOStart?5?$DM?5Entry?9?$DOEnd@ 00000000000200e8     DxeCore:Page.obj
 0002:00001768       ??_C@_0BJ@MBGAPCJG@Entry?9?$DOVirtualStart?5?$DN?$DN?50@ 0000000000020108     DxeCore:Page.obj
 0002:00001788       ??_C@_0CM@DHDJDGHH@?$CIMergeGcdMapEntry?4BaseAddress?5?$CG@ 0000000000020128     DxeCore:Page.obj
 0002:000017c0       ??_C@_0FA@CAHBMJDL@?$CI?$CIMergeGcdMapEntry?4EndAddress?5?9@ 0000000000020160     DxeCore:Page.obj
 0002:00001810       ??_C@_0DA@DGIDMPCM@AllocatePoolPages?3?5failed?5to?5al@ 00000000000201b0     DxeCore:Page.obj
 0002:00001840       ??_C@_0CE@NFNPJFE@Entry?9?$DOType?5?$CB?$DN?5EfiACPIReclaimMe@ 00000000000201e0     DxeCore:Page.obj
 0002:00001868       ??_C@_0CA@DFKEOJOC@Entry?9?$DOType?5?$CB?$DN?5EfiACPIMemoryNVS@ 0000000000020208     DxeCore:Page.obj
 0002:00001890       ??_C@_0EI@MMBIIJHJ@ExitBootServices?3?5A?5RUNTIME?5mem@ 0000000000020230     DxeCore:Page.obj
 0002:000018d8       ??_C@_19EDCBDMLJ@?$AAI?$AAA?$AA3?$AA2@ 0000000000020278     DxeCore:Image.obj
 0002:000018e8       ??_C@_19DGIHPCNG@?$AAI?$AAA?$AA6?$AA4@ 0000000000020288     DxeCore:Image.obj
 0002:000018f8       ??_C@_17LBHEEDKD@?$AAX?$AA6?$AA4@ 0000000000020298     DxeCore:Image.obj
 0002:00001900       ??_C@_17FHNCMLPJ@?$AAA?$AAR?$AAM@ 00000000000202a0     DxeCore:Image.obj
 0002:00001908       ??_C@_1BA@LNDLOPGI@?$AAA?$AAA?$AAR?$AAC?$AAH?$AA6?$AA4@ 00000000000202a8     DxeCore:Image.obj
 0002:00001918       ??_C@_1BA@LDBJBEEE@?$AAR?$AAI?$AAS?$AAC?$AAV?$AA6?$AA4@ 00000000000202b8     DxeCore:Image.obj
 0002:00001928       ??_C@_1BI@MABENGPE@?$AAL?$AAO?$AAO?$AAN?$AAG?$AAA?$AAR?$AAC?$AAH?$AA6?$AA4@ 00000000000202c8     DxeCore:Image.obj
 0002:00001940       ??_C@_1BE@BGMELJBK@?$AA?$DM?$AAU?$AAn?$AAk?$AAn?$AAo?$AAw?$AAn?$AA?$DO@ 00000000000202e0     DxeCore:Image.obj
 0002:00001960       ??_C@_0EM@IIAFEGMH@D?3?2uefi_specs_personal_collecti@ 0000000000020300     DxeCore:Image.obj
 0002:000019b0       ??_C@_0BP@LNDCHNN@DxeCoreHob?4Raw?5?$CB?$DN?5?$CI?$CIvoid?5?$CK?$CJ?50?$CJ@ 0000000000020350     DxeCore:Image.obj
 0002:000019d0       ??_C@_0EK@DBFEBAJP@FHand?9?$DOSignature?5?$DN?$DN?5?$CI?$CI?$CI?8i?8?$CJ?5?$HM?5?$CI@ 0000000000020370     DxeCore:Image.obj
 0002:00001a20       ??_C@_0DC@EJDBEBLN@Image?5type?5?$CFs?5can?8t?5be?5loaded?5o@ 00000000000203c0     DxeCore:Image.obj
 0002:00001a58       ??_C@_0CM@DHEJGNGM@Loading?5driver?5at?50x?$CF11p?5EntryP@ 00000000000203f8     DxeCore:Image.obj
 0002:00001a84       ??_C@_02ECNOPIAA@?$CFa@    0000000000020424     DxeCore:Image.obj
 0002:00001a88       ??_C@_0CM@OGKPDMHB@CoreLoadedImageInfo?3?5Not?5an?5Ima@ 0000000000020428     DxeCore:Image.obj
 0002:00001ab8       ??_C@_0BE@LIDLKJIC@gEfiCurrentTpl?5?$DM?516@ 0000000000020458     DxeCore:Image.obj
 0002:00001ad0       ??_C@_0DA@PNFPMGEN@LoadImageEx?3?5Parent?5handle?5not?5@ 0000000000020470     DxeCore:Image.obj
 0002:00001b00       ??_C@_0BK@CFBPOBLI@gSecurity?5?$CB?$DN?5?$CI?$CIvoid?5?$CK?$CJ?50?$CJ@ 00000000000204a0     DxeCore:Image.obj
 0002:00001b20       ??_C@_0CA@LMDJIDC@Image?5type?5?$CFs?5can?8t?5be?5started?5@ 00000000000204c0     DxeCore:Image.obj
 0002:00001b40       ??_C@_0BE@PMMMCCHM@on?5?$CFs?5UEFI?5system?4?6@ 00000000000204e0     DxeCore:Image.obj
 0002:00001b60       ??_C@_0EG@GLDEAECD@CoreLoadPeImage?3?5Failed?5to?5regi@ 0000000000020500     DxeCore:Image.obj
 0002:00001ba8       ??_C@_0CH@BJEHJFJH@Error?3?5Image?5at?5?$CF11p?5start?5fail@ 0000000000020548     DxeCore:Image.obj
 0002:00001bd0       ??_C@_0BN@KFGHOKFH@Image?9?$DOTpl?5?$DN?$DN?5gEfiCurrentTpl@ 0000000000020570     DxeCore:Image.obj
 0002:00001bf0       ??_C@_0CJ@DLIJNNII@StartImage?3?5ExitDataSize?5?$CFd?0?5Ex@ 0000000000020590     DxeCore:Image.obj
 0002:00001c1c       ??_C@_05DNDNCJEB@?5?$CI?$CFs?$CJ@ 00000000000205bc     DxeCore:Image.obj
 0002:00001c28       ??_C@_0CD@CIGCNLDL@Exit?3?5Image?5is?5not?5exitable?5ima@ 00000000000205c8     DxeCore:Image.obj
 0002:00001c50       ??_C@_0FG@IMLKAHAO@D?3?2uefi_specs_personal_collecti@ 00000000000205f0     DxeCore:MemoryProtection.obj
 0002:00001ca8       ??_C@_0DP@JAPMDJLG@SetUefiImageMemoryAttributes?5?9?5@ 0000000000020648     DxeCore:MemoryProtection.obj
 0002:00001ce8       ??_C@_0BF@BBBPPCMC@gCpu?5?$CB?$DN?5?$CI?$CIvoid?5?$CK?$CJ?50?$CJ@ 0000000000020688     DxeCore:MemoryProtection.obj
 0002:00001d00       ??_C@_0DH@OJNENLBH@CurrentBase?5?$DM?$DN?5ImageRecordCodeS@ 00000000000206a0     DxeCore:MemoryProtection.obj
 0002:00001d38       ??_C@_0BI@DPJDPFEL@CurrentBase?5?$DM?$DN?5ImageEnd@ 00000000000206d8     DxeCore:MemoryProtection.obj
 0002:00001d50       ??_C@_0BP@FGDIJMOP@ProtectUefiImageCommon?5?9?50x?$CFx?6@ 00000000000206f0     DxeCore:MemoryProtection.obj
 0002:00001d70       ??_C@_0BJ@NHGBELDF@?5?5?9?50x?$CF016lx?5?9?50x?$CF016lx?6@ 0000000000020710     DxeCore:MemoryProtection.obj
 0002:00001d90       ??_C@_0BB@BNEBDLMB@ProtectUefiImage@ 0000000000020730     DxeCore:MemoryProtection.obj
 0002:00001da8       ??_C@_0CN@OCDFEJK@?$CFa?5failed?5to?5create?5image?5prope@ 0000000000020748     DxeCore:MemoryProtection.obj
 0002:00001dd8       ??_C@_0DJ@CIDFFKAG@Status?5?$DN?$DN?5?$CI?$CIRETURN_STATUS?$CJ?$CI0x80@ 0000000000020778     DxeCore:MemoryProtection.obj
 0002:00001e18       ??_C@_0BK@BEMEMBP@MemoryMap?5?$CB?$DN?5?$CI?$CIvoid?5?$CK?$CJ?50?$CJ@ 00000000000207b8     DxeCore:MemoryProtection.obj
 0002:00001e38       ??_C@_0CI@KKNIBCOL@MemoryProtectionCpuArchProtocol@ 00000000000207d8     DxeCore:MemoryProtection.obj
 0002:00001e60       ??_C@_0EM@HELFNFAJ@D?3?2uefi_specs_personal_collecti@ 0000000000020800     DxeCore:Notify.obj
 0002:00001eb0       ??_C@_0CF@FMPFMLED@gEventQueueLock?4OwnerTpl?5?$DN?$DN?5Pri@ 0000000000020850     DxeCore:Event.obj
 0002:00001ee0       ??_C@_0EM@NELOMFJ@D?3?2uefi_specs_personal_collecti@ 0000000000020880     DxeCore:Event.obj
 0002:00001f30       ??_C@_0CG@BNFJMDOB@Event?9?$DONotifyFunction?5?$CB?$DN?5?$CI?$CIvoid@ 00000000000208d0     DxeCore:Event.obj
 0002:00001f58       ??_C@_0BM@MHJDAOFB@?$CGgEventQueueLock?5not?5locked@ 00000000000208f8     DxeCore:Event.obj
 0002:00001f80       mEventTable                0000000000020920     DxeCore:Event.obj
 0002:00001fa0       ??_C@_0FG@LJNLIENN@D?3?2uefi_specs_personal_collecti@ 0000000000020940     DxeCore:Dispatcher.obj
 0002:00001ff8       ??_C@_0CA@IFALBDJD@Schedule?5FFS?$CI?$CFg?$CJ?5?9?5EFI_SUCCESS?6@ 0000000000020998     DxeCore:Dispatcher.obj
 0002:00002018       ??_C@_0CC@DLDPKBBM@Schedule?5FFS?$CI?$CFg?$CJ?5?9?5EFI_NOT_FOUN@ 00000000000209b8     DxeCore:Dispatcher.obj
 0002:00002040       ??_C@_0BD@GOHKOBCJ@Loading?5driver?5?$CFg?6@ 00000000000209e0     DxeCore:Dispatcher.obj
 0002:00002058       ??_C@_0CJ@GOOBNJLF@DriverEntry?9?$DOImageHandle?5?$CB?$DN?5?$CI?$CIv@ 00000000000209f8     DxeCore:Dispatcher.obj
 0002:00002088       ??_C@_0CA@ICIDHKK@Evaluate?5DXE?5DEPEX?5for?5FFS?$CI?$CFg?$CJ?6@ 0000000000020a28     DxeCore:Dispatcher.obj
 0002:000020b0       ??_C@_0ED@KMLPGIKP@?5?5SOR?5?5?5?5?5?5?5?5?5?5?5?5?5?5?5?5?5?5?5?5?5?5?5?5?5?5@ 0000000000020a50     DxeCore:Dispatcher.obj
 0002:000020f8       ??_C@_0BC@KNMKMBFG@?5?5RESULT?5?$DN?5FALSE?6@ 0000000000020a98     DxeCore:Dispatcher.obj
 0002:00002110       ??_C@_0BE@NGDMDIJA@?5?5BEFORE?5FFS?$CI?$CFg?$CJ?5?$DN?5@ 0000000000020ab0     DxeCore:Dispatcher.obj
 0002:00002128       ??_C@_0BM@FKEPNHMN@TRUE?6?5?5END?6?5?5RESULT?5?$DN?5TRUE?6@ 0000000000020ac8     DxeCore:Dispatcher.obj
 0002:00002148       ??_C@_0BO@IOEAMIGE@FALSE?6?5?5END?6?5?5RESULT?5?$DN?5FALSE?6@ 0000000000020ae8     DxeCore:Dispatcher.obj
 0002:00002168       ??_C@_0BD@NIJHLBPK@?5?5AFTER?5FFS?$CI?$CFg?$CJ?5?$DN?5@ 0000000000020b08     DxeCore:Dispatcher.obj
 0002:00002180       ??_C@_0BE@CMNLMPMF@Fvb?5?$CB?$DN?5?$CI?$CIvoid?5?$CK?$CJ?50?$CJ@ 0000000000020b20     DxeCore:Dispatcher.obj
 0002:00002198       ??_C@_0BM@DMAELHGE@FwVolHeader?5?$CB?$DN?5?$CI?$CIvoid?5?$CK?$CJ?50?$CJ@ 0000000000020b38     DxeCore:Dispatcher.obj
 0002:000021b8       ??_C@_0DL@FBBCBGFD@FvImage?5on?5FvHandle?5?$CFp?5and?5?$CFp?5h@ 0000000000020b58     DxeCore:Dispatcher.obj
 0002:000021f8       ??_C@_0BM@PPFNPPMA@KnownHandle?5?$CB?$DN?5?$CI?$CIvoid?5?$CK?$CJ?50?$CJ@ 0000000000020b98     DxeCore:Dispatcher.obj
 0002:00002218       ??_C@_0BM@HECPJCLL@DriverEntry?5?$CB?$DN?5?$CI?$CIvoid?5?$CK?$CJ?50?$CJ@ 0000000000020bb8     DxeCore:Dispatcher.obj
 0002:00002238       ??_C@_0DJ@LKNCCCCL@FV?5at?50x?$CFx?5has?50x?$CFx?5used?5size?0?5@ 0000000000020bd8     DxeCore:Dispatcher.obj
 0002:00002278       ??_C@_0BH@LLNEDFOL@CoreProcessFvImageFile@ 0000000000020c18     DxeCore:Dispatcher.obj
 0002:00002290       ??_C@_0CP@HPHALLJH@?$CFa?$CI?$CJ?5FV?5at?50x?$CFx?0?5FvAlignment?5re@ 0000000000020c30     DxeCore:Dispatcher.obj
 0002:000022c0       ??_C@_0BL@HMFJNHJC@?5?5RESULT?5?$DN?5TRUE?5?$CIApriori?$CJ?6@ 0000000000020c60     DxeCore:Dispatcher.obj
 0002:000022e0       ??_C@_0CL@LMDLCLKA@Driver?5?$CFg?5was?5discovered?5but?5no@ 0000000000020c80     DxeCore:Dispatcher.obj
 0002:0000230c       mDxeFileTypes              0000000000020cac     DxeCore:Dispatcher.obj
 0002:00002320       ??_C@_0EM@BEIGPBGH@D?3?2uefi_specs_personal_collecti@ 0000000000020cc0     DxeCore:Locate.obj
 0002:00002370       ??_C@_0BK@BPKPPMIP@SearchKey?5?$CB?$DN?5?$CI?$CIvoid?5?$CK?$CJ?50?$CJ@ 0000000000020d10     DxeCore:Locate.obj
 0002:00002390       ??_C@_0EP@IMFJAECC@ProtNotify?9?$DOSignature?5?$DN?$DN?5?$CI?$CI?$CI?8p?8@ 0000000000020d30     DxeCore:Locate.obj
 0002:000023e0       ??_C@_09KGHPCAJJ@Size?5?$DO?$DN?50@ 0000000000020d80     DxeCore:Locate.obj
 0002:000023f0       ??_C@_0BC@KDNKCHNM@Size?5?$CB?$DN?5BestMatch@ 0000000000020d90     DxeCore:Locate.obj
 0002:00002410       ??_C@_0FE@PGMDMCKK@D?3?2uefi_specs_personal_collecti@ 0000000000020db0     DxeCore:DebugImageInfo.obj
 0002:00002468       ??_C@_0BM@KCFHPMG@mDebugTable?5?$CB?$DN?5?$CI?$CIvoid?5?$CK?$CJ?50?$CJ@ 0000000000020e08     DxeCore:DebugImageInfo.obj
 0002:00002488       ??_C@_0BJ@GBLMKKIK@Index?5?$DM?5mMaxTableEntries@ 0000000000020e28     DxeCore:DebugImageInfo.obj
 0002:000024b0       ??_C@_0FG@LOMLBMFE@D?3?2uefi_specs_personal_collecti@ 0000000000020e50     DxeCore:FwVolBlock.obj
 0002:00002510       ??_C@_0EI@EOAGIEHL@Unaligned?5FvImage?5found?5at?50x?$CFl@ 0000000000020eb0     DxeCore:FwVolBlock.obj
 0002:00002558       ??_C@_0CC@PBCMMGPK@?$CKFVProtocolHandle?5?$CB?$DN?5?$CI?$CIvoid?5?$CK?$CJ?5@ 0000000000020ef8     DxeCore:FwVolBlock.obj
 0002:00002580       ??_C@_0EM@JCCENNGL@D?3?2uefi_specs_personal_collecti@ 0000000000020f20     DxeCore:Timer.obj
 0002:000025d0       ??_C@_0BK@OEHKHKCA@?$CGmEfiTimerLock?5not?5locked@ 0000000000020f70     DxeCore:Timer.obj
 0002:000025f0       ??_C@_0EJ@MLAEDHDK@D?3?2uefi_specs_personal_collecti@ 0000000000020f90     DxeCore:Pool.obj
 0002:00002640       ??_C@_0BM@KKFMLGIB@?$CGmPoolMemoryLock?5not?5locked@ 0000000000020fe0     DxeCore:Pool.obj
 0002:00002660       ??_C@_0ED@BJPMJCNA@Index?5?$DM?5?$CI?$CIsizeof?5?$CImPoolSizeTabl@ 0000000000021000     DxeCore:Pool.obj
 0002:000026a8       ??_C@_0BE@IGCHCEAB@Offset?5?$DN?$DN?5MaxOffset@ 0000000000021048     DxeCore:Pool.obj
 0002:000026c0       ??_C@_0DA@MFNGHLKJ@AllocatePoolI?3?5Type?5?$CFx?0?5Addr?5?$CFp@ 0000000000021060     DxeCore:Pool.obj
 0002:000026f0       ??_C@_0CM@HBBDHNH@AllocatePool?3?5failed?5to?5allocat@ 0000000000021090     DxeCore:Pool.obj
 0002:00002720       ??_C@_0BH@IACGKAP@Buffer?5?$CB?$DN?5?$CI?$CIvoid?5?$CK?$CJ?50?$CJ@ 00000000000210c0     DxeCore:Pool.obj
 0002:00002738       ??_C@_0BF@FBEMMEEB@Head?5?$CB?$DN?5?$CI?$CIvoid?5?$CK?$CJ?50?$CJ@ 00000000000210d8     DxeCore:Pool.obj
 0002:00002750       ??_C@_0JF@FCLDABPD@Head?9?$DOSignature?5?$DN?$DN?5?$CI?$CI?$CI?8p?8?$CJ?5?$HM?5?$CI?8@ 00000000000210f0     DxeCore:Pool.obj
 0002:000027e8       ??_C@_0BF@HNLOIDLA@Tail?5?$CB?$DN?5?$CI?$CIvoid?5?$CK?$CJ?50?$CJ@ 0000000000021188     DxeCore:Pool.obj
 0002:00002800       ??_C@_0EJ@NAAKIGKI@Tail?9?$DOSignature?5?$DN?$DN?5?$CI?$CI?$CI?8p?8?$CJ?5?$HM?5?$CI?8@ 00000000000211a0     DxeCore:Pool.obj
 0002:00002850       ??_C@_0BJ@LNLMFOPC@Head?9?$DOSize?5?$DN?$DN?5Tail?9?$DOSize@ 00000000000211f0     DxeCore:Pool.obj
 0002:00002870       ??_C@_0BN@HPFHKNAN@FreePool?3?5?$CFp?5?$CIlen?5?$CFlx?$CJ?5?$CF?0ld?6@ 0000000000021210     DxeCore:Pool.obj
 0002:00002890       ??_C@_0BF@IFDLHOEE@Free?5?$CB?$DN?5?$CI?$CIvoid?5?$CK?$CJ?50?$CJ@ 0000000000021230     DxeCore:Pool.obj
 0002:000028d0       ??_C@_0GI@JKONNCCN@D?3?2uefi_specs_personal_collecti@ 0000000000021270     DxeCore:CoreSectionExtraction.obj
 0002:00002938       ??_C@_0CI@HIJAFAGE@GuidedHeader?9?$DOCommonHeader?4Type@ 00000000000212d8     DxeCore:CoreSectionExtraction.obj
 0002:00002960       ??_C@_0BI@DNICFLOF@Context?5?$CB?$DN?5?$CI?$CIvoid?5?$CK?$CJ?50?$CJ@ 0000000000021300     DxeCore:CoreSectionExtraction.obj
 0002:00002978       ??_C@_0BL@IIFJKKLG@Decompress?5?$CB?$DN?5?$CI?$CIvoid?5?$CK?$CJ?50?$CJ@ 0000000000021318     DxeCore:CoreSectionExtraction.obj
 0002:00002998       ??_C@_0BF@FBJGGPOH@?$CKSectionInstance?5?$DO?50@ 0000000000021338     DxeCore:CoreSectionExtraction.obj
 0002:000029b0       ??_C@_0CB@CNFLOPGM@CurrentChildNode?5?$CB?$DN?5?$CI?$CIvoid?5?$CK?$CJ?50@ 0000000000021350     DxeCore:CoreSectionExtraction.obj
 0002:000029d8       ??_C@_0CL@NNCAIFHP@?$CI?$CI?$CIINTN?$CJ?$CIRETURN_STATUS?$CJ?$CIErrorSt@ 0000000000021378     DxeCore:CoreSectionExtraction.obj
 0002:00002a08       ??_C@_0L@IPEEMBLD@GetSection@ 00000000000213a8     DxeCore:CoreSectionExtraction.obj
 0002:00002a18       ??_C@_0CM@HDKOPCPM@?$CFa?3?5recursion?5aborted?5due?5to?5ne@ 00000000000213b8     DxeCore:CoreSectionExtraction.obj
 0002:00002a50       ??_C@_0EO@LAPNMKO@?$CI?$CI?$CIEFI_COMMON_SECTION_HEADER2?5?$CK@ 00000000000213f0     DxeCore:CoreSectionExtraction.obj
 0002:00002aa0       ??_C@_0DM@GLCAIADA@It?5is?5a?5FFS3?5formatted?5section?5@ 0000000000021440     DxeCore:CoreSectionExtraction.obj
 0002:00002ae0       ??_C@_0EO@CPIGPIBK@ChildNode?9?$DOSignature?5?$DN?$DN?5?$CI?$CI?$CI?8S?8?$CJ@ 0000000000021480     DxeCore:CoreSectionExtraction.obj
 0002:00002b30       ??_C@_0CJ@LEPGFEOI@GetInfo?5from?5guided?5section?5Fai@ 00000000000214d0     DxeCore:CoreSectionExtraction.obj
 0002:00002b60       ??_C@_0CE@CGCKLIFH@Extract?5guided?5section?5Failed?5?9@ 0000000000021500     DxeCore:CoreSectionExtraction.obj
 0002:00002b88       ??_C@_0DJ@BEDKBBDO@FATAL?5ERROR?5?9?5RaiseTpl?5with?5Old@ 0000000000021528     DxeCore:Tpl.obj
 0002:00002bd0       ??_C@_0EK@MMFKEJNO@D?3?2uefi_specs_personal_collecti@ 0000000000021570     DxeCore:Tpl.obj
 0002:00002c20       ??_C@_0BB@DKMJFNAG@?$CI?$CINewTpl?$CJ?5?$DM?$DN?531?$CJ@ 00000000000215c0     DxeCore:Tpl.obj
 0002:00002c38       ??_C@_0DL@IMFJACGO@FATAL?5ERROR?5?9?5RestoreTpl?5with?5N@ 00000000000215d8     DxeCore:Tpl.obj
 0002:00002c78       ??_C@_0BJ@OAAKNPEN@Pe32Data?5?$CB?$DN?5?$CI?$CIvoid?5?$CK?$CJ?50?$CJ@ 0000000000021618     DxeCore:MemoryProfileRecord.obj
 0002:00002c98       ??_C@_0BL@OOFMKHJH@EntryPoint?5?$CB?$DN?5?$CI?$CIvoid?5?$CK?$CJ?50?$CJ@ 0000000000021638     DxeCore:MemoryProfileRecord.obj
 0002:00002cb8       ??_C@_0CI@JIIAGMAO@Cannot?5install?5Memory?5Attribute@ 0000000000021658     DxeCore:MemoryAttributesTable.obj
 0002:00002ce0       ??_C@_0DG@GNEGIFLJ@because?5Runtime?5Driver?5Section?5@ 0000000000021680     DxeCore:MemoryAttributesTable.obj
 0002:00002d20       ??_C@_0FL@FNIPCEO@D?3?2uefi_specs_personal_collecti@ 00000000000216c0     DxeCore:MemoryAttributesTable.obj
 0002:00002d80       ??_C@_0CG@FPGHNECH@MemoryAttributesTable?5?$CB?$DN?5?$CI?$CIvoid@ 0000000000021720     DxeCore:MemoryAttributesTable.obj
 0002:00002da8       ??_C@_0BI@HNOKICAB@MemoryAttributesTable?3?6@ 0000000000021748     DxeCore:MemoryAttributesTable.obj
 0002:00002dc0       ??_C@_0CB@GMMBKKEK@?5?5Version?5?5?5?5?5?5?5?5?5?5?5?5?5?5?9?50x?$CF08x@ 0000000000021760     DxeCore:MemoryAttributesTable.obj
 0002:00002de8       ??_C@_0CB@KMMAFNLM@?5?5NumberOfEntries?5?5?5?5?5?5?9?50x?$CF08x@ 0000000000021788     DxeCore:MemoryAttributesTable.obj
 0002:00002e10       ??_C@_0CB@FHOLKKC@?5?5DescriptorSize?5?5?5?5?5?5?5?9?50x?$CF08x@ 00000000000217b0     DxeCore:MemoryAttributesTable.obj
 0002:00002e38       ??_C@_0O@BJLMFKPN@Entry?5?$CI0x?$CFx?$CJ?6@ 00000000000217d8     DxeCore:MemoryAttributesTable.obj
 0002:00002e48       ??_C@_0BM@OFOMNHPM@?5?5Type?5?5?5?5?5?5?5?5?5?5?5?5?5?5?9?50x?$CFx?6@ 00000000000217e8     DxeCore:MemoryAttributesTable.obj
 0002:00002e68       ??_C@_0CA@LKNOBKLP@?5?5PhysicalStart?5?5?5?5?5?9?50x?$CF016lx?6@ 0000000000021808     DxeCore:MemoryAttributesTable.obj
 0002:00002e88       ??_C@_0CA@OBLLFPPH@?5?5VirtualStart?5?5?5?5?5?5?9?50x?$CF016lx?6@ 0000000000021828     DxeCore:MemoryAttributesTable.obj
 0002:00002ea8       ??_C@_0CA@HKCNAHEO@?5?5NumberOfPages?5?5?5?5?5?9?50x?$CF016lx?6@ 0000000000021848     DxeCore:MemoryAttributesTable.obj
 0002:00002ec8       ??_C@_0CA@EEMGMJFM@?5?5Attribute?5?5?5?5?5?5?5?5?5?9?50x?$CF016lx?6@ 0000000000021868     DxeCore:MemoryAttributesTable.obj
 0002:00002ee8       ??_C@_0CH@GOHPIDLA@DXE?5?9?5Total?5Runtime?5Image?5Count@ 0000000000021888     DxeCore:MemoryAttributesTable.obj
 0002:00002f10       ??_C@_0CD@IJGLDEEJ@DXE?5?9?5Dump?5Runtime?5Image?5Record@ 00000000000218b0     DxeCore:MemoryAttributesTable.obj
 0002:00002f38       ??_C@_0BK@BDNMFFLI@InsertImageRecord?5?9?50x?$CFx?6@ 00000000000218d8     DxeCore:MemoryAttributesTable.obj
 0002:00002f58       ??_C@_0DD@CPDCPODE@Do?5not?5insert?5runtime?5image?5rec@ 00000000000218f8     DxeCore:MemoryAttributesTable.obj
 0002:00002f90       ??_C@_0O@GJKANIFG@?5?5Image?5?9?5?$CFa?6@ 0000000000021930     DxeCore:MemoryAttributesTable.obj
 0002:00002fa0       ??_C@_0DP@DCIHFLBD@?$CB?$CB?$CB?$CB?$CB?$CB?$CB?$CB?5?5InsertImageRecord?5?9?5C@ 0000000000021940     DxeCore:MemoryAttributesTable.obj
 0002:00002fe0       ??_C@_0CA@NBAFADJB@?$CB?$CB?$CB?$CB?$CB?$CB?$CB?$CB?5?5Image?5?9?5?$CFa?5?5?$CB?$CB?$CB?$CB?$CB?$CB?$CB?$CB?6@ 0000000000021980     DxeCore:MemoryAttributesTable.obj
 0002:00003000       ??_C@_0CG@FKONGJEN@IsImageRecordCodeSectionValid?5?9@ 00000000000219a0     DxeCore:MemoryAttributesTable.obj
 0002:00003028       ??_C@_0BK@HPPNGIAO@RemoveImageRecord?5?9?50x?$CFx?6@ 00000000000219c8     DxeCore:MemoryAttributesTable.obj
 0002:00003048       ??_C@_0CJ@LNPAJGNG@RemoveImageRecord?5?9?50x?$CF016lx?5?9?5@ 00000000000219e8     DxeCore:MemoryAttributesTable.obj
 0002:00003078       ??_C@_0DD@GJBAEOGG@Do?5not?5remove?5runtime?5image?5rec@ 0000000000021a18     DxeCore:MemoryAttributesTable.obj
 0002:000030b0       ??_C@_0CJ@MHHEPHPJ@?$CB?$CB?$CB?$CB?$CB?$CB?$CB?$CB?5ImageRecord?5not?5found?5@ 0000000000021a50     DxeCore:MemoryAttributesTable.obj
 0002:000030e0       ??_C@_0DN@IHGHEFGN@Found?5a?5FFS3?5formatted?5file?3?5?$CFg@ 0000000000021a80     DxeCore:FwVol.obj
 0002:00003120       ??_C@_0FK@ECOJJFD@?$CI?$CIUINT32?$CJ?5?$CI?$CI?$CIEFI_FFS_FILE_HEADE@ 0000000000021ac0     DxeCore:FwVol.obj
 0002:00003180       ??_C@_0EM@DICHMFLL@D?3?2uefi_specs_personal_collecti@ 0000000000021b20     DxeCore:FwVol.obj
 0002:000031d0       ??_C@_0BF@JGGLMCFN@Lock?5?$CB?$DN?5?$CI?$CIvoid?5?$CK?$CJ?50?$CJ@ 0000000000021b70     DxeCore:Library.obj
 0002:000031f0       ??_C@_0FA@FNIABGBG@D?3?2uefi_specs_personal_collecti@ 0000000000021b90     DxeCore:Library.obj
 0002:00003240       ??_C@_0CD@PGOFFOAH@Lock?9?$DOLock?5?$CB?$DN?5EfiLockUninitiali@ 0000000000021be0     DxeCore:Library.obj
 0002:00003268       ??_C@_0BO@IJOPPPFL@Lock?9?$DOLock?5?$DN?$DN?5EfiLockReleased@ 0000000000021c08     DxeCore:Library.obj
 0002:00003288       ??_C@_0BO@FHNOFLFJ@Lock?9?$DOLock?5?$DN?$DN?5EfiLockAcquired@ 0000000000021c28     DxeCore:Library.obj
 0002:000032a8       ??_C@_0BG@NIPFGNEI@BitNumber?5?$DM?$DN?5?$CI1?5?$DM?$DM?56?$CJ@ 0000000000021c48     DxeCore:HeapGuard.obj
 0002:000032c0       ??_C@_0EO@FGLLMKNI@D?3?2uefi_specs_personal_collecti@ 0000000000021c60     DxeCore:HeapGuard.obj
 0002:00003310       ??_C@_0P@BELBPKJL@MapMemory?5?$CB?$DN?50@ 0000000000021cb0     DxeCore:HeapGuard.obj
 0002:00003320       ??_C@_0BH@CPAFCLMN@BitMap?5?$CB?$DN?5?$CI?$CIvoid?5?$CK?$CJ?50?$CJ@ 0000000000021cc0     DxeCore:HeapGuard.obj
 0002:00003338       ??_C@_0BA@BDENPEJJ@Target?5?$DO?$DN?5Start@ 0000000000021cd8     DxeCore:HeapGuard.obj
 0002:00003348       ??_C@_0DF@CGKKDMDF@?5?5All?5UEFI?5Services?5Available?5?5@ 0000000000021ce8     DxeCore:Dependency.obj
 0002:00003380       ??_C@_0BI@OJJILPHO@FALSE?6?5?5RESULT?5?$DN?5FALSE?6@ 0000000000021d20     DxeCore:Dependency.obj
 0002:00003398       ??_C@_0BG@PMDFLICB@TRUE?6?5?5RESULT?5?$DN?5TRUE?6@ 0000000000021d38     DxeCore:Dependency.obj
 0002:000033b0       ??_C@_0DH@HJNPFLMD@?5?5RESULT?5?$DN?5FALSE?5?$CIAttempt?5to?5fe@ 0000000000021d50     DxeCore:Dependency.obj
 0002:000033e8       ??_C@_0DG@BLEOFCEK@?5?5RESULT?5?$DN?5FALSE?5?$CIUnexpected?5BE@ 0000000000021d88     DxeCore:Dependency.obj
 0002:00003420       ??_C@_0FG@KKHOLPIN@D?3?2uefi_specs_personal_collecti@ 0000000000021dc0     DxeCore:Dependency.obj
 0002:00003478       ??_C@_06IDJBPDAP@?5?5SOR?6@ 0000000000021e18     DxeCore:Dependency.obj
 0002:00003480       ??_C@_0CK@PBPNBCDP@?5?5RESULT?5?$DN?5FALSE?5?$CIUnexpected?5SO@ 0000000000021e20     DxeCore:Dependency.obj
 0002:000034b0       ??_C@_0DP@KKBOABM@?5?5SOR?5?5?5?5?5?5?5?5?5?5?5?5?5?5?5?5?5?5?5?5?5?5?5?5?5?5@ 0000000000021e50     DxeCore:Dependency.obj
 0002:000034f0       ??_C@_0BJ@NLJMNGGI@?5?5PUSH?5GUID?$CI?$CFg?$CJ?5?$DN?5FALSE?6@ 0000000000021e90     DxeCore:Dependency.obj
 0002:00003510       ??_C@_0BI@OMMPINOL@?5?5PUSH?5GUID?$CI?$CFg?$CJ?5?$DN?5TRUE?6@ 0000000000021eb0     DxeCore:Dependency.obj
 0002:00003528       ??_C@_0CF@JIJFBAAC@?5?5RESULT?5?$DN?5FALSE?5?$CIUnexpected?5er@ 0000000000021ec8     DxeCore:Dependency.obj
 0002:00003550       ??_C@_06DJKGIPEK@?5?5AND?6@ 0000000000021ef0     DxeCore:Dependency.obj
 0002:00003558       ??_C@_05NOPACOFB@?5?5OR?6@ 0000000000021ef8     DxeCore:Dependency.obj
 0002:00003560       ??_C@_06BPGMNMIO@?5?5NOT?6@ 0000000000021f00     DxeCore:Dependency.obj
 0002:00003568       ??_C@_07JLHPFCH@?5?5TRUE?6@ 0000000000021f08     DxeCore:Dependency.obj
 0002:00003570       ??_C@_08EJKLCAIL@?5?5FALSE?6@ 0000000000021f10     DxeCore:Dependency.obj
 0002:0000357c       ??_C@_06MMCGCJIK@?5?5END?6@ 0000000000021f1c     DxeCore:Dependency.obj
 0002:00003584       ??_C@_04HCDDPBNL@TRUE@     0000000000021f24     DxeCore:Dependency.obj
 0002:0000358c       ??_C@_05MAJJAKPI@FALSE@    0000000000021f2c     DxeCore:Dependency.obj
 0002:00003598       ??_C@_0P@GJLOBHPI@?5?5RESULT?5?$DN?5?$CFa?6@ 0000000000021f38     DxeCore:Dependency.obj
 0002:000035a8       ??_C@_0CD@LDMHFHNL@?5?5RESULT?5?$DN?5FALSE?5?$CIUnknown?5opcod@ 0000000000021f48     DxeCore:Dependency.obj
 0002:000035d0       ??_C@_0FC@JEACPADN@D?3?2uefi_specs_personal_collecti@ 0000000000021f70     DxeCore:FwVolAttrib.obj
 0002:00003630       ??_C@_0FA@DOFEKDKO@D?3?2uefi_specs_personal_collecti@ 0000000000021fd0     DxeCore:FwVolRead.obj
 0002:00003680       mFvAttributes2             0000000000022020     DxeCore:FwVolRead.obj
 0002:00003688       mFvAttributes              0000000000022028     DxeCore:FwVolRead.obj
 0002:00003690       ??_C@_0L@LBCNCHJA@Pages?5?$CB?$DN?50@ 0000000000022030     DxeCoreMemoryAllocationLib:MemoryAllocationLib.obj
 0002:000036a0       ??_C@_0GO@GCKDILBK@D?3?2uefi_specs_personal_collecti@ 0000000000022040     DxeCoreMemoryAllocationLib:MemoryAllocationLib.obj
 0002:00003710       ??_C@_0CD@GECBLADO@?$CIAlignment?5?$CG?5?$CIAlignment?5?9?51?$CJ?$CJ?5?$DN@ 00000000000220b0     DxeCoreMemoryAllocationLib:MemoryAllocationLib.obj
 0002:00003738       ??_C@_0BC@BDMGDFME@RealPages?5?$DO?5Pages@ 00000000000220d8     DxeCoreMemoryAllocationLib:MemoryAllocationLib.obj
 0002:00003750       ??_C@_0DO@GEEICOOO@AllocationSize?5?$DM?$DN?5?$CI0xFFFFFFFFFF@ 00000000000220f0     DxeCoreMemoryAllocationLib:MemoryAllocationLib.obj
 0002:00003790       ??_C@_0BF@NJNGJMPC@List?5?$CB?$DN?5?$CI?$CIvoid?5?$CK?$CJ?50?$CJ@ 0000000000022130     BaseLib:LinkedList.obj
 0002:000037b0       ??_C@_0EM@NCJPOFNN@D?3?2uefi_specs_personal_collecti@ 0000000000022150     BaseLib:LinkedList.obj
 0002:00003800       ??_C@_0CC@KDLPLAED@List?9?$DOForwardLink?5?$CB?$DN?5?$CI?$CIvoid?5?$CK?$CJ?5@ 00000000000221a0     BaseLib:LinkedList.obj
 0002:00003828       ??_C@_0BP@IJJCCMAK@List?9?$DOBackLink?5?$CB?$DN?5?$CI?$CIvoid?5?$CK?$CJ?50?$CJ@ 00000000000221c8     BaseLib:LinkedList.obj
 0002:00003848       ??_C@_0CI@BMHOPIIO@InternalBaseLibIsListValid?5?$CIFir@ 00000000000221e8     BaseLib:LinkedList.obj
 0002:00003870       ??_C@_0BJ@NJABNCDK@ListHead?5?$CB?$DN?5?$CI?$CIvoid?5?$CK?$CJ?50?$CJ@ 0000000000022210     BaseLib:LinkedList.obj
 0002:00003890       ??_C@_0CG@LGIALJFK@InternalBaseLibIsListValid?5?$CILis@ 0000000000022230     BaseLib:LinkedList.obj
 0002:000038b8       ??_C@_0CC@JLDICICM@InternalBaseLibIsListValid?5?$CILis@ 0000000000022258     BaseLib:LinkedList.obj
 0002:000038e0       ??_C@_0BF@NMBJJECB@?$CBIsListEmpty?5?$CIEntry?$CJ@ 0000000000022280     BaseLib:LinkedList.obj
 0002:000038f8       ??_C@_0L@MEMPDLHB@Count?5?$DM?564@ 0000000000022298     BaseLib:LShiftU64.obj
 0002:00003910       ??_C@_0EL@PKACDBFD@D?3?2uefi_specs_personal_collecti@ 00000000000222b0     BaseLib:LShiftU64.obj
 0002:00003960       ??_C@_0EL@BPCLAPLB@D?3?2uefi_specs_personal_collecti@ 0000000000022300     BaseLib:RShiftU64.obj
 0002:000039b0       ??_C@_0EL@GLNKFHII@D?3?2uefi_specs_personal_collecti@ 0000000000022350     BaseLib:Unaligned.obj
 0002:00003a00       ??_C@_0BH@MAAHKCPC@String?5?$CB?$DN?5?$CI?$CIvoid?5?$CK?$CJ?50?$CJ@ 00000000000223a0     BaseLib:String.obj
 0002:00003a20       ??_C@_0EI@LOLLHGDK@D?3?2uefi_specs_personal_collecti@ 00000000000223c0     BaseLib:String.obj
 0002:00003a68       ??_C@_0CC@GFNLNIOC@?$CI?$CIUINTN?$CJString?5?$CG?50x00000001?$CJ?5?$DN?$DN@ 0000000000022408     BaseLib:String.obj
 0002:00003a90       ??_C@_0DI@MDIKFADO@Length?5?$DM?5_gPcd_FixedAtBuild_Pcd@ 0000000000022430     BaseLib:String.obj
 0002:00003ac8       ??_C@_0BM@NLNKOJGD@Destination?5?$CB?$DN?5?$CI?$CIvoid?5?$CK?$CJ?50?$CJ@ 0000000000022468     BaseLib:String.obj
 0002:00003ae8       ??_C@_0N@KGHEHMDL@Divisor?5?$CB?$DN?50@ 0000000000022488     BaseLib:DivU64x32Remainder.obj
 0002:00003b00       ??_C@_0FE@LIGPAOFO@D?3?2uefi_specs_personal_collecti@ 00000000000224a0     BaseLib:DivU64x32Remainder.obj
 0002:00003b60       ??_C@_0EK@EIAGJCGN@D?3?2uefi_specs_personal_collecti@ 0000000000022500     BaseLib:CheckSum.obj
 0002:00003bb0       ??_C@_0DI@FAOGOFLE@Length?5?$DM?$DN?5?$CI0xFFFFFFFFFFFFFFFFUL@ 0000000000022550     BaseLib:CheckSum.obj
 0002:00003be8       ??_C@_0BL@CMBJDOF@?$CI?$CIUINTN?$CJBuffer?5?$CG?50x1?$CJ?5?$DN?$DN?50@ 0000000000022588     BaseLib:CheckSum.obj
 0002:00003c08       ??_C@_0BE@FFFDBMIE@?$CILength?5?$CG?50x1?$CJ?5?$DN?$DN?50@ 00000000000225a8     BaseLib:CheckSum.obj
 0002:00003c20       ??_C@_0BL@CPGKAMND@JumpBuffer?5?$CB?$DN?5?$CI?$CIvoid?5?$CK?$CJ?50?$CJ@ 00000000000225c0     BaseLib:SetJump.obj
 0002:00003c40       ??_C@_0EJ@HLNCKKOP@D?3?2uefi_specs_personal_collecti@ 00000000000225e0     BaseLib:SetJump.obj
 0002:00003c90       ??_C@_0CD@OEHNCIHG@?$CI?$CIUINTN?$CJJumpBuffer?5?$CG?5?$CI8?5?9?51?$CJ?$CJ?5?$DN@ 0000000000022630     BaseLib:SetJump.obj
 0002:00003cc0       ??_C@_0EM@OAPOMMAE@D?3?2uefi_specs_personal_collecti@ 0000000000022660     BaseLib:SafeString.obj
 0002:00003d10       ??_C@_0BJ@CNKJJNE@?$CIBuffer?5?$CB?$DN?5?$CI?$CIvoid?5?$CK?$CJ?50?$CJ?$CJ@ 00000000000226b0     BaseLib:SafeString.obj
 0002:00003d30       ??_C@_0DJ@EPHLDLOO@?$CILength?5?9?51?$CJ?5?$DM?$DN?5?$CI0xFFFFFFFFFFFF@ 00000000000226d0     BaseCacheMaintenanceLib:X86Cache.obj
 0002:00003d70       ??_C@_0FK@NPNBOPHL@D?3?2uefi_specs_personal_collecti@ 0000000000022710     BaseCacheMaintenanceLib:X86Cache.obj
 0002:00003dd0       ??_C@_0ED@MKGCMJG@?$CILength?5?9?51?$CJ?5?$DM?$DN?5?$CI0xFFFFFFFFFFFF@ 0000000000022770     BaseMemoryLibRepStr:CopyMemWrapper.obj
 0002:00003e20       ??_C@_0FM@IDPIEKJH@D?3?2uefi_specs_personal_collecti@ 00000000000227c0     BaseMemoryLibRepStr:CopyMemWrapper.obj
 0002:00003e80       ??_C@_0DO@MAOBOFEG@?$CILength?5?9?51?$CJ?5?$DM?$DN?5?$CI0xFFFFFFFFFFFF@ 0000000000022820     BaseMemoryLibRepStr:CopyMemWrapper.obj
 0002:00003ec0       ??_C@_0FM@DHFKCLFA@D?3?2uefi_specs_personal_collecti@ 0000000000022860     BaseMemoryLibRepStr:ZeroMemWrapper.obj
 0002:00003f20       ??_C@_0DG@EEENIGGL@Length?5?$DM?$DN?5?$CI0xFFFFFFFFFFFFFFFFUL@ 00000000000228c0     BaseMemoryLibRepStr:ZeroMemWrapper.obj
 0002:00003f58       ??_C@_0DI@DAGDPLPG@?$CILength?5?9?51?$CJ?5?$DM?$DN?5?$CI0xFFFFFFFFFFFF@ 00000000000228f8     BaseMemoryLibRepStr:SetMemWrapper.obj
 0002:00003f90       ??_C@_0FL@MFFLICHL@D?3?2uefi_specs_personal_collecti@ 0000000000022930     BaseMemoryLibRepStr:SetMemWrapper.obj
 0002:00003ff0       ??_C@_0CC@JOEHDGKB@DestinationBuffer?5?$CB?$DN?5?$CI?$CIvoid?5?$CK?$CJ?5@ 0000000000022990     BaseMemoryLibRepStr:CompareMemWrapper.obj
 0002:00004020       ??_C@_0FP@MJKEJMKF@D?3?2uefi_specs_personal_collecti@ 00000000000229c0     BaseMemoryLibRepStr:CompareMemWrapper.obj
 0002:00004080       ??_C@_0BN@MDMCNBCC@SourceBuffer?5?$CB?$DN?5?$CI?$CIvoid?5?$CK?$CJ?50?$CJ@ 0000000000022a20     BaseMemoryLibRepStr:CompareMemWrapper.obj
 0002:000040a0       ??_C@_0FN@HKNGIHKD@D?3?2uefi_specs_personal_collecti@ 0000000000022a40     BaseMemoryLibRepStr:SetMem64Wrapper.obj
 0002:00004100       ??_C@_0CO@LECKNDNC@?$CI?$CI?$CIUINTN?$CJBuffer?$CJ?5?$CG?5?$CIsizeof?5?$CIVal@ 0000000000022aa0     BaseMemoryLibRepStr:SetMem64Wrapper.obj
 0002:00004130       ??_C@_0CF@LEICOABD@?$CILength?5?$CG?5?$CIsizeof?5?$CIValue?$CJ?5?9?51?$CJ?$CJ@ 0000000000022ad0     BaseMemoryLibRepStr:SetMem64Wrapper.obj
 0002:00004158       ??_C@_0BH@LKMBFCBF@Format?5?$CB?$DN?5?$CI?$CIvoid?5?$CK?$CJ?50?$CJ@ 0000000000022af8     BaseDebugLibSerialPort:DebugLib.obj
 0002:00004170       ??_C@_0FJ@BNNHJMAJ@D?3?2uefi_specs_personal_collecti@ 0000000000022b10     BaseDebugLibSerialPort:DebugLib.obj
 0002:000041d0       ??_C@_0BI@NOCKJDBJ@ASSERT?5?$FL?$CFa?$FN?5?$CFa?$CI?$CFd?$CJ?3?5?$CFa?6@ 0000000000022b70     BaseDebugLibSerialPort:DebugLib.obj
 0002:000041e8       ??_C@_0BI@HAGPDMHJ@AcpiTimerLibConstructor@ 0000000000022b88     BaseAcpiTimerLib:BaseAcpiTimerLib.obj
 0002:00004200       ??_C@_0CL@DGCOIACG@?$CFa?3?5Unknown?5Host?5Bridge?5Device?5@ 0000000000022ba0     BaseAcpiTimerLib:BaseAcpiTimerLib.obj
 0002:00004230       ??_C@_0FI@INNPDNOC@D?3?2uefi_specs_personal_collecti@ 0000000000022bd0     BaseAcpiTimerLib:BaseAcpiTimerLib.obj
 0002:00004288       ??_C@_0BN@COECPDCC@gImageHandle?5?$CB?$DN?5?$CI?$CIvoid?5?$CK?$CJ?50?$CJ@ 0000000000022c28     UefiBootServicesTableLib:UefiBootServicesTableLib.obj
 0002:000042b0       ??_C@_0GL@PJCPJLGM@D?3?2uefi_specs_personal_collecti@ 0000000000022c50     UefiBootServicesTableLib:UefiBootServicesTableLib.obj
 0002:00004320       ??_C@_0BE@DGNHAHIL@gST?5?$CB?$DN?5?$CI?$CIvoid?5?$CK?$CJ?50?$CJ@ 0000000000022cc0     UefiBootServicesTableLib:UefiBootServicesTableLib.obj
 0002:00004338       ??_C@_0BE@BDFJLGLN@gBS?5?$CB?$DN?5?$CI?$CIvoid?5?$CK?$CJ?50?$CJ@ 0000000000022cd8     UefiBootServicesTableLib:UefiBootServicesTableLib.obj
 0002:00004350       ??_C@_0BE@OBDFIHND@gRT?5?$CB?$DN?5?$CI?$CIvoid?5?$CK?$CJ?50?$CJ@ 0000000000022cf0     UefiRuntimeServicesTableLib:UefiRuntimeServicesTableLib.obj
 0002:00004370       ??_C@_0HB@NCAPNEDO@D?3?2uefi_specs_personal_collecti@ 0000000000022d10     UefiRuntimeServicesTableLib:UefiRuntimeServicesTableLib.obj
 0002:000043e8       ??_C@_0BF@CBLMFKOC@Node?5?$CB?$DN?5?$CI?$CIvoid?5?$CK?$CJ?50?$CJ@ 0000000000022d88     UefiDevicePathLib:DevicePathUtilities.obj
 0002:00004400       ??_C@_0FP@PDPDKABP@D?3?2uefi_specs_personal_collecti@ 0000000000022da0     UefiDevicePathLib:DevicePathUtilities.obj
 0002:00004460       mUefiDevicePathLibEndDevicePath 0000000000022e00     UefiDevicePathLib:DevicePathUtilities.obj
 0002:00004468       ??_C@_0BN@MJEPDGEJ@ImageContext?5?$CB?$DN?5?$CI?$CIvoid?5?$CK?$CJ?50?$CJ@ 0000000000022e08     PeCoffExtraActionLibNull:PeCoffExtraActionLib.obj
 0002:00004490       ??_C@_0GL@ENCPPGDL@D?3?2uefi_specs_personal_collecti@ 0000000000022e30     PeCoffExtraActionLibNull:PeCoffExtraActionLib.obj
 0002:00004500       ??_C@_0BK@PPOBBAMB@TableGuid?5?$CB?$DN?5?$CI?$CIvoid?5?$CK?$CJ?50?$CJ@ 0000000000022ea0     UefiLib:UefiLib.obj
 0002:00004520       ??_C@_0EJ@PPOMJLJB@D?3?2uefi_specs_personal_collecti@ 0000000000022ec0     UefiLib:UefiLib.obj
 0002:00004570       ??_C@_0BN@HHGHCLME@ProtocolGuid?5?$CB?$DN?5?$CI?$CIvoid?5?$CK?$CJ?50?$CJ@ 0000000000022f10     UefiLib:UefiLib.obj
 0002:00004590       ??_C@_0BP@DEIEJICI@NotifyFunction?5?$CB?$DN?5?$CI?$CIvoid?5?$CK?$CJ?50?$CJ@ 0000000000022f30     UefiLib:UefiLib.obj
 0002:000045b0       ??_C@_0BN@OMCJCPAI@Registration?5?$CB?$DN?5?$CI?$CIvoid?5?$CK?$CJ?50?$CJ@ 0000000000022f50     UefiLib:UefiLib.obj
 0002:000045d0       ??_C@_0EO@FMFPDNNA@D?3?2uefi_specs_personal_collecti@ 0000000000022f70     UefiLib:UefiNotTiano.obj
 0002:00004620       ??_C@_0CB@OKGFGBHJ@FvDevicePathNode?5?$CB?$DN?5?$CI?$CIvoid?5?$CK?$CJ?50@ 0000000000022fc0     UefiLib:UefiNotTiano.obj
 0002:00004648       ??_C@_0BJ@GMMGGIMG@NameGuid?5?$CB?$DN?5?$CI?$CIvoid?5?$CK?$CJ?50?$CJ@ 0000000000022fe8     UefiLib:UefiNotTiano.obj
 0002:00004668       ??_C@_0BJ@FNDBAONE@gHobList?5?$CB?$DN?5?$CI?$CIvoid?5?$CK?$CJ?50?$CJ@ 0000000000023008     DxeCoreHobLib:HobLib.obj
 0002:00004690       ??_C@_0EO@EOGNCMEL@D?3?2uefi_specs_personal_collecti@ 0000000000023030     DxeCoreHobLib:HobLib.obj
 0002:000046e0       ??_C@_0BJ@NOLLDKJB@HobStart?5?$CB?$DN?5?$CI?$CIvoid?5?$CK?$CJ?50?$CJ@ 0000000000023080     DxeCoreHobLib:HobLib.obj
 0002:00004700       ??_C@_0GI@BGLOKNAK@D?3?2uefi_specs_personal_collecti@ 00000000000230a0     BasePeCoffGetEntryPointLib:PeCoffGetEntryPoint.obj
 0002:00004770       ??_C@_0GP@ICBOHMBB@D?3?2uefi_specs_personal_collecti@ 0000000000023110     DxeExtractGuidedSectionLib:DxeExtractGuidedSectionLib.obj
 0002:000047e0       ??_C@_0BN@GPAPAMAC@InputSection?5?$CB?$DN?5?$CI?$CIvoid?5?$CK?$CJ?50?$CJ@ 0000000000023180     DxeExtractGuidedSectionLib:DxeExtractGuidedSectionLib.obj
 0002:00004800       ??_C@_0CB@BHALCANF@OutputBufferSize?5?$CB?$DN?5?$CI?$CIvoid?5?$CK?$CJ?50@ 00000000000231a0     DxeExtractGuidedSectionLib:DxeExtractGuidedSectionLib.obj
 0002:00004828       ??_C@_0CC@LILIPBNH@ScratchBufferSize?5?$CB?$DN?5?$CI?$CIvoid?5?$CK?$CJ?5@ 00000000000231c8     DxeExtractGuidedSectionLib:DxeExtractGuidedSectionLib.obj
 0002:00004850       ??_C@_0CB@PMMMMPJH@SectionAttribute?5?$CB?$DN?5?$CI?$CIvoid?5?$CK?$CJ?50@ 00000000000231f0     DxeExtractGuidedSectionLib:DxeExtractGuidedSectionLib.obj
 0002:00004878       ??_C@_0BN@BPGHDJKK@OutputBuffer?5?$CB?$DN?5?$CI?$CIvoid?5?$CK?$CJ?50?$CJ@ 0000000000023218     DxeExtractGuidedSectionLib:DxeExtractGuidedSectionLib.obj
 0002:00004898       ??_C@_0CF@CJGHKEF@AuthenticationStatus?5?$CB?$DN?5?$CI?$CIvoid?5@ 0000000000023238     DxeExtractGuidedSectionLib:DxeExtractGuidedSectionLib.obj
 0002:000048c0       ??_C@_0GF@CIMHLPJN@D?3?2uefi_specs_personal_collecti@ 0000000000023260     BaseUefiDecompressLib:BaseUefiDecompressLib.obj
 0002:00004928       ??_C@_0BH@GAGHCOEK@Source?5?$CB?$DN?5?$CI?$CIvoid?5?$CK?$CJ?50?$CJ@ 00000000000232c8     BaseUefiDecompressLib:BaseUefiDecompressLib.obj
 0002:00004940       ??_C@_0CA@FMKFGCDF@DestinationSize?5?$CB?$DN?5?$CI?$CIvoid?5?$CK?$CJ?50?$CJ@ 00000000000232e0     BaseUefiDecompressLib:BaseUefiDecompressLib.obj
 0002:00004960       ??_C@_0BM@MHGBFJCP@ScratchSize?5?$CB?$DN?5?$CI?$CIvoid?5?$CK?$CJ?50?$CJ@ 0000000000023300     BaseUefiDecompressLib:BaseUefiDecompressLib.obj
 0002:00004980       ??_C@_0BI@MGJALJLC@Scratch?5?$CB?$DN?5?$CI?$CIvoid?5?$CK?$CJ?50?$CJ@ 0000000000023320     BaseUefiDecompressLib:BaseUefiDecompressLib.obj
 0002:000049a0       ??_C@_0FC@HNOEKHOI@D?3?2uefi_specs_personal_collecti@ 0000000000023340     BasePeCoffLib:BasePeCoff.obj
 0002:00004a00       ??_C@_0FB@MOCPCCHF@?$CIUINTN?$CJFixupData?5?$DM?$DN?5?$CIUINTN?$CJImag@ 00000000000233a0     BasePeCoffLib:BasePeCoff.obj
 0002:00004a58       ??_C@_0BJ@KIAHAFBF@ReadSize?5?$CB?$DN?5?$CI?$CIvoid?5?$CK?$CJ?50?$CJ@ 00000000000233f8     BasePeCoffLib:BasePeCoff.obj
 0002:00004a78       ??_C@_0BL@INAOLIJI@FileHandle?5?$CB?$DN?5?$CI?$CIvoid?5?$CK?$CJ?50?$CJ@ 0000000000023418     BasePeCoffLib:BasePeCoff.obj
 0002:00004aa0       ??_C@_0GK@HIFHPALF@D?3?2uefi_specs_personal_collecti@ 0000000000023440     DxeReportStatusCodeLib:ReportStatusCodeLib.obj
 0002:00004b10       ??_C@_0BN@HMHGLLOO@ExtendedData?5?$CB?$DN?5?$CI?$CIvoid?5?$CK?$CJ?50?$CJ@ 00000000000234b0     DxeReportStatusCodeLib:ReportStatusCodeLib.obj
 0002:00004b30       ??_C@_0DN@HHIHPHHB@?$CB?$CI?$CIExtendedData?5?$DN?$DN?5?$CI?$CIvoid?5?$CK?$CJ?50?$CJ@ 00000000000234d0     DxeReportStatusCodeLib:ReportStatusCodeLib.obj
 0002:00004b70       mDoFarReturnFlag           0000000000023510     DxeCpuExceptionHandlerLib:DxeException.obj
 0002:00004b78       ??_C@_0CK@DADKKMEM@TemplateMap?4ExceptionStubHeader@ 0000000000023518     DxeCpuExceptionHandlerLib:PeiDxeSmmCpuException.obj
 0002:00004bb0       ??_C@_0GK@PIKMMKGE@D?3?2uefi_specs_personal_collecti@ 0000000000023550     DxeCpuExceptionHandlerLib:PeiDxeSmmCpuException.obj
 0002:00004c20       ??_C@_0DN@OILJOCCP@?$CB?$CB?$CB?$CB?5X64?5Exception?5Type?5?9?5?$CF02x?$CI@ 00000000000235c0     DxeCpuExceptionHandlerLib:ArchExceptionHandler.obj
 0002:00004c60       ??_C@_0BH@GDPLHCJG@ExceptionData?5?9?5?$CF016lx@ 0000000000023600     DxeCpuExceptionHandlerLib:ArchExceptionHandler.obj
 0002:00004c78       ??_C@_0CO@BBEHDOI@?5?5I?3?$CFx?5R?3?$CFx?5U?3?$CFx?5W?3?$CFx?5P?3?$CFx?5PK?3?$CF@ 0000000000023618     DxeCpuExceptionHandlerLib:ArchExceptionHandler.obj
 0002:00004ca8       ??_C@_0CO@OABPHBNC@RIP?5?5?9?5?$CF016lx?0?5CS?5?5?9?5?$CF016lx?0?5RF@ 0000000000023648     DxeCpuExceptionHandlerLib:ArchExceptionHandler.obj
 0002:00004cd8       ??_C@_0CL@EBCIBAPN@RAX?5?5?9?5?$CF016lx?0?5RCX?5?9?5?$CF016lx?0?5RD@ 0000000000023678     DxeCpuExceptionHandlerLib:ArchExceptionHandler.obj
 0002:00004d08       ??_C@_0CL@NEKHLEEE@RBX?5?5?9?5?$CF016lx?0?5RSP?5?9?5?$CF016lx?0?5RB@ 00000000000236a8     DxeCpuExceptionHandlerLib:ArchExceptionHandler.obj
 0002:00004d38       ??_C@_0BN@KJEBEAEC@RSI?5?5?9?5?$CF016lx?0?5RDI?5?9?5?$CF016lx?6@ 00000000000236d8     DxeCpuExceptionHandlerLib:ArchExceptionHandler.obj
 0002:00004d58       ??_C@_0CL@IAICEOHO@R8?5?5?5?9?5?$CF016lx?0?5R9?5?5?9?5?$CF016lx?0?5R1@ 00000000000236f8     DxeCpuExceptionHandlerLib:ArchExceptionHandler.obj
 0002:00004d88       ??_C@_0CL@JAMCECPD@R11?5?5?9?5?$CF016lx?0?5R12?5?9?5?$CF016lx?0?5R1@ 0000000000023728     DxeCpuExceptionHandlerLib:ArchExceptionHandler.obj
 0002:00004db8       ??_C@_0BN@PKAAKNBO@R14?5?5?9?5?$CF016lx?0?5R15?5?9?5?$CF016lx?6@ 0000000000023758     DxeCpuExceptionHandlerLib:ArchExceptionHandler.obj
 0002:00004dd8       ??_C@_0CL@DLLIMCBJ@DS?5?5?5?9?5?$CF016lx?0?5ES?5?5?9?5?$CF016lx?0?5FS@ 0000000000023778     DxeCpuExceptionHandlerLib:ArchExceptionHandler.obj
 0002:00004e08       ??_C@_0BN@EICEFBKL@GS?5?5?5?9?5?$CF016lx?0?5SS?5?5?9?5?$CF016lx?6@ 00000000000237a8     DxeCpuExceptionHandlerLib:ArchExceptionHandler.obj
 0002:00004e28       ??_C@_0CL@DIOBDFLD@CR0?5?5?9?5?$CF016lx?0?5CR2?5?9?5?$CF016lx?0?5CR@ 00000000000237c8     DxeCpuExceptionHandlerLib:ArchExceptionHandler.obj
 0002:00004e58       ??_C@_0BN@JAPKHAJM@CR4?5?5?9?5?$CF016lx?0?5CR8?5?9?5?$CF016lx?6@ 00000000000237f8     DxeCpuExceptionHandlerLib:ArchExceptionHandler.obj
 0002:00004e78       ??_C@_0CL@DONNALBH@DR0?5?5?9?5?$CF016lx?0?5DR1?5?9?5?$CF016lx?0?5DR@ 0000000000023818     DxeCpuExceptionHandlerLib:ArchExceptionHandler.obj
 0002:00004ea8       ??_C@_0CL@JNPELAID@DR3?5?5?9?5?$CF016lx?0?5DR6?5?9?5?$CF016lx?0?5DR@ 0000000000023848     DxeCpuExceptionHandlerLib:ArchExceptionHandler.obj
 0002:00004ed8       ??_C@_0CF@MGIBIPBB@GDTR?5?9?5?$CF016lx?5?$CF016lx?0?5LDTR?5?9?5?$CF0@ 0000000000023878     DxeCpuExceptionHandlerLib:ArchExceptionHandler.obj
 0002:00004f00       ??_C@_0CF@DMFPLAJK@IDTR?5?9?5?$CF016lx?5?$CF016lx?0?5?5?5TR?5?9?5?$CF0@ 00000000000238a0     DxeCpuExceptionHandlerLib:ArchExceptionHandler.obj
 0002:00004f28       ??_C@_0BH@PFOFIBPH@FXSAVE_STATE?5?9?5?$CF016lx?6@ 00000000000238c8     DxeCpuExceptionHandlerLib:ArchExceptionHandler.obj
 0002:00004f40       mErrorCodeFlag             00000000000238e0     DxeCpuExceptionHandlerLib:CpuExceptionCommon.obj
 0002:00004f48       ??_C@_0BD@PANICNEP@?$CDDE?5?9?5Divide?5Error@ 00000000000238e8     DxeCpuExceptionHandlerLib:CpuExceptionCommon.obj
 0002:00004f60       ??_C@_0M@BENGJJME@?$CDDB?5?9?5Debug@ 0000000000023900     DxeCpuExceptionHandlerLib:CpuExceptionCommon.obj
 0002:00004f70       ??_C@_0O@PELAMGDH@NMI?5Interrupt@ 0000000000023910     DxeCpuExceptionHandlerLib:CpuExceptionCommon.obj
 0002:00004f80       ??_C@_0BB@ONIBFOGK@?$CDBP?5?9?5Breakpoint@ 0000000000023920     DxeCpuExceptionHandlerLib:CpuExceptionCommon.obj
 0002:00004f98       ??_C@_0P@BBLCINEF@?$CDOF?5?9?5Overflow@ 0000000000023938     DxeCpuExceptionHandlerLib:CpuExceptionCommon.obj
 0002:00004fa8       ??_C@_0BL@FGFNPPKN@?$CDBR?5?9?5BOUND?5Range?5Exceeded@ 0000000000023948     DxeCpuExceptionHandlerLib:CpuExceptionCommon.obj
 0002:00004fc8       ??_C@_0BF@PAJDEHLF@?$CDUD?5?9?5Invalid?5Opcode@ 0000000000023968     DxeCpuExceptionHandlerLib:CpuExceptionCommon.obj
 0002:00004fe0       ??_C@_0BL@HAMCGOMD@?$CDNM?5?9?5Device?5Not?5Available@ 0000000000023980     DxeCpuExceptionHandlerLib:CpuExceptionCommon.obj
 0002:00005000       ??_C@_0BD@POLKFCFP@?$CDDF?5?9?5Double?5Fault@ 00000000000239a0     DxeCpuExceptionHandlerLib:CpuExceptionCommon.obj
 0002:00005018       ??_C@_0BM@LFJODCLN@Coprocessor?5Segment?5Overrun@ 00000000000239b8     DxeCpuExceptionHandlerLib:CpuExceptionCommon.obj
 0002:00005038       ??_C@_0BC@NJGFAHLO@?$CDTS?5?9?5Invalid?5TSS@ 00000000000239d8     DxeCpuExceptionHandlerLib:CpuExceptionCommon.obj
 0002:00005050       ??_C@_0BK@CJDBEANG@?$CDNP?5?9?5Segment?5Not?5Present@ 00000000000239f0     DxeCpuExceptionHandlerLib:CpuExceptionCommon.obj
 0002:00005070       ??_C@_0BI@DKNGHJJN@?$CDSS?5?9?5Stack?5Fault?5Fault@ 0000000000023a10     DxeCpuExceptionHandlerLib:CpuExceptionCommon.obj
 0002:00005088       ??_C@_0BJ@OPPOMNHK@?$CDGP?5?9?5General?5Protection@ 0000000000023a28     DxeCpuExceptionHandlerLib:CpuExceptionCommon.obj
 0002:000050a8       ??_C@_0BB@CJKCEJGM@?$CDPF?5?9?5Page?9Fault@ 0000000000023a48     DxeCpuExceptionHandlerLib:CpuExceptionCommon.obj
 0002:000050c0       ??_C@_0CD@DAPDALEP@?$CDMF?5?9?5x87?5FPU?5Floating?9Point?5Er@ 0000000000023a60     DxeCpuExceptionHandlerLib:CpuExceptionCommon.obj
 0002:000050e8       ??_C@_0BG@JJECJFKO@?$CDAC?5?9?5Alignment?5Check@ 0000000000023a88     DxeCpuExceptionHandlerLib:CpuExceptionCommon.obj
 0002:00005100       ??_C@_0BE@CIGFNHHH@?$CDMC?5?9?5Machine?9Check@ 0000000000023aa0     DxeCpuExceptionHandlerLib:CpuExceptionCommon.obj
 0002:00005118       ??_C@_0BK@IKBNPED@?$CDXM?5?9?5SIMD?5floating?9point@ 0000000000023ab8     DxeCpuExceptionHandlerLib:CpuExceptionCommon.obj
 0002:00005138       ??_C@_0BF@MIEADEIE@?$CDVE?5?9?5Virtualization@ 0000000000023ad8     DxeCpuExceptionHandlerLib:CpuExceptionCommon.obj
 0002:00005150       ??_C@_0BJ@POMBGBMH@?$CDCP?5?9?5Control?5Protection@ 0000000000023af0     DxeCpuExceptionHandlerLib:CpuExceptionCommon.obj
 0002:00005170       ??_C@_0BI@HOPEKCJH@?$CDVC?5?9?5VMM?5Communication@ 0000000000023b10     DxeCpuExceptionHandlerLib:CpuExceptionCommon.obj
 0002:00005188       ??_C@_0CJ@NIJFIMND@?$CB?$CB?$CB?$CB?5Can?8t?5find?5image?5informati@ 0000000000023b28     DxeCpuExceptionHandlerLib:CpuExceptionCommon.obj
 0002:000051b8       ??_C@_0CD@FDHAHDMO@?$CB?$CB?$CB?$CB?5Find?5image?5based?5on?5IP?$CI0x?$CF@ 0000000000023b58     DxeCpuExceptionHandlerLib:CpuExceptionCommon.obj
 0002:000051e0       ??_C@_09KCCBLILG@?$CINo?5PDB?$CJ?5@ 0000000000023b80     DxeCpuExceptionHandlerLib:CpuExceptionCommon.obj
 0002:000051f0       ??_C@_0CM@GKFIOCPE@?5?$CIImageBase?$DN?$CF016lp?0?5EntryPoint?$DN@ 0000000000023b90     DxeCpuExceptionHandlerLib:CpuExceptionCommon.obj
 0002:00005220       mExceptionNameStr          0000000000023bc0     DxeCpuExceptionHandlerLib:CpuExceptionCommon.obj
 0002:00005310       mExceptionReservedStr      0000000000023cb0     DxeCpuExceptionHandlerLib:CpuExceptionCommon.obj
 0002:00005320       ??_C@_0HB@LFHFPPLH@D?3?2uefi_specs_personal_collecti@ 0000000000023cc0     ImagePropertiesRecordLib:ImagePropertiesRecordLib.obj
 0002:00005398       ??_C@_0BJ@NAIEONGB@TotalNewRecordCount?5?$CB?$DN?50@ 0000000000023d38     ImagePropertiesRecordLib:ImagePropertiesRecordLib.obj
 0002:000053b8       ??_C@_0BP@HMLPPEAA@ImageCode?5SegmentCount?5?9?50x?$CFx?6@ 0000000000023d58     ImagePropertiesRecordLib:ImagePropertiesRecordLib.obj
 0002:000053d8       ??_C@_0BF@PLNOOPNC@?$CFa?3?50x?$CFllx?5?9?50x?$CFllx?6@ 0000000000023d78     ImagePropertiesRecordLib:ImagePropertiesRecordLib.obj
 0002:000053f0       ??_C@_0CA@LLECGNIH@Unknown?5Image?3?50x?$CFllx?5?9?50x?$CFllx?6@ 0000000000023d90     ImagePropertiesRecordLib:ImagePropertiesRecordLib.obj
 0002:00005410       ??_C@_0CB@HPHIIHE@?5?5Code?5Section?3?50x?$CFllx?5?9?50x?$CFllx@ 0000000000023db0     ImagePropertiesRecordLib:ImagePropertiesRecordLib.obj
 0002:00005438       ??_C@_0DH@KDNEBCNB@Creating?5Image?5Properties?5Recor@ 0000000000023dd8     ImagePropertiesRecordLib:ImagePropertiesRecordLib.obj
 0002:00005470       ??_C@_0N@HKALJPML@?5Image?5?9?5?$CFa?6@ 0000000000023e10     ImagePropertiesRecordLib:ImagePropertiesRecordLib.obj
 0002:00005480       ??_C@_0CE@KGIOJPEE@Hdr?4Pe32?9?$DOSignature?5invalid?5?9?50@ 0000000000023e20     ImagePropertiesRecordLib:ImagePropertiesRecordLib.obj
 0002:000054b0       ??_C@_0FM@BLKNLMLA@?$CB?$CB?$CB?$CB?$CB?$CB?$CB?$CB?5?5Image?5Section?5Alignme@ 0000000000023e50     ImagePropertiesRecordLib:ImagePropertiesRecordLib.obj
 0002:00005510       ??_C@_0CA@GPIAGBEH@?5?5Section?5?9?5?8?$CFc?$CFc?$CFc?$CFc?$CFc?$CFc?$CFc?$CFc?8?6@ 0000000000023eb0     ImagePropertiesRecordLib:ImagePropertiesRecordLib.obj
 0002:00005530       ??_C@_0CB@EKAMCFDI@?5?5VirtualSize?5?5?5?5?5?5?5?5?5?5?9?50x?$CF08x@ 0000000000023ed0     ImagePropertiesRecordLib:ImagePropertiesRecordLib.obj
 0002:00005558       ??_C@_0CB@KKEKOMIG@?5?5VirtualAddress?5?5?5?5?5?5?5?9?50x?$CF08x@ 0000000000023ef8     ImagePropertiesRecordLib:ImagePropertiesRecordLib.obj
 0002:00005580       ??_C@_0CB@MPCKBEL@?5?5SizeOfRawData?5?5?5?5?5?5?5?5?9?50x?$CF08x@ 0000000000023f20     ImagePropertiesRecordLib:ImagePropertiesRecordLib.obj
 0002:000055a8       ??_C@_0CB@IDPJBNGA@?5?5PointerToRawData?5?5?5?5?5?9?50x?$CF08x@ 0000000000023f48     ImagePropertiesRecordLib:ImagePropertiesRecordLib.obj
 0002:000055d0       ??_C@_0CB@BCLIADLG@?5?5PointerToRelocations?5?9?50x?$CF08x@ 0000000000023f70     ImagePropertiesRecordLib:ImagePropertiesRecordLib.obj
 0002:000055f8       ??_C@_0CB@HOPNHHBP@?5?5PointerToLinenumbers?5?9?50x?$CF08x@ 0000000000023f98     ImagePropertiesRecordLib:ImagePropertiesRecordLib.obj
 0002:00005620       ??_C@_0CB@GGIKHHDP@?5?5NumberOfRelocations?5?5?9?50x?$CF08x@ 0000000000023fc0     ImagePropertiesRecordLib:ImagePropertiesRecordLib.obj
 0002:00005648       ??_C@_0CB@MJOMCJAH@?5?5NumberOfLinenumbers?5?5?9?50x?$CF08x@ 0000000000023fe8     ImagePropertiesRecordLib:ImagePropertiesRecordLib.obj
 0002:00005670       ??_C@_0CB@PPJDJDMP@?5?5Characteristics?5?5?5?5?5?5?9?50x?$CF08x@ 0000000000024010     ImagePropertiesRecordLib:ImagePropertiesRecordLib.obj
 0002:000056a0       ??_C@_0GP@JNDNJLEO@D?3?2uefi_specs_personal_collecti@ 0000000000024040     LzmaDecompressLib:GuidedSectionExtraction.obj
 0002:00005710       ??_C@_0GG@HELMAHEN@D?3?2uefi_specs_personal_collecti@ 00000000000240b0     LzmaDecompressLib:LzmaDecompress.obj
 0002:00005778       ??_C@_0BG@GMOOJNAG@SourceSize?5?$DO?$DN?5?$CI5?5?$CL?58?$CJ@ 0000000000024118     LzmaDecompressLib:LzmaDecompress.obj
 0002:00005790       ??_C@_0FF@GCKLFLDF@D?3?2uefi_specs_personal_collecti@ 0000000000024130     BaseIoLibIntrinsicSev:IoLibMsc.obj
 0002:000057e8       ??_C@_0BA@HCECIDGN@?$CIPort?5?$CG?53?$CJ?5?$DN?$DN?50@ 0000000000024188     BaseIoLibIntrinsicSev:IoLibMsc.obj
 0002:00005800       ??_C@_0FN@DOAHIAPG@D?3?2uefi_specs_personal_collecti@ 00000000000241a0     BaseIoLibIntrinsicSev:IoLibInternalTdx.obj
 0002:00005860       ??_C@_0BD@OMMAJMCK@?$CIAddress?5?$CG?53?$CJ?5?$DN?$DN?50@ 0000000000024200     BaseIoLibIntrinsicSev:IoLibInternalTdx.obj
 0002:00005880       ??_C@_0GD@BIPDCFCA@D?3?2uefi_specs_personal_collecti@ 0000000000024220     BaseXApicX2ApicLib:BaseXApicX2ApicLib.obj
 0002:000058e8       ??_C@_0BJ@MBLFAKBO@ApicBaseMsr?4Bits?4EN?5?$CB?$DN?50@ 0000000000024288     BaseXApicX2ApicLib:BaseXApicX2ApicLib.obj
 0002:00005908       ??_C@_0BL@KIAIPKNJ@Msr?4GhcbInfo?4Function?5?$DN?$DN?50@ 00000000000242a8     CcExitLib:PeiDxeCcExitVcHandler.obj
 0002:00005930       ??_C@_0FK@FLJAFGOA@D?3?2uefi_specs_personal_collecti@ 00000000000242d0     CcExitLib:PeiDxeCcExitVcHandler.obj
 0002:00005990       ??_C@_0O@EHFDMHO@Msr?4Ghcb?5?$CB?$DN?50@ 0000000000024330     CcExitLib:PeiDxeCcExitVcHandler.obj
 0002:000059a0       ??_C@_0CA@INIPEKFI@TDX?3?5?$CDTD?$FLEPT?$FN?5instruction?5?$CI?$CFp?$CJ?3@ 0000000000024340     CcExitLib:CcExitVeHandler.obj
 0002:000059c0       ??_C@_05CNDJFPDP@?$CF02x?5@ 0000000000024360     CcExitLib:CcExitVeHandler.obj
 0002:000059c8       ??_C@_0BB@LFIJDNII@TdxMmioReadWrite@ 0000000000024368     CcExitLib:CcExitVeHandler.obj
 0002:000059e0       ??_C@_0BL@CIFHDCEM@?$CFa?3?5Invalid?5MmioSize?5?9?5?$CFd?6@ 0000000000024380     CcExitLib:CcExitVeHandler.obj
 0002:00005a00       ??_C@_0BP@DCBJNAPP@?$CFa?3?5TdVmcall?5failed?5with?5?$CFllx?6@ 00000000000243a0     CcExitLib:CcExitVeHandler.obj
 0002:00005a20       ??_C@_0BK@PGIIJAFB@ParseMmioExitInstructions@ 00000000000243c0     CcExitLib:CcExitVeHandler.obj
 0002:00005a40       ??_C@_0CN@GHADFEKA@?$CFa?3?5Initialize?5InstructionData?5@ 00000000000243e0     CcExitLib:CcExitVeHandler.obj
 0002:00005a70       ??_C@_0CP@BMANJKEM@?$CFa?3?5Parse?5Ext?4ModRm?4Mod?5error?$CB?5@ 0000000000024410     CcExitLib:CcExitVeHandler.obj
 0002:00005aa0       ??_C@_0BO@JCPJJNNJ@?$CFa?3?5Invalid?5MMIO?5opcode?5?$CI?$CFx?$CJ?6@ 0000000000024440     CcExitLib:CcExitVeHandler.obj
 0002:00005ac0       ??_C@_08KIIEBNMF@MmioExit@ 0000000000024460     CcExitLib:CcExitVeHandler.obj
 0002:00005ad0       ??_C@_0CE@LGDLDEEP@?$CFa?3?5TDCALL?5failed?5with?5status?$DN?$CF@ 0000000000024470     CcExitLib:CcExitVeHandler.obj
 0002:00005af8       ??_C@_0DI@FMKEJOOF@?$CFa?3?5EPT?9violation?5?$CDVE?5on?5privat@ 0000000000024498     CcExitLib:CcExitVeHandler.obj
 0002:00005b30       ??_C@_0DE@LIAFHCLG@?$CFa?3?5Address?5is?5not?5correct?$CB?5?$CI?$CFd@ 00000000000244d0     CcExitLib:CcExitVeHandler.obj
 0002:00005b68       ??_C@_0M@JADJBBKG@Status?5?$DN?$DN?50@ 0000000000024508     CcExitLib:CcExitVeHandler.obj
 0002:00005b80       ??_C@_0FE@LMLNMBBO@D?3?2uefi_specs_personal_collecti@ 0000000000024520     CcExitLib:CcExitVeHandler.obj
 0002:00005bd8       ??_C@_0DH@CLLFIEPJ@?$CDVE?5happened?4?5TDGETVEINFO?5faile@ 0000000000024578     CcExitLib:CcExitVeHandler.obj
 0002:00005c10       ??_C@_0EC@HCHGOLKM@CPUID?5?$CDVE?5happened?0?5ExitReasion@ 00000000000245b0     CcExitLib:CcExitVeHandler.obj
 0002:00005c60       ??_C@_0EL@EJGLLOEK@IO_Instruction?5?$CDVE?5happened?0?5Ex@ 0000000000024600     CcExitLib:CcExitVeHandler.obj
 0002:00005cb0       ??_C@_0GE@POMGBPLO@RDMSR?5?$CDVE?5happened?0?5ExitReasion@ 0000000000024650     CcExitLib:CcExitVeHandler.obj
 0002:00005d20       ??_C@_0GE@ICDDODDA@WRMSR?5?$CDVE?5happened?0?5ExitReasion@ 00000000000246c0     CcExitLib:CcExitVeHandler.obj
 0002:00005d90       ??_C@_0EB@LIHEBDAF@MMIO?5?$CDVE?5happened?0?5ExitReasion?5@ 0000000000024730     CcExitLib:CcExitVeHandler.obj
 0002:00005de0       ??_C@_0EH@CMBBBEBM@Unsupported?5?$CDVE?5happened?0?5ExitR@ 0000000000024780     CcExitLib:CcExitVeHandler.obj
 0002:00005e30       ??_C@_0FE@FHEKCDPF@?$CDVE?5Error?5?$CI0x?$CFllx?$CJ?5returned?5fro@ 00000000000247d0     CcExitLib:CcExitVeHandler.obj
 0002:00005e88       ??_C@_0CC@NFFCFAPI@MMIO?5using?5encrypted?5memory?3?5?$CFl@ 0000000000024828     CcExitLib:CcExitVcHandler.obj
 0002:00005eb0       ??_C@_0BK@ENLBMHMC@Invalid?5MMIO?5opcode?5?$CI?$CFx?$CJ?6@ 0000000000024850     CcExitLib:CcExitVcHandler.obj
 0002:00005ed0       ??_C@_0FE@FEAIALFN@D?3?2uefi_specs_personal_collecti@ 0000000000024870     CcExitLib:CcExitVcHandler.obj
 0002:00005f28       ??_C@_0BE@NGBOFDPN@Reg?5?$CB?$DN?5?$CI?$CIvoid?5?$CK?$CJ?50?$CJ@ 00000000000248c8     CcExitLib:CcInstruction.obj
 0002:00005f40       ??_C@_0FC@GJGFCDJA@D?3?2uefi_specs_personal_collecti@ 00000000000248e0     CcExitLib:CcInstruction.obj
 0002:00005fa0       ??_C@_0EN@HLCGLLBG@?$CIExitInfo?4Elements?4Lower32Bits?5@ 0000000000024940     CcExitLib:CcExitLib.obj
 0002:00005ff0       ??_C@_0EO@PKMHJHBC@D?3?2uefi_specs_personal_collecti@ 0000000000024990     CcExitLib:CcExitLib.obj
 0002:00006040       ??_C@_0CA@KLMDHBCA@Ghcb?9?$DOSaveArea?4SwExitInfo2?5?$CB?$DN?50@ 00000000000249e0     CcExitLib:CcExitLib.obj
 0002:00006060       ??_C@_0FN@FGCCNHON@D?3?2uefi_specs_personal_collecti@ 0000000000024a00     BaseMemoryLibRepStr:SetMem16Wrapper.obj
 0002:000060c0       ??_C@_0FH@MODEAFEI@D?3?2uefi_specs_personal_collecti@ 0000000000024a60     BasePrintLib:PrintLibInternal.obj
 0002:00006120       ??_C@_0EB@HDGIDCIO@?$CIBufferSize?5?$DM?$DN?5?$CI_gPcd_FixedAtBu@ 0000000000024ac0     BasePrintLib:PrintLibInternal.obj
 0002:00006168       ??_C@_0BJ@PPAKKDJG@?$CIFormat?5?$CB?$DN?5?$CI?$CIvoid?5?$CK?$CJ?50?$CJ?$CJ@ 0000000000024b08     BasePrintLib:PrintLibInternal.obj
 0002:00006190       ??_C@_0ED@LPDDCECB@?$CIBufferSize?5?$DM?$DN?5?$CI_gPcd_FixedAtBu@ 0000000000024b30     BasePrintLib:PrintLibInternal.obj
 0002:000061e0       ??_C@_0IM@BFJJFLGB@?$CIStrnLenS?5?$CI?$CICHAR16?5?$CK?$CJFormat?0?5?$CI_@ 0000000000024b80     BasePrintLib:PrintLibInternal.obj
 0002:00006270       ??_C@_0ID@PLGJGION@?$CIAsciiStrnLenS?5?$CIFormat?0?5?$CI_gPcd_@ 0000000000024c10     BasePrintLib:PrintLibInternal.obj
 0002:000062f8       ??_C@_0O@MLOLIMFM@?$DMnull?5string?$DO@ 0000000000024c98     BasePrintLib:PrintLibInternal.obj
 0002:00006308       ??_C@_0M@BJJDNPHK@?$DMnull?5guid?$DO@ 0000000000024ca8     BasePrintLib:PrintLibInternal.obj
 0002:00006318       ??_C@_0DB@PMLHLBMO@?$CF08x?9?$CF04x?9?$CF04x?9?$CF02x?$CF02x?9?$CF02x?$CF02@ 0000000000024cb8     BasePrintLib:PrintLibInternal.obj
 0002:00006350       ??_C@_0M@LHGBCIKM@?$DMnull?5time?$DO@ 0000000000024cf0     BasePrintLib:PrintLibInternal.obj
 0002:00006360       ??_C@_0BK@FCPKCIDD@?$CF02d?1?$CF02d?1?$CF04d?5?5?$CF02d?3?$CF02d@ 0000000000024d00     BasePrintLib:PrintLibInternal.obj
 0002:0000637c       ??_C@_04JIMNDDED@?$CF08X@  0000000000024d1c     BasePrintLib:PrintLibInternal.obj
 0002:00006384       ??_C@_02PCIJFNDE@?$AN?6@   0000000000024d24     BasePrintLib:PrintLibInternal.obj
 0002:00006388       ??_C@_01LIIJDEN@?$AN@      0000000000024d28     BasePrintLib:PrintLibInternal.obj
 0002:00006390       mWarningString             0000000000024d30     BasePrintLib:PrintLibInternal.obj
 0002:00006460       mErrorString               0000000000024e00     BasePrintLib:PrintLibInternal.obj
 0002:00006740       mHexStr                    00000000000250e0     BasePrintLib:PrintLibInternal.obj
 0002:00006750       ??_C@_0BJ@FKJAAJLB@SpinLock?5?$CB?$DN?5?$CI?$CIvoid?5?$CK?$CJ?50?$CJ@ 00000000000250f0     BaseSynchronizationLib:SynchronizationMsc.obj
 0002:00006770       ??_C@_0GD@DAFBJEGP@D?3?2uefi_specs_personal_collecti@ 0000000000025110     BaseSynchronizationLib:SynchronizationMsc.obj
 0002:000067d8       ??_C@_0DF@GPAOIIHK@LockValue?5?$DN?$DN?5?$CI?$CIUINTN?$CJ?52?$CJ?5?$HM?$HM?5Loc@ 0000000000025178     BaseSynchronizationLib:SynchronizationMsc.obj
 0002:00006810       ??_C@_0CB@GEABOFIF@Failed?5call?5TDCALL_TDINFO?4?5?$CFllx@ 00000000000251b0     TdxLib:TdInfo.obj
 0002:00006840       ??_C@_0FC@MAJHMCGF@D?3?2uefi_specs_personal_collecti@ 00000000000251e0     BaseIoLibIntrinsicSev:IoLib.obj
 0002:000068a0       ??_C@_0EN@ENFGNHA@D?3?2uefi_specs_personal_collecti@ 0000000000025240     DxePcdLib:DxePcdLib.obj
 0002:000068f0       ??_C@_0BF@OOKDELHM@mPcd?5?$CB?$DN?5?$CI?$CIvoid?5?$CK?$CJ?50?$CJ@ 0000000000025290     DxePcdLib:DxePcdLib.obj
 0002:00006908       ??_C@_0CG@KIJMJHBN@?$CI?$CIAddress?$CJ?5?$CG?5?$CI?$HO0xffff0ff?5?$HM?5?$CI0?$CJ?$CJ@ 00000000000252a8     BasePciCf8Lib:PciCf8Lib.obj
 0002:00006930       ??_C@_0FB@PDIKDBMH@D?3?2uefi_specs_personal_collecti@ 00000000000252d0     BasePciCf8Lib:PciCf8Lib.obj
 0002:00006988       ??_C@_0CG@EDKLCMBO@?$CI?$CIAddress?$CJ?5?$CG?5?$CI?$HO0xffff0ff?5?$HM?5?$CI3?$CJ?$CJ@ 0000000000025328     BasePciCf8Lib:PciCf8Lib.obj
 0002:00006a04       __volatile_metadata        00000000000253a4     <linker-defined>
 0003:00000000       gEfiStatusCodeSpecificDataGuid 00000000000255a0     DxeCore:AutoGen.obj
 0003:00000010       gEfiResetArchProtocolGuid  00000000000255b0     DxeCore:AutoGen.obj
 0003:00000020       gEfiMemoryTypeInformationGuid 00000000000255c0     DxeCore:AutoGen.obj
 0003:00000030       gIdleLoopEventGuid         00000000000255d0     DxeCore:AutoGen.obj
 0003:00000040       gEfiStatusCodeRuntimeProtocolGuid 00000000000255e0     DxeCore:AutoGen.obj
 0003:00000050       gEfiSecurityArchProtocolGuid 00000000000255f0     DxeCore:AutoGen.obj
 0003:00000060       gEdkiiPeCoffImageEmulatorProtocolGuid 0000000000025600     DxeCore:AutoGen.obj
 0003:00000070       gEfiFirmwareVolumeBlockProtocolGuid 0000000000025610     DxeCore:AutoGen.obj
 0003:00000080       gEfiEventMemoryMapChangeGuid 0000000000025620     DxeCore:AutoGen.obj
 0003:00000090       gEventExitBootServicesFailedGuid 0000000000025630     DxeCore:AutoGen.obj
 0003:000000a0       gEfiWatchdogTimerArchProtocolGuid 0000000000025640     DxeCore:AutoGen.obj
 0003:000000b0       gEfiLoadedImageDevicePathProtocolGuid 0000000000025650     DxeCore:AutoGen.obj
 0003:000000c0       gEfiEventReadyToBootGuid   0000000000025660     DxeCore:AutoGen.obj
 0003:000000d0       gEfiBdsArchProtocolGuid    0000000000025670     DxeCore:AutoGen.obj
 0003:000000e0       gEfiFirmwareFileSystem3Guid 0000000000025680     DxeCore:AutoGen.obj
 0003:000000f0       gEfiHiiPackageListProtocolGuid 0000000000025690     DxeCore:AutoGen.obj
 0003:00000100       gEfiVariableWriteArchProtocolGuid 00000000000256a0     DxeCore:AutoGen.obj
 0003:00000110       gPcdProtocolGuid           00000000000256b0     DxeCore:AutoGen.obj
 0003:00000120       gEfiLoadFileProtocolGuid   00000000000256c0     DxeCore:AutoGen.obj
 0003:00000130       gEfiCapsuleArchProtocolGuid 00000000000256d0     DxeCore:AutoGen.obj
 0003:00000140       gEfiHobMemoryAllocModuleGuid 00000000000256e0     DxeCore:AutoGen.obj
 0003:00000150       gEfiFileInfoGuid           00000000000256f0     DxeCore:AutoGen.obj
 0003:00000160       gEfiDevicePathProtocolGuid 0000000000025700     DxeCore:AutoGen.obj
 0003:00000170       gEfiDriverFamilyOverrideProtocolGuid 0000000000025710     DxeCore:AutoGen.obj
 0003:00000180       gEfiLoadedImageProtocolGuid 0000000000025720     DxeCore:AutoGen.obj
 0003:00000190       gEfiFirmwareVolume2ProtocolGuid 0000000000025730     DxeCore:AutoGen.obj
 0003:000001a0       gEfiMemoryAttributesTableGuid 0000000000025740     DxeCore:AutoGen.obj
 0003:000001b0       gEfiVectorHandoffInfoPpiGuid 0000000000025750     DxeCore:AutoGen.obj
 0003:000001c0       gEfiBusSpecificDriverOverrideProtocolGuid 0000000000025760     DxeCore:AutoGen.obj
 0003:000001d0       gAprioriGuid               0000000000025770     DxeCore:AutoGen.obj
 0003:000001e0       gEfiCpuArchProtocolGuid    0000000000025780     DxeCore:AutoGen.obj
 0003:000001f0       gEfiFirmwareFileSystem2Guid 0000000000025790     DxeCore:AutoGen.obj
 0003:00000200       gEfiDebugImageInfoTableGuid 00000000000257a0     DxeCore:AutoGen.obj
 0003:00000210       gLzmaCustomDecompressGuid  00000000000257b0     DxeCore:AutoGen.obj
 0003:00000220       gEfiSimpleFileSystemProtocolGuid 00000000000257c0     DxeCore:AutoGen.obj
 0003:00000230       gEfiRuntimeArchProtocolGuid 00000000000257d0     DxeCore:AutoGen.obj
 0003:00000240       gEfiEventDxeDispatchGuid   00000000000257e0     DxeCore:AutoGen.obj
 0003:00000250       gEfiMetronomeArchProtocolGuid 00000000000257f0     DxeCore:AutoGen.obj
 0003:00000260       gEfiTimerArchProtocolGuid  0000000000025800     DxeCore:AutoGen.obj
 0003:00000270       gEfiVectorHandoffTableGuid 0000000000025810     DxeCore:AutoGen.obj
 0003:00000280       gEfiHobListGuid            0000000000025820     DxeCore:AutoGen.obj
 0003:00000290       gEfiDriverBindingProtocolGuid 0000000000025830     DxeCore:AutoGen.obj
 0003:000002a0       gEfiRealTimeClockArchProtocolGuid 0000000000025840     DxeCore:AutoGen.obj
 0003:000002b0       gEfiEventExitBootServicesGuid 0000000000025850     DxeCore:AutoGen.obj
 0003:000002c0       gEfiSecurity2ArchProtocolGuid 0000000000025860     DxeCore:AutoGen.obj
 0003:000002d0       gEfiMonotonicCounterArchProtocolGuid 0000000000025870     DxeCore:AutoGen.obj
 0003:000002e0       gEfiEndOfDxeEventGroupGuid 0000000000025880     DxeCore:AutoGen.obj
 0003:000002f0       gEfiEventBeforeExitBootServicesGuid 0000000000025890     DxeCore:AutoGen.obj
 0003:00000300       gEfiSmmBase2ProtocolGuid   00000000000258a0     DxeCore:AutoGen.obj
 0003:00000310       gEfiEventVirtualAddressChangeGuid 00000000000258b0     DxeCore:AutoGen.obj
 0003:00000320       gEfiPlatformDriverOverrideProtocolGuid 00000000000258c0     DxeCore:AutoGen.obj
 0003:00000330       gEfiDxeServicesTableGuid   00000000000258d0     DxeCore:AutoGen.obj
 0003:00000340       gEfiDecompressProtocolGuid 00000000000258e0     DxeCore:AutoGen.obj
 0003:00000350       gEfiCallerIdGuid           00000000000258f0     DxeCore:AutoGen.obj
 0003:00000360       gEfiVariableArchProtocolGuid 0000000000025900     DxeCore:AutoGen.obj
 0003:00000370       gEfiLoadFile2ProtocolGuid  0000000000025910     DxeCore:AutoGen.obj
 0003:00000380       mEfiSystemTableTemplate    0000000000025920     DxeCore:DxeMain.obj
 0003:000003f8       gRuntime                   0000000000025998     DxeCore:DxeMain.obj
 0003:00000400       mDxeServices               00000000000259a0     DxeCore:DxeMain.obj
 0003:000004b0       mEfiRuntimeServicesTableTemplate 0000000000025a50     DxeCore:DxeMain.obj
 0003:00000538       gDxeCoreRT                 0000000000025ad8     DxeCore:DxeMain.obj
 0003:00000540       mBootServices              0000000000025ae0     DxeCore:DxeMain.obj
 0003:000006c0       gRuntimeTemplate           0000000000025c60     DxeCore:DxeMain.obj
 0003:00000710       gEfiDecompress             0000000000025cb0     DxeCore:DxeMain.obj
 0003:00000720       mGcdMemorySpaceLock        0000000000025cc0     DxeCore:Gcd.obj
 0003:00000740       mGcdMemorySpaceMapEntryTemplate 0000000000025ce0     DxeCore:Gcd.obj
 0003:00000790       mGcdIoSpaceLock            0000000000025d30     DxeCore:Gcd.obj
 0003:000007b0       mGcdIoSpaceMapEntryTemplate 0000000000025d50     DxeCore:Gcd.obj
 0003:00000800       mGcdMemorySpaceMap         0000000000025da0     DxeCore:Gcd.obj
 0003:00000810       mAttributeConversionTable  0000000000025db0     DxeCore:Gcd.obj
 0003:00000990       mGcdIoSpaceMap             0000000000025f30     DxeCore:Gcd.obj
 0003:000009a0       mArchProtocols             0000000000025f40     DxeCore:DxeProtocolNotify.obj
 0003:00000bd0       mOptionalProtocols         0000000000026170     DxeCore:DxeProtocolNotify.obj
 0003:00000c48       mProtocolDatabase          00000000000261e8     DxeCore:Handle.obj
 0003:00000c58       gProtocolDatabaseLock      00000000000261f8     DxeCore:Handle.obj
 0003:00000c70       gHandleList                0000000000026210     DxeCore:Handle.obj
 0003:00000c80       gMemoryTypeInformation     0000000000026220     DxeCore:Page.obj
 0003:00000d08       mFreeMemoryMapEntryList    00000000000262a8     DxeCore:Page.obj
 0003:00000d18       mDefaultMaximumAddress     00000000000262b8     DxeCore:Page.obj
 0003:00000d20       mMemoryTypeStatistics      00000000000262c0     DxeCore:Page.obj
 0003:00001050       mDefaultBaseAddress        00000000000265f0     DxeCore:Page.obj
 0003:00001060       mCorePrivateImage          0000000000026600     DxeCore:Image.obj
 0003:000011f0       mMachineTypeInfo           0000000000026790     DxeCore:Image.obj
 0003:00001260       gEfiCurrentTpl             0000000000026800     DxeCore:Event.obj
 0003:00001268       gEventQueueLock            0000000000026808     DxeCore:Event.obj
 0003:00001280       gEventSignalQueue          0000000000026820     DxeCore:Event.obj
 0003:00001290       mDispatcherLock            0000000000026830     DxeCore:Dispatcher.obj
 0003:000012a8       mScheduledQueue            0000000000026848     DxeCore:Dispatcher.obj
 0003:000012b8       mFvHandleList              0000000000026858     DxeCore:Dispatcher.obj
 0003:000012c8       mDiscoveredList            0000000000026868     DxeCore:Dispatcher.obj
 0003:000012e0       mFwVolBlock                0000000000026880     DxeCore:FwVolBlock.obj
 0003:00001360       mFvMemmapDevicePathTemplate 0000000000026900     DxeCore:FwVolBlock.obj
 0003:00001380       mFvPIWGDevicePathTemplate  0000000000026920     DxeCore:FwVolBlock.obj
 0003:00001398       mEfiTimerList              0000000000026938     DxeCore:Timer.obj
 0003:000013a8       mEfiSystemTimeLock         0000000000026948     DxeCore:Timer.obj
 0003:000013c0       mEfiTimerLock              0000000000026960     DxeCore:Timer.obj
 0003:000013f0       mPoolHeadList              0000000000026990     DxeCore:Pool.obj
 0003:00001400       mCustomGuidedSectionExtractionProtocol 00000000000269a0     DxeCore:CoreSectionExtraction.obj
 0003:00001408       mStreamRoot                00000000000269a8     DxeCore:CoreSectionExtraction.obj
 0003:00001418       gMemoryAttributesTableForwardCfi 00000000000269b8     DxeCore:MemoryAttributesTable.obj
 0003:00001419       mMemoryAttributesTableEnable 00000000000269b9     DxeCore:MemoryAttributesTable.obj
 0003:00001460       mFvDevice                  0000000000026a00     DxeCore:FwVol.obj
 0003:00001500       mLevelMask                 0000000000026aa0     DxeCore:HeapGuard.obj
 0003:00001528       mMapLevel                  0000000000026ac8     DxeCore:HeapGuard.obj
 0003:00001530       mLevelShift                0000000000026ad0     DxeCore:HeapGuard.obj
 0003:00001558       gMemoryMap                 0000000000026af8     DxeCore:MemData.obj
 0003:00001568       gMemoryLock                0000000000026b08     DxeCore:MemData.obj
 0003:00001580       mExceptionHandlerData      0000000000026b20     DxeCpuExceptionHandlerLib:DxeException.obj
 0003:000015a0       gHobList                   0000000000026b40     DxeCoreEntryPoint:DxeCoreEntryPoint.obj
 0003:000015a8       gDxeCoreST                 0000000000026b48     DxeCore:DxeMain.obj
 0003:000015b0       gBds                       0000000000026b50     DxeCore:DxeMain.obj
 0003:000015b8       mDecompressHandle          0000000000026b58     DxeCore:DxeMain.obj
 0003:000015c0       gDxeCoreImageHandle        0000000000026b60     DxeCore:DxeMain.obj
 0003:000015c8       gMetronome                 0000000000026b68     DxeCore:DxeMain.obj
 0003:000015d0       gSmmBase2                  0000000000026b70     DxeCore:DxeMain.obj
 0003:000015d8       gMemoryMapTerminated       0000000000026b78     DxeCore:DxeMain.obj
 0003:000015e0       gSecurity2                 0000000000026b80     DxeCore:DxeMain.obj
 0003:000015e8       gSecurity                  0000000000026b88     DxeCore:DxeMain.obj
 0003:000015f0       gTimer                     0000000000026b90     DxeCore:DxeMain.obj
 0003:000015f8       gCpu                       0000000000026b98     DxeCore:DxeMain.obj
 0003:00001600       gWatchdogTimer             0000000000026ba0     DxeCore:DxeMain.obj
 0003:00001608       gHandleDatabaseKey         0000000000026ba8     DxeCore:Handle.obj
 0003:00001610       mFreeMapStack              0000000000026bb0     DxeCore:Page.obj
 0003:00001618       mMemoryMapKey              0000000000026bb8     DxeCore:Page.obj
 0003:00001620       mMemoryTypeInformationInitialized 0000000000026bc0     DxeCore:Page.obj
 0003:00001628       mMapDepth                  0000000000026bc8     DxeCore:Page.obj
 0003:00001630       mDxeCoreImageMachineType   0000000000026bd0     DxeCore:Image.obj
 0003:00001638       mCurrentImage              0000000000026bd8     DxeCore:Image.obj
 0003:00001640       gEventPending              0000000000026be0     DxeCore:Event.obj
 0003:00001648       gIdleLoopEvent             0000000000026be8     DxeCore:Event.obj
 0003:00001650       gDispatcherRunning         0000000000026bf0     DxeCore:Dispatcher.obj
 0003:00001658       mEfiLocateHandleRequest    0000000000026bf8     DxeCore:Locate.obj
 0003:00001660       mDebugInfoTableHeader      0000000000026c00     DxeCore:DebugImageInfo.obj
 0003:00001670       mDebugTable                0000000000026c10     DxeCore:DebugImageInfo.obj
 0003:00001678       mMaxTableEntries           0000000000026c18     DxeCore:DebugImageInfo.obj
 0003:00001680       mEfiSystemTime             0000000000026c20     DxeCore:Timer.obj
 0003:00001688       mEfiCheckTimerEvent        0000000000026c28     DxeCore:Timer.obj
 0003:00001690       mSectionExtractionHandle   0000000000026c30     DxeCore:CoreSectionExtraction.obj
 0003:00001698       mMemoryAttributesTableReadyToBoot 0000000000026c38     DxeCore:MemoryAttributesTable.obj
 0003:000016a0       mMemoryAttributesTable     0000000000026c40     DxeCore:MemoryAttributesTable.obj
 0003:000016a8       mMemoryAttributesTableEndOfDxe 0000000000026c48     DxeCore:MemoryAttributesTable.obj
 0003:000016b0       mSystemTableAllocateSize   0000000000026c50     DxeCore:InstallConfigurationTable.obj
 0003:000016b8       mOnGuarding                0000000000026c58     DxeCore:HeapGuard.obj
 0003:000016c0       mGuardedMemoryMap          0000000000026c60     DxeCore:HeapGuard.obj
 0003:000016c8       mDepexEvaluationStack      0000000000026c68     DxeCore:Dependency.obj
 0003:000016d0       mDepexEvaluationStackEnd   0000000000026c70     DxeCore:Dependency.obj
 0003:000016d8       mDepexEvaluationStackPointer 0000000000026c78     DxeCore:Dependency.obj
 0003:000016f0       gBS                        0000000000026c90     UefiBootServicesTableLib:UefiBootServicesTableLib.obj
 0003:000016f8       gST                        0000000000026c98     UefiBootServicesTableLib:UefiBootServicesTableLib.obj
 0003:00001700       gImageHandle               0000000000026ca0     UefiBootServicesTableLib:UefiBootServicesTableLib.obj
 0003:00001708       gRT                        0000000000026ca8     UefiRuntimeServicesTableLib:UefiRuntimeServicesTableLib.obj
 0003:00001710       mNumberOfExtractHandler    0000000000026cb0     DxeExtractGuidedSectionLib:DxeExtractGuidedSectionLib.obj
 0003:00001714       mMaxNumberOfExtractHandler 0000000000026cb4     DxeExtractGuidedSectionLib:DxeExtractGuidedSectionLib.obj
 0003:00001718       mExtractDecodeHandlerTable 0000000000026cb8     DxeExtractGuidedSectionLib:DxeExtractGuidedSectionLib.obj
 0003:00001720       mExtractHandlerGuidTable   0000000000026cc0     DxeExtractGuidedSectionLib:DxeExtractGuidedSectionLib.obj
 0003:00001728       mExtractGetInfoHandlerTable 0000000000026cc8     DxeExtractGuidedSectionLib:DxeExtractGuidedSectionLib.obj
 0003:00001730       mReportStatusCodeLibStatusCodeProtocol 0000000000026cd0     DxeReportStatusCodeLib:ReportStatusCodeLib.obj
 0003:00001738       gParity                    0000000000026cd8     PcAtSerialPortLib:SerialPortLib.obj
 0003:00001739       gBreakSet                  0000000000026cd9     PcAtSerialPortLib:SerialPortLib.obj
 0003:00001751       mTdDataReturned            0000000000026cf1     TdxLib:TdInfo.obj
 0003:00001758       mTdSharedPageMask          0000000000026cf8     TdxLib:TdInfo.obj
 0003:00001760       mPcd                       0000000000026d00     DxePcdLib:DxePcdLib.obj
 0003:000017a0       mReservedVectorsData       0000000000026d40     <common>
 0003:000077a0       mExternalInterruptHandlerTable 000000000002cd40     <common>
 0003:00007fa0       gEfiFwVolBlockNotifyReg    000000000002d540     <common>
 0003:00007fc0       mPoolHead                  000000000002d560     <common>
 0003:00008e40       mFwVolEventRegistration    000000000002e3e0     <common>
 0003:00008e60       mFvDevicePath              000000000002e400     <common>
 0003:00008e80       gEventQueue                000000000002e420     <common>
 0003:00009080       mImageProtectionPolicy     000000000002e620     <common>
 0003:000090a0       mMapStack                  000000000002e640     <common>
 0003:00009220       gDxeCoreFileName           000000000002e7c0     <common>
 0003:00009228       gDxeCoreLoadedImage        000000000002e7c8     <common>

 entry point at        0001:00001a98

 Static symbols

 0001:00000043       CetDone                    0000000000000303     BaseLib:SetJump.obj
 0001:00000110       CetDone                    00000000000003d0     BaseLib:LongJump.obj
 0001:000001aa       InternalMemCopyMem.0       000000000000046a     BaseMemoryLibRepStr:CopyMem.obj
 0001:000001ba       @CopyBackward              000000000000047a     BaseMemoryLibRepStr:CopyMem.obj
 0001:000001c3       @CopyBytes                 0000000000000483     BaseMemoryLibRepStr:CopyMem.obj
 0001:00000270       AsmIdtVectorBegin          0000000000000530     DxeCpuExceptionHandlerLib:ExceptionHandlerAsm.obj
 0001:00001470       AsmIdtVectorEnd            0000000000001730     DxeCpuExceptionHandlerLib:ExceptionHandlerAsm.obj
 0001:00001470       HookAfterStubHeaderBegin   0000000000001730     DxeCpuExceptionHandlerLib:ExceptionHandlerAsm.obj
 0001:00001475       VectorNum                  0000000000001735     DxeCpuExceptionHandlerLib:ExceptionHandlerAsm.obj
 0001:00001482       HookAfterStubHeaderEnd     0000000000001742     DxeCpuExceptionHandlerLib:ExceptionHandlerAsm.obj
 0001:0000149e       HookAfterStubHeaderEnd.0   000000000000175e     DxeCpuExceptionHandlerLib:ExceptionHandlerAsm.obj
 0001:000014bf       NoErrorCode                000000000000177f     DxeCpuExceptionHandlerLib:ExceptionHandlerAsm.obj
 0001:000014cb       HasErrorCode               000000000000178b     DxeCpuExceptionHandlerLib:ExceptionHandlerAsm.obj
 0001:00001599       VcDebugRegs                0000000000001859     DxeCpuExceptionHandlerLib:ExceptionHandlerAsm.obj
 0001:000015a2       DrFinish                   0000000000001862     DxeCpuExceptionHandlerLib:ExceptionHandlerAsm.obj
 0001:0000162e       CetDone                    00000000000018ee     DxeCpuExceptionHandlerLib:ExceptionHandlerAsm.obj
 0001:000016ae       ErrorCode                  000000000000196e     DxeCpuExceptionHandlerLib:ExceptionHandlerAsm.obj
 0001:000016b6       DoReturn                   0000000000001976     DxeCpuExceptionHandlerLib:ExceptionHandlerAsm.obj
 0001:000016d8       DoIret                     0000000000001998     DxeCpuExceptionHandlerLib:ExceptionHandlerAsm.obj
 0001:0000176a       TdVmCallCpuid.no_return_data 0000000000001a2a     CcExitLib:TdVmcallCpuid.obj
 0001:000017cf       AsmCpuid.0                 0000000000001a8f     BaseLib:CpuId.obj
 0001:000017d4       AsmCpuid.1                 0000000000001a94     BaseLib:CpuId.obj
 0001:000017db       AsmCpuid.2                 0000000000001a9b     BaseLib:CpuId.obj
 0001:000017e4       AsmCpuid.3                 0000000000001aa4     BaseLib:CpuId.obj
 0001:00001869       TdVmCall.no_return_data    0000000000001b29     BaseLib:TdVmcall.obj
 0001:000018a5       AsmCpuidEx.0               0000000000001b65     BaseLib:CpuIdEx.obj
 0001:000018ac       AsmCpuidEx.1               0000000000001b6c     BaseLib:CpuIdEx.obj
 0001:000018b3       AsmCpuidEx.2               0000000000001b73     BaseLib:CpuIdEx.obj
 0001:000018bc       AsmCpuidEx.3               0000000000001b7c     BaseLib:CpuIdEx.obj
 0001:0000192b       TdCall.exit                0000000000001beb     BaseLib:TdCall.obj
 0001:00001a5a       PvalidateExit              0000000000001d1a     BaseLib:Pvalidate.obj
 0001:000064ec       CoreGetProtocolInterface   00000000000067ac f   DxeCore:Handle.obj
 0001:000096b0       PeCoffEmuProtocolNotify    0000000000009970 f   DxeCore:Image.obj
 0001:00009b28       CoreIsImageTypeSupported   0000000000009de8 f   DxeCore:Image.obj
 0001:0000e700       CoreAllocatePoolPagesI     000000000000e9c0 f   DxeCore:Pool.obj
 0001:0000ebec       CoreFreePoolPagesI         000000000000eeac f   DxeCore:Pool.obj
 0001:00017470       FreeImageRecordCodeSections 0000000000017730 f   ImagePropertiesRecordLib:ImagePropertiesRecordLib.obj
 0001:000174d8       SortMemoryMap              0000000000017798 f   ImagePropertiesRecordLib:ImagePropertiesRecordLib.obj
 0001:0001758c       GetImageRecordByAddress    000000000001784c f   ImagePropertiesRecordLib:ImagePropertiesRecordLib.obj
 0001:00017614       SetNewRecord               00000000000178d4 f   ImagePropertiesRecordLib:ImagePropertiesRecordLib.obj
 0001:00017810       SplitRecord                0000000000017ad0 f   ImagePropertiesRecordLib:ImagePropertiesRecordLib.obj
 0001:00018654       LzmaDec_DecodeReal_3       0000000000018914 f   LzmaDecompressLib:LzmaDec.obj
 0001:000191a0       LzmaDec_WriteRem           0000000000019460 f   LzmaDecompressLib:LzmaDec.obj
 0001:00019228       LzmaDec_DecodeReal2        00000000000194e8 f   LzmaDecompressLib:LzmaDec.obj
 0001:000192cc       LzmaDec_TryDummy           000000000001958c f   LzmaDecompressLib:LzmaDec.obj
 0001:00019c04       LzmaDec_AllocateProbs2     0000000000019ec4 f   LzmaDecompressLib:LzmaDec.obj
 0001:0001a050       $LN47                      000000000001a310     BaseXApicX2ApicLib:BaseXApicX2ApicLib.obj
 0001:0001a058       $LN46                      000000000001a318     BaseXApicX2ApicLib:BaseXApicX2ApicLib.obj
 0001:0001a40c       IoExit                     000000000001a6cc f   CcExitLib:CcExitVeHandler.obj
 0001:0001a5a4       TdxMmioReadWrite           000000000001a864 f   CcExitLib:CcExitVeHandler.obj
 0001:0001a64c       ParseMmioExitInstructions  000000000001a90c f   CcExitLib:CcExitVeHandler.obj
 0001:0001aa64       MmioExit                   000000000001ad24 f   CcExitLib:CcExitVeHandler.obj
 0001:0001af70       UnsupportedExit            000000000001b230 f   CcExitLib:CcExitVcHandler.obj
 0001:0001afa0       ValidateMmioMemory         000000000001b260 f   CcExitLib:CcExitVcHandler.obj
 0001:0001afe8       MmioExit                   000000000001b2a8 f   CcExitLib:CcExitVcHandler.obj
 0001:0001b5a4       MwaitExit                  000000000001b864 f   CcExitLib:CcExitVcHandler.obj
 0001:0001b5f4       MonitorExit                000000000001b8b4 f   CcExitLib:CcExitVcHandler.obj
 0001:0001b664       WbinvdExit                 000000000001b924 f   CcExitLib:CcExitVcHandler.obj
 0001:0001b674       RdtscpExit                 000000000001b934 f   CcExitLib:CcExitVcHandler.obj
 0001:0001b710       VmmCallExit                000000000001b9d0 f   CcExitLib:CcExitVcHandler.obj
 0001:0001b7b4       MsrExit                    000000000001ba74 f   CcExitLib:CcExitVcHandler.obj
 0001:0001b90c       IoioExit                   000000000001bbcc f   CcExitLib:CcExitVcHandler.obj
 0001:0001bc2c       InvdExit                   000000000001beec f   CcExitLib:CcExitVcHandler.obj
 0001:0001bc3c       GetCpuidHyp                000000000001befc f   CcExitLib:CcExitVcHandler.obj
 0001:0001bd30       GetCpuidFw                 000000000001bff0 f   CcExitLib:CcExitVcHandler.obj
 0001:0001c03c       CpuidExit                  000000000001c2fc f   CcExitLib:CcExitVcHandler.obj
 0001:0001c178       RdpmcExit                  000000000001c438 f   CcExitLib:CcExitVcHandler.obj
 0001:0001c214       RdtscExit                  000000000001c4d4 f   CcExitLib:CcExitVcHandler.obj
 0001:0001c290       Dr7WriteExit               000000000001c550 f   CcExitLib:CcExitVcHandler.obj
 0001:0001c328       Dr7ReadExit                000000000001c5e8 f   CcExitLib:CcExitVcHandler.obj
 0001:0001c7e4       GetEffectiveMemoryAddress  000000000001caa4 f   CcExitLib:CcInstruction.obj
 0001:0001e118       ConfidentialComputingGuestHas 000000000001e3d8 f   DxeMemEncryptSevLib:DxeMemEncryptSevLibInternal.obj
 0002:000028b0       mPoolSizeTable             0000000000021250     DxeCore:Pool.obj
 0003:000013d8       mPoolMemoryLock            0000000000026978     DxeCore:Pool.obj
 0003:00001420       mImagePropertiesPrivateData 00000000000269c0     DxeCore:MemoryAttributesTable.obj
 0003:00001448       mMemoryAttributesTableLock 00000000000269e8     DxeCore:MemoryAttributesTable.obj
 0003:000016e0       mDeadLoopComparator        0000000000026c80     BaseLib:CpuDeadLoop.obj
 0003:000016e8       mCcProbeGuestType          0000000000026c88     DxeCcProbeLib:DxeCcProbeLib.obj
 0003:000016e9       mCcProbed                  0000000000026c89     DxeCcProbeLib:DxeCcProbeLib.obj
 0003:0000173a       mSevEncryptionMaskSaved    0000000000026cda     DxeMemEncryptSevLib:DxeMemEncryptSevLibInternal.obj
 0003:00001740       mCurrentAttr               0000000000026ce0     DxeMemEncryptSevLib:DxeMemEncryptSevLibInternal.obj
 0003:00001748       mSevEncryptionMask         0000000000026ce8     DxeMemEncryptSevLib:DxeMemEncryptSevLibInternal.obj
 0003:00001750       mCurrentAttrRead           0000000000026cf0     DxeMemEncryptSevLib:DxeMemEncryptSevLibInternal.obj
 0003:00001768       mAvailableEmulators        0000000000026d08     DxeCore:Image.obj
 0003:00001778       mPeCoffEmuProtocolRegistrationEvent 0000000000026d18     DxeCore:Image.obj
 0003:00001780       mPeCoffEmuProtocolNotifyRegistration 0000000000026d20     DxeCore:Image.obj
 0003:00001788       mProtectedImageRecordList  0000000000026d28     DxeCore:MemoryProtection.obj
 0005:00000000       $unwind$CoreSetInterruptState 000000000002f7e0     DxeCore:Tpl.obj
 0005:00000000       $unwind$IsGuardPage        000000000002f7e0     DxeCore:HeapGuard.obj
 0005:00000000       $unwind$SetGuardPage       000000000002f7e0     DxeCore:HeapGuard.obj
 0005:00000000       $unwind$UnsetGuardPage     000000000002f7e0     DxeCore:HeapGuard.obj
 0005:00000000       $unwind$InstallMemoryAttributesTableOnReadyToBoot 000000000002f7e0     DxeCore:MemoryAttributesTable.obj
 0005:00000000       $unwind$FreePool           000000000002f7e0     DxeCoreMemoryAllocationLib:MemoryAllocationLib.obj
 0005:00000000       $unwind$SzAlloc            000000000002f7e0     LzmaDecompressLib:LzmaDecompress.obj
 0005:00000000       $unwind$IoRead8            000000000002f7e0     BaseIoLibIntrinsicSev:IoLibMsc.obj
 0005:00000000       $unwind$CpuDeadLoop        000000000002f7e0     BaseLib:CpuDeadLoop.obj
 0005:00000000       $unwind$InternalAssertJumpBuffer 000000000002f7e0     BaseLib:SetJump.obj
 0005:00000000       $unwind$_ModuleEntryPoint  000000000002f7e0     DxeCoreEntryPoint:DxeCoreEntryPoint.obj
 0005:00000000       $unwind$GetHobList         000000000002f7e0     DxeCoreHobLib:HobLib.obj
 0005:00000000       $unwind$ReallocateExtractHandlerTable 000000000002f7e0     DxeExtractGuidedSectionLib:DxeExtractGuidedSectionLib.obj
 0005:00000000       $unwind$GetPcdProtocol     000000000002f7e0     DxePcdLib:DxePcdLib.obj
 0005:00000000       $unwind$TdSharedPageMask   000000000002f7e0     TdxLib:TdInfo.obj
 0005:00000000       $unwind$ConfidentialComputingGuestHas 000000000002f7e0     DxeMemEncryptSevLib:DxeMemEncryptSevLibInternal.obj
 0005:00000000       $unwind$UnsupportedExit    000000000002f7e0     CcExitLib:CcExitVcHandler.obj
 0005:00000000       $unwind$SerialPortInitialize 000000000002f7e0     PcAtSerialPortLib:SerialPortLib.obj
 0005:00000000       $unwind$GetLocalApicBaseAddress 000000000002f7e0     BaseXApicX2ApicLib:BaseXApicX2ApicLib.obj
 0005:00000000       $unwind$ReadLocalApicReg   000000000002f7e0     BaseXApicX2ApicLib:BaseXApicX2ApicLib.obj
 0005:00000008       $unwind$ProcessLibraryConstructorList 000000000002f7e8     DxeCore:AutoGen.obj
 0005:00000008       $unwind$CoreCreateEventInternal 000000000002f7e8     DxeCore:Event.obj
 0005:00000008       $unwind$CoreOpenProtocolInformation 000000000002f7e8     DxeCore:Handle.obj
 0005:00000008       $unwind$Decode             000000000002f7e8     BaseUefiDecompressLib:BaseUefiDecompressLib.obj
 0005:00000024       $unwind$DxeMain            000000000002f804     DxeCore:DxeMain.obj
 0005:0000003c       $unwind$PushBool           000000000002f81c     DxeCore:Dependency.obj
 0005:0000003c       $unwind$CalculateEfiHdrCrc 000000000002f81c     DxeCore:DxeMain.obj
 0005:0000003c       $unwind$CoreCloseEvent     000000000002f81c     DxeCore:Event.obj
 0005:0000003c       $unwind$CoreSignalEvent    000000000002f81c     DxeCore:Event.obj
 0005:0000003c       $unwind$CoreTimerTick      000000000002f81c     DxeCore:Timer.obj
 0005:0000003c       $unwind$CoreGetNextLocateAllHandles 000000000002f81c     DxeCore:Locate.obj
 0005:0000003c       $unwind$CoreAcquireLock    000000000002f81c     DxeCore:Library.obj
 0005:0000003c       $unwind$CoreAcquireLockOrFail 000000000002f81c     DxeCore:Library.obj
 0005:0000003c       $unwind$CoreReleaseLock    000000000002f81c     DxeCore:Library.obj
 0005:0000003c       $unwind$CoreFreePool       000000000002f81c     DxeCore:Pool.obj
 0005:0000003c       $unwind$CoreSetWatchdogTimer 000000000002f81c     DxeCore:SetWatchdogTimer.obj
 0005:0000003c       $unwind$AllocatePool       000000000002f81c     DxeCoreMemoryAllocationLib:MemoryAllocationLib.obj
 0005:0000003c       $unwind$IoRead32           000000000002f81c     BaseIoLibIntrinsicSev:IoLibMsc.obj
 0005:0000003c       $unwind$SaveAndDisableInterrupts 000000000002f81c     BaseLib:Cpu.obj
 0005:0000003c       $unwind$GetFirstNode       000000000002f81c     BaseLib:LinkedList.obj
 0005:0000003c       $unwind$GetNextNode        000000000002f81c     BaseLib:LinkedList.obj
 0005:0000003c       $unwind$InternalBaseLibIsListValid 000000000002f81c     BaseLib:LinkedList.obj
 0005:0000003c       $unwind$IsListEmpty        000000000002f81c     BaseLib:LinkedList.obj
 0005:0000003c       $unwind$RemoveEntryList    000000000002f81c     BaseLib:LinkedList.obj
 0005:0000003c       $unwind$StrnLenS           000000000002f81c     BaseLib:SafeString.obj
 0005:0000003c       $unwind$PeCoffLoaderGetPdbPointer 000000000002f81c     BasePeCoffGetEntryPointLib:PeCoffGetEntryPoint.obj
 0005:0000003c       $unwind$ReleaseSpinLock    000000000002f81c     BaseSynchronizationLib:SynchronizationMsc.obj
 0005:0000003c       $unwind$DevicePathNodeLength 000000000002f81c     UefiDevicePathLib:DevicePathUtilities.obj
 0005:0000003c       $unwind$SetDevicePathNodeLength 000000000002f81c     UefiDevicePathLib:DevicePathUtilities.obj
 0005:0000003c       $unwind$DuplicateDevicePath 000000000002f81c     UefiDevicePathLib:UefiDevicePathLib.obj
 0005:0000003c       $unwind$CcGetRegisterPointer 000000000002f81c     CcExitLib:CcInstruction.obj
 0005:0000003c       $unwind$GetApicMode        000000000002f81c     BaseXApicX2ApicLib:BaseXApicX2ApicLib.obj
 0005:00000044       $unwind$CoreExitBootServices 000000000002f824     DxeCore:DxeMain.obj
 0005:0000005c       $unwind$DxeMainUefiDecompress 000000000002f83c     DxeCore:DxeMain.obj
 0005:00000068       $unwind$CoreDumpGcdMemorySpaceMap 000000000002f848     DxeCore:Gcd.obj
 0005:00000078       $unwind$CoreDumpGcdIoSpaceMap 000000000002f858     DxeCore:Gcd.obj
 0005:00000088       $unwind$GrowDepexStack     000000000002f868     DxeCore:Dependency.obj
 0005:00000088       $unwind$CoreCheckEvent     000000000002f868     DxeCore:Event.obj
 0005:00000088       $unwind$CoreNotifyEvent    000000000002f868     DxeCore:Event.obj
 0005:00000088       $unwind$CoreRaiseTpl       000000000002f868     DxeCore:Tpl.obj
 0005:00000088       $unwind$FwVolBlockGetAttributes 000000000002f868     DxeCore:FwVolBlock.obj
 0005:00000088       $unwind$FwVolBlockGetPhysicalAddress 000000000002f868     DxeCore:FwVolBlock.obj
 0005:00000088       $unwind$FvGetVolumeAttributes 000000000002f868     DxeCore:FwVolAttrib.obj
 0005:00000088       $unwind$CoreAllocateGcdMapEntry 000000000002f868     DxeCore:Gcd.obj
 0005:00000088       $unwind$CoreNotifyProtocolEntry 000000000002f868     DxeCore:Notify.obj
 0005:00000088       $unwind$RemoveMemoryMapEntry 000000000002f868     DxeCore:Page.obj
 0005:00000088       $unwind$CoreAllocatePool   000000000002f868     DxeCore:Pool.obj
 0005:00000088       $unwind$CoreInternalFreePool 000000000002f868     DxeCore:Pool.obj
 0005:00000088       $unwind$CoreStall          000000000002f868     DxeCore:Stall.obj
 0005:00000088       $unwind$InternalAllocateZeroPool 000000000002f868     DxeCoreMemoryAllocationLib:MemoryAllocationLib.obj
 0005:00000088       $unwind$DeleteImagePropertiesRecord 000000000002f868     ImagePropertiesRecordLib:ImagePropertiesRecordLib.obj
 0005:00000088       $unwind$IoWrite32          000000000002f868     BaseIoLibIntrinsicSev:IoLibMsc.obj
 0005:00000088       $unwind$LShiftU64          000000000002f868     BaseLib:LShiftU64.obj
 0005:00000088       $unwind$InsertHeadList     000000000002f868     BaseLib:LinkedList.obj
 0005:00000088       $unwind$InsertTailList     000000000002f868     BaseLib:LinkedList.obj
 0005:00000088       $unwind$RShiftU64          000000000002f868     BaseLib:RShiftU64.obj
 0005:00000088       $unwind$AsciiStrLen        000000000002f868     BaseLib:String.obj
 0005:00000088       $unwind$ZeroMem            000000000002f868     BaseMemoryLibRepStr:ZeroMemWrapper.obj
 0005:00000088       $unwind$PeCoffLoaderGetEntryPoint 000000000002f868     BasePeCoffGetEntryPointLib:PeCoffGetEntryPoint.obj
 0005:00000088       $unwind$GetNextGuidHob     000000000002f868     DxeCoreHobLib:HobLib.obj
 0005:00000088       $unwind$GetNextHob         000000000002f868     DxeCoreHobLib:HobLib.obj
 0005:00000088       $unwind$IsDevicePathEnd    000000000002f868     UefiDevicePathLib:DevicePathUtilities.obj
 0005:00000088       $unwind$GetCpuidHyp        000000000002f868     CcExitLib:CcExitVcHandler.obj
 0005:00000088       $unwind$CcDecodeModRm      000000000002f868     CcExitLib:CcInstruction.obj
 0005:00000094       $unwind$CoreAddToDriverList 000000000002f874     DxeCore:Dispatcher.obj
 0005:00000094       $unwind$CoreSchedule       000000000002f874     DxeCore:Dispatcher.obj
 0005:00000094       $unwind$CoreTrust          000000000002f874     DxeCore:Dispatcher.obj
 0005:00000094       $unwind$CoreRestoreTpl     000000000002f874     DxeCore:Tpl.obj
 0005:00000094       $unwind$FwVolBlockReadBlock 000000000002f874     DxeCore:FwVolBlock.obj
 0005:00000094       $unwind$CoreInsertGcdMapEntry 000000000002f874     DxeCore:Gcd.obj
 0005:00000094       $unwind$CoreFindProtocolInterface 000000000002f874     DxeCore:Handle.obj
 0005:00000094       $unwind$CoreReinstallProtocolInterface 000000000002f874     DxeCore:Notify.obj
 0005:00000094       $unwind$CoreReadImageFile  000000000002f874     DxeCore:Image.obj
 0005:00000094       $unwind$CoreNewDebugImageInfoEntry 000000000002f874     DxeCore:DebugImageInfo.obj
 0005:00000094       $unwind$OpenSectionStreamEx 000000000002f874     DxeCore:CoreSectionExtraction.obj
 0005:00000094       $unwind$IsDevicePathValid  000000000002f874     UefiDevicePathLib:DevicePathUtilities.obj
 0005:00000094       $unwind$AppendDevicePath   000000000002f874     UefiDevicePathLib:UefiDevicePathLib.obj
 0005:00000094       $unwind$MsrExit            000000000002f874     CcExitLib:CcExitVcHandler.obj
 0005:00000094       $unwind$CcExitHandleVc     000000000002f874     CcExitLib:PeiDxeCcExitVcHandler.obj
 0005:000000ac       $unwind$CoreNotifySignalList 000000000002f88c     DxeCore:Event.obj
 0005:000000ac       $unwind$CoreInsertEventTimer 000000000002f88c     DxeCore:Timer.obj
 0005:000000ac       $unwind$CoreGetIoSpaceMap  000000000002f88c     DxeCore:Gcd.obj
 0005:000000ac       $unwind$CoreMergeGcdMapEntry 000000000002f88c     DxeCore:Gcd.obj
 0005:000000ac       $unwind$CoreGetProtocolInterface 000000000002f88c     DxeCore:Handle.obj
 0005:000000ac       $unwind$CoreUninstallProtocolInterface 000000000002f88c     DxeCore:Handle.obj
 0005:000000ac       $unwind$CoreRegisterProtocolNotify 000000000002f88c     DxeCore:Notify.obj
 0005:000000ac       $unwind$CoreRemoveInterfaceFromProtocol 000000000002f88c     DxeCore:Notify.obj
 0005:000000ac       $unwind$CoreIsImageTypeSupported 000000000002f88c     DxeCore:Image.obj
 0005:000000ac       $unwind$LookupPoolHead     000000000002f88c     DxeCore:Pool.obj
 0005:000000ac       $unwind$RemoveImageRecord  000000000002f88c     DxeCore:MemoryAttributesTable.obj
 0005:000000ac       $unwind$FindStreamNode     000000000002f88c     DxeCore:CoreSectionExtraction.obj
 0005:000000ac       $unwind$InternalAllocateCopyPool 000000000002f88c     DxeCoreMemoryAllocationLib:MemoryAllocationLib.obj
 0005:000000ac       $unwind$InternalReallocatePool 000000000002f88c     DxeCoreMemoryAllocationLib:MemoryAllocationLib.obj
 0005:000000ac       $unwind$GetImageRecordByAddress 000000000002f88c     ImagePropertiesRecordLib:ImagePropertiesRecordLib.obj
 0005:000000ac       $unwind$SortImageRecordCodeSection 000000000002f88c     ImagePropertiesRecordLib:ImagePropertiesRecordLib.obj
 0005:000000ac       $unwind$LzmaGuidedSectionExtraction 000000000002f88c     LzmaDecompressLib:GuidedSectionExtraction.obj
 0005:000000ac       $unwind$LzmaGuidedSectionGetInfo 000000000002f88c     LzmaDecompressLib:GuidedSectionExtraction.obj
 0005:000000ac       $unwind$CompareMem         000000000002f88c     BaseMemoryLibRepStr:CompareMemWrapper.obj
 0005:000000ac       $unwind$CopyMem            000000000002f88c     BaseMemoryLibRepStr:CopyMemWrapper.obj
 0005:000000ac       $unwind$PciCf8Read16       000000000002f88c     BasePciCf8Lib:PciCf8Lib.obj
 0005:000000ac       $unwind$PciCf8Read32       000000000002f88c     BasePciCf8Lib:PciCf8Lib.obj
 0005:000000ac       $unwind$PciCf8Read8        000000000002f88c     BasePciCf8Lib:PciCf8Lib.obj
 0005:000000ac       $unwind$PeCoffLoaderImageReadFromMemory 000000000002f88c     BasePeCoffLib:BasePeCoff.obj
 0005:000000ac       $unwind$UefiDecompressGetInfo 000000000002f88c     BaseUefiDecompressLib:BaseUefiDecompressLib.obj
 0005:000000c0       $unwind$CoreCheckTimers    000000000002f8a0     DxeCore:Timer.obj
 0005:000000c0       $unwind$CoreCleanupGcdMapEntry 000000000002f8a0     DxeCore:Gcd.obj
 0005:000000c0       $unwind$CoreValidateHandle 000000000002f8a0     DxeCore:Handle.obj
 0005:000000c0       $unwind$CoreGetNextLocateByProtocol 000000000002f8a0     DxeCore:Locate.obj
 0005:000000c0       $unwind$CoreUnloadImage    000000000002f8a0     DxeCore:Image.obj
 0005:000000c0       $unwind$SetGuardForMemory  000000000002f8a0     DxeCore:HeapGuard.obj
 0005:000000c0       $unwind$PromoteMemoryResource 000000000002f8a0     DxeCore:Page.obj
 0005:000000c0       $unwind$CoreInternalAllocatePool 000000000002f8a0     DxeCore:Pool.obj
 0005:000000c0       $unwind$ProtectUefiImage   000000000002f8a0     DxeCore:MemoryProtection.obj
 0005:000000c0       $unwind$CoreInternalWaitForTick 000000000002f8a0     DxeCore:Stall.obj
 0005:000000c0       $unwind$LzmaUefiDecompressGetInfo 000000000002f8a0     LzmaDecompressLib:LzmaDecompress.obj
 0005:000000c0       $unwind$LzmaDec_AllocateProbs2 000000000002f8a0     LzmaDecompressLib:LzmaDec.obj
 0005:000000c0       $unwind$LzmaDec_DecodeReal2 000000000002f8a0     LzmaDecompressLib:LzmaDec.obj
 0005:000000c0       $unwind$CalculateSum16     000000000002f8a0     BaseLib:CheckSum.obj
 0005:000000c0       $unwind$CalculateSum8      000000000002f8a0     BaseLib:CheckSum.obj
 0005:000000c0       $unwind$DivU64x32Remainder 000000000002f8a0     BaseLib:DivU64x32Remainder.obj
 0005:000000c0       $unwind$IsNodeAtEnd        000000000002f8a0     BaseLib:LinkedList.obj
 0005:000000c0       $unwind$CopyGuid           000000000002f8a0     BaseMemoryLibRepStr:MemLibGuid.obj
 0005:000000c0       $unwind$SetMem16           000000000002f8a0     BaseMemoryLibRepStr:SetMem16Wrapper.obj
 0005:000000c0       $unwind$SetMem64           000000000002f8a0     BaseMemoryLibRepStr:SetMem64Wrapper.obj
 0005:000000c0       $unwind$SetMem             000000000002f8a0     BaseMemoryLibRepStr:SetMemWrapper.obj
 0005:000000c0       $unwind$FillBuf            000000000002f8a0     BaseUefiDecompressLib:BaseUefiDecompressLib.obj
 0005:000000c0       $unwind$GetDevicePathSize  000000000002f8a0     UefiDevicePathLib:UefiDevicePathLib.obj
 0005:000000c0       $unwind$Dr7ReadExit        000000000002f8a0     CcExitLib:CcExitVcHandler.obj
 0005:000000c0       $unwind$Dr7WriteExit       000000000002f8a0     CcExitLib:CcExitVcHandler.obj
 0005:000000c0       $unwind$RdpmcExit          000000000002f8a0     CcExitLib:CcExitVcHandler.obj
 0005:000000c0       $unwind$RdtscExit          000000000002f8a0     CcExitLib:CcExitVcHandler.obj
 0005:000000c0       $unwind$RdtscpExit         000000000002f8a0     CcExitLib:CcExitVcHandler.obj
 0005:000000c0       $unwind$VmmCallExit        000000000002f8a0     CcExitLib:CcExitVcHandler.obj
 0005:000000c0       $unwind$CcInitInstructionData 000000000002f8a0     CcExitLib:CcInstruction.obj
 0005:000000c0       $unwind$SerialPortWrite    000000000002f8a0     PcAtSerialPortLib:SerialPortLib.obj
 0005:000000d0       $unwind$CoreSearchGcdMapEntry 000000000002f8b0     DxeCore:Gcd.obj
 0005:000000d0       $unwind$CoreDisconnectControllersUsingProtocolInterface 000000000002f8b0     DxeCore:Handle.obj
 0005:000000d0       $unwind$CoreFindProtocolEntry 000000000002f8b0     DxeCore:Handle.obj
 0005:000000d0       $unwind$CoreProtocolsPerHandle 000000000002f8b0     DxeCore:Handle.obj
 0005:000000d0       $unwind$CoreUnregisterProtocolNotify 000000000002f8b0     DxeCore:Handle.obj
 0005:000000d0       $unwind$CoreExit           000000000002f8b0     DxeCore:Image.obj
 0005:000000d0       $unwind$MergeMemoryMap     000000000002f8b0     DxeCore:MemoryAttributesTable.obj
 0005:000000d0       $unwind$PciAndThenOr32     000000000002f8b0     BasePciLibCf8:PciLib.obj
 0005:000000d0       $unwind$PciOr8             000000000002f8b0     BasePciLibCf8:PciLib.obj
 0005:000000d0       $unwind$UefiDecompress     000000000002f8b0     BaseUefiDecompressLib:BaseUefiDecompressLib.obj
 0005:000000e8       $unwind$CoreConvertSpace   000000000002f8c8     DxeCore:Gcd.obj
 0005:00000100       $unwind$CoreAllocateSpace  000000000002f8e0     DxeCore:Gcd.obj
 0005:00000118       $unwind$CoreInternalAddMemorySpace 000000000002f8f8     DxeCore:Gcd.obj
 0005:00000130       $unwind$CoreAllocateIoSpace 000000000002f910     DxeCore:Gcd.obj
 0005:00000130       $unwind$CoreAllocateMemorySpace 000000000002f910     DxeCore:Gcd.obj
 0005:00000130       $unwind$CreateImagePropertiesRecord 000000000002f910     ImagePropertiesRecordLib:ImagePropertiesRecordLib.obj
 0005:0000014c       $unwind$CoreAddMemorySpace 000000000002f92c     DxeCore:Gcd.obj
 0005:00000164       $unwind$CoreFreeIoSpace    000000000002f944     DxeCore:Gcd.obj
 0005:00000164       $unwind$CoreFreeMemorySpace 000000000002f944     DxeCore:Gcd.obj
 0005:00000164       $unwind$CoreRemoveIoSpace  000000000002f944     DxeCore:Gcd.obj
 0005:00000164       $unwind$CoreRemoveMemorySpace 000000000002f944     DxeCore:Gcd.obj
 0005:00000164       $unwind$PeCoffEmuProtocolNotify 000000000002f944     DxeCore:Image.obj
 0005:00000164       $unwind$CoreAllocatePages  000000000002f944     DxeCore:Page.obj
 0005:00000170       $unwind$CoreGetIoSpaceDescriptor 000000000002f950     DxeCore:Gcd.obj
 0005:00000170       $unwind$CoreGetMemorySpaceDescriptor 000000000002f950     DxeCore:Gcd.obj
 0005:00000180       $unwind$CoreAddIoSpace     000000000002f960     DxeCore:Gcd.obj
 0005:00000180       $unwind$CoreSetMemorySpaceAttributes 000000000002f960     DxeCore:Gcd.obj
 0005:00000180       $unwind$GetUefiImageProtectionPolicy 000000000002f960     DxeCore:MemoryProtection.obj
 0005:00000190       $unwind$CoreSetMemorySpaceCapabilities 000000000002f970     DxeCore:Gcd.obj
 0005:00000190       $unwind$CoreLocateProtocol 000000000002f970     DxeCore:Locate.obj
 0005:000001a4       $unwind$CoreGetMemorySpaceMap 000000000002f984     DxeCore:Gcd.obj
 0005:000001bc       $unwind$FindLargestFreeRegion 000000000002f99c     DxeCore:Gcd.obj
 0005:000001cc       $unwind$CoreInitializeMemoryServices 000000000002f9ac     DxeCore:Gcd.obj
 0005:000001e4       $unwind$CoreInitializeGcdServices 000000000002f9c4     DxeCore:Gcd.obj
 0005:000001fc       $unwind$GenericProtocolNotify 000000000002f9dc     DxeCore:DxeProtocolNotify.obj
 0005:0000020c       $unwind$CoreNotifyOnProtocolEntryTable 000000000002f9ec     DxeCore:DxeProtocolNotify.obj
 0005:0000021c       $unwind$CoreCloseProtocol  000000000002f9fc     DxeCore:Handle.obj
 0005:0000021c       $unwind$IsDevicePathInstalled 000000000002f9fc     DxeCore:Handle.obj
 0005:0000021c       $unwind$CoreStartImage     000000000002f9fc     DxeCore:Image.obj
 0005:0000021c       $unwind$SortImageRecord    000000000002f9fc     ImagePropertiesRecordLib:ImagePropertiesRecordLib.obj
 0005:0000021c       $unwind$ExtractGuidedSectionDecode 000000000002f9fc     DxeExtractGuidedSectionLib:DxeExtractGuidedSectionLib.obj
 0005:0000021c       $unwind$UpdateIdtTable     000000000002f9fc     DxeCpuExceptionHandlerLib:PeiDxeSmmCpuException.obj
 0005:00000238       $unwind$CoreCreateEvent    000000000002fa18     DxeCore:Event.obj
 0005:00000238       $unwind$CoreHandleProtocol 000000000002fa18     DxeCore:Handle.obj
 0005:00000238       $unwind$CoreInstallProtocolInterface 000000000002fa18     DxeCore:Handle.obj
 0005:00000238       $unwind$TdIoRead8          000000000002fa18     BaseIoLibIntrinsicSev:IoLibInternalTdx.obj
 0005:00000238       $unwind$TdxMmioReadWrite   000000000002fa18     CcExitLib:CcExitVeHandler.obj
 0005:00000238       $unwind$LocalApicBaseAddressMsrSupported 000000000002fa18     BaseXApicX2ApicLib:BaseXApicX2ApicLib.obj
 0005:00000240       $unwind$CoreInstallProtocolInterfaceNotify 000000000002fa20     DxeCore:Handle.obj
 0005:00000240       $unwind$FindGuardedMemoryMap 000000000002fa20     DxeCore:HeapGuard.obj
 0005:00000258       $unwind$CoreInstallMultipleProtocolInterfaces 000000000002fa38     DxeCore:Handle.obj
 0005:0000026c       $unwind$CoreUninstallMultipleProtocolInterfaces 000000000002fa4c     DxeCore:Handle.obj
 0005:00000278       $unwind$CoreOpenProtocol   000000000002fa58     DxeCore:Handle.obj
 0005:00000290       $unwind$CoreConnectHandlesByKey 000000000002fa70     DxeCore:Handle.obj
 0005:00000290       $unwind$CompareGuid        000000000002fa70     BaseMemoryLibRepStr:MemLibGuid.obj
 0005:000002a8       $unwind$CoreConnectController 000000000002fa88     DxeCore:DriverSupport.obj
 0005:000002c4       $unwind$AddSortedDriverBindingProtocol 000000000002faa4     DxeCore:DriverSupport.obj
 0005:000002c4       $unwind$InternalCoreLocateHandle 000000000002faa4     DxeCore:Locate.obj
 0005:000002dc       $unwind$CoreConnectSingleController 000000000002fabc     DxeCore:DriverSupport.obj
 0005:000002f4       $unwind$CoreDisconnectController 000000000002fad4     DxeCore:DriverSupport.obj
 0005:0000030c       $unwind$CoreAddRange       000000000002faec     DxeCore:Page.obj
 0005:0000030c       $unwind$CoreInternalAllocatePages 000000000002faec     DxeCore:Page.obj
 0005:0000030c       $unwind$CoreGetMemoryMapWithSeparatedImageSection 000000000002faec     DxeCore:MemoryAttributesTable.obj
 0005:00000328       $unwind$CoreFreeMemoryMapStack 000000000002fb08     DxeCore:Page.obj
 0005:00000338       $unwind$CoreAddMemoryDescriptor 000000000002fb18     DxeCore:Page.obj
 0005:00000350       $unwind$CoreConvertPagesEx 000000000002fb30     DxeCore:Page.obj
 0005:0000036c       $unwind$CoreFindFreePagesI 000000000002fb4c     DxeCore:Page.obj
 0005:0000036c       $unwind$LzmaDec_DecodeToDic 000000000002fb4c     LzmaDecompressLib:LzmaDec.obj
 0005:00000388       $unwind$CoreLocateHandleBuffer 000000000002fb68     DxeCore:Locate.obj
 0005:00000388       $unwind$FindFreePages      000000000002fb68     DxeCore:Page.obj
 0005:000003a0       $unwind$CoreFreePages      000000000002fb80     DxeCore:Page.obj
 0005:000003b4       $unwind$MergeMemoryMapDescriptor 000000000002fb94     DxeCore:Page.obj
 0005:000003bc       $unwind$CoreGetMemoryMap   000000000002fb9c     DxeCore:Page.obj
 0005:000003d4       $unwind$CoreLocateHandle   000000000002fbb4     DxeCore:Locate.obj
 0005:000003d4       $unwind$CoreAllocatePoolPages 000000000002fbb4     DxeCore:Page.obj
 0005:000003d4       $unwind$InternalReportStatusCode 000000000002fbb4     DxeReportStatusCodeLib:ReportStatusCodeLib.obj
 0005:000003e8       $unwind$CoreInitializeImageServices 000000000002fbc8     DxeCore:Image.obj
 0005:000003f8       $unwind$CoreLoadPeImage    000000000002fbd8     DxeCore:Image.obj
 0005:00000414       $unwind$CoreLoadedImageInfo 000000000002fbf4     DxeCore:Image.obj
 0005:00000420       $unwind$CoreUnloadAndCloseImage 000000000002fc00     DxeCore:Image.obj
 0005:00000434       $unwind$CoreLoadImageCommon 000000000002fc14     DxeCore:Image.obj
 0005:00000450       $unwind$CoreLoadImage      000000000002fc30     DxeCore:Image.obj
 0005:00000458       $unwind$SetUefiImageMemoryAttributes 000000000002fc38     DxeCore:MemoryProtection.obj
 0005:00000468       $unwind$SetUefiImageProtectionAttributes 000000000002fc48     DxeCore:MemoryProtection.obj
 0005:00000480       $unwind$MemoryProtectionCpuArchProtocolNotify 000000000002fc60     DxeCore:MemoryProtection.obj
 0005:00000490       $unwind$CoreWaitForEvent   000000000002fc70     DxeCore:Event.obj
 0005:00000490       $unwind$FwVolBlockGetBlockSize 000000000002fc70     DxeCore:FwVolBlock.obj
 0005:00000490       $unwind$CoreGetNextLocateByRegisterNotify 000000000002fc70     DxeCore:Locate.obj
 0005:00000490       $unwind$IsImageRecordCodeSectionValid 000000000002fc70     ImagePropertiesRecordLib:ImagePropertiesRecordLib.obj
 0005:000004a4       $unwind$CoreGetDepexSectionAndPreProccess 000000000002fc84     DxeCore:Dispatcher.obj
 0005:000004b4       $unwind$CoreDispatcher     000000000002fc94     DxeCore:Dispatcher.obj
 0005:000004c8       $unwind$CoreInsertOnScheduledQueueWhileProcessingBeforeAndAfter 000000000002fca8     DxeCore:Dispatcher.obj
 0005:000004e0       $unwind$FvIsBeingProcessed 000000000002fcc0     DxeCore:Dispatcher.obj
 0005:000004f8       $unwind$CoreFvToDevicePath 000000000002fcd8     DxeCore:Dispatcher.obj
 0005:00000504       $unwind$GetFvUsedSize      000000000002fce4     DxeCore:Dispatcher.obj
 0005:00000504       $unwind$CoreFreePoolI      000000000002fce4     DxeCore:Pool.obj
 0005:00000520       $unwind$CoreProcessFvImageFile 000000000002fd00     DxeCore:Dispatcher.obj
 0005:00000538       $unwind$CoreFwVolEventProtocolNotify 000000000002fd18     DxeCore:Dispatcher.obj
 0005:00000554       $unwind$CoreLocateDevicePath 000000000002fd34     DxeCore:Locate.obj
 0005:0000056c       $unwind$CoreInitializeDebugImageInfoTable 000000000002fd4c     DxeCore:DebugImageInfo.obj
 0005:0000057c       $unwind$ProduceFVBProtocolOnBuffer 000000000002fd5c     DxeCore:FwVolBlock.obj
 0005:00000594       $unwind$CoreProcessFirmwareVolume 000000000002fd74     DxeCore:FwVolBlock.obj
 0005:00000594       $unwind$MmioRead32         000000000002fd74     BaseIoLibIntrinsicSev:IoLib.obj
 0005:00000594       $unwind$TdIoRead32         000000000002fd74     BaseIoLibIntrinsicSev:IoLibInternalTdx.obj
 0005:00000594       $unwind$TdIoWrite8         000000000002fd74     BaseIoLibIntrinsicSev:IoLibInternalTdx.obj
 0005:00000594       $unwind$GetApicId          000000000002fd74     BaseXApicX2ApicLib:BaseXApicX2ApicLib.obj
 0005:00000594       $unwind$LocalApicReadMsrReg64 000000000002fd74     BaseXApicX2ApicLib:BaseXApicX2ApicLib.obj
 0005:0000059c       $unwind$CoreSetTimer       000000000002fd7c     DxeCore:Timer.obj
 0005:0000059c       $unwind$CoreAllocatePoolPagesI 000000000002fd7c     DxeCore:Pool.obj
 0005:000005ac       $unwind$CoreAllocatePoolI  000000000002fd8c     DxeCore:Pool.obj
 0005:000005c0       $unwind$CoreFreePoolPagesI 000000000002fda0     DxeCore:Pool.obj
 0005:000005cc       $unwind$VerifyGuidedSectionGuid 000000000002fdac     DxeCore:CoreSectionExtraction.obj
 0005:000005e0       $unwind$NotifyGuidedExtraction 000000000002fdc0     DxeCore:CoreSectionExtraction.obj
 0005:000005f0       $unwind$CreateChildNode    000000000002fdd0     DxeCore:CoreSectionExtraction.obj
 0005:00000608       $unwind$FindChildNode      000000000002fde8     DxeCore:CoreSectionExtraction.obj
 0005:00000624       $unwind$GetSection         000000000002fe04     DxeCore:CoreSectionExtraction.obj
 0005:0000063c       $unwind$CloseSectionStream 000000000002fe1c     DxeCore:CoreSectionExtraction.obj
 0005:00000654       $unwind$CustomGuidedSectionExtract 000000000002fe34     DxeCore:CoreSectionExtraction.obj
 0005:00000670       $unwind$InstallMemoryAttributesTable 000000000002fe50     DxeCore:MemoryAttributesTable.obj
 0005:00000688       $unwind$InstallMemoryAttributesTableOnEndOfDxe 000000000002fe68     DxeCore:MemoryAttributesTable.obj
 0005:000006a4       $unwind$InsertImageRecord  000000000002fe84     DxeCore:MemoryAttributesTable.obj
 0005:000006b8       $unwind$ReadFvbData        000000000002fe98     DxeCore:FwVol.obj
 0005:000006cc       $unwind$GetFwVolHeader     000000000002feac     DxeCore:FwVol.obj
 0005:000006dc       $unwind$FvCheck            000000000002febc     DxeCore:FwVol.obj
 0005:000006f4       $unwind$NotifyFwVolBlock   000000000002fed4     DxeCore:FwVol.obj
 0005:00000708       $unwind$CoreInstallConfigurationTable 000000000002fee8     DxeCore:InstallConfigurationTable.obj
 0005:00000720       $unwind$ClearGuardedMemoryBits 000000000002ff00     DxeCore:HeapGuard.obj
 0005:00000720       $unwind$SetGuardedMemoryBits 000000000002ff00     DxeCore:HeapGuard.obj
 0005:00000738       $unwind$GetGuardedMemoryBits 000000000002ff18     DxeCore:HeapGuard.obj
 0005:00000750       $unwind$UnsetGuardForMemory 000000000002ff30     DxeCore:HeapGuard.obj
 0005:00000760       $unwind$AdjustMemoryF      000000000002ff40     DxeCore:HeapGuard.obj
 0005:00000774       $unwind$CoreConvertPagesWithGuard 000000000002ff54     DxeCore:HeapGuard.obj
 0005:00000784       $unwind$CoreIsSchedulable  000000000002ff64     DxeCore:Dependency.obj
 0005:00000798       $unwind$FvGetNextFile      000000000002ff78     DxeCore:FwVolRead.obj
 0005:000007b0       $unwind$FvReadFile         000000000002ff90     DxeCore:FwVolRead.obj
 0005:000007c8       $unwind$FvReadFileSection  000000000002ffa8     DxeCore:FwVolRead.obj
 0005:000007dc       $unwind$InternalAllocateAlignedPages 000000000002ffbc     DxeCoreMemoryAllocationLib:MemoryAllocationLib.obj
 0005:000007f0       $unwind$DebugPrint         000000000002ffd0     BaseDebugLibSerialPort:DebugLib.obj
 0005:000007f8       $unwind$DebugPrintMarker   000000000002ffd8     BaseDebugLibSerialPort:DebugLib.obj
 0005:0000080c       $unwind$DebugAssert        000000000002ffec     BaseDebugLibSerialPort:DebugLib.obj
 0005:00000814       $unwind$EfiCreateProtocolNotifyEvent 000000000002fff4     UefiLib:UefiLib.obj
 0005:0000082c       $unwind$MakeTable          000000000003000c     BaseUefiDecompressLib:BaseUefiDecompressLib.obj
 0005:00000844       $unwind$ReadPTLen          0000000000030024     BaseUefiDecompressLib:BaseUefiDecompressLib.obj
 0005:00000860       $unwind$ReadCLen           0000000000030040     BaseUefiDecompressLib:BaseUefiDecompressLib.obj
 0005:0000087c       $unwind$PeCoffLoaderGetPeHeader 000000000003005c     BasePeCoffLib:BasePeCoff.obj
 0005:00000898       $unwind$PeCoffLoaderGetImageInfo 0000000000030078     BasePeCoffLib:BasePeCoff.obj
 0005:000008b8       $unwind$PeCoffLoaderRelocateImage 0000000000030098     BasePeCoffLib:BasePeCoff.obj
 0005:000008d4       $unwind$PeCoffLoaderLoadImage 00000000000300b4     BasePeCoffLib:BasePeCoff.obj
 0005:000008ec       $unwind$ReportStatusCodeWithExtendedData 00000000000300cc     DxeReportStatusCodeLib:ReportStatusCodeLib.obj
 0005:00000904       $unwind$GetFileBufferByFilePath 00000000000300e4     DxeServicesLib:DxeServicesLib.obj
 0005:00000924       $unwind$CommonExceptionHandlerWorker 0000000000030104     DxeCpuExceptionHandlerLib:PeiDxeSmmCpuException.obj
 0005:0000093c       $unwind$DumpCpuContext     000000000003011c     DxeCpuExceptionHandlerLib:ArchExceptionHandler.obj
 0005:0000094c       $unwind$InternalPrintMessage 000000000003012c     DxeCpuExceptionHandlerLib:CpuExceptionCommon.obj
 0005:00000954       $unwind$DumpModuleImageInfo 0000000000030134     DxeCpuExceptionHandlerLib:CpuExceptionCommon.obj
 0005:00000968       $unwind$FreeImageRecordCodeSections 0000000000030148     ImagePropertiesRecordLib:ImagePropertiesRecordLib.obj
 0005:00000974       $unwind$SortMemoryMap      0000000000030154     ImagePropertiesRecordLib:ImagePropertiesRecordLib.obj
 0005:00000990       $unwind$SetNewRecord       0000000000030170     ImagePropertiesRecordLib:ImagePropertiesRecordLib.obj
 0005:000009a8       $unwind$SplitRecord        0000000000030188     ImagePropertiesRecordLib:ImagePropertiesRecordLib.obj
 0005:000009c4       $unwind$SplitTable         00000000000301a4     ImagePropertiesRecordLib:ImagePropertiesRecordLib.obj
 0005:000009dc       $unwind$LzmaUefiDecompress 00000000000301bc     LzmaDecompressLib:LzmaDecompress.obj
 0005:000009f4       $unwind$LzmaDec_DecodeReal_3 00000000000301d4     LzmaDecompressLib:LzmaDec.obj
 0005:00000a0c       $unwind$LzmaDec_WriteRem   00000000000301ec     LzmaDecompressLib:LzmaDec.obj
 0005:00000a18       $unwind$LzmaDec_TryDummy   00000000000301f8     LzmaDecompressLib:LzmaDec.obj
 0005:00000a34       $unwind$TdIoRead16         0000000000030214     BaseIoLibIntrinsicSev:IoLibInternalTdx.obj
 0005:00000a34       $unwind$BasePrintLibSPrint 0000000000030214     BasePrintLib:PrintLibInternal.obj
 0005:00000a3c       $unwind$TdIoWrite32        000000000003021c     BaseIoLibIntrinsicSev:IoLibInternalTdx.obj
 0005:00000a48       $unwind$AccessMsrTdxCall   0000000000030228     BaseXApicX2ApicLib:BaseXApicX2ApicLib.obj
 0005:00000a54       $unwind$IoioExit           0000000000030234     CcExitLib:CcExitVcHandler.obj
 0005:00000a54       $unwind$IoExit             0000000000030234     CcExitLib:CcExitVeHandler.obj
 0005:00000a6c       $unwind$ParseMmioExitInstructions 000000000003024c     CcExitLib:CcExitVeHandler.obj
 0005:00000a84       $unwind$MmioExit           0000000000030264     CcExitLib:CcExitVeHandler.obj
 0005:00000aa0       $unwind$CcExitHandleVe     0000000000030280     CcExitLib:CcExitVeHandler.obj
 0005:00000ab4       $unwind$ValidateMmioMemory 0000000000030294     CcExitLib:CcExitVcHandler.obj
 0005:00000abc       $unwind$MmioExit           000000000003029c     CcExitLib:CcExitVcHandler.obj
 0005:00000ad8       $unwind$GetCpuidFw         00000000000302b8     CcExitLib:CcExitVcHandler.obj
 0005:00000af4       $unwind$CpuidExit          00000000000302d4     CcExitLib:CcExitVcHandler.obj
 0005:00000b0c       $unwind$InternalVmgExitHandleVc 00000000000302ec     CcExitLib:CcExitVcHandler.obj
 0005:00000b2c       $unwind$GetEffectiveMemoryAddress 000000000003030c     CcExitLib:CcInstruction.obj
 0005:00000b40       $unwind$BasePrintLibValueToString 0000000000030320     BasePrintLib:PrintLibInternal.obj
 0005:00000b40       $unwind$AcquireSpinLockOrFail 0000000000030320     BaseSynchronizationLib:SynchronizationMsc.obj
 0005:00000b40       $unwind$CcExitVmgExit      0000000000030320     CcExitLib:CcExitLib.obj
 0005:00000b4c       $unwind$AsciiSPrint        000000000003032c     BasePrintLib:PrintLib.obj
 0005:00000b54       $unwind$BasePrintLibSPrintMarker 0000000000030334     BasePrintLib:PrintLibInternal.obj
 0005:00000b70       $unwind$InternalMemEncryptSevGetAddressRangeState 0000000000030350     DxeMemEncryptSevLib:VirtualMemory.obj
 0005:00000b88       $unwind$GetTdInfo          0000000000030368     TdxLib:TdInfo.obj
