 UdfDxe

 Timestamp is 6725e49f (Sat Nov  2 16:36:47 2024)

 Preferred load address is 0000000000000000

 Start         Length     Name                   Class
 0001:00000000 000001c8H .text                   CODE
 0001:000001c8 000051a0H .text$mn                CODE
 0002:00000000 00001608H .rdata                  DATA
 0002:00001608 00000030H .rdata$voltmd           DATA
 0002:00001638 00000158H .rdata$zzzdbg           DATA
 0003:00000000 000001c8H .data                   DATA
 0003:000001c8 0000003aH .bss                    DATA
 0004:00000000 000002f4H .pdata                  DATA
 0005:00000000 000002acH .xdata                  DATA

  Address         Publics by Value              Rva+Base               Lib:Object

 0000:00000000       __x64_code_ranges_to_entry_points_count 0000000000000000     <absolute>
 0000:00000000       __guard_iat_table          0000000000000000     <absolute>
 0000:00000000       __guard_longjmp_table      0000000000000000     <absolute>
 0000:00000000       __guard_iat_count          0000000000000000     <absolute>
 0000:00000000       __x64_code_ranges_to_entry_points 0000000000000000     <absolute>
 0000:00000000       __guard_longjmp_count      0000000000000000     <absolute>
 0000:00000000       __guard_fids_count         0000000000000000     <absolute>
 0000:00000000       __dynamic_value_reloc_table 0000000000000000     <absolute>
 0000:00000000       __hybrid_auxiliary_iat     0000000000000000     <absolute>
 0000:00000000       __arm64x_extra_rfe_table   0000000000000000     <absolute>
 0000:00000000       __hybrid_code_map_count    0000000000000000     <absolute>
 0000:00000000       __hybrid_auxiliary_iat_copy 0000000000000000     <absolute>
 0000:00000000       __AbsoluteZero             0000000000000000     <absolute>
 0000:00000000       __hybrid_code_map          0000000000000000     <absolute>
 0000:00000000       __arm64x_extra_rfe_table_size 0000000000000000     <absolute>
 0000:00000000       __guard_check_icall_a64n_fptr 0000000000000000     <absolute>
 0000:00000000       __guard_fids_table         0000000000000000     <absolute>
 0000:00000000       __guard_flags              0000000000000000     <absolute>
 0000:00000000       __guard_eh_cont_count      0000000000000000     <absolute>
 0000:00000000       __arm64x_native_entrypoint 0000000000000000     <absolute>
 0000:00000000       __arm64x_redirection_metadata_count 0000000000000000     <absolute>
 0000:00000000       __enclave_config           0000000000000000     <absolute>
 0000:00000000       __guard_eh_cont_table      0000000000000000     <absolute>
 0000:00000000       __arm64x_redirection_metadata 0000000000000000     <absolute>
 0001:00000000       InternalMemCopyMem         00000000000002c0     BaseMemoryLibRepStr:CopyMem.obj
 0001:00000040       InternalMemZeroMem         0000000000000300     BaseMemoryLibRepStr:ZeroMem.obj
 0001:00000060       InternalMemCompareMem      0000000000000320     BaseMemoryLibRepStr:CompareMem.obj
 0001:00000080       CpuPause                   0000000000000340     BaseLib:CpuPause.obj
 0001:00000090       InternalMemSetMem          0000000000000350     BaseMemoryLibRepStr:SetMem.obj
 0001:000000b0       InternalMemSetMem64        0000000000000370     BaseMemoryLibRepStr:SetMem64.obj
 0001:000000d0       InternalMemSetMem32        0000000000000390     BaseMemoryLibRepStr:SetMem32.obj
 0001:000000f0       TdVmCall                   00000000000003b0     BaseLib:TdVmcall.obj
 0001:00000170       TdCall                     0000000000000430     BaseLib:TdCall.obj
 0001:000001c8       _ModuleEntryPoint          0000000000000488 f   UefiDriverEntryPoint:DriverEntryPoint.obj
 0001:000001e4       ProcessLibraryConstructorList 00000000000004a4 f   UdfDxe:AutoGen.obj
 0001:0000040c       ProcessModuleEntryPointList 00000000000006cc f   UdfDxe:AutoGen.obj
 0001:000004e4       UdfDriverBindingSupported  00000000000007a4 f   UdfDxe:Udf.obj
 0001:0000057c       UdfDriverBindingStart      000000000000083c f   UdfDxe:Udf.obj
 0001:00000860       UdfDriverBindingStop       0000000000000b20 f   UdfDxe:Udf.obj
 0001:00000968       UdfComponentNameGetDriverName 0000000000000c28 f   UdfDxe:ComponentName.obj
 0001:00000a68       UdfWrite                   0000000000000d28 f   UdfDxe:File.obj
 0001:00000a68       UdfComponentNameGetControllerName 0000000000000d28 f   UdfDxe:ComponentName.obj
 0001:00000a74       UdfOpenVolume              0000000000000d34 f   UdfDxe:File.obj
 0001:00000c68       UdfOpen                    0000000000000f28 f   UdfDxe:File.obj
 0001:00000f7c       UdfRead                    000000000000123c f   UdfDxe:File.obj
 0001:00001414       UdfClose                   00000000000016d4 f   UdfDxe:File.obj
 0001:000014b8       UdfDelete                  0000000000001778 f   UdfDxe:File.obj
 0001:0000150c       UdfGetPosition             00000000000017cc f   UdfDxe:File.obj
 0001:00001588       UdfSetPosition             0000000000001848 f   UdfDxe:File.obj
 0001:00001664       UdfGetInfo                 0000000000001924 f   UdfDxe:File.obj
 0001:000018a8       UdfSetInfo                 0000000000001b68 f   UdfDxe:File.obj
 0001:000018a8       UdfFlush                   0000000000001b68 f   UdfDxe:File.obj
 0001:000018b4       StartMainVolumeDescriptorSequence 0000000000001b74 f   UdfDxe:FileSystemOperations.obj
 0001:000019d4       GetPdFromLongAd            0000000000001c94 f   UdfDxe:FileSystemOperations.obj
 0001:00001a28       GetLongAdLsn               0000000000001ce8 f   UdfDxe:FileSystemOperations.obj
 0001:00001a7c       GetAllocationDescriptorLsn 0000000000001d3c f   UdfDxe:FileSystemOperations.obj
 0001:00001af4       GetAedAdsData              0000000000001db4 f   UdfDxe:FileSystemOperations.obj
 0001:00001c2c       ReadFile                   0000000000001eec f   UdfDxe:FileSystemOperations.obj
 0001:00002170       InternalFindFile           0000000000002430 f   UdfDxe:FileSystemOperations.obj
 0001:00002434       ReadUdfVolumeInformation   00000000000026f4 f   UdfDxe:FileSystemOperations.obj
 0001:00002560       FindFileEntry              0000000000002820 f   UdfDxe:FileSystemOperations.obj
 0001:0000264c       FindFile                   000000000000290c f   UdfDxe:FileSystemOperations.obj
 0001:00002880       ReadDirectoryEntry         0000000000002b40 f   UdfDxe:FileSystemOperations.obj
 0001:0000295c       GetFileNameFromFid         0000000000002c1c f   UdfDxe:FileSystemOperations.obj
 0001:00002a20       ResolveSymlink             0000000000002ce0 f   UdfDxe:FileSystemOperations.obj
 0001:00002d7c       CleanupFileInformation     000000000000303c f   UdfDxe:FileSystemOperations.obj
 0001:00002db4       SetFileInfo                0000000000003074 f   UdfDxe:FileSystemOperations.obj
 0001:00002fc8       GetVolumeLabel             0000000000003288 f   UdfDxe:FileSystemOperations.obj
 0001:000030a0       GetVolumeSize              0000000000003360 f   UdfDxe:FileSystemOperations.obj
 0001:00003200       ReplaceLeft                00000000000034c0 f   UdfDxe:FileName.obj
 0001:00003240       ExcludeTrailingBackslashes 0000000000003500 f   UdfDxe:FileName.obj
 0001:00003290       MangleFileName             0000000000003550 f   UdfDxe:FileName.obj
 0001:000034a4       StrnLenS                   0000000000003764 f   BaseLib:SafeString.obj
 0001:0000350c       StrCpyS                    00000000000037cc f   BaseLib:SafeString.obj
 0001:000036b0       StrCatS                    0000000000003970 f   BaseLib:SafeString.obj
 0001:00003860       StrLen                     0000000000003b20 f   BaseLib:String.obj
 0001:000038e8       StrCmp                     0000000000003ba8 f   BaseLib:String.obj
 0001:00003990       StrStr                     0000000000003c50 f   BaseLib:String.obj
 0001:00003a5c       AsciiStrLen                0000000000003d1c f   BaseLib:String.obj
 0001:00003ac8       AsciiStrnCmp               0000000000003d88 f   BaseLib:String.obj
 0001:00003b94       DivU64x32                  0000000000003e54 f   BaseLib:DivU64x32.obj
 0001:00003bd4       CopyMem                    0000000000003e94 f   BaseMemoryLibRepStr:CopyMemWrapper.obj
 0001:00003c70       ZeroMem                    0000000000003f30 f   BaseMemoryLibRepStr:ZeroMemWrapper.obj
 0001:00003ce0       CompareGuid                0000000000003fa0 f   BaseMemoryLibRepStr:MemLibGuid.obj
 0001:00003da4       CompareMem                 0000000000004064 f   BaseMemoryLibRepStr:CompareMemWrapper.obj
 0001:00003e7c       DebugPrint                 000000000000413c f   BaseDebugLibSerialPort:DebugLib.obj
 0001:00003ea0       DebugPrintMarker           0000000000004160 f   BaseDebugLibSerialPort:DebugLib.obj
 0001:00003f2c       DebugAssert                00000000000041ec f   BaseDebugLibSerialPort:DebugLib.obj
 0001:00003fa8       InternalAllocatePool       0000000000004268 f   UefiMemoryAllocationLib:MemoryAllocationLib.obj
 0001:00003fd8       InternalAllocateCopyPool   0000000000004298 f   UefiMemoryAllocationLib:MemoryAllocationLib.obj
 0001:00004050       InternalReallocatePool     0000000000004310 f   UefiMemoryAllocationLib:MemoryAllocationLib.obj
 0001:000040cc       FreePool                   000000000000438c f   UefiMemoryAllocationLib:MemoryAllocationLib.obj
 0001:00004110       NextDevicePathNode         00000000000043d0 f   UefiDevicePathLibDevicePathProtocol:UefiDevicePathLib.obj
 0001:00004180       IsLanguageSupported        0000000000004440 f   UefiLib:UefiLib.obj
 0001:00004208       AsciiSPrint                00000000000044c8 f   BasePrintLib:PrintLib.obj
 0001:00004234       BasePrintLibFillBuffer     00000000000044f4 f   BasePrintLib:PrintLibInternal.obj
 0001:00004268       BasePrintLibValueToString  0000000000004528 f   BasePrintLib:PrintLibInternal.obj
 0001:000042d4       BasePrintLibSPrintMarker   0000000000004594 f   BasePrintLib:PrintLibInternal.obj
 0001:000051ec       BasePrintLibSPrint         00000000000054ac f   BasePrintLib:PrintLibInternal.obj
 0001:00005210       SerialPortWrite            00000000000054d0 f   PcAtSerialPortLib:SerialPortLib.obj
 0001:00005294       IsTdxGuest                 0000000000005554 f   BaseIoLibIntrinsicSev:IoLibInternalTdx.obj
 0001:000052c0       TdIoRead8                  0000000000005580 f   BaseIoLibIntrinsicSev:IoLibInternalTdx.obj
 0001:00005318       TdIoWrite8                 00000000000055d8 f   BaseIoLibIntrinsicSev:IoLibInternalTdx.obj
 0002:00000000       ??_C@_0CB@DMEJJJHA@?6ASSERT_EFI_ERROR?5?$CIStatus?5?$DN?5?$CFr?$CJ@ 0000000000005640     UefiDriverEntryPoint:DriverEntryPoint.obj
 0002:00000028       ??_C@_0CH@BBNBJKHK@?$CB?$CI?$CI?$CIINTN?$CJ?$CIRETURN_STATUS?$CJ?$CIStatus@ 0000000000005668     UefiDriverEntryPoint:DriverEntryPoint.obj
 0002:00000050       ??_C@_06MAHHEAFA@UdfDxe@   0000000000005690     UdfDxe:AutoGen.obj
 0002:00000060       ??_C@_0IB@IPCEHELJ@d?3?2uefi_specs_personal_collecti@ 00000000000056a0     UdfDxe:AutoGen.obj
 0002:000000f0       ??_C@_0FB@POADNPDI@D?3?2uefi_specs_personal_collecti@ 0000000000005730     UdfDxe:Udf.obj
 0002:00000148       ??_C@_0BF@NDBIKIKC@CR?5has?5Bad?5Signature@ 0000000000005788     UdfDxe:Udf.obj
 0002:00000160       ??_C@_03LKLGDMJI@eng@      00000000000057a0     UdfDxe:ComponentName.obj
 0002:00000164       ??_C@_02LFNMGJAP@en@       00000000000057a4     UdfDxe:ComponentName.obj
 0002:00000168       ??_C@_06DALJLGPG@eng?$DLen@ 00000000000057a8     UdfDxe:ComponentName.obj
 0002:00000170       ??_C@_1CO@GFGCGOCP@?$AAU?$AAD?$AAF?$AA?5?$AAF?$AAi?$AAl?$AAe?$AA?5?$AAS?$AAy?$AAs?$AAt?$AAe?$AAm@ 00000000000057b0     UdfDxe:ComponentName.obj
 0002:000001a0       ??_C@_0FC@PCGDMPKG@D?3?2uefi_specs_personal_collecti@ 00000000000057e0     UdfDxe:File.obj
 0002:000001f4       ??_C@_13FPGAJAPJ@?$AA?2@   0000000000005834     UdfDxe:File.obj
 0002:000001f8       ??_C@_07CCLBHJGD@UdfOpen@  0000000000005838     UdfDxe:File.obj
 0002:00000200       ??_C@_0CL@OAAGIGBM@?$CFa?3?5GetFileSize?$CI?$CJ?5fails?5with?5st@ 0000000000005840     UdfDxe:File.obj
 0002:00000230       ??_C@_0CG@HMNHKPPK@NewFileIdentifierDesc?5?$CB?$DN?5?$CI?$CIvoid@ 0000000000005870     UdfDxe:File.obj
 0002:00000258       ??_C@_0CB@EIGJDHJA@NewFileEntryData?5?$CB?$DN?5?$CI?$CIvoid?5?$CK?$CJ?50@ 0000000000005898     UdfDxe:File.obj
 0002:00000280       ??_C@_0BC@FEDIJHFF@?$CI?$CIBOOLEAN?$CJ?$CI0?$DN?$DN1?$CJ?$CJ@ 00000000000058c0     UdfDxe:File.obj
 0002:00000298       ??_C@_0CD@JEIBNEAA@FileIdentifierDesc?5?$CB?$DN?5?$CI?$CIvoid?5?$CK?$CJ@ 00000000000058d8     UdfDxe:File.obj
 0002:000002c0       ??_C@_0N@JGOOACLP@GetLongAdLsn@ 0000000000005900     UdfDxe:FileSystemOperations.obj
 0002:000002d0       ??_C@_0FF@MODNPFLB@?$CFa?3?5Fail?5to?5get?5the?5Partition?5D@ 0000000000005910     UdfDxe:FileSystemOperations.obj
 0002:00000330       ??_C@_0GC@INHALGKA@D?3?2uefi_specs_personal_collecti@ 0000000000005970     UdfDxe:FileSystemOperations.obj
 0002:00000398       ??_C@_0BF@OBJIPFIC@Data?5?$CB?$DN?5?$CI?$CIvoid?5?$CK?$CJ?50?$CJ@ 00000000000059d8     UdfDxe:FileSystemOperations.obj
 0002:000003b0       ??_C@_13JOFGPIOO@?$AA?4@   00000000000059f0     UdfDxe:FileSystemOperations.obj
 0002:000003b4       ??_C@_15DDHGOCBH@?$AA?4?$AA?4@ 00000000000059f4     UdfDxe:FileSystemOperations.obj
 0002:000003c0       ??_C@_0CC@GFNLNIOC@?$CI?$CIUINTN?$CJString?5?$CG?50x00000001?$CJ?5?$DN?$DN@ 0000000000005a00     BaseLib:SafeString.obj
 0002:000003f0       ??_C@_0EM@OAPOMMAE@D?3?2uefi_specs_personal_collecti@ 0000000000005a30     BaseLib:SafeString.obj
 0002:00000440       ??_C@_0CH@LALFPBMC@?$CI?$CIUINTN?$CJDestination?5?$CG?50x0000000@ 0000000000005a80     BaseLib:SafeString.obj
 0002:00000468       ??_C@_0CC@HEBCMBPF@?$CI?$CIUINTN?$CJSource?5?$CG?50x00000001?$CJ?5?$DN?$DN@ 0000000000005aa8     BaseLib:SafeString.obj
 0002:00000490       ??_C@_0BO@ECNIOIHG@?$CIDestination?5?$CB?$DN?5?$CI?$CIvoid?5?$CK?$CJ?50?$CJ?$CJ@ 0000000000005ad0     BaseLib:SafeString.obj
 0002:000004b0       ??_C@_07KBGDFDAM@StrCpyS@  0000000000005af0     BaseLib:SafeString.obj
 0002:000004c0       ??_C@_0EA@PDPDJJNN@?$CFa?$CI?$CFd?$CJ?5?$CFa?3?5SAFE_STRING_CONSTRAI@ 0000000000005b00     BaseLib:SafeString.obj
 0002:00000500       ??_C@_0BJ@EAEEJIP@?$CISource?5?$CB?$DN?5?$CI?$CIvoid?5?$CK?$CJ?50?$CJ?$CJ@ 0000000000005b40     BaseLib:SafeString.obj
 0002:00000520       ??_C@_0EA@BBALOHPI@?$CIDestMax?5?$DM?$DN?5?$CI_gPcd_FixedAtBuild@ 0000000000005b60     BaseLib:SafeString.obj
 0002:00000560       ??_C@_0P@PMIMLIHM@?$CIDestMax?5?$CB?$DN?50?$CJ@ 0000000000005ba0     BaseLib:SafeString.obj
 0002:00000570       ??_C@_0BG@EEGIIOKH@?$CIDestMax?5?$DO?5SourceLen?$CJ@ 0000000000005bb0     BaseLib:SafeString.obj
 0002:00000590       ??_C@_0FH@PPBLBDBJ@InternalSafeStringNoStrOverlap?5@ 0000000000005bd0     BaseLib:SafeString.obj
 0002:000005e8       ??_C@_07EBBOPAKF@StrCatS@  0000000000005c28     BaseLib:SafeString.obj
 0002:000005f0       ??_C@_0P@BHOOOJPD@?$CICopyLen?5?$CB?$DN?50?$CJ@ 0000000000005c30     BaseLib:SafeString.obj
 0002:00000600       ??_C@_0BG@BPGICNPK@?$CICopyLen?5?$DO?5SourceLen?$CJ@ 0000000000005c40     BaseLib:SafeString.obj
 0002:00000618       ??_C@_0BJ@CNKJJNE@?$CIBuffer?5?$CB?$DN?5?$CI?$CIvoid?5?$CK?$CJ?50?$CJ?$CJ@ 0000000000005c58     BaseLib:SafeString.obj
 0002:00000638       ??_C@_0BH@MAAHKCPC@String?5?$CB?$DN?5?$CI?$CIvoid?5?$CK?$CJ?50?$CJ@ 0000000000005c78     BaseLib:String.obj
 0002:00000650       ??_C@_0EI@LOLLHGDK@D?3?2uefi_specs_personal_collecti@ 0000000000005c90     BaseLib:String.obj
 0002:00000698       ??_C@_0DK@EOJCOAME@Length?5?$DM?5_gPcd_FixedAtBuild_Pcd@ 0000000000005cd8     BaseLib:String.obj
 0002:000006d8       ??_C@_0BL@JAAMOCAJ@StrSize?5?$CIFirstString?$CJ?5?$CB?$DN?50@ 0000000000005d18     BaseLib:String.obj
 0002:000006f8       ??_C@_0BM@DALBOILC@StrSize?5?$CISecondString?$CJ?5?$CB?$DN?50@ 0000000000005d38     BaseLib:String.obj
 0002:00000718       ??_C@_0BG@KBNOLIGE@StrSize?5?$CIString?$CJ?5?$CB?$DN?50@ 0000000000005d58     BaseLib:String.obj
 0002:00000730       ??_C@_0BM@NNBLOHJD@StrSize?5?$CISearchString?$CJ?5?$CB?$DN?50@ 0000000000005d70     BaseLib:String.obj
 0002:00000750       ??_C@_0DI@MDIKFADO@Length?5?$DM?5_gPcd_FixedAtBuild_Pcd@ 0000000000005d90     BaseLib:String.obj
 0002:00000788       ??_C@_0BL@IKFBNFIL@AsciiStrSize?5?$CIFirstString?$CJ@ 0000000000005dc8     BaseLib:String.obj
 0002:000007a8       ??_C@_0BM@EDNOKLLE@AsciiStrSize?5?$CISecondString?$CJ@ 0000000000005de8     BaseLib:String.obj
 0002:000007c8       ??_C@_0DJ@JJHGIFMP@Length?5?$DM?$DN?5_gPcd_FixedAtBuild_Pc@ 0000000000005e08     BaseLib:String.obj
 0002:00000808       ??_C@_0N@KGHEHMDL@Divisor?5?$CB?$DN?50@ 0000000000005e48     BaseLib:DivU64x32.obj
 0002:00000820       ??_C@_0EL@IADNJGFD@D?3?2uefi_specs_personal_collecti@ 0000000000005e60     BaseLib:DivU64x32.obj
 0002:00000870       ??_C@_0ED@MKGCMJG@?$CILength?5?9?51?$CJ?5?$DM?$DN?5?$CI0xFFFFFFFFFFFF@ 0000000000005eb0     BaseMemoryLibRepStr:CopyMemWrapper.obj
 0002:000008c0       ??_C@_0FM@IDPIEKJH@D?3?2uefi_specs_personal_collecti@ 0000000000005f00     BaseMemoryLibRepStr:CopyMemWrapper.obj
 0002:00000920       ??_C@_0DO@MAOBOFEG@?$CILength?5?9?51?$CJ?5?$DM?$DN?5?$CI0xFFFFFFFFFFFF@ 0000000000005f60     BaseMemoryLibRepStr:CopyMemWrapper.obj
 0002:00000960       ??_C@_0BH@IACGKAP@Buffer?5?$CB?$DN?5?$CI?$CIvoid?5?$CK?$CJ?50?$CJ@ 0000000000005fa0     BaseMemoryLibRepStr:ZeroMemWrapper.obj
 0002:00000980       ??_C@_0FM@DHFKCLFA@D?3?2uefi_specs_personal_collecti@ 0000000000005fc0     BaseMemoryLibRepStr:ZeroMemWrapper.obj
 0002:000009e0       ??_C@_0DG@EEENIGGL@Length?5?$DM?$DN?5?$CI0xFFFFFFFFFFFFFFFFUL@ 0000000000006020     BaseMemoryLibRepStr:ZeroMemWrapper.obj
 0002:00000a18       ??_C@_0CC@JOEHDGKB@DestinationBuffer?5?$CB?$DN?5?$CI?$CIvoid?5?$CK?$CJ?5@ 0000000000006058     BaseMemoryLibRepStr:CompareMemWrapper.obj
 0002:00000a40       ??_C@_0FP@MJKEJMKF@D?3?2uefi_specs_personal_collecti@ 0000000000006080     BaseMemoryLibRepStr:CompareMemWrapper.obj
 0002:00000aa0       ??_C@_0BN@MDMCNBCC@SourceBuffer?5?$CB?$DN?5?$CI?$CIvoid?5?$CK?$CJ?50?$CJ@ 00000000000060e0     BaseMemoryLibRepStr:CompareMemWrapper.obj
 0002:00000ac0       ??_C@_0BH@LKMBFCBF@Format?5?$CB?$DN?5?$CI?$CIvoid?5?$CK?$CJ?50?$CJ@ 0000000000006100     BaseDebugLibSerialPort:DebugLib.obj
 0002:00000ae0       ??_C@_0FJ@BNNHJMAJ@D?3?2uefi_specs_personal_collecti@ 0000000000006120     BaseDebugLibSerialPort:DebugLib.obj
 0002:00000b40       ??_C@_0BI@NOCKJDBJ@ASSERT?5?$FL?$CFa?$FN?5?$CFa?$CI?$CFd?$CJ?3?5?$CFa?6@ 0000000000006180     BaseDebugLibSerialPort:DebugLib.obj
 0002:00000b58       ??_C@_0BN@COECPDCC@gImageHandle?5?$CB?$DN?5?$CI?$CIvoid?5?$CK?$CJ?50?$CJ@ 0000000000006198     UefiBootServicesTableLib:UefiBootServicesTableLib.obj
 0002:00000b80       ??_C@_0GL@PJCPJLGM@D?3?2uefi_specs_personal_collecti@ 00000000000061c0     UefiBootServicesTableLib:UefiBootServicesTableLib.obj
 0002:00000bf0       ??_C@_0BE@DGNHAHIL@gST?5?$CB?$DN?5?$CI?$CIvoid?5?$CK?$CJ?50?$CJ@ 0000000000006230     UefiBootServicesTableLib:UefiBootServicesTableLib.obj
 0002:00000c08       ??_C@_0BE@BDFJLGLN@gBS?5?$CB?$DN?5?$CI?$CIvoid?5?$CK?$CJ?50?$CJ@ 0000000000006248     UefiBootServicesTableLib:UefiBootServicesTableLib.obj
 0002:00000c20       ??_C@_0GF@KMHDEKMA@D?3?2uefi_specs_personal_collecti@ 0000000000006260     UefiMemoryAllocationLib:MemoryAllocationLib.obj
 0002:00000c88       ??_C@_0DO@GEEICOOO@AllocationSize?5?$DM?$DN?5?$CI0xFFFFFFFFFF@ 00000000000062c8     UefiMemoryAllocationLib:MemoryAllocationLib.obj
 0002:00000cc8       ??_C@_0BE@OBDFIHND@gRT?5?$CB?$DN?5?$CI?$CIvoid?5?$CK?$CJ?50?$CJ@ 0000000000006308     UefiRuntimeServicesTableLib:UefiRuntimeServicesTableLib.obj
 0002:00000ce0       ??_C@_0HB@NCAPNEDO@D?3?2uefi_specs_personal_collecti@ 0000000000006320     UefiRuntimeServicesTableLib:UefiRuntimeServicesTableLib.obj
 0002:00000d60       ??_C@_0GP@HEOOPGAM@D?3?2uefi_specs_personal_collecti@ 00000000000063a0     UefiDevicePathLibDevicePathProtocol:UefiDevicePathLib.obj
 0002:00000dd0       ??_C@_0DC@CNNBPJA@mDevicePathLibDevicePathUtiliti@ 0000000000006410     UefiDevicePathLibDevicePathProtocol:UefiDevicePathLib.obj
 0002:00000e08       ??_C@_0BF@CBLMFKOC@Node?5?$CB?$DN?5?$CI?$CIvoid?5?$CK?$CJ?50?$CJ@ 0000000000006448     UefiDevicePathLibDevicePathProtocol:UefiDevicePathLib.obj
 0002:00000e20       ??_C@_0FB@KFBGMLJM@D?3?2uefi_specs_personal_collecti@ 0000000000006460     UefiLib:UefiDriverModel.obj
 0002:00000e80       ??_C@_0EL@GLNKFHII@D?3?2uefi_specs_personal_collecti@ 00000000000064c0     BaseLib:Unaligned.obj
 0002:00000ed0       ??_C@_0FH@MODEAFEI@D?3?2uefi_specs_personal_collecti@ 0000000000006510     BasePrintLib:PrintLibInternal.obj
 0002:00000f30       ??_C@_0EB@HDGIDCIO@?$CIBufferSize?5?$DM?$DN?5?$CI_gPcd_FixedAtBu@ 0000000000006570     BasePrintLib:PrintLibInternal.obj
 0002:00000f78       ??_C@_0BJ@PPAKKDJG@?$CIFormat?5?$CB?$DN?5?$CI?$CIvoid?5?$CK?$CJ?50?$CJ?$CJ@ 00000000000065b8     BasePrintLib:PrintLibInternal.obj
 0002:00000fa0       ??_C@_0ED@LPDDCECB@?$CIBufferSize?5?$DM?$DN?5?$CI_gPcd_FixedAtBu@ 00000000000065e0     BasePrintLib:PrintLibInternal.obj
 0002:00000ff0       ??_C@_0IM@BFJJFLGB@?$CIStrnLenS?5?$CI?$CICHAR16?5?$CK?$CJFormat?0?5?$CI_@ 0000000000006630     BasePrintLib:PrintLibInternal.obj
 0002:00001080       ??_C@_0ID@PLGJGION@?$CIAsciiStrnLenS?5?$CIFormat?0?5?$CI_gPcd_@ 00000000000066c0     BasePrintLib:PrintLibInternal.obj
 0002:00001108       ??_C@_0O@MLOLIMFM@?$DMnull?5string?$DO@ 0000000000006748     BasePrintLib:PrintLibInternal.obj
 0002:00001118       ??_C@_0M@BJJDNPHK@?$DMnull?5guid?$DO@ 0000000000006758     BasePrintLib:PrintLibInternal.obj
 0002:00001128       ??_C@_0DB@PMLHLBMO@?$CF08x?9?$CF04x?9?$CF04x?9?$CF02x?$CF02x?9?$CF02x?$CF02@ 0000000000006768     BasePrintLib:PrintLibInternal.obj
 0002:00001160       ??_C@_0M@LHGBCIKM@?$DMnull?5time?$DO@ 00000000000067a0     BasePrintLib:PrintLibInternal.obj
 0002:00001170       ??_C@_0BK@FCPKCIDD@?$CF02d?1?$CF02d?1?$CF04d?5?5?$CF02d?3?$CF02d@ 00000000000067b0     BasePrintLib:PrintLibInternal.obj
 0002:0000118c       ??_C@_04JIMNDDED@?$CF08X@  00000000000067cc     BasePrintLib:PrintLibInternal.obj
 0002:00001194       ??_C@_02PCIJFNDE@?$AN?6@   00000000000067d4     BasePrintLib:PrintLibInternal.obj
 0002:00001198       ??_C@_01LIIJDEN@?$AN@      00000000000067d8     BasePrintLib:PrintLibInternal.obj
 0002:000011a0       mWarningString             00000000000067e0     BasePrintLib:PrintLibInternal.obj
 0002:00001270       mErrorString               00000000000068b0     BasePrintLib:PrintLibInternal.obj
 0002:00001550       mHexStr                    0000000000006b90     BasePrintLib:PrintLibInternal.obj
 0002:00001560       ??_C@_0FE@LIGPAOFO@D?3?2uefi_specs_personal_collecti@ 0000000000006ba0     BaseLib:DivU64x32Remainder.obj
 0002:00001608       __volatile_metadata        0000000000006c48     <linker-defined>
 0003:00000000       gEfiComponentName2ProtocolGuid 0000000000006de0     UdfDxe:AutoGen.obj
 0003:00000010       gEfiFileSystemInfoGuid     0000000000006df0     UdfDxe:AutoGen.obj
 0003:00000020       gEfiDiskIoProtocolGuid     0000000000006e00     UdfDxe:AutoGen.obj
 0003:00000030       gEfiFileInfoGuid           0000000000006e10     UdfDxe:AutoGen.obj
 0003:00000040       gEfiDevicePathProtocolGuid 0000000000006e20     UdfDxe:AutoGen.obj
 0003:00000050       gEfiDevicePathUtilitiesProtocolGuid 0000000000006e30     UdfDxe:AutoGen.obj
 0003:00000060       gEfiSimpleFileSystemProtocolGuid 0000000000006e40     UdfDxe:AutoGen.obj
 0003:00000070       gEfiFileSystemVolumeLabelInfoIdGuid 0000000000006e50     UdfDxe:AutoGen.obj
 0003:00000080       gEfiDriverBindingProtocolGuid 0000000000006e60     UdfDxe:AutoGen.obj
 0003:00000090       gEfiComponentNameProtocolGuid 0000000000006e70     UdfDxe:AutoGen.obj
 0003:000000a0       gEfiBlockIoProtocolGuid    0000000000006e80     UdfDxe:AutoGen.obj
 0003:000000b0       gUdfSimpleFsTemplate       0000000000006e90     UdfDxe:Udf.obj
 0003:000000c0       gUdfDriverBinding          0000000000006ea0     UdfDxe:Udf.obj
 0003:000000f0       gUdfComponentName          0000000000006ed0     UdfDxe:ComponentName.obj
 0003:00000108       gUdfComponentName2         0000000000006ee8     UdfDxe:ComponentName.obj
 0003:00000120       mUdfDriverNameTable        0000000000006f00     UdfDxe:ComponentName.obj
 0003:00000140       gUdfFileIoOps              0000000000006f20     UdfDxe:File.obj
 0003:000001b8       gUdfDevPathGuid            0000000000006f98     UdfDxe:FileSystemOperations.obj
 0003:000001d0       gST                        0000000000006fb0     UefiBootServicesTableLib:UefiBootServicesTableLib.obj
 0003:000001d8       gBS                        0000000000006fb8     UefiBootServicesTableLib:UefiBootServicesTableLib.obj
 0003:000001e0       gImageHandle               0000000000006fc0     UefiBootServicesTableLib:UefiBootServicesTableLib.obj
 0003:000001e8       gRT                        0000000000006fc8     UefiRuntimeServicesTableLib:UefiRuntimeServicesTableLib.obj
 0003:000001f0       mDevicePathLibDevicePathUtilities 0000000000006fd0     UefiDevicePathLibDevicePathProtocol:UefiDevicePathLib.obj
 0003:00000200       gParity                    0000000000006fe0     PcAtSerialPortLib:SerialPortLib.obj
 0003:00000201       gBreakSet                  0000000000006fe1     PcAtSerialPortLib:SerialPortLib.obj

 entry point at        0001:000001c8

 Static symbols

 0001:0000001a       InternalMemCopyMem.0       00000000000002da     BaseMemoryLibRepStr:CopyMem.obj
 0001:0000002a       @CopyBackward              00000000000002ea     BaseMemoryLibRepStr:CopyMem.obj
 0001:00000033       @CopyBytes                 00000000000002f3     BaseMemoryLibRepStr:CopyMem.obj
 0001:00000149       TdVmCall.no_return_data    0000000000000409     BaseLib:TdVmcall.obj
 0001:000001bb       TdCall.exit                000000000000047b     BaseLib:TdCall.obj
 0003:000001c8       mCcProbeGuestType          0000000000006fa8     DxeCcProbeLib:DxeCcProbeLib.obj
 0003:000001c9       mCcProbed                  0000000000006fa9     DxeCcProbeLib:DxeCcProbeLib.obj
 0003:000001f8       mDeadLoopComparator        0000000000006fd8     BaseLib:CpuDeadLoop.obj
 0005:00000000       $unwind$UdfDelete          0000000000007300     UdfDxe:File.obj
 0005:00000000       $unwind$ExcludeTrailingBackslashes 0000000000007300     UdfDxe:FileName.obj
 0005:00000000       $unwind$CleanupFileInformation 0000000000007300     UdfDxe:FileSystemOperations.obj
 0005:00000000       $unwind$_ModuleEntryPoint  0000000000007300     UefiDriverEntryPoint:DriverEntryPoint.obj
 0005:00000008       $unwind$ProcessLibraryConstructorList 0000000000007308     UdfDxe:AutoGen.obj
 0005:00000008       $unwind$UdfClose           0000000000007308     UdfDxe:File.obj
 0005:00000008       $unwind$AsciiStrnCmp       0000000000007308     BaseLib:String.obj
 0005:00000008       $unwind$StrCmp             0000000000007308     BaseLib:String.obj
 0005:00000008       $unwind$StrLen             0000000000007308     BaseLib:String.obj
 0005:00000008       $unwind$BasePrintLibValueToString 0000000000007308     BasePrintLib:PrintLibInternal.obj
 0005:00000008       $unwind$IsLanguageSupported 0000000000007308     UefiLib:UefiLib.obj
 0005:00000008       $unwind$SerialPortWrite    0000000000007308     PcAtSerialPortLib:SerialPortLib.obj
 0005:00000018       $unwind$ProcessModuleEntryPointList 0000000000007318     UdfDxe:AutoGen.obj
 0005:00000024       $unwind$UdfDriverBindingSupported 0000000000007324     UdfDxe:Udf.obj
 0005:00000030       $unwind$UdfDriverBindingStart 0000000000007330     UdfDxe:Udf.obj
 0005:00000048       $unwind$UdfDriverBindingStop 0000000000007348     UdfDxe:Udf.obj
 0005:0000005c       $unwind$UdfComponentNameGetDriverName 000000000000735c     UdfDxe:ComponentName.obj
 0005:0000005c       $unwind$MangleFileName     000000000000735c     UdfDxe:FileName.obj
 0005:00000074       $unwind$UdfOpenVolume      0000000000007374     UdfDxe:File.obj
 0005:00000090       $unwind$UdfOpen            0000000000007390     UdfDxe:File.obj
 0005:000000b0       $unwind$UdfRead            00000000000073b0     UdfDxe:File.obj
 0005:000000cc       $unwind$UdfGetPosition     00000000000073cc     UdfDxe:File.obj
 0005:000000cc       $unwind$ReplaceLeft        00000000000073cc     UdfDxe:FileName.obj
 0005:000000cc       $unwind$DivU64x32          00000000000073cc     BaseLib:DivU64x32.obj
 0005:000000cc       $unwind$StrnLenS           00000000000073cc     BaseLib:SafeString.obj
 0005:000000cc       $unwind$AsciiStrLen        00000000000073cc     BaseLib:String.obj
 0005:000000cc       $unwind$StrStr             00000000000073cc     BaseLib:String.obj
 0005:000000cc       $unwind$ZeroMem            00000000000073cc     BaseMemoryLibRepStr:ZeroMemWrapper.obj
 0005:000000cc       $unwind$NextDevicePathNode 00000000000073cc     UefiDevicePathLibDevicePathProtocol:UefiDevicePathLib.obj
 0005:000000cc       $unwind$InternalAllocateCopyPool 00000000000073cc     UefiMemoryAllocationLib:MemoryAllocationLib.obj
 0005:000000d8       $unwind$UdfSetPosition     00000000000073d8     UdfDxe:File.obj
 0005:000000d8       $unwind$CompareMem         00000000000073d8     BaseMemoryLibRepStr:CompareMemWrapper.obj
 0005:000000d8       $unwind$CopyMem            00000000000073d8     BaseMemoryLibRepStr:CopyMemWrapper.obj
 0005:000000d8       $unwind$InternalReallocatePool 00000000000073d8     UefiMemoryAllocationLib:MemoryAllocationLib.obj
 0005:000000ec       $unwind$UdfGetInfo         00000000000073ec     UdfDxe:File.obj
 0005:00000108       $unwind$StartMainVolumeDescriptorSequence 0000000000007408     UdfDxe:FileSystemOperations.obj
 0005:00000124       $unwind$GetAllocationDescriptorLsn 0000000000007424     UdfDxe:FileSystemOperations.obj
 0005:00000124       $unwind$GetLongAdLsn       0000000000007424     UdfDxe:FileSystemOperations.obj
 0005:00000124       $unwind$FreePool           0000000000007424     UefiMemoryAllocationLib:MemoryAllocationLib.obj
 0005:00000124       $unwind$InternalAllocatePool 0000000000007424     UefiMemoryAllocationLib:MemoryAllocationLib.obj
 0005:0000012c       $unwind$GetAedAdsData      000000000000742c     UdfDxe:FileSystemOperations.obj
 0005:0000012c       $unwind$StrCatS            000000000000742c     BaseLib:SafeString.obj
 0005:00000144       $unwind$ReadFile           0000000000007444     UdfDxe:FileSystemOperations.obj
 0005:0000015c       $unwind$InternalFindFile   000000000000745c     UdfDxe:FileSystemOperations.obj
 0005:00000178       $unwind$ReadUdfVolumeInformation 0000000000007478     UdfDxe:FileSystemOperations.obj
 0005:00000194       $unwind$FindFileEntry      0000000000007494     UdfDxe:FileSystemOperations.obj
 0005:00000194       $unwind$StrCpyS            0000000000007494     BaseLib:SafeString.obj
 0005:000001ac       $unwind$FindFile           00000000000074ac     UdfDxe:FileSystemOperations.obj
 0005:000001cc       $unwind$ReadDirectoryEntry 00000000000074cc     UdfDxe:FileSystemOperations.obj
 0005:000001d4       $unwind$GetFileNameFromFid 00000000000074d4     UdfDxe:FileSystemOperations.obj
 0005:000001e0       $unwind$ResolveSymlink     00000000000074e0     UdfDxe:FileSystemOperations.obj
 0005:000001f8       $unwind$SetFileInfo        00000000000074f8     UdfDxe:FileSystemOperations.obj
 0005:00000214       $unwind$GetVolumeLabel     0000000000007514     UdfDxe:FileSystemOperations.obj
 0005:00000224       $unwind$GetVolumeSize      0000000000007524     UdfDxe:FileSystemOperations.obj
 0005:0000023c       $unwind$CompareGuid        000000000000753c     BaseMemoryLibRepStr:MemLibGuid.obj
 0005:00000254       $unwind$DebugPrint         0000000000007554     BaseDebugLibSerialPort:DebugLib.obj
 0005:0000025c       $unwind$DebugPrintMarker   000000000000755c     BaseDebugLibSerialPort:DebugLib.obj
 0005:00000270       $unwind$DebugAssert        0000000000007570     BaseDebugLibSerialPort:DebugLib.obj
 0005:00000278       $unwind$AsciiSPrint        0000000000007578     BasePrintLib:PrintLib.obj
 0005:00000280       $unwind$BasePrintLibSPrintMarker 0000000000007580     BasePrintLib:PrintLibInternal.obj
 0005:0000029c       $unwind$TdIoRead8          000000000000759c     BaseIoLibIntrinsicSev:IoLibInternalTdx.obj
 0005:0000029c       $unwind$BasePrintLibSPrint 000000000000759c     BasePrintLib:PrintLibInternal.obj
 0005:000002a4       $unwind$TdIoWrite8         00000000000075a4     BaseIoLibIntrinsicSev:IoLibInternalTdx.obj
