 Shell

 Timestamp is 6725e4a5 (Sat Nov  2 16:36:53 2024)

 Preferred load address is 0000000000000000

 Start         Length     Name                   Class
 0001:00000000 000001e8H .text                   CODE
 0001:000001e8 00066664H .text$mn                CODE
 0002:00000000 0001d9a4H .rdata                  DATA
 0002:0001d9a4 0000004cH .rdata$voltmd           DATA
 0002:0001d9f0 0000014cH .rdata$zzzdbg           DATA
 0003:00000000 00060c20H .data                   DATA
 0003:00060c20 00002e48H .bss                    DATA
 0004:00000000 000026d0H .pdata                  DATA
 0005:00000000 000018a8H .xdata                  DATA

  Address         Publics by Value              Rva+Base               Lib:Object

 0000:00000000       __x64_code_ranges_to_entry_points_count 0000000000000000     <absolute>
 0000:00000000       __guard_check_icall_a64n_fptr 0000000000000000     <absolute>
 0000:00000000       __guard_longjmp_table      0000000000000000     <absolute>
 0000:00000000       __guard_fids_table         0000000000000000     <absolute>
 0000:00000000       __x64_code_ranges_to_entry_points 0000000000000000     <absolute>
 0000:00000000       __guard_fids_count         0000000000000000     <absolute>
 0000:00000000       __arm64x_redirection_metadata 0000000000000000     <absolute>
 0000:00000000       __arm64x_extra_rfe_table   0000000000000000     <absolute>
 0000:00000000       __AbsoluteZero             0000000000000000     <absolute>
 0000:00000000       __hybrid_auxiliary_iat_copy 0000000000000000     <absolute>
 0000:00000000       __guard_iat_table          0000000000000000     <absolute>
 0000:00000000       __hybrid_code_map          0000000000000000     <absolute>
 0000:00000000       __arm64x_extra_rfe_table_size 0000000000000000     <absolute>
 0000:00000000       __hybrid_auxiliary_iat     0000000000000000     <absolute>
 0000:00000000       __arm64x_redirection_metadata_count 0000000000000000     <absolute>
 0000:00000000       __enclave_config           0000000000000000     <absolute>
 0000:00000000       __guard_eh_cont_table      0000000000000000     <absolute>
 0000:00000000       __arm64x_native_entrypoint 0000000000000000     <absolute>
 0000:00000000       __guard_flags              0000000000000000     <absolute>
 0000:00000000       __guard_eh_cont_count      0000000000000000     <absolute>
 0000:00000000       __hybrid_code_map_count    0000000000000000     <absolute>
 0000:00000000       __guard_iat_count          0000000000000000     <absolute>
 0000:00000000       __dynamic_value_reloc_table 0000000000000000     <absolute>
 0000:00000000       __guard_longjmp_count      0000000000000000     <absolute>
 0000:00000000       __ImageBase                0000000000000000     <linker-defined>
 0001:00000000       InternalMemCopyMem         00000000000002c0     BaseMemoryLibRepStr:CopyMem.obj
 0001:00000040       InternalMemZeroMem         0000000000000300     BaseMemoryLibRepStr:ZeroMem.obj
 0001:00000060       InternalMemSetMem16        0000000000000320     BaseMemoryLibRepStr:SetMem16.obj
 0001:00000080       InternalMemSetMem          0000000000000340     BaseMemoryLibRepStr:SetMem.obj
 0001:000000a0       InternalMemSetMem64        0000000000000360     BaseMemoryLibRepStr:SetMem64.obj
 0001:000000c0       InternalMemSetMem32        0000000000000380     BaseMemoryLibRepStr:SetMem32.obj
 0001:000000e0       InternalMemCompareMem      00000000000003a0     BaseMemoryLibRepStr:CompareMem.obj
 0001:00000100       CpuPause                   00000000000003c0     BaseLib:CpuPause.obj
 0001:00000110       TdVmCall                   00000000000003d0     BaseLib:TdVmcall.obj
 0001:00000190       TdCall                     0000000000000450     BaseLib:TdCall.obj
 0001:000001e8       _ModuleEntryPoint          00000000000004a8 f   UefiApplicationEntryPoint:ApplicationEntryPoint.obj
 0001:00000224       ProcessLibraryConstructorList 00000000000004e4 f   Shell:AutoGen.obj
 0001:000008ac       ProcessLibraryDestructorList 0000000000000b6c f   Shell:AutoGen.obj
 0001:00000a4c       TrimSpaces                 0000000000000d0c f   Shell:Shell.obj
 0001:00000b18       FindNextInstance           0000000000000dd8 f   Shell:Shell.obj
 0001:00000b60       ContainsSplit              0000000000000e20 f   Shell:Shell.obj
 0001:00000c34       InternalEfiShellStartCtrlSMonitor 0000000000000ef4 f   Shell:Shell.obj
 0001:00000d5c       UefiMain                   000000000000101c f   Shell:Shell.obj
 0001:00001704       IsScriptOnlyCommand        00000000000019c4 f   Shell:Shell.obj
 0001:000017f4       GetDevicePathsForImageAndFile 0000000000001ab4 f   Shell:Shell.obj
 0001:00001944       ProcessCommandLine         0000000000001c04 f   Shell:Shell.obj
 0001:00001e14       DoStartupScript            00000000000020d4 f   Shell:Shell.obj
 0001:00002188       DoShellPrompt              0000000000002448 f   Shell:Shell.obj
 0001:0000230c       AddBufferToFreeList        00000000000025cc f   Shell:Shell.obj
 0001:0000234c       RestoreBufferList          000000000000260c f   Shell:Shell.obj
 0001:0000237c       AddLineToCommandHistory    000000000000263c f   Shell:Shell.obj
 0001:00002478       ShellConvertVariables      0000000000002738 f   Shell:Shell.obj
 0001:0000292c       RunSplitCommand            0000000000002bec f   Shell:Shell.obj
 0001:00002be4       ShellSubstituteAliases     0000000000002ea4 f   Shell:Shell.obj
 0001:00002dc0       GetOperationType           0000000000003080 f   Shell:Shell.obj
 0001:00002ea4       IsValidSplit               0000000000003164 f   Shell:Shell.obj
 0001:00002fe8       VerifySplit                00000000000032a8 f   Shell:Shell.obj
 0001:00003044       SetLastError               0000000000003304 f   Shell:Shell.obj
 0001:00003090       ProcessCommandLineToFinal  0000000000003350 f   Shell:Shell.obj
 0001:00003300       RunInternalCommand         00000000000035c0 f   Shell:Shell.obj
 0001:0000358c       RunCommandOrFile           000000000000384c f   Shell:Shell.obj
 0001:00003764       SetupAndRunCommandOrFile   0000000000003a24 f   Shell:Shell.obj
 0001:000039a8       RunShellCommand            0000000000003c68 f   Shell:Shell.obj
 0001:00003ce8       RunScriptFileHandle        0000000000003fa8 f   Shell:Shell.obj
 0001:00004844       RunScriptFile              0000000000004b04 f   Shell:Shell.obj
 0001:0000491c       FindFirstCharacter         0000000000004bdc f   Shell:Shell.obj
 0001:000049d0       EfiShellClose              0000000000004c90 f   Shell:ShellProtocol.obj
 0001:00004a04       EfiShellSetMap             0000000000004cc4 f   Shell:ShellProtocol.obj
 0001:00004b94       EfiShellGetDevicePathFromMap 0000000000004e54 f   Shell:ShellProtocol.obj
 0001:00004c10       EfiShellGetMapFromDevicePath 0000000000004ed0 f   Shell:ShellProtocol.obj
 0001:00004dd8       EfiShellGetFilePathFromDevicePath 0000000000005098 f   Shell:ShellProtocol.obj
 0001:00005020       EfiShellGetDevicePathFromFilePath 00000000000052e0 f   Shell:ShellProtocol.obj
 0001:00005200       EfiShellGetDeviceName      00000000000054c0 f   Shell:ShellProtocol.obj
 0001:00005630       EfiShellOpenRootByHandle   00000000000058f0 f   Shell:ShellProtocol.obj
 0001:000056f0       EfiShellOpenRoot           00000000000059b0 f   Shell:ShellProtocol.obj
 0001:00005750       EfiShellBatchIsActive      0000000000005a10 f   Shell:ShellProtocol.obj
 0001:00005764       InternalOpenFileDevicePath 0000000000005a24 f   Shell:ShellProtocol.obj
 0001:00005984       EfiShellCreateFile         0000000000005c44 f   Shell:ShellProtocol.obj
 0001:00005a40       EfiShellRegisterGuidName   0000000000005d00 f   Shell:ShellProtocol.obj
 0001:00005ac0       EfiShellOpenFileByName     0000000000005d80 f   Shell:ShellProtocol.obj
 0001:00005c60       EfiShellDeleteFileByName   0000000000005f20 f   Shell:ShellProtocol.obj
 0001:00005c9c       EfiShellDisablePageBreak   0000000000005f5c f   Shell:ShellProtocol.obj
 0001:00005ca4       EfiShellEnablePageBreak    0000000000005f64 f   Shell:ShellProtocol.obj
 0001:00005cac       InternalShellExecuteDevicePath 0000000000005f6c f   Shell:ShellProtocol.obj
 0001:00006190       EfiShellExecute            0000000000006450 f   Shell:ShellProtocol.obj
 0001:00006330       InternalFreeShellFileInfoNode 00000000000065f0 f   Shell:ShellProtocol.obj
 0001:00006388       EfiShellFreeFileList       0000000000006648 f   Shell:ShellProtocol.obj
 0001:000063f0       EfiShellRemoveDupInFileList 00000000000066b0 f   Shell:ShellProtocol.obj
 0001:000064e8       InternalDuplicateShellFileInfo 00000000000067a8 f   Shell:ShellProtocol.obj
 0001:000065e0       CreateAndPopulateShellFileInfo 00000000000068a0 f   Shell:ShellProtocol.obj
 0001:00006994       EfiShellFindFilesInDir     0000000000006c54 f   Shell:ShellProtocol.obj
 0001:00006c60       EfiShellGetGuidFromName    0000000000006f20 f   Shell:ShellProtocol.obj
 0001:00006cb4       EfiShellGetGuidName        0000000000006f74 f   Shell:ShellProtocol.obj
 0001:00006d1c       ShellSearchHandle          0000000000006fdc f   Shell:ShellProtocol.obj
 0001:000071bc       EfiShellFindFiles          000000000000747c f   Shell:ShellProtocol.obj
 0001:0000736c       EfiShellOpenFileList       000000000000762c f   Shell:ShellProtocol.obj
 0001:00007858       EfiShellGetEnvEx           0000000000007b18 f   Shell:ShellProtocol.obj
 0001:00007a74       EfiShellGetEnv             0000000000007d34 f   Shell:ShellProtocol.obj
 0001:00007a7c       InternalEfiShellSetEnv     0000000000007d3c f   Shell:ShellProtocol.obj
 0001:00007b8c       EfiShellSetEnv             0000000000007e4c f   Shell:ShellProtocol.obj
 0001:00007c8c       EfiShellGetCurDir          0000000000007f4c f   Shell:ShellProtocol.obj
 0001:00007d28       EfiShellSetCurDir          0000000000007fe8 f   Shell:ShellProtocol.obj
 0001:00008168       EfiShellGetHelpText        0000000000008428 f   Shell:ShellProtocol.obj
 0001:0000837c       EfiShellGetPageBreak       000000000000863c f   Shell:ShellProtocol.obj
 0001:00008384       EfiShellIsRootShell        0000000000008644 f   Shell:ShellProtocol.obj
 0001:0000838c       InternalEfiShellGetListAlias 000000000000864c f   Shell:ShellProtocol.obj
 0001:00008520       EfiShellGetAlias           00000000000087e0 f   Shell:ShellProtocol.obj
 0001:00008670       InternalSetAlias           0000000000008930 f   Shell:ShellProtocol.obj
 0001:00008788       EfiShellSetAlias           0000000000008a48 f   Shell:ShellProtocol.obj
 0001:00008830       CreatePopulateInstallShellProtocol 0000000000008af0 f   Shell:ShellProtocol.obj
 0001:00008a94       CleanUpShellProtocol       0000000000008d54 f   Shell:ShellProtocol.obj
 0001:00008b34       CleanUpShellEnvironment    0000000000008df4 f   Shell:ShellProtocol.obj
 0001:00008c34       NotificationFunction       0000000000008ef4 f   Shell:ShellProtocol.obj
 0001:00008ca8       InernalEfiShellStartMonitor 0000000000008f68 f   Shell:ShellProtocol.obj
 0001:00008df0       ConInWaitForKey            00000000000090b0 f   Shell:ConsoleWrappers.obj
 0001:00008dfc       FileBasedSimpleTextOutReset 00000000000090bc f   Shell:ConsoleWrappers.obj
 0001:00008dfc       FileBasedSimpleTextOutSetAttribute 00000000000090bc f   Shell:ConsoleWrappers.obj
 0001:00008dfc       FileBasedSimpleTextOutSetCursorPosition 00000000000090bc f   Shell:ConsoleWrappers.obj
 0001:00008dfc       FileInterfaceNulWrite      00000000000090bc f   Shell:FileHandleWrappers.obj
 0001:00008dfc       DevPathSerialDefault       00000000000090bc f   UefiShellCommandLib:ConsistMapping.obj
 0001:00008dfc       FileBasedSimpleTextOutTestString 00000000000090bc f   Shell:ConsoleWrappers.obj
 0001:00008dfc       FileInterfaceNopGeneric    00000000000090bc f   Shell:FileHandleWrappers.obj
 0001:00008dfc       FileBasedSimpleTextInReset 00000000000090bc f   Shell:ConsoleWrappers.obj
 0001:00008dfc       FileBasedSimpleTextOutClearScreen 00000000000090bc f   Shell:ConsoleWrappers.obj
 0001:00008dfc       FileBasedSimpleTextOutEnableCursor 00000000000090bc f   Shell:ConsoleWrappers.obj
 0001:00008e00       FileBasedSimpleTextInReadKeyStroke 00000000000090c0 f   Shell:ConsoleWrappers.obj
 0001:00008e88       CreateSimpleTextInOnFile   0000000000009148 f   Shell:ConsoleWrappers.obj
 0001:00008f80       CloseSimpleTextInOnFile    0000000000009240 f   Shell:ConsoleWrappers.obj
 0001:00008ff8       FileBasedSimpleTextOutQueryMode 00000000000092b8 f   Shell:ConsoleWrappers.obj
 0001:00009004       FileInterfaceNopSetInfo    00000000000092c4 f   Shell:FileHandleWrappers.obj
 0001:00009004       FileInterfaceStdInWrite    00000000000092c4 f   Shell:FileHandleWrappers.obj
 0001:00009004       FileInterfaceNopSetPosition 00000000000092c4 f   Shell:FileHandleWrappers.obj
 0001:00009004       FileInterfaceNopGetPosition 00000000000092c4 f   Shell:FileHandleWrappers.obj
 0001:00009004       FileInterfaceStdOutRead    00000000000092c4 f   Shell:FileHandleWrappers.obj
 0001:00009004       FileInterfaceStdErrRead    00000000000092c4 f   Shell:FileHandleWrappers.obj
 0001:00009004       FileInterfaceNopGetInfo    00000000000092c4 f   Shell:FileHandleWrappers.obj
 0001:00009004       FileBasedSimpleTextOutSetMode 00000000000092c4 f   Shell:ConsoleWrappers.obj
 0001:00009010       FileBasedSimpleTextOutOutputString 00000000000092d0 f   Shell:ConsoleWrappers.obj
 0001:00009054       CreateSimpleTextOutOnFile  0000000000009314 f   Shell:ConsoleWrappers.obj
 0001:000091cc       CloseSimpleTextOutOnFile   000000000000948c f   Shell:ConsoleWrappers.obj
 0001:00009228       IsVolatileEnv              00000000000094e8 f   Shell:ShellEnvVar.obj
 0001:00009314       FreeEnvironmentVariableList 00000000000095d4 f   Shell:ShellEnvVar.obj
 0001:000093a8       GetEnvironmentVariableList 0000000000009668 f   Shell:ShellEnvVar.obj
 0001:00009634       SetEnvironmentVariableList 00000000000098f4 f   Shell:ShellEnvVar.obj
 0001:000097ec       SetEnvironmentVariables    0000000000009aac f   Shell:ShellEnvVar.obj
 0001:000099dc       ShellFindEnvVarInList      0000000000009c9c f   Shell:ShellEnvVar.obj
 0001:00009ad0       ShellAddEnvVarToList       0000000000009d90 f   Shell:ShellEnvVar.obj
 0001:00009c10       ShellRemvoeEnvVarFromList  0000000000009ed0 f   Shell:ShellEnvVar.obj
 0001:00009ccc       FindEndOfParameter         0000000000009f8c f   Shell:ShellParametersProtocol.obj
 0001:00009d1c       GetNextParameter           0000000000009fdc f   Shell:ShellParametersProtocol.obj
 0001:00009e70       ParseCommandLineToArgs     000000000000a130 f   Shell:ShellParametersProtocol.obj
 0001:0000a0ac       CreatePopulateInstallShellParametersProtocol 000000000000a36c f   Shell:ShellParametersProtocol.obj
 0001:0000a3b8       IsUnicodeFile              000000000000a678 f   Shell:ShellParametersProtocol.obj
 0001:0000a480       FixFileName                000000000000a740 f   Shell:ShellParametersProtocol.obj
 0001:0000a4e8       FixVarName                 000000000000a7a8 f   Shell:ShellParametersProtocol.obj
 0001:0000a524       WriteFileTag               000000000000a7e4 f   Shell:ShellParametersProtocol.obj
 0001:0000a588       UpdateStdInStdOutStdErr    000000000000a848 f   Shell:ShellParametersProtocol.obj
 0001:0000b848       RestoreArgcArgv            000000000000bb08 f   Shell:ShellParametersProtocol.obj
 0001:0000b910       ConsoleLoggerInstall       000000000000bbd0 f   Shell:ConsoleLogger.obj
 0001:0000bb84       ConsoleLoggerUninstall     000000000000be44 f   Shell:ConsoleLogger.obj
 0001:0000bc54       ConsoleLoggerDisplayHistory 000000000000bf14 f   Shell:ConsoleLogger.obj
 0001:0000bd04       UpdateDisplayFromHistory   000000000000bfc4 f   Shell:ConsoleLogger.obj
 0001:0000bf54       ConsoleLoggerReset         000000000000c214 f   Shell:ConsoleLogger.obj
 0001:0000bfd8       AppendStringToHistory      000000000000c298 f   Shell:ConsoleLogger.obj
 0001:0000c2f8       ConsoleLoggerOutputStringSplit 000000000000c5b8 f   Shell:ConsoleLogger.obj
 0001:0000c330       ConsoleLoggerDoPageBreak   000000000000c5f0 f   Shell:ConsoleLogger.obj
 0001:0000c440       ConsoleLoggerPrintWithPageBreak 000000000000c700 f   Shell:ConsoleLogger.obj
 0001:0000c5b8       ConsoleLoggerOutputString  000000000000c878 f   Shell:ConsoleLogger.obj
 0001:0000c758       ConsoleLoggerTestString    000000000000ca18 f   Shell:ConsoleLogger.obj
 0001:0000c7a8       ConsoleLoggerQueryMode     000000000000ca68 f   Shell:ConsoleLogger.obj
 0001:0000c818       ConsoleLoggerSetMode       000000000000cad8 f   Shell:ConsoleLogger.obj
 0001:0000c8a0       ConsoleLoggerSetAttribute  000000000000cb60 f   Shell:ConsoleLogger.obj
 0001:0000c8fc       ConsoleLoggerClearScreen   000000000000cbbc f   Shell:ConsoleLogger.obj
 0001:0000c9f8       ConsoleLoggerSetCursorPosition 000000000000ccb8 f   Shell:ConsoleLogger.obj
 0001:0000ca88       ConsoleLoggerEnableCursor  000000000000cd48 f   Shell:ConsoleLogger.obj
 0001:0000cae4       ConsoleLoggerResetBuffers  000000000000cda4 f   Shell:ConsoleLogger.obj
 0001:0000cc04       FileInterfaceOpenNotFound  000000000000cec4 f   Shell:FileHandleWrappers.obj
 0001:0000cc10       FileInterfaceStdOutWrite   000000000000ced0 f   Shell:FileHandleWrappers.obj
 0001:0000cc4c       FileInterfaceStdErrWrite   000000000000cf0c f   Shell:FileHandleWrappers.obj
 0001:0000cc64       FileInterfaceNulRead       000000000000cf24 f   Shell:FileHandleWrappers.obj
 0001:0000cc6c       CreateTabCompletionList    000000000000cf2c f   Shell:FileHandleWrappers.obj
 0001:0000cf34       FileInterfaceStdInRead     000000000000d1f4 f   Shell:FileHandleWrappers.obj
 0001:0000d7e8       FileInterfaceEnvClose      000000000000daa8 f   Shell:FileHandleWrappers.obj
 0001:0000d96c       FileInterfaceEnvDelete     000000000000dc2c f   Shell:FileHandleWrappers.obj
 0001:0000d9a4       FileInterfaceEnvRead       000000000000dc64 f   Shell:FileHandleWrappers.obj
 0001:0000da04       FileInterfaceEnvVolWrite   000000000000dcc4 f   Shell:FileHandleWrappers.obj
 0001:0000db68       FileInterfaceEnvNonVolWrite 000000000000de28 f   Shell:FileHandleWrappers.obj
 0001:0000dccc       CreateFileInterfaceEnv     000000000000df8c f   Shell:FileHandleWrappers.obj
 0001:0000ddcc       PrintCommandHistory        000000000000e08c f   Shell:FileHandleWrappers.obj
 0001:0000dea8       FileInterfaceMemSetPosition 000000000000e168 f   Shell:FileHandleWrappers.obj
 0001:0000dec0       FileInterfaceMemGetPosition 000000000000e180 f   Shell:FileHandleWrappers.obj
 0001:0000decc       FileInterfaceMemGetInfo    000000000000e18c f   Shell:FileHandleWrappers.obj
 0001:0000df5c       FileInterfaceMemWrite      000000000000e21c f   Shell:FileHandleWrappers.obj
 0001:0000e0d4       FileInterfaceMemRead       000000000000e394 f   Shell:FileHandleWrappers.obj
 0001:0000e128       FileInterfaceMemClose      000000000000e3e8 f   Shell:FileHandleWrappers.obj
 0001:0000e154       CreateFileInterfaceMem     000000000000e414 f   Shell:FileHandleWrappers.obj
 0001:0000e290       FileInterfaceFileSetPosition 000000000000e550 f   Shell:FileHandleWrappers.obj
 0001:0000e29c       FileInterfaceFileGetPosition 000000000000e55c f   Shell:FileHandleWrappers.obj
 0001:0000e2a8       FileInterfaceFileGetInfo   000000000000e568 f   Shell:FileHandleWrappers.obj
 0001:0000e2b4       FileInterfaceFileSetInfo   000000000000e574 f   Shell:FileHandleWrappers.obj
 0001:0000e2c0       FileInterfaceFileFlush     000000000000e580 f   Shell:FileHandleWrappers.obj
 0001:0000e2cc       FileInterfaceFileRead      000000000000e58c f   Shell:FileHandleWrappers.obj
 0001:0000e3f8       FileInterfaceFileOpen      000000000000e6b8 f   Shell:FileHandleWrappers.obj
 0001:0000e404       FileInterfaceFileDelete    000000000000e6c4 f   Shell:FileHandleWrappers.obj
 0001:0000e434       FileInterfaceFileClose     000000000000e6f4 f   Shell:FileHandleWrappers.obj
 0001:0000e464       FileInterfaceFileWrite     000000000000e724 f   Shell:FileHandleWrappers.obj
 0001:0000e4f8       CreateFileInterfaceFile    000000000000e7b8 f   Shell:FileHandleWrappers.obj
 0001:0000e5b0       GetExecuatableFileName     000000000000e870 f   Shell:ShellManParser.obj
 0001:0000e790       GetManFileName             000000000000ea50 f   Shell:ShellManParser.obj
 0001:0000e878       ManFileFindSections        000000000000eb38 f   Shell:ShellManParser.obj
 0001:0000ea9c       IsTitleHeader              000000000000ed5c f   Shell:ShellManParser.obj
 0001:0000ec28       ManFileFindTitleSection    000000000000eee8 f   Shell:ShellManParser.obj
 0001:0000ed94       ProcessManFile             000000000000f054 f   Shell:ShellManParser.obj
 0001:0000f29c       CopyMem                    000000000000f55c f   BaseMemoryLibRepStr:CopyMemWrapper.obj
 0001:0000f338       CopyGuid                   000000000000f5f8 f   BaseMemoryLibRepStr:MemLibGuid.obj
 0001:0000f3e8       CompareGuid                000000000000f6a8 f   BaseMemoryLibRepStr:MemLibGuid.obj
 0001:0000f4ac       ZeroMem                    000000000000f76c f   BaseMemoryLibRepStr:ZeroMemWrapper.obj
 0001:0000f51c       SetMem16                   000000000000f7dc f   BaseMemoryLibRepStr:SetMem16Wrapper.obj
 0001:0000f5e4       SetMem                     000000000000f8a4 f   BaseMemoryLibRepStr:SetMemWrapper.obj
 0001:0000f648       StrnLenS                   000000000000f908 f   BaseLib:SafeString.obj
 0001:0000f6b0       StrCpyS                    000000000000f970 f   BaseLib:SafeString.obj
 0001:0000f854       StrnCpyS                   000000000000fb14 f   BaseLib:SafeString.obj
 0001:0000fa2c       StrCatS                    000000000000fcec f   BaseLib:SafeString.obj
 0001:0000fc14       StrnCatS                   000000000000fed4 f   BaseLib:SafeString.obj
 0001:0000fe38       StrDecimalToUintnS         00000000000100f8 f   BaseLib:SafeString.obj
 0001:0000ff98       StrHexToUintnS             0000000000010258 f   BaseLib:SafeString.obj
 0001:00010140       StrHexToUint64S            0000000000010400 f   BaseLib:SafeString.obj
 0001:000102c0       StrToIpv6Address           0000000000010580 f   BaseLib:SafeString.obj
 0001:0001055c       StrToGuid                  000000000001081c f   BaseLib:SafeString.obj
 0001:00010708       StrHexToBytes              00000000000109c8 f   BaseLib:SafeString.obj
 0001:000108a0       AsciiStrToUnicodeStrS      0000000000010b60 f   BaseLib:SafeString.obj
 0001:00010a28       StrLen                     0000000000010ce8 f   BaseLib:String.obj
 0001:00010ab0       StrCmp                     0000000000010d70 f   BaseLib:String.obj
 0001:00010b58       StrnCmp                    0000000000010e18 f   BaseLib:String.obj
 0001:00010c40       StrStr                     0000000000010f00 f   BaseLib:String.obj
 0001:00010d08       InternalHexCharToUintn     0000000000010fc8 f   BaseLib:String.obj
 0001:00010d38       AsciiStrLen                0000000000010ff8 f   BaseLib:String.obj
 0001:00010da4       AsciiStrnCmp               0000000000011064 f   BaseLib:String.obj
 0001:00010e70       InternalBaseLibIsListValid 0000000000011130 f   BaseLib:LinkedList.obj
 0001:00010edc       InitializeListHead         000000000001119c f   BaseLib:LinkedList.obj
 0001:00010f14       InsertHeadList             00000000000111d4 f   BaseLib:LinkedList.obj
 0001:00010f64       InsertTailList             0000000000011224 f   BaseLib:LinkedList.obj
 0001:00010fb8       GetFirstNode               0000000000011278 f   BaseLib:LinkedList.obj
 0001:00010fec       GetNextNode                00000000000112ac f   BaseLib:LinkedList.obj
 0001:00011020       GetPreviousNode            00000000000112e0 f   BaseLib:LinkedList.obj
 0001:00011054       IsListEmpty                0000000000011314 f   BaseLib:LinkedList.obj
 0001:0001108c       IsNull                     000000000001134c f   BaseLib:LinkedList.obj
 0001:000110d0       SwapListEntries            0000000000011390 f   BaseLib:LinkedList.obj
 0001:00011160       RemoveEntryList            0000000000011420 f   BaseLib:LinkedList.obj
 0001:000111a8       PathRemoveLastItem         0000000000011468 f   BaseLib:FilePaths.obj
 0001:00011200       PathCleanUpDirectories     00000000000114c0 f   BaseLib:FilePaths.obj
 0001:00011374       ReadUnaligned16            0000000000011634 f   BaseLib:Unaligned.obj
 0001:000113a4       ReadUnaligned64            0000000000011664 f   BaseLib:Unaligned.obj
 0001:000113d4       RShiftU64                  0000000000011694 f   BaseLib:RShiftU64.obj
 0001:00011418       UnicodeVSPrint             00000000000116d8 f   BasePrintLib:PrintLib.obj
 0001:000114ac       UnicodeSPrint              000000000001176c f   BasePrintLib:PrintLib.obj
 0001:000114cc       UnicodeValueToStringS      000000000001178c f   BasePrintLib:PrintLib.obj
 0001:00011510       AsciiSPrint                00000000000117d0 f   BasePrintLib:PrintLib.obj
 0001:0001153c       BasePrintLibFillBuffer     00000000000117fc f   BasePrintLib:PrintLibInternal.obj
 0001:00011570       BasePrintLibValueToString  0000000000011830 f   BasePrintLib:PrintLibInternal.obj
 0001:000115c0       BasePrintLibConvertValueToStringS 0000000000011880 f   BasePrintLib:PrintLibInternal.obj
 0001:00011728       BasePrintLibSPrintMarker   00000000000119e8 f   BasePrintLib:PrintLibInternal.obj
 0001:00012640       BasePrintLibSPrint         0000000000012900 f   BasePrintLib:PrintLibInternal.obj
 0001:00012664       DebugPrint                 0000000000012924 f   BaseDebugLibSerialPort:DebugLib.obj
 0001:00012688       DebugPrintMarker           0000000000012948 f   BaseDebugLibSerialPort:DebugLib.obj
 0001:00012714       DebugAssert                00000000000129d4 f   BaseDebugLibSerialPort:DebugLib.obj
 0001:00012768       InternalAllocatePool       0000000000012a28 f   UefiMemoryAllocationLib:MemoryAllocationLib.obj
 0001:00012798       AllocateZeroPool           0000000000012a58 f   UefiMemoryAllocationLib:MemoryAllocationLib.obj
 0001:000127c0       InternalAllocateCopyPool   0000000000012a80 f   UefiMemoryAllocationLib:MemoryAllocationLib.obj
 0001:00012838       InternalReallocatePool     0000000000012af8 f   UefiMemoryAllocationLib:MemoryAllocationLib.obj
 0001:000128b4       FreePool                   0000000000012b74 f   UefiMemoryAllocationLib:MemoryAllocationLib.obj
 0001:000128f8       DevicePathNodeLength       0000000000012bb8 f   UefiDevicePathLibDevicePathProtocol:UefiDevicePathLib.obj
 0001:00012940       IsDevicePathEnd            0000000000012c00 f   UefiDevicePathLibDevicePathProtocol:UefiDevicePathLib.obj
 0001:000129b8       SetDevicePathNodeLength    0000000000012c78 f   UefiDevicePathLibDevicePathProtocol:UefiDevicePathLib.obj
 0001:00012a38       DevicePathFromHandle       0000000000012cf8 f   UefiDevicePathLibDevicePathProtocol:UefiDevicePathLib.obj
 0001:00012a6c       FileDevicePath             0000000000012d2c f   UefiDevicePathLibDevicePathProtocol:UefiDevicePathLib.obj
 0001:00012b58       UefiDevicePathLibLocateProtocol 0000000000012e18 f   UefiDevicePathLibDevicePathProtocol:UefiDevicePathLib.obj
 0001:00012b88       ConvertDevicePathToText    0000000000012e48 f   UefiDevicePathLibDevicePathProtocol:UefiDevicePathLib.obj
 0001:00012be0       EfiGetSystemConfigurationTable 0000000000012ea0 f   UefiLib:UefiLib.obj
 0001:00012ca4       GetVariable2               0000000000012f64 f   UefiLib:UefiLib.obj
 0001:00012dc0       GetBestLanguage            0000000000013080 f   UefiLib:UefiLib.obj
 0001:00012ef8       EfiOpenFileByDevicePath    00000000000131b8 f   UefiLib:UefiLib.obj
 0001:00013130       GetHobList                 00000000000133f0 f   DxeHobLib:HobLib.obj
 0001:000131b4       PerformQuickSort           0000000000013474 f   UefiSortLib:UefiSortLib.obj
 0001:00013234       DevicePathCompare          00000000000134f4 f   UefiSortLib:UefiSortLib.obj
 0001:00013330       StringNoCaseCompare        00000000000135f0 f   UefiSortLib:UefiSortLib.obj
 0001:000133b8       HiiAddPackages             0000000000013678 f   UefiHiiLib:HiiLib.obj
 0001:00013504       HiiRemovePackages          00000000000137c4 f   UefiHiiLib:HiiLib.obj
 0001:00013574       HiiSetString               0000000000013834 f   UefiHiiLib:HiiString.obj
 0001:000136c8       HiiGetString               0000000000013988 f   UefiHiiLib:HiiString.obj
 0001:00013878       HiiGetSupportedLanguages   0000000000013b38 f   UefiHiiLib:HiiLanguage.obj
 0001:0001391c       FileHandleGetInfo          0000000000013bdc f   UefiFileHandleLib:UefiFileHandleLib.obj
 0001:000139a0       FileHandleSetInfo          0000000000013c60 f   UefiFileHandleLib:UefiFileHandleLib.obj
 0001:000139c8       FileHandleRead             0000000000013c88 f   UefiFileHandleLib:UefiFileHandleLib.obj
 0001:000139dc       FileHandleWrite            0000000000013c9c f   UefiFileHandleLib:UefiFileHandleLib.obj
 0001:000139f0       FileHandleClose            0000000000013cb0 f   UefiFileHandleLib:UefiFileHandleLib.obj
 0001:00013a04       FileHandleDelete           0000000000013cc4 f   UefiFileHandleLib:UefiFileHandleLib.obj
 0001:00013a18       FileHandleSetPosition      0000000000013cd8 f   UefiFileHandleLib:UefiFileHandleLib.obj
 0001:00013a2c       FileHandleGetPosition      0000000000013cec f   UefiFileHandleLib:UefiFileHandleLib.obj
 0001:00013a48       FileHandleFlush            0000000000013d08 f   UefiFileHandleLib:UefiFileHandleLib.obj
 0001:00013a5c       FileHandleIsDirectory      0000000000013d1c f   UefiFileHandleLib:UefiFileHandleLib.obj
 0001:00013aa0       FileHandleFindFirstFile    0000000000013d60 f   UefiFileHandleLib:UefiFileHandleLib.obj
 0001:00013ba4       FileHandleGetSize          0000000000013e64 f   UefiFileHandleLib:UefiFileHandleLib.obj
 0001:00013bf0       StrnCatGrowLeft            0000000000013eb0 f   UefiFileHandleLib:UefiFileHandleLib.obj
 0001:00013d24       FileHandleGetFileName      0000000000013fe4 f   UefiFileHandleLib:UefiFileHandleLib.obj
 0001:00013ff0       FullyQualifyPath           00000000000142b0 f   UefiShellLib:UefiShellLib.obj
 0001:00014194       ShellFindSE2               0000000000014454 f   UefiShellLib:UefiShellLib.obj
 0001:00014340       ShellLibConstructorWorker  0000000000014600 f   UefiShellLib:UefiShellLib.obj
 0001:000145e8       ShellLibDestructor         00000000000148a8 f   UefiShellLib:UefiShellLib.obj
 0001:000146fc       ShellInitialize            00000000000149bc f   UefiShellLib:UefiShellLib.obj
 0001:00014750       ShellOpenFileByName        0000000000014a10 f   UefiShellLib:UefiShellLib.obj
 0001:00014a38       ShellGetExecutionBreakFlag 0000000000014cf8 f   UefiShellLib:UefiShellLib.obj
 0001:00014a80       ShellGetCurrentDir         0000000000014d40 f   UefiShellLib:UefiShellLib.obj
 0001:00014aa4       InternalShellConvertFileListType 0000000000014d64 f   UefiShellLib:UefiShellLib.obj
 0001:00014ca4       ShellOpenFileMetaArg       0000000000014f64 f   UefiShellLib:UefiShellLib.obj
 0001:00014ef0       ShellCloseFileMetaArg      00000000000151b0 f   UefiShellLib:UefiShellLib.obj
 0001:00014fcc       ShellFindFilePath          000000000001528c f   UefiShellLib:UefiShellLib.obj
 0001:000152d8       ShellFindFilePathEx        0000000000015598 f   UefiShellLib:UefiShellLib.obj
 0001:00015400       InternalIsOnCheckList      00000000000156c0 f   UefiShellLib:UefiShellLib.obj
 0001:00015554       InternalIsFlag             0000000000015814 f   UefiShellLib:UefiShellLib.obj
 0001:000155e4       InternalCommandLineParse   00000000000158a4 f   UefiShellLib:UefiShellLib.obj
 0001:00015c90       ShellCommandLineParseEx    0000000000015f50 f   UefiShellLib:UefiShellLib.obj
 0001:00015d68       ShellCommandLineFreeVarList 0000000000016028 f   UefiShellLib:UefiShellLib.obj
 0001:00015dd4       ShellCommandLineGetFlag    0000000000016094 f   UefiShellLib:UefiShellLib.obj
 0001:00015ed0       ShellCommandLineGetValue   0000000000016190 f   UefiShellLib:UefiShellLib.obj
 0001:00015fec       ShellCommandLineGetRawValue 00000000000162ac f   UefiShellLib:UefiShellLib.obj
 0001:00016048       ShellCommandLineGetCount   0000000000016308 f   UefiShellLib:UefiShellLib.obj
 0001:000160ac       ShellCommandLineCheckDuplicate 000000000001636c f   UefiShellLib:UefiShellLib.obj
 0001:00016188       ShellCopySearchAndReplace  0000000000016448 f   UefiShellLib:UefiShellLib.obj
 0001:00016344       InternalPrintTo            0000000000016604 f   UefiShellLib:UefiShellLib.obj
 0001:000163e0       InternalShellPrintWorker   00000000000166a0 f   UefiShellLib:UefiShellLib.obj
 0001:000167c4       ShellPrintEx               0000000000016a84 f   UefiShellLib:UefiShellLib.obj
 0001:000167f4       ShellPrintHiiEx            0000000000016ab4 f   UefiShellLib:UefiShellLib.obj
 0001:0001684c       ShellIsDirectory           0000000000016b0c f   UefiShellLib:UefiShellLib.obj
 0001:000169f8       ShellIsFile                0000000000016cb8 f   UefiShellLib:UefiShellLib.obj
 0001:00016ae8       ShellStrToUintn            0000000000016da8 f   UefiShellLib:UefiShellLib.obj
 0001:00016b2c       StrnCatGrow                0000000000016dec f   UefiShellLib:UefiShellLib.obj
 0001:00016c6c       ShellPromptForResponse     0000000000016f2c f   UefiShellLib:UefiShellLib.obj
 0001:00017280       ShellPromptForResponseHii  0000000000017540 f   UefiShellLib:UefiShellLib.obj
 0001:000172d0       InternalShellIsHexOrDecimalNumber 0000000000017590 f   UefiShellLib:UefiShellLib.obj
 0001:000173b8       ShellFileExists            0000000000017678 f   UefiShellLib:UefiShellLib.obj
 0001:00017410       InternalShellStrHexToUint64 00000000000176d0 f   UefiShellLib:UefiShellLib.obj
 0001:00017594       InternalShellStrDecimalToUint64 0000000000017854 f   UefiShellLib:UefiShellLib.obj
 0001:0001767c       ShellConvertStringToUint64 000000000001793c f   UefiShellLib:UefiShellLib.obj
 0001:000177c0       ShellFileHandleReturnLine  0000000000017a80 f   UefiShellLib:UefiShellLib.obj
 0001:00017878       ShellFileHandleReadLine    0000000000017b38 f   UefiShellLib:UefiShellLib.obj
 0001:00017ae0       ShellPrintHelp             0000000000017da0 f   UefiShellLib:UefiShellLib.obj
 0001:00017be0       ConvertMemoryType          0000000000017ea0 f   UefiHandleParsingLib:UefiHandleParsingLib.obj
 0001:00017d10       HandleParsingHiiInit       0000000000017fd0 f   UefiHandleParsingLib:UefiHandleParsingLib.obj
 0001:00017d64       LoadedImageProtocolDumpInformation 0000000000018024 f   UefiHandleParsingLib:UefiHandleParsingLib.obj
 0001:00017fd4       GraphicsOutputProtocolDumpInformation 0000000000018294 f   UefiHandleParsingLib:UefiHandleParsingLib.obj
 0001:000182b0       EdidDiscoveredProtocolDumpInformation 0000000000018570 f   UefiHandleParsingLib:UefiHandleParsingLib.obj
 0001:000183b4       EdidActiveProtocolDumpInformation 0000000000018674 f   UefiHandleParsingLib:UefiHandleParsingLib.obj
 0001:000184b8       PciRootBridgeIoDumpInformation 0000000000018778 f   UefiHandleParsingLib:UefiHandleParsingLib.obj
 0001:00018790       TxtOutProtocolDumpInformation 0000000000018a50 f   UefiHandleParsingLib:UefiHandleParsingLib.obj
 0001:000189bc       DriverEfiVersionProtocolDumpInformation 0000000000018c7c f   UefiHandleParsingLib:UefiHandleParsingLib.obj
 0001:00018ba4       DevicePathProtocolDumpInformation 0000000000018e64 f   UefiHandleParsingLib:UefiHandleParsingLib.obj
 0001:00018bb0       LoadedImageDevicePathProtocolDumpInformation 0000000000018e70 f   UefiHandleParsingLib:UefiHandleParsingLib.obj
 0001:00018bbc       BusSpecificDriverOverrideProtocolDumpInformation 0000000000018e7c f   UefiHandleParsingLib:UefiHandleParsingLib.obj
 0001:00018dd8       BlockIoProtocolDumpInformation 0000000000019098 f   UefiHandleParsingLib:UefiHandleParsingLib.obj
 0001:00018f40       DebugSupportProtocolDumpInformation 0000000000019200 f   UefiHandleParsingLib:UefiHandleParsingLib.obj
 0001:00019050       PciIoProtocolDumpInformation 0000000000019310 f   UefiHandleParsingLib:UefiHandleParsingLib.obj
 0001:000191dc       UsbIoProtocolDumpInformation 000000000001949c f   UefiHandleParsingLib:UefiHandleParsingLib.obj
 0001:00019298       AdapterInformationDumpInformation 0000000000019558 f   UefiHandleParsingLib:UefiHandleParsingLib.obj
 0001:000197a8       FirmwareManagementDumpInformation 0000000000019a68 f   UefiHandleParsingLib:UefiHandleParsingLib.obj
 0001:00019f88       PartitionInfoProtocolDumpInformation 000000000001a248 f   UefiHandleParsingLib:UefiHandleParsingLib.obj
 0001:0001a088       InternalShellGetNodeFromGuid 000000000001a348 f   UefiHandleParsingLib:UefiHandleParsingLib.obj
 0001:0001a14c       InsertNewGuidNameMapping   000000000001a40c f   UefiHandleParsingLib:UefiHandleParsingLib.obj
 0001:0001a23c       GetStringNameFromGuid      000000000001a4fc f   UefiHandleParsingLib:UefiHandleParsingLib.obj
 0001:0001a27c       GetGuidFromStringName      000000000001a53c f   UefiHandleParsingLib:UefiHandleParsingLib.obj
 0001:0001a43c       GetBestLanguageForDriver   000000000001a6fc f   UefiHandleParsingLib:UefiHandleParsingLib.obj
 0001:0001a4bc       GetStringNameFromHandle    000000000001a77c f   UefiHandleParsingLib:UefiHandleParsingLib.obj
 0001:0001a5c4       InternalShellInitHandleList 000000000001a884 f   UefiHandleParsingLib:UefiHandleParsingLib.obj
 0001:0001a6d4       ConvertHandleToHandleIndex 000000000001a994 f   UefiHandleParsingLib:UefiHandleParsingLib.obj
 0001:0001a7d0       ConvertHandleIndexToHandle 000000000001aa90 f   UefiHandleParsingLib:UefiHandleParsingLib.obj
 0001:0001a894       ParseHandleDatabaseByRelationshipWithType 000000000001ab54 f   UefiHandleParsingLib:UefiHandleParsingLib.obj
 0001:0001ae7c       ParseHandleDatabaseByRelationship 000000000001b13c f   UefiHandleParsingLib:UefiHandleParsingLib.obj
 0001:0001b078       ParseHandleDatabaseForChildControllers 000000000001b338 f   UefiHandleParsingLib:UefiHandleParsingLib.obj
 0001:0001b210       ParseHandleDatabaseForChildDevices 000000000001b4d0 f   UefiHandleParsingLib:UefiHandleParsingLib.obj
 0001:0001b2ec       GetHandleListByProtocol    000000000001b5ac f   UefiHandleParsingLib:UefiHandleParsingLib.obj
 0001:0001b410       GetHandleListByProtocolList 000000000001b6d0 f   UefiHandleParsingLib:UefiHandleParsingLib.obj
 0001:0001b598       GetAllMappingGuids         000000000001b858 f   UefiHandleParsingLib:UefiHandleParsingLib.obj
 0001:0001b69c       CommandInit                000000000001b95c f   UefiShellCommandLib:UefiShellCommandLib.obj
 0001:0001b7e8       ShellCommandLibDestructor  000000000001baa8 f   UefiShellCommandLib:UefiShellCommandLib.obj
 0001:0001ba14       ShellCommandFindDynamicCommand 000000000001bcd4 f   UefiShellCommandLib:UefiShellCommandLib.obj
 0001:0001bab4       ShellCommandIsCommandOnList 000000000001bd74 f   UefiShellCommandLib:UefiShellCommandLib.obj
 0001:0001bb68       ShellCommandGetCommandHelp 000000000001be28 f   UefiShellCommandLib:UefiShellCommandLib.obj
 0001:0001bc3c       ShellCommandRegisterCommandName 000000000001befc f   UefiShellCommandLib:UefiShellCommandLib.obj
 0001:0001beac       ShellCommandRegisterAlias  000000000001c16c f   UefiShellCommandLib:UefiShellCommandLib.obj
 0001:0001bffc       ShellCommandIsOnAliasList  000000000001c2bc f   UefiShellCommandLib:UefiShellCommandLib.obj
 0001:0001c0dc       DeleteScriptFileStruct     000000000001c39c f   UefiShellCommandLib:UefiShellCommandLib.obj
 0001:0001c1e4       ShellCommandGetCurrentScriptFile 000000000001c4a4 f   UefiShellCommandLib:UefiShellCommandLib.obj
 0001:0001c214       ShellCommandSetNewScript   000000000001c4d4 f   UefiShellCommandLib:UefiShellCommandLib.obj
 0001:0001c290       ShellCommandCreateNewMappingName 000000000001c550 f   UefiShellCommandLib:UefiShellCommandLib.obj
 0001:0001c320       ShellCommandAddMapItemAndUpdatePath 000000000001c5e0 f   UefiShellCommandLib:UefiShellCommandLib.obj
 0001:0001c528       ShellCommandCreateInitialMappingsAndPaths 000000000001c7e8 f   UefiShellCommandLib:UefiShellCommandLib.obj
 0001:0001c984       ShellCommandUpdateMapping  000000000001cc44 f   UefiShellCommandLib:UefiShellCommandLib.obj
 0001:0001cb48       ConvertEfiFileProtocolToShellHandle 000000000001ce08 f   UefiShellCommandLib:UefiShellCommandLib.obj
 0001:0001cbf8       ShellFileHandleGetPath     000000000001ceb8 f   UefiShellCommandLib:UefiShellCommandLib.obj
 0001:0001cc5c       ShellFileHandleRemove      000000000001cf1c f   UefiShellCommandLib:UefiShellCommandLib.obj
 0001:0001ccfc       ShellFileHandleEof         000000000001cfbc f   UefiShellCommandLib:UefiShellCommandLib.obj
 0001:0001cd90       FreeBufferList             000000000001d050 f   UefiShellCommandLib:UefiShellCommandLib.obj
 0001:0001cde4       DumpHex                    000000000001d0a4 f   UefiShellCommandLib:UefiShellCommandLib.obj
 0001:0001cf10       CatSDumpHex                000000000001d1d0 f   UefiShellCommandLib:UefiShellCommandLib.obj
 0001:0001d084       ShellSortFileList          000000000001d344 f   UefiShellCommandLib:UefiShellCommandLib.obj
 0001:0001d3a8       CatPrint                   000000000001d668 f   UefiShellCommandLib:ConsistMapping.obj
 0001:0001d490       AppendCSDNum2              000000000001d750 f   UefiShellCommandLib:ConsistMapping.obj
 0001:0001d520       AppendCSDNum               000000000001d7e0 f   UefiShellCommandLib:ConsistMapping.obj
 0001:0001d590       AppendCSDStr               000000000001d850 f   UefiShellCommandLib:ConsistMapping.obj
 0001:0001d764       DevPathCompareAcpi         000000000001da24 f   UefiShellCommandLib:ConsistMapping.obj
 0001:0001d798       DevPathComparePci          000000000001da58 f   UefiShellCommandLib:ConsistMapping.obj
 0001:0001d810       DevPathCompareDefault      000000000001dad0 f   UefiShellCommandLib:ConsistMapping.obj
 0001:0001d8a4       DevPathSerialHardDrive     000000000001db64 f   UefiShellCommandLib:ConsistMapping.obj
 0001:0001d910       DevPathSerialAtapi         000000000001dbd0 f   UefiShellCommandLib:ConsistMapping.obj
 0001:0001d978       DevPathSerialCdRom         000000000001dc38 f   UefiShellCommandLib:ConsistMapping.obj
 0001:0001d9e0       DevPathSerialFibre         000000000001dca0 f   UefiShellCommandLib:ConsistMapping.obj
 0001:0001da54       DevPathSerialUart          000000000001dd14 f   UefiShellCommandLib:ConsistMapping.obj
 0001:0001dae8       DevPathSerialUsb           000000000001dda8 f   UefiShellCommandLib:ConsistMapping.obj
 0001:0001dc50       DevPathSerialVendor        000000000001df10 f   UefiShellCommandLib:ConsistMapping.obj
 0001:0001dd78       DevPathSerialLun           000000000001e038 f   UefiShellCommandLib:ConsistMapping.obj
 0001:0001ddd8       DevPathSerialSata          000000000001e098 f   UefiShellCommandLib:ConsistMapping.obj
 0001:0001de5c       DevPathSerialIScsi         000000000001e11c f   UefiShellCommandLib:ConsistMapping.obj
 0001:0001dea8       DevPathSerialI2O           000000000001e168 f   UefiShellCommandLib:ConsistMapping.obj
 0001:0001df08       DevPathSerialMacAddr       000000000001e1c8 f   UefiShellCommandLib:ConsistMapping.obj
 0001:0001dfcc       DevPathSerialInfiniBand    000000000001e28c f   UefiShellCommandLib:ConsistMapping.obj
 0001:0001e0a8       DevPathSerialIPv4          000000000001e368 f   UefiShellCommandLib:ConsistMapping.obj
 0001:0001e1a4       DevPathSerialIPv6          000000000001e464 f   UefiShellCommandLib:ConsistMapping.obj
 0001:0001e2ac       DevPathSerialScsi          000000000001e56c f   UefiShellCommandLib:ConsistMapping.obj
 0001:0001e320       DevPathSerial1394          000000000001e5e0 f   UefiShellCommandLib:ConsistMapping.obj
 0001:0001e39c       DevPathSerialAcpi          000000000001e65c f   UefiShellCommandLib:ConsistMapping.obj
 0001:0001e420       GetHIDevicePath            000000000001e6e0 f   UefiShellCommandLib:ConsistMapping.obj
 0001:0001e578       ShellCommandConsistMappingInitialize 000000000001e838 f   UefiShellCommandLib:ConsistMapping.obj
 0001:0001e72c       ShellCommandConsistMappingUnInitialize 000000000001e9ec f   UefiShellCommandLib:ConsistMapping.obj
 0001:0001e788       ShellCommandConsistMappingGenMappingName 000000000001ea48 f   UefiShellCommandLib:ConsistMapping.obj
 0001:0001ea38       ShellCommandFindMapItem    000000000001ecf8 f   UefiShellCommandLib:ConsistMapping.obj
 0001:0001eaa4       ShellCommandGetManFileNameLevel2 000000000001ed64 f   UefiShellLevel2CommandsLib:UefiShellLevel2CommandsLib.obj
 0001:0001eaac       ShellLevel2CommandsLibConstructor 000000000001ed6c f   UefiShellLevel2CommandsLib:UefiShellLevel2CommandsLib.obj
 0001:0001f39c       GetFullyQualifiedPath      000000000001f65c f   UefiShellLevel2CommandsLib:UefiShellLevel2CommandsLib.obj
 0001:0001f5f0       VerifyIntermediateDirectories 000000000001f8b0 f   UefiShellLevel2CommandsLib:UefiShellLevel2CommandsLib.obj
 0001:0001f6dc       StrniCmp                   000000000001f99c f   UefiShellLevel2CommandsLib:UefiShellLevel2CommandsLib.obj
 0001:0001f7c4       ShellLevel2StripQuotes     000000000001fa84 f   UefiShellLevel2CommandsLib:UefiShellLevel2CommandsLib.obj
 0001:0001f858       ShellCommandRunReset       000000000001fb18 f   UefiShellLevel2CommandsLib:Reset.obj
 0001:0001fbd8       LoadDriver                 000000000001fe98 f   UefiShellLevel2CommandsLib:Load.obj
 0001:0001fea8       ShellCommandRunLoad        0000000000020168 f   UefiShellLevel2CommandsLib:Load.obj
 0001:00020170       InternalIsTimeLikeString   0000000000020430 f   UefiShellLevel2CommandsLib:TimeDate.obj
 0001:000201d8       CheckAndSetDate            0000000000020498 f   UefiShellLevel2CommandsLib:TimeDate.obj
 0001:000203a0       ShellCommandRunDate        0000000000020660 f   UefiShellLevel2CommandsLib:TimeDate.obj
 0001:00020648       CheckAndSetTime            0000000000020908 f   UefiShellLevel2CommandsLib:TimeDate.obj
 0001:00020858       ShellCommandRunTime        0000000000020b18 f   UefiShellLevel2CommandsLib:TimeDate.obj
 0001:00020ec0       CheckAndSetTimeZone        0000000000021180 f   UefiShellLevel2CommandsLib:TimeDate.obj
 0001:0002110c       ShellCommandRunTimeZone    00000000000213cc f   UefiShellLevel2CommandsLib:TimeDate.obj
 0001:000215a4       PerformParsing             0000000000021864 f   UefiShellLevel2CommandsLib:Parse.obj
 0001:00021914       ShellCommandRunParse       0000000000021bd4 f   UefiShellLevel2CommandsLib:Parse.obj
 0001:00021bf0       ReplaceDriveWithCwd        0000000000021eb0 f   UefiShellLevel2CommandsLib:Cd.obj
 0001:00021cfc       ExtractDriveAndPath        0000000000021fbc f   UefiShellLevel2CommandsLib:Cd.obj
 0001:00021e18       ShellCommandRunCd          00000000000220d8 f   UefiShellLevel2CommandsLib:Cd.obj
 0001:000222ec       ShellCommandRunAttrib      00000000000225ac f   UefiShellLevel2CommandsLib:Attrib.obj
 0001:0002290c       PrintSfoVolumeInfoTableEntry 0000000000022bcc f   UefiShellLevel2CommandsLib:Ls.obj
 0001:00022bb8       PrintFileInformation       0000000000022e78 f   UefiShellLevel2CommandsLib:Ls.obj
 0001:00022f44       PrintNonSfoHeader          0000000000023204 f   UefiShellLevel2CommandsLib:Ls.obj
 0001:00022f9c       FileTimeToLocalTime        000000000002325c f   UefiShellLevel2CommandsLib:Ls.obj
 0001:000231b0       PrintLsOutput              0000000000023470 f   UefiShellLevel2CommandsLib:Ls.obj
 0001:00023a18       ShellCommandRunLs          0000000000023cd8 f   UefiShellLevel2CommandsLib:Ls.obj
 0001:000240f0       IsNumberLetterOnly         00000000000243b0 f   UefiShellLevel2CommandsLib:Map.obj
 0001:0002413c       SearchList                 00000000000243fc f   UefiShellLevel2CommandsLib:Map.obj
 0001:00024294       MappingListHasType         0000000000024554 f   UefiShellLevel2CommandsLib:Map.obj
 0001:0002447c       PerformSingleMappingDisplay 000000000002473c f   UefiShellLevel2CommandsLib:Map.obj
 0001:000249bc       PerformSingleMappingDelete 0000000000024c7c f   UefiShellLevel2CommandsLib:Map.obj
 0001:00024a2c       PerformMappingDisplay      0000000000024cec f   UefiShellLevel2CommandsLib:Map.obj
 0001:00024e5c       PerformMappingDisplay2     000000000002511c f   UefiShellLevel2CommandsLib:Map.obj
 0001:00024fbc       PerformMappingDelete       000000000002527c f   UefiShellLevel2CommandsLib:Map.obj
 0001:000251f0       AddMappingFromMapping      00000000000254b0 f   UefiShellLevel2CommandsLib:Map.obj
 0001:00025304       AddMappingFromHandle       00000000000255c4 f   UefiShellLevel2CommandsLib:Map.obj
 0001:00025440       ShellCommandRunMap         0000000000025700 f   UefiShellLevel2CommandsLib:Map.obj
 0001:00025ad4       CopySingleFile             0000000000025d94 f   UefiShellLevel2CommandsLib:Cp.obj
 0001:000260b8       ValidateAndCopyFiles       0000000000026378 f   UefiShellLevel2CommandsLib:Cp.obj
 0001:00026934       ProcessValidateAndCopyFiles 0000000000026bf4 f   UefiShellLevel2CommandsLib:Cp.obj
 0001:00026b18       ShellCommandRunCp          0000000000026dd8 f   UefiShellLevel2CommandsLib:Cp.obj
 0001:00026fc0       HandleVol                  0000000000027280 f   UefiShellLevel2CommandsLib:Vol.obj
 0001:00027500       ShellCommandRunVol         00000000000277c0 f   UefiShellLevel2CommandsLib:Vol.obj
 0001:00027844       IsDirectoryEmpty           0000000000027b04 f   UefiShellLevel2CommandsLib:Rm.obj
 0001:0002793c       CascadeDelete              0000000000027bfc f   UefiShellLevel2CommandsLib:Rm.obj
 0001:00027d24       IsValidDeleteTarget        0000000000027fe4 f   UefiShellLevel2CommandsLib:Rm.obj
 0001:00027e7c       ShellCommandRunRm          000000000002813c f   UefiShellLevel2CommandsLib:Rm.obj
 0001:00028190       ShellCommandRunSet         0000000000028450 f   UefiShellLevel2CommandsLib:Set.obj
 0001:000285b0       ShellCommandRunMkDir       0000000000028870 f   UefiShellLevel2CommandsLib:MkDir.obj
 0001:000288fc       IsBetweenFileSystem        0000000000028bbc f   UefiShellLevel2CommandsLib:Mv.obj
 0001:000289b8       IsSoucePathValid           0000000000028c78 f   UefiShellLevel2CommandsLib:Mv.obj
 0001:00028b08       IsValidMove                0000000000028dc8 f   UefiShellLevel2CommandsLib:Mv.obj
 0001:00028ca0       GetDestinationLocation     0000000000028f60 f   UefiShellLevel2CommandsLib:Mv.obj
 0001:00029024       CreateFullDestPath         00000000000292e4 f   UefiShellLevel2CommandsLib:Mv.obj
 0001:00029110       MoveWithinFileSystems      00000000000293d0 f   UefiShellLevel2CommandsLib:Mv.obj
 0001:00029288       ValidateAndMoveFiles       0000000000029548 f   UefiShellLevel2CommandsLib:Mv.obj
 0001:00029a68       ShellCommandRunMv          0000000000029d28 f   UefiShellLevel2CommandsLib:Mv.obj
 0001:00029eac       ShellCommandGetManFileNameLevel1 000000000002a16c f   UefiShellLevel1CommandsLib:UefiShellLevel1CommandsLib.obj
 0001:00029eb4       ShellLevel1CommandsLibConstructor 000000000002a174 f   UefiShellLevel1CommandsLib:UefiShellLevel1CommandsLib.obj
 0001:0002a108       TestNodeForMove            000000000002a3c8 f   UefiShellLevel1CommandsLib:UefiShellLevel1CommandsLib.obj
 0001:0002a258       MoveToTag                  000000000002a518 f   UefiShellLevel1CommandsLib:UefiShellLevel1CommandsLib.obj
 0001:0002a3a0       IsNextFragment             000000000002a660 f   UefiShellLevel1CommandsLib:If.obj
 0001:0002a454       TestOperation              000000000002a714 f   UefiShellLevel1CommandsLib:If.obj
 0001:0002a9b0       ProcessStatement           000000000002ac70 f   UefiShellLevel1CommandsLib:If.obj
 0001:0002b5dc       BuildNextStatement         000000000002b89c f   UefiShellLevel1CommandsLib:If.obj
 0001:0002b6d0       MoveToTagSpecial           000000000002b990 f   UefiShellLevel1CommandsLib:If.obj
 0001:0002b83c       ShellCommandRunIf          000000000002bafc f   UefiShellLevel1CommandsLib:If.obj
 0001:0002bd18       ShellCommandRunElse        000000000002bfd8 f   UefiShellLevel1CommandsLib:If.obj
 0001:0002bf20       ShellCommandRunEndIf       000000000002c1e0 f   UefiShellLevel1CommandsLib:If.obj
 0001:0002c088       ShellCommandRunStall       000000000002c348 f   UefiShellLevel1CommandsLib:Stall.obj
 0001:0002c2c4       ShellIsValidForNumber      000000000002c584 f   UefiShellLevel1CommandsLib:For.obj
 0001:0002c368       ShellCommandRunEndFor      000000000002c628 f   UefiShellLevel1CommandsLib:For.obj
 0001:0002c4c8       InternalUpdateAliasOnList  000000000002c788 f   UefiShellLevel1CommandsLib:For.obj
 0001:0002c648       InternalIsAliasOnList      000000000002c908 f   UefiShellLevel1CommandsLib:For.obj
 0001:0002c708       InternalRemoveAliasFromList 000000000002c9c8 f   UefiShellLevel1CommandsLib:For.obj
 0001:0002c7ec       ReturnUintn                000000000002caac f   UefiShellLevel1CommandsLib:For.obj
 0001:0002c818       ShellCommandRunFor         000000000002cad8 f   UefiShellLevel1CommandsLib:For.obj
 0001:0002d590       ShellCommandRunShift       000000000002d850 f   UefiShellLevel1CommandsLib:Shift.obj
 0001:0002d6b0       ShellCommandRunGoto        000000000002d970 f   UefiShellLevel1CommandsLib:Goto.obj
 0001:0002d95c       ShellCommandRunExit        000000000002dc1c f   UefiShellLevel1CommandsLib:Exit.obj
 0001:0002db94       ShellCommandGetManFileNameLevel3 000000000002de54 f   UefiShellLevel3CommandsLib:UefiShellLevel3CommandsLib.obj
 0001:0002db9c       ShellLevel3CommandsLibConstructor 000000000002de5c f   UefiShellLevel3CommandsLib:UefiShellLevel3CommandsLib.obj
 0001:0002eaa0       LexicalInsertIntoList      000000000002ed60 f   UefiShellLevel3CommandsLib:Help.obj
 0001:0002ebcc       PrintDynamicCommandHelp    000000000002ee8c f   UefiShellLevel3CommandsLib:Help.obj
 0001:0002ed64       ShellCommandRunHelp        000000000002f024 f   UefiShellLevel3CommandsLib:Help.obj
 0001:0002f3b8       TypeFileByHandle           000000000002f678 f   UefiShellLevel3CommandsLib:Type.obj
 0001:0002f5f4       ShellCommandRunType        000000000002f8b4 f   UefiShellLevel3CommandsLib:Type.obj
 0001:0002fa70       ShellCommandRunEcho        000000000002fd30 f   UefiShellLevel3CommandsLib:Echo.obj
 0001:0002fcb4       ShellCommandRunPause       000000000002ff74 f   UefiShellLevel3CommandsLib:Pause.obj
 0001:0002ff18       TouchFileByHandle          00000000000301d8 f   UefiShellLevel3CommandsLib:Touch.obj
 0001:0002ffe0       DoTouchByHandle            00000000000302a0 f   UefiShellLevel3CommandsLib:Touch.obj
 0001:00030240       ShellCommandRunTouch       0000000000030500 f   UefiShellLevel3CommandsLib:Touch.obj
 0001:000305d8       ShellCommandRunGetMtc      0000000000030898 f   UefiShellLevel3CommandsLib:GetMtc.obj
 0001:000307a0       ShellCommandRunVer         0000000000030a60 f   UefiShellLevel3CommandsLib:Ver.obj
 0001:00030b34       PrintSingleShellAlias      0000000000030df4 f   UefiShellLevel3CommandsLib:Alias.obj
 0001:00030bf4       PrintAllShellAlias         0000000000030eb4 f   UefiShellLevel3CommandsLib:Alias.obj
 0001:00030ca4       ShellLevel3CommandsLibSetAlias 0000000000030f64 f   UefiShellLevel3CommandsLib:Alias.obj
 0001:00030d88       ShellCommandRunAlias       0000000000031048 f   UefiShellLevel3CommandsLib:Alias.obj
 0001:00031068       ShellCommandRunCls         0000000000031328 f   UefiShellLevel3CommandsLib:Cls.obj
 0001:00031590       ShellCommandGetManFileNameDriver1 0000000000031850 f   UefiShellDriver1CommandsLib:UefiShellDriver1CommandsLib.obj
 0001:00031598       UefiShellDriver1CommandsLibConstructor 0000000000031858 f   UefiShellDriver1CommandsLib:UefiShellDriver1CommandsLib.obj
 0001:00031864       ShellConnectFromDevPaths   0000000000031b24 f   UefiShellDriver1CommandsLib:Connect.obj
 0001:00031bc4       ConvertAndConnectControllers 0000000000031e84 f   UefiShellDriver1CommandsLib:Connect.obj
 0001:00031e44       ShellCommandRunConnect     0000000000032104 f   UefiShellDriver1CommandsLib:Connect.obj
 0001:00032338       GetDeviceHandleInfo        00000000000325f8 f   UefiShellDriver1CommandsLib:Devices.obj
 0001:00032570       ShellCommandRunDevices     0000000000032830 f   UefiShellDriver1CommandsLib:Devices.obj
 0001:000329a4       ShellCommandRunUnload      0000000000032c64 f   UefiShellDriver1CommandsLib:Unload.obj
 0001:000330fc       ShellCommandRunReconnect   00000000000333bc f   UefiShellDriver1CommandsLib:Reconnect.obj
 0001:000332a8       TraverseHandleDatabase     0000000000033568 f   UefiShellDriver1CommandsLib:OpenInfo.obj
 0001:00033548       ShellCommandRunOpenInfo    0000000000033808 f   UefiShellDriver1CommandsLib:OpenInfo.obj
 0001:000337d4       GetDevicePathTextForHandle 0000000000033a94 f   UefiShellDriver1CommandsLib:Drivers.obj
 0001:00033900       GetImageNameFromHandle     0000000000033bc0 f   UefiShellDriver1CommandsLib:Drivers.obj
 0001:00033a90       ShellCommandRunDrivers     0000000000033d50 f   UefiShellDriver1CommandsLib:Drivers.obj
 0001:0003413c       DoDiagnostics              00000000000343fc f   UefiShellDriver1CommandsLib:DrvDiag.obj
 0001:00034798       ShellCommandRunDrvDiag     0000000000034a58 f   UefiShellDriver1CommandsLib:DrvDiag.obj
 0001:00034c44       ConvertStrToGuid           0000000000034f04 f   UefiShellDriver1CommandsLib:Dh.obj
 0001:00034dd8       GetDriverName              0000000000035098 f   UefiShellDriver1CommandsLib:Dh.obj
 0001:00034ec8       GetProtocolInfoString      0000000000035188 f   UefiShellDriver1CommandsLib:Dh.obj
 0001:000351fc       GetDriverImageName         00000000000354bc f   UefiShellDriver1CommandsLib:Dh.obj
 0001:00035270       DisplayDriverModelHandle   0000000000035530 f   UefiShellDriver1CommandsLib:Dh.obj
 0001:00035c54       DoDhByHandle               0000000000035f14 f   UefiShellDriver1CommandsLib:Dh.obj
 0001:00035e4c       DoDhByProtocolGuid         000000000003610c f   UefiShellDriver1CommandsLib:Dh.obj
 0001:00035f54       DoDecodeByProtocol         0000000000036214 f   UefiShellDriver1CommandsLib:Dh.obj
 0001:00036158       ShellCommandRunDh          0000000000036418 f   UefiShellDriver1CommandsLib:Dh.obj
 0001:000365f4       DoDevTreeForHandle         00000000000368b4 f   UefiShellDriver1CommandsLib:DevTree.obj
 0001:00036824       ShellCommandRunDevTree     0000000000036ae4 f   UefiShellDriver1CommandsLib:DevTree.obj
 0001:00036bf8       FindHiiHandleViaDevPath    0000000000036eb8 f   UefiShellDriver1CommandsLib:DrvCfg.obj
 0001:00036e74       ConfigToFile               0000000000037134 f   UefiShellDriver1CommandsLib:DrvCfg.obj
 0001:0003710c       ConfigFromFile             00000000000373cc f   UefiShellDriver1CommandsLib:DrvCfg.obj
 0001:00037560       ShellCmdDriverConfigurationProcessActionRequired 0000000000037820 f   UefiShellDriver1CommandsLib:DrvCfg.obj
 0001:000377a4       PreHiiDrvCfg               0000000000037a64 f   UefiShellDriver1CommandsLib:DrvCfg.obj
 0001:000380a8       PrintConfigInfoOnAll       0000000000038368 f   UefiShellDriver1CommandsLib:DrvCfg.obj
 0001:0003819c       ShellCommandRunDrvCfg      000000000003845c f   UefiShellDriver1CommandsLib:DrvCfg.obj
 0001:00038958       ShellCommandRunDisconnect  0000000000038c18 f   UefiShellDriver1CommandsLib:Disconnect.obj
 0001:00038e94       ShellCommandGetManFileNameDebug1 0000000000039154 f   UefiShellDebug1CommandsLib:UefiShellDebug1CommandsLib.obj
 0001:00038e9c       UefiShellDebug1CommandsLibConstructor 000000000003915c f   UefiShellDebug1CommandsLib:UefiShellDebug1CommandsLib.obj
 0001:000392d8       GetSystemConfigurationTable 0000000000039598 f   UefiShellDebug1CommandsLib:UefiShellDebug1CommandsLib.obj
 0001:0003937c       EditorClearLine            000000000003963c f   UefiShellDebug1CommandsLib:UefiShellDebug1CommandsLib.obj
 0001:0003945c       IsValidFileName            000000000003971c f   UefiShellDebug1CommandsLib:UefiShellDebug1CommandsLib.obj
 0001:00039504       EditGetDefaultFileName     00000000000397c4 f   UefiShellDebug1CommandsLib:UefiShellDebug1CommandsLib.obj
 0001:00039574       DisplayMmioMemory          0000000000039834 f   UefiShellDebug1CommandsLib:Dmem.obj
 0001:0003969c       DisplayRtProperties        000000000003995c f   UefiShellDebug1CommandsLib:Dmem.obj
 0001:0003985c       GetImageExecutionInfo      0000000000039b1c f   UefiShellDebug1CommandsLib:Dmem.obj
 0001:00039994       DisplayConformanceProfiles 0000000000039c54 f   UefiShellDebug1CommandsLib:Dmem.obj
 0001:00039b68       ShellCommandRunDmem        0000000000039e28 f   UefiShellDebug1CommandsLib:Dmem.obj
 0001:0003a508       PciPrintClassCode          000000000003a7c8 f   UefiShellDebug1CommandsLib:Pci.obj
 0001:0003a62c       ShellCommandRunPci         000000000003a8ec f   UefiShellDebug1CommandsLib:Pci.obj
 0001:0003b984       PciFindProtocolInterface   000000000003bc44 f   UefiShellDebug1CommandsLib:Pci.obj
 0001:0003ba7c       PciGetProtocolAndResource  000000000003bd3c f   UefiShellDebug1CommandsLib:Pci.obj
 0001:0003bad8       PciExplainPci              000000000003bd98 f   UefiShellDebug1CommandsLib:Pci.obj
 0001:0003bd88       PciExplainStatus           000000000003c048 f   UefiShellDebug1CommandsLib:Pci.obj
 0001:0003bfc8       PciExplainCommand          000000000003c288 f   UefiShellDebug1CommandsLib:Pci.obj
 0001:0003c1c4       ExplainPcieCapReg          000000000003c484 f   UefiShellDebug1CommandsLib:Pci.obj
 0001:0003c298       ExplainPcieDeviceCap       000000000003c558 f   UefiShellDebug1CommandsLib:Pci.obj
 0001:0003c4c8       ExplainPcieDeviceControl   000000000003c788 f   UefiShellDebug1CommandsLib:Pci.obj
 0001:0003c6b8       ExplainPcieDeviceStatus    000000000003c978 f   UefiShellDebug1CommandsLib:Pci.obj
 0001:0003c780       ExplainPcieLinkCap         000000000003ca40 f   UefiShellDebug1CommandsLib:Pci.obj
 0001:0003c95c       ExplainPcieLinkControl     000000000003cc1c f   UefiShellDebug1CommandsLib:Pci.obj
 0001:0003cabc       ExplainPcieLinkStatus      000000000003cd7c f   UefiShellDebug1CommandsLib:Pci.obj
 0001:0003cbf8       ExplainPcieSlotCap         000000000003ceb8 f   UefiShellDebug1CommandsLib:Pci.obj
 0001:0003cd68       ExplainPcieSlotControl     000000000003d028 f   UefiShellDebug1CommandsLib:Pci.obj
 0001:0003ceec       ExplainPcieSlotStatus      000000000003d1ac f   UefiShellDebug1CommandsLib:Pci.obj
 0001:0003d03c       ExplainPcieRootControl     000000000003d2fc f   UefiShellDebug1CommandsLib:Pci.obj
 0001:0003d0e8       ExplainPcieRootCap         000000000003d3a8 f   UefiShellDebug1CommandsLib:Pci.obj
 0001:0003d110       ExplainPcieRootStatus      000000000003d3d0 f   UefiShellDebug1CommandsLib:Pci.obj
 0001:0003d178       PrintInterpretedExtendedCompatibilityAcs 000000000003d438 f   UefiShellDebug1CommandsLib:Pci.obj
 0001:0003d24c       PrintInterpretedExtendedCompatibilityDynamicPowerAllocation 000000000003d50c f   UefiShellDebug1CommandsLib:Pci.obj
 0001:0003d334       PrintInterpretedExtendedCompatibilityLinkDeclaration 000000000003d5f4 f   UefiShellDebug1CommandsLib:Pci.obj
 0001:0003d400       PrintInterpretedExtendedCompatibilityAer 000000000003d6c0 f   UefiShellDebug1CommandsLib:Pci.obj
 0001:0003d4ec       PrintInterpretedExtendedCompatibilityVirtualChannel 000000000003d7ac f   UefiShellDebug1CommandsLib:Pci.obj
 0001:0003d60c       PrintInterpretedExtendedCompatibilityTph 000000000003d8cc f   UefiShellDebug1CommandsLib:Pci.obj
 0001:0003d6b8       PrintInterpretedExtendedCompatibilitySecondary 000000000003d978 f   UefiShellDebug1CommandsLib:Pci.obj
 0001:0003d76c       PrintPciExtendedCapabilityDetails 000000000003da2c f   UefiShellDebug1CommandsLib:Pci.obj
 0001:0003db4c       PciExplainPciExpress       000000000003de0c f   UefiShellDebug1CommandsLib:Pci.obj
 0001:0003dccc       ShellCommandRunHexEdit     000000000003df8c f   UefiShellDebug1CommandsLib:HexEdit.obj
 0001:0003e3ac       AddMemoryLength            000000000003e66c f   UefiShellDebug1CommandsLib:MemMap.obj
 0001:0003e458       ShellCommandRunMemMap      000000000003e718 f   UefiShellDebug1CommandsLib:MemMap.obj
 0001:0003f414       DisplayTheBlocks           000000000003f6d4 f   UefiShellDebug1CommandsLib:Dblk.obj
 0001:0003f614       ShellCommandRunDblk        000000000003f8d4 f   UefiShellDebug1CommandsLib:Dblk.obj
 0001:0003fa14       DisplaySettings            000000000003fcd4 f   UefiShellDebug1CommandsLib:SerMode.obj
 0001:0003fc88       ShellCommandRunSerMode     000000000003ff48 f   UefiShellDebug1CommandsLib:SerMode.obj
 0001:000403d4       ShellCommandRunEfiDecompress 0000000000040694 f   UefiShellDebug1CommandsLib:EfiDecompress.obj
 0001:00040abc       ShellCommandRunEfiCompress 0000000000040d7c f   UefiShellDebug1CommandsLib:EfiCompress.obj
 0001:00041050       ShellMmDecodePciAddress    0000000000041310 f   UefiShellDebug1CommandsLib:Mm.obj
 0001:000410e0       ShellMmAccess              00000000000413a0 f   UefiShellDebug1CommandsLib:Mm.obj
 0001:000418ec       ShellMmLocateIoProtocol    0000000000041bac f   UefiShellDebug1CommandsLib:Mm.obj
 0001:00041ab4       ShellCommandRunMm          0000000000041d74 f   UefiShellDebug1CommandsLib:Mm.obj
 0001:000421dc       PrintDifferentPoint        000000000004249c f   UefiShellDebug1CommandsLib:Comp.obj
 0001:00042378       ShellCommandRunComp        0000000000042638 f   UefiShellDebug1CommandsLib:Comp.obj
 0001:00042d9c       ShellCommandRunSmbiosView  000000000004305c f   UefiShellDebug1CommandsLib:SmbiosView.obj
 0001:000443ec       SMBiosView                 00000000000446ac f   UefiShellDebug1CommandsLib:SmbiosView.obj
 0001:000446f4       SMBios64View               00000000000449b4 f   UefiShellDebug1CommandsLib:SmbiosView.obj
 0001:000449f4       InitSmbiosTableStatistics  0000000000044cb4 f   UefiShellDebug1CommandsLib:SmbiosView.obj
 0001:00044b94       CalculateSmbios64BitStructureCountAndLength 0000000000044e54 f   UefiShellDebug1CommandsLib:SmbiosView.obj
 0001:00044c38       InitSmbios64BitTableStatistics 0000000000044ef8 f   UefiShellDebug1CommandsLib:SmbiosView.obj
 0001:00044df4       DisplayStatisticsTable     00000000000450b4 f   UefiShellDebug1CommandsLib:SmbiosView.obj
 0001:00044fb8       DisplaySmbios64BitStatisticsTable 0000000000045278 f   UefiShellDebug1CommandsLib:SmbiosView.obj
 0001:0004517c       GetShowTypeString          000000000004543c f   UefiShellDebug1CommandsLib:SmbiosView.obj
 0001:000451cc       ShellCommandRunLoadPciRom  000000000004548c f   UefiShellDebug1CommandsLib:LoadPciRom.obj
 0001:000455bc       LoadEfiDriversFromRomImage 000000000004587c f   UefiShellDebug1CommandsLib:LoadPciRom.obj
 0001:00045964       ShellCommandRunSetSize     0000000000045c24 f   UefiShellDebug1CommandsLib:SetSize.obj
 0001:00045d28       GetAttrType                0000000000045fe8 f   UefiShellDebug1CommandsLib:DmpStore.obj
 0001:00045e50       LoadVariablesFromFile      0000000000046110 f   UefiShellDebug1CommandsLib:DmpStore.obj
 0001:000462a0       AppendSingleVariableToFile 0000000000046560 f   UefiShellDebug1CommandsLib:DmpStore.obj
 0001:000463c4       CascadeProcessVariables    0000000000046684 f   UefiShellDebug1CommandsLib:DmpStore.obj
 0001:00046a84       ProcessVariables           0000000000046d44 f   UefiShellDebug1CommandsLib:DmpStore.obj
 0001:00046c64       ShellCommandRunDmpStore    0000000000046f24 f   UefiShellDebug1CommandsLib:DmpStore.obj
 0001:00048190       TestDataType               0000000000048450 f   UefiShellDebug1CommandsLib:SetVar.obj
 0001:000482f0       ParseParameterData         00000000000485b0 f   UefiShellDebug1CommandsLib:SetVar.obj
 0001:000485f4       GetVariableDataFromParameter 00000000000488b4 f   UefiShellDebug1CommandsLib:SetVar.obj
 0001:0004880c       ShellCommandRunSetVar      0000000000048acc f   UefiShellDebug1CommandsLib:SetVar.obj
 0001:00048c90       ShellCommandRunEdit        0000000000048f50 f   UefiShellDebug1CommandsLib:Edit.obj
 0001:00049040       ShellCommandRunMode        0000000000049300 f   UefiShellDebug1CommandsLib:Mode.obj
 0001:00049430       HMainCommandDisplayHelp    00000000000496f0 f   UefiShellDebug1CommandsLib:MainHexEditor.obj
 0001:00049530       HMainCommandGoToOffset     00000000000497f0 f   UefiShellDebug1CommandsLib:MainHexEditor.obj
 0001:0004961c       HMainCommandSaveBuffer     00000000000498dc f   UefiShellDebug1CommandsLib:MainHexEditor.obj
 0001:000499a8       HMainCommandSelectStart    0000000000049c68 f   UefiShellDebug1CommandsLib:MainHexEditor.obj
 0001:00049a18       HMainCommandSelectEnd      0000000000049cd8 f   UefiShellDebug1CommandsLib:MainHexEditor.obj
 0001:00049a94       HMainCommandCut            0000000000049d54 f   UefiShellDebug1CommandsLib:MainHexEditor.obj
 0001:00049b60       HMainCommandPaste          0000000000049e20 f   UefiShellDebug1CommandsLib:MainHexEditor.obj
 0001:00049c04       HMainCommandExit           0000000000049ec4 f   UefiShellDebug1CommandsLib:MainHexEditor.obj
 0001:00049d14       HMainCommandOpenFile       0000000000049fd4 f   UefiShellDebug1CommandsLib:MainHexEditor.obj
 0001:0004a044       HMainCommandOpenDisk       000000000004a304 f   UefiShellDebug1CommandsLib:MainHexEditor.obj
 0001:0004a398       HMainCommandOpenMemory     000000000004a658 f   UefiShellDebug1CommandsLib:MainHexEditor.obj
 0001:0004a6b4       HMainEditorInit            000000000004a974 f   UefiShellDebug1CommandsLib:MainHexEditor.obj
 0001:0004a990       HMainEditorCleanup         000000000004ac50 f   UefiShellDebug1CommandsLib:MainHexEditor.obj
 0001:0004ab38       HMainEditorRefresh         000000000004adf8 f   UefiShellDebug1CommandsLib:MainHexEditor.obj
 0001:0004adac       HMainEditorHandleMouseInput 000000000004b06c f   UefiShellDebug1CommandsLib:MainHexEditor.obj
 0001:0004b000       HMainEditorKeyInput        000000000004b2c0 f   UefiShellDebug1CommandsLib:MainHexEditor.obj
 0001:0004b3dc       HMainEditorBackup          000000000004b69c f   UefiShellDebug1CommandsLib:MainHexEditor.obj
 0001:0004b510       StatusBarRefresh           000000000004b7d0 f   UefiShellDebug1CommandsLib:EditStatusBar.obj
 0001:0004b690       StatusBarSetStatusString   000000000004b950 f   UefiShellDebug1CommandsLib:EditStatusBar.obj
 0001:0004b6f0       HBufferImageInit           000000000004b9b0 f   UefiShellDebug1CommandsLib:BufferImage.obj
 0001:0004b898       HBufferImageFreeLines      000000000004bb58 f   UefiShellDebug1CommandsLib:BufferImage.obj
 0001:0004b920       HBufferImagePrintLine      000000000004bbe0 f   UefiShellDebug1CommandsLib:BufferImage.obj
 0001:0004bce4       HBufferImageIsAtHighBits   000000000004bfa4 f   UefiShellDebug1CommandsLib:BufferImage.obj
 0001:0004bd40       HBufferImageIsInSelectedArea 000000000004c000 f   UefiShellDebug1CommandsLib:BufferImage.obj
 0001:0004be08       HBufferImageRestoreMousePosition 000000000004c0c8 f   UefiShellDebug1CommandsLib:BufferImage.obj
 0001:0004c0fc       HBufferImageRefresh        000000000004c3bc f   UefiShellDebug1CommandsLib:BufferImage.obj
 0001:0004c3f4       HBufferImageRead           000000000004c6b4 f   UefiShellDebug1CommandsLib:BufferImage.obj
 0001:0004c488       HBufferImageSave           000000000004c748 f   UefiShellDebug1CommandsLib:BufferImage.obj
 0001:0004c4fc       HBufferImageCreateLine     000000000004c7bc f   UefiShellDebug1CommandsLib:BufferImage.obj
 0001:0004c58c       HBufferImageAddChar        000000000004c84c f   UefiShellDebug1CommandsLib:BufferImage.obj
 0001:0004c6b0       HBufferImageDoCharInput    000000000004c970 f   UefiShellDebug1CommandsLib:BufferImage.obj
 0001:0004c79c       HBufferImageMovePosition   000000000004ca5c f   UefiShellDebug1CommandsLib:BufferImage.obj
 0001:0004c8bc       HBufferImageScrollDown     000000000004cb7c f   UefiShellDebug1CommandsLib:BufferImage.obj
 0001:0004c960       HBufferImagePageDown       000000000004cc20 f   UefiShellDebug1CommandsLib:BufferImage.obj
 0001:0004ca0c       HBufferImageGetTotalSize   000000000004cccc f   UefiShellDebug1CommandsLib:BufferImage.obj
 0001:0004ca70       HBufferImageDeleteCharacterFromBuffer 000000000004cd30 f   UefiShellDebug1CommandsLib:BufferImage.obj
 0001:0004cc2c       HBufferImageAddCharacterToBuffer 000000000004ceec f   UefiShellDebug1CommandsLib:BufferImage.obj
 0001:0004cdc4       HBufferImageBufferToList   000000000004d084 f   UefiShellDebug1CommandsLib:BufferImage.obj
 0001:0004ce64       HBufferImageListToBuffer   000000000004d124 f   UefiShellDebug1CommandsLib:BufferImage.obj
 0001:0004cf18       HBufferImageAdjustMousePosition 000000000004d1d8 f   UefiShellDebug1CommandsLib:BufferImage.obj
 0001:0004cfd8       HBufferImageHandleInput    000000000004d298 f   UefiShellDebug1CommandsLib:BufferImage.obj
 0001:0004d284       PutDword                   000000000004d544 f   UefiShellDebug1CommandsLib:Compress.obj
 0001:0004d2e8       FreeMemory                 000000000004d5a8 f   UefiShellDebug1CommandsLib:Compress.obj
 0001:0004d3bc       InitSlide                  000000000004d67c f   UefiShellDebug1CommandsLib:Compress.obj
 0001:0004d468       Child                      000000000004d728 f   UefiShellDebug1CommandsLib:Compress.obj
 0001:0004d4b0       InsertNode                 000000000004d770 f   UefiShellDebug1CommandsLib:Compress.obj
 0001:0004d8c4       DeleteNode                 000000000004db84 f   UefiShellDebug1CommandsLib:Compress.obj
 0001:0004da9c       FreadCrc                   000000000004dd5c f   UefiShellDebug1CommandsLib:Compress.obj
 0001:0004db28       GetNextMatch               000000000004dde8 f   UefiShellDebug1CommandsLib:Compress.obj
 0001:0004dbe4       DownHeap                   000000000004dea4 f   UefiShellDebug1CommandsLib:Compress.obj
 0001:0004dc8c       CountLen                   000000000004df4c f   UefiShellDebug1CommandsLib:Compress.obj
 0001:0004dd08       MakeTree                   000000000004dfc8 f   UefiShellDebug1CommandsLib:Compress.obj
 0001:0004e004       PutBits                    000000000004e2c4 f   UefiShellDebug1CommandsLib:Compress.obj
 0001:0004e0a8       CountTFreq                 000000000004e368 f   UefiShellDebug1CommandsLib:Compress.obj
 0001:0004e1f4       WritePTLen                 000000000004e4b4 f   UefiShellDebug1CommandsLib:Compress.obj
 0001:0004e2bc       WriteCLen                  000000000004e57c f   UefiShellDebug1CommandsLib:Compress.obj
 0001:0004e42c       SendBlock                  000000000004e6ec f   UefiShellDebug1CommandsLib:Compress.obj
 0001:0004e66c       CompressOutput             000000000004e92c f   UefiShellDebug1CommandsLib:Compress.obj
 0001:0004e75c       Encode                     000000000004ea1c f   UefiShellDebug1CommandsLib:Compress.obj
 0001:0004e9b8       Compress                   000000000004ec78 f   UefiShellDebug1CommandsLib:Compress.obj
 0001:0004eb04       SmbiosPrintEPSInfo         000000000004edc4 f   UefiShellDebug1CommandsLib:PrintInfo.obj
 0001:0004edc0       Smbios64BitPrintEPSInfo    000000000004f080 f   UefiShellDebug1CommandsLib:PrintInfo.obj
 0001:0004efa0       SmbiosPrintStructure       000000000004f260 f   UefiShellDebug1CommandsLib:PrintInfo.obj
 0001:000532a0       DisplayBiosCharacteristics 0000000000053560 f   UefiShellDebug1CommandsLib:PrintInfo.obj
 0001:000537d4       DisplayBiosCharacteristicsExt1 0000000000053a94 f   UefiShellDebug1CommandsLib:PrintInfo.obj
 0001:00053954       DisplayBiosCharacteristicsExt2 0000000000053c14 f   UefiShellDebug1CommandsLib:PrintInfo.obj
 0001:00053b24       DisplayProcessorFamily     0000000000053de4 f   UefiShellDebug1CommandsLib:PrintInfo.obj
 0001:000549c4       DisplayProcessorFamily2    0000000000054c84 f   UefiShellDebug1CommandsLib:PrintInfo.obj
 0001:00054d08       DisplayProcessorVoltage    0000000000054fc8 f   UefiShellDebug1CommandsLib:PrintInfo.obj
 0001:00054e94       DisplayProcessorStatus     0000000000055154 f   UefiShellDebug1CommandsLib:PrintInfo.obj
 0001:00054ff0       DisplayMaxMemoryModuleSize 00000000000552b0 f   UefiShellDebug1CommandsLib:PrintInfo.obj
 0001:000550cc       DisplayMemoryModuleConfigHandles 000000000005538c f   UefiShellDebug1CommandsLib:PrintInfo.obj
 0001:0005518c       DisplayMmBankConnections   000000000005544c f   UefiShellDebug1CommandsLib:PrintInfo.obj
 0001:00055254       DisplayMmMemorySize        0000000000055514 f   UefiShellDebug1CommandsLib:PrintInfo.obj
 0001:0005534c       DisplayCacheConfiguration  000000000005560c f   UefiShellDebug1CommandsLib:PrintInfo.obj
 0001:0005555c       DisplaySystemSlotId        000000000005581c f   UefiShellDebug1CommandsLib:PrintInfo.obj
 0001:000556c8       DisplaySystemBootStatus    0000000000055988 f   UefiShellDebug1CommandsLib:PrintInfo.obj
 0001:000557f4       DisplaySBDSManufactureDate 0000000000055ab4 f   UefiShellDebug1CommandsLib:PrintInfo.obj
 0001:00055890       DisplaySystemResetCapabilities 0000000000055b50 f   UefiShellDebug1CommandsLib:PrintInfo.obj
 0001:00055a54       DisplayHardwareSecuritySettings 0000000000055d14 f   UefiShellDebug1CommandsLib:PrintInfo.obj
 0001:00055c70       DisplayOBRAConnections     0000000000055f30 f   UefiShellDebug1CommandsLib:PrintInfo.obj
 0001:00055d4c       DisplaySPSCharacteristics  000000000005600c f   UefiShellDebug1CommandsLib:PrintInfo.obj
 0001:00056078       DisplayTpmDeviceCharacteristics 0000000000056338 f   UefiShellDebug1CommandsLib:PrintInfo.obj
 0001:000561d0       LibGetSmbiosString         0000000000056490 f   UefiShellDebug1CommandsLib:LibSmbiosView.obj
 0001:00056250       LibGetSmbiosStructure      0000000000056510 f   UefiShellDebug1CommandsLib:LibSmbiosView.obj
 0001:00056348       LibGetSmbios64BitStructure 0000000000056608 f   UefiShellDebug1CommandsLib:LibSmbiosView.obj
 0001:00056440       MainCommandOpenFile        0000000000056700 f   UefiShellDebug1CommandsLib:MainTextEditor.obj
 0001:0005660c       MainCommandSwitchFileType  00000000000568cc f   UefiShellDebug1CommandsLib:MainTextEditor.obj
 0001:0005664c       MainCommandCutLine         000000000005690c f   UefiShellDebug1CommandsLib:MainTextEditor.obj
 0001:000567b0       MainCommandPasteLine       0000000000056a70 f   UefiShellDebug1CommandsLib:MainTextEditor.obj
 0001:000567dc       MainCommandSearch          0000000000056a9c f   UefiShellDebug1CommandsLib:MainTextEditor.obj
 0001:00056978       MainCommandSearchReplace   0000000000056c38 f   UefiShellDebug1CommandsLib:MainTextEditor.obj
 0001:00056cc0       MainCommandExit            0000000000056f80 f   UefiShellDebug1CommandsLib:MainTextEditor.obj
 0001:00056da8       MainCommandGotoLine        0000000000057068 f   UefiShellDebug1CommandsLib:MainTextEditor.obj
 0001:00056e4c       MainCommandSaveFile        000000000005710c f   UefiShellDebug1CommandsLib:MainTextEditor.obj
 0001:000570c8       MainCommandDisplayHelp     0000000000057388 f   UefiShellDebug1CommandsLib:MainTextEditor.obj
 0001:000571cc       MainEditorInit             000000000005748c f   UefiShellDebug1CommandsLib:MainTextEditor.obj
 0001:0005748c       MainEditorCleanup          000000000005774c f   UefiShellDebug1CommandsLib:MainTextEditor.obj
 0001:000575e8       MainEditorRefresh          00000000000578a8 f   UefiShellDebug1CommandsLib:MainTextEditor.obj
 0001:00057720       MainEditorKeyInput         00000000000579e0 f   UefiShellDebug1CommandsLib:MainTextEditor.obj
 0001:00057b08       MainEditorBackup           0000000000057dc8 f   UefiShellDebug1CommandsLib:MainTextEditor.obj
 0001:00057ba8       FileBufferInit             0000000000057e68 f   UefiShellDebug1CommandsLib:FileBuffer.obj
 0001:00057c90       InternalEditorMiscLineAdvance 0000000000057f50 f   UefiShellDebug1CommandsLib:FileBuffer.obj
 0001:00057d14       InternalEditorMiscLineRetreat 0000000000057fd4 f   UefiShellDebug1CommandsLib:FileBuffer.obj
 0001:00057d98       MoveLine                   0000000000058058 f   UefiShellDebug1CommandsLib:FileBuffer.obj
 0001:00057dd4       FileBufferRestoreMousePosition 0000000000058094 f   UefiShellDebug1CommandsLib:FileBuffer.obj
 0001:00057ff0       FileBufferFreeLines        00000000000582b0 f   UefiShellDebug1CommandsLib:FileBuffer.obj
 0001:00058098       FileBufferPrintLine        0000000000058358 f   UefiShellDebug1CommandsLib:FileBuffer.obj
 0001:000581c0       FileBufferRestorePosition  0000000000058480 f   UefiShellDebug1CommandsLib:FileBuffer.obj
 0001:000581e8       FileBufferRefresh          00000000000584a8 f   UefiShellDebug1CommandsLib:FileBuffer.obj
 0001:000583b0       FileBufferCreateLine       0000000000058670 f   UefiShellDebug1CommandsLib:FileBuffer.obj
 0001:00058468       FileBufferSetFileName      0000000000058728 f   UefiShellDebug1CommandsLib:FileBuffer.obj
 0001:000584d4       FileBufferRead             0000000000058794 f   UefiShellDebug1CommandsLib:FileBuffer.obj
 0001:00058a64       GetNewLine                 0000000000058d24 f   UefiShellDebug1CommandsLib:FileBuffer.obj
 0001:00058b34       FileBufferSave             0000000000058df4 f   UefiShellDebug1CommandsLib:FileBuffer.obj
 0001:00058f04       FileBufferScrollLeft       00000000000591c4 f   UefiShellDebug1CommandsLib:FileBuffer.obj
 0001:00058f84       LineCat                    0000000000059244 f   UefiShellDebug1CommandsLib:FileBuffer.obj
 0001:00059014       FileBufferDoBackspace      00000000000592d4 f   UefiShellDebug1CommandsLib:FileBuffer.obj
 0001:00059120       FileBufferDoReturn         00000000000593e0 f   UefiShellDebug1CommandsLib:FileBuffer.obj
 0001:000592a0       FileBufferDoDelete         0000000000059560 f   UefiShellDebug1CommandsLib:FileBuffer.obj
 0001:0005939c       FileBufferScrollRight      000000000005965c f   UefiShellDebug1CommandsLib:FileBuffer.obj
 0001:000593ec       FileBufferAddChar          00000000000596ac f   UefiShellDebug1CommandsLib:FileBuffer.obj
 0001:000594c8       FileBufferHandleInput      0000000000059788 f   UefiShellDebug1CommandsLib:FileBuffer.obj
 0001:00059794       FileBufferMovePosition     0000000000059a54 f   UefiShellDebug1CommandsLib:FileBuffer.obj
 0001:000598f8       FileBufferPasteLine        0000000000059bb8 f   UefiShellDebug1CommandsLib:FileBuffer.obj
 0001:000599e4       FileBufferSearch           0000000000059ca4 f   UefiShellDebug1CommandsLib:FileBuffer.obj
 0001:00059afc       FileBufferReplace          0000000000059dbc f   UefiShellDebug1CommandsLib:FileBuffer.obj
 0001:00059d58       FileBufferReplaceAll       000000000005a018 f   UefiShellDebug1CommandsLib:FileBuffer.obj
 0001:00059f98       MenuBarInit                000000000005a258 f   UefiShellDebug1CommandsLib:EditMenuBar.obj
 0001:0005a010       MenuBarDispatchControlHotKey 000000000005a2d0 f   UefiShellDebug1CommandsLib:EditMenuBar.obj
 0001:0005a09c       HLineAdvance               000000000005a35c f   UefiShellDebug1CommandsLib:Misc.obj
 0001:0005a11c       HLineRetreat               000000000005a3dc f   UefiShellDebug1CommandsLib:Misc.obj
 0001:0005a19c       InputBarPrintInput         000000000005a45c f   UefiShellDebug1CommandsLib:EditInputBar.obj
 0001:0005a298       InputBarRefresh            000000000005a558 f   UefiShellDebug1CommandsLib:EditInputBar.obj
 0001:0005a4dc       InputBarSetPrompt          000000000005a79c f   UefiShellDebug1CommandsLib:EditInputBar.obj
 0001:0005a534       InputBarSetStringSize      000000000005a7f4 f   UefiShellDebug1CommandsLib:EditInputBar.obj
 0001:0005a590       MainTitleBarInit           000000000005a850 f   UefiShellDebug1CommandsLib:EditTitleBar.obj
 0001:0005a5fc       MainTitleBarRefresh        000000000005a8bc f   UefiShellDebug1CommandsLib:EditTitleBar.obj
 0001:0005a800       HMemImageRead              000000000005aac0 f   UefiShellDebug1CommandsLib:MemImage.obj
 0001:0005a9f0       HMemImageSave              000000000005acb0 f   UefiShellDebug1CommandsLib:MemImage.obj
 0001:0005aab4       HDiskImageRead             000000000005ad74 f   UefiShellDebug1CommandsLib:DiskImage.obj
 0001:0005adfc       HDiskImageSave             000000000005b0bc f   UefiShellDebug1CommandsLib:DiskImage.obj
 0001:0005af78       HFileImageSetFileName      000000000005b238 f   UefiShellDebug1CommandsLib:FileImage.obj
 0001:0005afd8       HFileImageRead             000000000005b298 f   UefiShellDebug1CommandsLib:FileImage.obj
 0001:0005b30c       HFileImageSave             000000000005b5cc f   UefiShellDebug1CommandsLib:FileImage.obj
 0001:0005b5c0       QueryTable                 000000000005b880 f   UefiShellDebug1CommandsLib:QueryTable.obj
 0001:0005b674       PrintBitsInfo              000000000005b934 f   UefiShellDebug1CommandsLib:QueryTable.obj
 0001:0005b738       DisplaySystemWakeupType    000000000005b9f8 f   UefiShellDebug1CommandsLib:QueryTable.obj
 0001:0005b7c8       DisplayBaseBoardFeatureFlags 000000000005ba88 f   UefiShellDebug1CommandsLib:QueryTable.obj
 0001:0005b830       DisplayBaseBoardBoardType  000000000005baf0 f   UefiShellDebug1CommandsLib:QueryTable.obj
 0001:0005b8c0       DisplaySystemEnclosureType 000000000005bb80 f   UefiShellDebug1CommandsLib:QueryTable.obj
 0001:0005b974       DisplaySystemEnclosureStatus 000000000005bc34 f   UefiShellDebug1CommandsLib:QueryTable.obj
 0001:0005ba04       DisplaySESecurityStatus    000000000005bcc4 f   UefiShellDebug1CommandsLib:QueryTable.obj
 0001:0005ba94       DisplayProcessorType       000000000005bd54 f   UefiShellDebug1CommandsLib:QueryTable.obj
 0001:0005bb24       DisplayProcessorUpgrade    000000000005bde4 f   UefiShellDebug1CommandsLib:QueryTable.obj
 0001:0005bbb4       DisplayProcessorCharacteristics 000000000005be74 f   UefiShellDebug1CommandsLib:QueryTable.obj
 0001:0005bc1c       DisplayMcErrorDetectMethod 000000000005bedc f   UefiShellDebug1CommandsLib:QueryTable.obj
 0001:0005bcac       DisplayMcErrorCorrectCapability 000000000005bf6c f   UefiShellDebug1CommandsLib:QueryTable.obj
 0001:0005bd14       DisplayMcInterleaveSupport 000000000005bfd4 f   UefiShellDebug1CommandsLib:QueryTable.obj
 0001:0005bda4       DisplayMcMemorySpeeds      000000000005c064 f   UefiShellDebug1CommandsLib:QueryTable.obj
 0001:0005be0c       DisplayMemoryModuleVoltage 000000000005c0cc f   UefiShellDebug1CommandsLib:QueryTable.obj
 0001:0005be74       DisplayMmMemoryType        000000000005c134 f   UefiShellDebug1CommandsLib:QueryTable.obj
 0001:0005bedc       DisplayMmErrorStatus       000000000005c19c f   UefiShellDebug1CommandsLib:QueryTable.obj
 0001:0005bf44       DisplayCacheSRAMType       000000000005c204 f   UefiShellDebug1CommandsLib:QueryTable.obj
 0001:0005bfac       DisplayCacheErrCorrectingType 000000000005c26c f   UefiShellDebug1CommandsLib:QueryTable.obj
 0001:0005c03c       DisplayCacheSystemCacheType 000000000005c2fc f   UefiShellDebug1CommandsLib:QueryTable.obj
 0001:0005c0cc       DisplayCacheAssociativity  000000000005c38c f   UefiShellDebug1CommandsLib:QueryTable.obj
 0001:0005c15c       DisplayPortConnectorType   000000000005c41c f   UefiShellDebug1CommandsLib:QueryTable.obj
 0001:0005c1ec       DisplayPortType            000000000005c4ac f   UefiShellDebug1CommandsLib:QueryTable.obj
 0001:0005c27c       DisplaySystemSlotType      000000000005c53c f   UefiShellDebug1CommandsLib:QueryTable.obj
 0001:0005c30c       DisplaySystemSlotDataBusWidth 000000000005c5cc f   UefiShellDebug1CommandsLib:QueryTable.obj
 0001:0005c39c       DisplaySystemSlotCurrentUsage 000000000005c65c f   UefiShellDebug1CommandsLib:QueryTable.obj
 0001:0005c42c       DisplaySystemSlotLength    000000000005c6ec f   UefiShellDebug1CommandsLib:QueryTable.obj
 0001:0005c4bc       DisplaySlotCharacteristics1 000000000005c77c f   UefiShellDebug1CommandsLib:QueryTable.obj
 0001:0005c524       DisplaySlotCharacteristics2 000000000005c7e4 f   UefiShellDebug1CommandsLib:QueryTable.obj
 0001:0005c58c       DisplaySystemSlotInformation 000000000005c84c f   UefiShellDebug1CommandsLib:QueryTable.obj
 0001:0005c61c       DisplaySystemSlotPhysicalWidth 000000000005c8dc f   UefiShellDebug1CommandsLib:QueryTable.obj
 0001:0005c6ac       DisplaySystemSlotHeight    000000000005c96c f   UefiShellDebug1CommandsLib:QueryTable.obj
 0001:0005c73c       DisplayOnboardDeviceTypes  000000000005c9fc f   UefiShellDebug1CommandsLib:QueryTable.obj
 0001:0005c7cc       DisplaySELTypes            000000000005ca8c f   UefiShellDebug1CommandsLib:QueryTable.obj
 0001:0005c85c       DisplaySELVarDataFormatType 000000000005cb1c f   UefiShellDebug1CommandsLib:QueryTable.obj
 0001:0005c8ec       DisplaySELSysManagementTypes 000000000005cbac f   UefiShellDebug1CommandsLib:QueryTable.obj
 0001:0005c9b0       DisplayPMALocation         000000000005cc70 f   UefiShellDebug1CommandsLib:QueryTable.obj
 0001:0005ca40       DisplayPMAUse              000000000005cd00 f   UefiShellDebug1CommandsLib:QueryTable.obj
 0001:0005cad0       DisplayPMAErrorCorrectionTypes 000000000005cd90 f   UefiShellDebug1CommandsLib:QueryTable.obj
 0001:0005cb60       DisplayMemoryDeviceFormFactor 000000000005ce20 f   UefiShellDebug1CommandsLib:QueryTable.obj
 0001:0005cbf0       DisplayMemoryDeviceType    000000000005ceb0 f   UefiShellDebug1CommandsLib:QueryTable.obj
 0001:0005cc80       DisplayMemoryDeviceTypeDetail 000000000005cf40 f   UefiShellDebug1CommandsLib:QueryTable.obj
 0001:0005cce8       DisplayMemoryDeviceMemoryTechnology 000000000005cfa8 f   UefiShellDebug1CommandsLib:QueryTable.obj
 0001:0005cd78       DisplayMemoryDeviceMemoryOperatingModeCapability 000000000005d038 f   UefiShellDebug1CommandsLib:QueryTable.obj
 0001:0005cde0       DisplayMemoryErrorType     000000000005d0a0 f   UefiShellDebug1CommandsLib:QueryTable.obj
 0001:0005ce70       DisplayMemoryErrorGranularity 000000000005d130 f   UefiShellDebug1CommandsLib:QueryTable.obj
 0001:0005cf00       DisplayMemoryErrorOperation 000000000005d1c0 f   UefiShellDebug1CommandsLib:QueryTable.obj
 0001:0005cf90       DisplayPointingDeviceType  000000000005d250 f   UefiShellDebug1CommandsLib:QueryTable.obj
 0001:0005d020       DisplayPointingDeviceInterface 000000000005d2e0 f   UefiShellDebug1CommandsLib:QueryTable.obj
 0001:0005d0b0       DisplayPBDeviceChemistry   000000000005d370 f   UefiShellDebug1CommandsLib:QueryTable.obj
 0001:0005d140       DisplayVPLocation          000000000005d400 f   UefiShellDebug1CommandsLib:QueryTable.obj
 0001:0005d1d4       DisplayVPStatus            000000000005d494 f   UefiShellDebug1CommandsLib:QueryTable.obj
 0001:0005d268       DisplayCoolingDeviceStatus 000000000005d528 f   UefiShellDebug1CommandsLib:QueryTable.obj
 0001:0005d2fc       DisplayCoolingDeviceType   000000000005d5bc f   UefiShellDebug1CommandsLib:QueryTable.obj
 0001:0005d390       DisplayTemperatureProbeStatus 000000000005d650 f   UefiShellDebug1CommandsLib:QueryTable.obj
 0001:0005d424       DisplayTemperatureProbeLoc 000000000005d6e4 f   UefiShellDebug1CommandsLib:QueryTable.obj
 0001:0005d4b8       DisplayECPStatus           000000000005d778 f   UefiShellDebug1CommandsLib:QueryTable.obj
 0001:0005d54c       DisplayECPLoc              000000000005d80c f   UefiShellDebug1CommandsLib:QueryTable.obj
 0001:0005d5e0       DisplayMDType              000000000005d8a0 f   UefiShellDebug1CommandsLib:QueryTable.obj
 0001:0005d670       DisplayMDAddressType       000000000005d930 f   UefiShellDebug1CommandsLib:QueryTable.obj
 0001:0005d700       DisplayMemoryChannelType   000000000005d9c0 f   UefiShellDebug1CommandsLib:QueryTable.obj
 0001:0005d790       DisplayIPMIDIBMCInterfaceType 000000000005da50 f   UefiShellDebug1CommandsLib:QueryTable.obj
 0001:0005d820       DisplayMCHostInterfaceType 000000000005dae0 f   UefiShellDebug1CommandsLib:QueryTable.obj
 0001:0005d8b0       DisplayProcessorArchitectureType 000000000005db70 f   UefiShellDebug1CommandsLib:QueryTable.obj
 0001:0005d940       DisplayFirmwareCharacteristics 000000000005dc00 f   UefiShellDebug1CommandsLib:QueryTable.obj
 0001:0005d9a8       DisplayFirmwareState       000000000005dc68 f   UefiShellDebug1CommandsLib:QueryTable.obj
 0001:0005da38       DisplayStructureTypeInfo   000000000005dcf8 f   UefiShellDebug1CommandsLib:QueryTable.obj
 0001:0005daa0       DisplaySELAccessMethod     000000000005dd60 f   UefiShellDebug1CommandsLib:EventLogInfo.obj
 0001:0005db84       DisplaySELLogStatus        000000000005de44 f   UefiShellDebug1CommandsLib:EventLogInfo.obj
 0001:0005dc5c       DisplaySysEventLogHeaderFormat 000000000005df1c f   UefiShellDebug1CommandsLib:EventLogInfo.obj
 0001:0005dd00       DisplaySysEventLogHeaderType1 000000000005dfc0 f   UefiShellDebug1CommandsLib:EventLogInfo.obj
 0001:0005deb4       DisplaySysEventLogHeader   000000000005e174 f   UefiShellDebug1CommandsLib:EventLogInfo.obj
 0001:0005df5c       DisplayElVdfInfo           000000000005e21c f   UefiShellDebug1CommandsLib:EventLogInfo.obj
 0001:0005e140       DisplaySysEventLogData     000000000005e400 f   UefiShellDebug1CommandsLib:EventLogInfo.obj
 0001:0005e320       LineDup                    000000000005e5e0 f   UefiShellDebug1CommandsLib:Misc.obj
 0001:0005e398       ShellCommandGetManFileNameNetwork1 000000000005e658 f   UefiShellNetwork1CommandsLib:UefiShellNetwork1CommandsLib.obj
 0001:0005e3a0       RttTimerTickRoutine        000000000005e660 f   UefiShellNetwork1CommandsLib:Ping.obj
 0001:0005e3a4       PingInitRttTimer           000000000005e664 f   UefiShellNetwork1CommandsLib:Ping.obj
 0001:0005e518       PingDestroyTxInfo          000000000005e7d8 f   UefiShellNetwork1CommandsLib:Ping.obj
 0001:0005e610       Ping6OnEchoRequestSent     000000000005e8d0 f   UefiShellNetwork1CommandsLib:Ping.obj
 0001:0005e614       Ping6OnEchoReplyReceived   000000000005e8d4 f   UefiShellNetwork1CommandsLib:Ping.obj
 0001:0005e87c       PingGenerateToken          000000000005eb3c f   UefiShellNetwork1CommandsLib:Ping.obj
 0001:0005eaa8       PingSendEchoRequest        000000000005ed68 f   UefiShellNetwork1CommandsLib:Ping.obj
 0001:0005eb7c       Ping6ReceiveEchoReply      000000000005ee3c f   UefiShellNetwork1CommandsLib:Ping.obj
 0001:0005ec20       Ping6OnTimerRoutine        000000000005eee0 f   UefiShellNetwork1CommandsLib:Ping.obj
 0001:0005ed78       PingCreateIpInstance       000000000005f038 f   UefiShellNetwork1CommandsLib:Ping.obj
 0001:0005f470       ShellPing                  000000000005f730 f   UefiShellNetwork1CommandsLib:Ping.obj
 0001:0005f96c       ShellCommandRunPing        000000000005fc2c f   UefiShellNetwork1CommandsLib:Ping.obj
 0001:0005fc14       SplitStrToList             000000000005fed4 f   UefiShellNetwork1CommandsLib:Ifconfig.obj
 0001:0005fd00       IfConfigRetriveCheckListByName 000000000005ffc0 f   UefiShellNetwork1CommandsLib:Ifconfig.obj
 0001:0005fde0       IfConfigManualAddressNotify 00000000000600a0 f   UefiShellNetwork1CommandsLib:Ifconfig.obj
 0001:0005fde4       IfConfigGetInterfaceInfo   00000000000600a4 f   UefiShellNetwork1CommandsLib:Ifconfig.obj
 0001:00060084       IfConfigShowInterfaceInfo  0000000000060344 f   UefiShellNetwork1CommandsLib:Ifconfig.obj
 0001:000606d0       IfConfigClearInterfaceInfo 0000000000060990 f   UefiShellNetwork1CommandsLib:Ifconfig.obj
 0001:000607d8       IfConfigSetInterfaceInfo   0000000000060a98 f   UefiShellNetwork1CommandsLib:Ifconfig.obj
 0001:00060e94       ShellCommandRunIfconfig    0000000000061154 f   UefiShellNetwork1CommandsLib:Ifconfig.obj
 0001:000612a4       CompareMem                 0000000000061564 f   BaseMemoryLibRepStr:CompareMemWrapper.obj
 0001:0006137c       DivU64x32Remainder         000000000006163c f   BaseLib:DivU64x32Remainder.obj
 0001:000613dc       QuickSort                  000000000006169c f   BaseLib:QuickSort.obj
 0001:00061540       IsTdxGuest                 0000000000061800 f   BaseIoLibIntrinsicSev:IoLibInternalTdx.obj
 0001:0006156c       TdIoRead8                  000000000006182c f   BaseIoLibIntrinsicSev:IoLibInternalTdx.obj
 0001:000615bc       TdIoRead16                 000000000006187c f   BaseIoLibIntrinsicSev:IoLibInternalTdx.obj
 0001:00061630       TdIoRead32                 00000000000618f0 f   BaseIoLibIntrinsicSev:IoLibInternalTdx.obj
 0001:000616a4       TdIoWrite8                 0000000000061964 f   BaseIoLibIntrinsicSev:IoLibInternalTdx.obj
 0001:000616f4       TdIoWrite16                00000000000619b4 f   BaseIoLibIntrinsicSev:IoLibInternalTdx.obj
 0001:00061770       TdIoWrite32                0000000000061a30 f   BaseIoLibIntrinsicSev:IoLibInternalTdx.obj
 0001:000617ec       SerialPortWrite            0000000000061aac f   PcAtSerialPortLib:SerialPortLib.obj
 0001:00061874       InternalPrint              0000000000061b34 f   UefiLib:UefiLibPrint.obj
 0001:00061960       Print                      0000000000061c20 f   UefiLib:UefiLibPrint.obj
 0001:00061990       CatSPrint                  0000000000061c50 f   UefiLib:UefiLibPrint.obj
 0001:00061aa0       PeCoffLoaderGetPdbPointer  0000000000061d60 f   BasePeCoffGetEntryPointLib:PeCoffGetEntryPoint.obj
 0001:00061bec       OrderedCollectionNext      0000000000061eac f   BaseOrderedCollectionRedBlackTreeLib:BaseOrderedCollectionRedBlackTreeLib.obj
 0001:00061c2c       RedBlackTreeRotateRight    0000000000061eec f   BaseOrderedCollectionRedBlackTreeLib:BaseOrderedCollectionRedBlackTreeLib.obj
 0001:00061c6c       RedBlackTreeRotateLeft     0000000000061f2c f   BaseOrderedCollectionRedBlackTreeLib:BaseOrderedCollectionRedBlackTreeLib.obj
 0001:00061cac       OrderedCollectionInsert    0000000000061f6c f   BaseOrderedCollectionRedBlackTreeLib:BaseOrderedCollectionRedBlackTreeLib.obj
 0001:00061e84       OrderedCollectionDelete    0000000000062144 f   BaseOrderedCollectionRedBlackTreeLib:BaseOrderedCollectionRedBlackTreeLib.obj
 0001:00062278       UpdateOptionalData         0000000000062538 f   UefiShellBcfgCommandLib:UefiShellBcfgCommandLib.obj
 0001:00062440       GetBootOptionCrc           0000000000062700 f   UefiShellBcfgCommandLib:UefiShellBcfgCommandLib.obj
 0001:00062508       GetDevicePathForDriverHandle 00000000000627c8 f   UefiShellBcfgCommandLib:UefiShellBcfgCommandLib.obj
 0001:0006260c       GetDevicePathByHandle      00000000000628cc f   UefiShellBcfgCommandLib:UefiShellBcfgCommandLib.obj
 0001:0006277c       BcfgMod                    0000000000062a3c f   UefiShellBcfgCommandLib:UefiShellBcfgCommandLib.obj
 0001:00062aac       BcfgAdd                    0000000000062d6c f   UefiShellBcfgCommandLib:UefiShellBcfgCommandLib.obj
 0001:00063018       BcfgRemove                 00000000000632d8 f   UefiShellBcfgCommandLib:UefiShellBcfgCommandLib.obj
 0001:0006318c       BcfgMove                   000000000006344c f   UefiShellBcfgCommandLib:UefiShellBcfgCommandLib.obj
 0001:000632d0       BcfgAddOpt                 0000000000063590 f   UefiShellBcfgCommandLib:UefiShellBcfgCommandLib.obj
 0001:00063b14       BcfgDisplayDump            0000000000063dd4 f   UefiShellBcfgCommandLib:UefiShellBcfgCommandLib.obj
 0001:00063da8       ShellCommandRunBcfg        0000000000064068 f   UefiShellBcfgCommandLib:UefiShellBcfgCommandLib.obj
 0001:00065924       ShellCommandGetManFileNameBcfg 0000000000065be4 f   UefiShellBcfgCommandLib:UefiShellBcfgCommandLib.obj
 0001:0006592c       BcfgLibraryRegisterBcfgCommand 0000000000065bec f   UefiShellBcfgCommandLib:UefiShellBcfgCommandLib.obj
 0001:000659b4       NetLibGetSnpHandle         0000000000065c74 f   DxeNetLib:DxeNetLib.obj
 0001:00065a7c       NetLibDetectMedia          0000000000065d3c f   DxeNetLib:DxeNetLib.obj
 0001:00065ca4       NetLibDetectMediaWaitTimeout 0000000000065f64 f   DxeNetLib:DxeNetLib.obj
 0001:00065da4       NetLibStrToIp4             0000000000066064 f   DxeNetLib:DxeNetLib.obj
 0001:00065ef8       GetTdInfo                  00000000000661b8 f   TdxLib:TdInfo.obj
 0001:00065f5c       TdSharedPageMask           000000000006621c f   TdxLib:TdInfo.obj
 0001:00065f88       EfiBootManagerLoadOptionToVariable 0000000000066248 f   UefiBootManagerLib:BmLoadOption.obj
 0001:00066220       EfiBootManagerInitializeLoadOption 00000000000664e0 f   UefiBootManagerLib:BmLoadOption.obj
 0001:00066304       BmValidateOption           00000000000665c4 f   UefiBootManagerLib:BmLoadOption.obj
 0001:00066478       EfiBootManagerIsValidLoadOptionVariableName 0000000000066738 f   UefiBootManagerLib:BmLoadOption.obj
 0001:00066580       EfiBootManagerVariableToLoadOptionEx 0000000000066840 f   UefiBootManagerLib:BmLoadOption.obj
 0001:000666f8       EfiBootManagerFreeLoadOption 00000000000669b8 f   UefiBootManagerLib:BmLoadOption.obj
 0001:00066744       CreateBasicVariablePolicy  0000000000066a04 f   VariablePolicyHelperLib:VariablePolicyHelperLib.obj
 0002:00000000       ??_C@_05OJBIAJFH@Shell@    0000000000066b20     Shell:AutoGen.obj
 0002:00000008       ??_C@_0CH@BBNBJKHK@?$CB?$CI?$CI?$CIINTN?$CJ?$CIRETURN_STATUS?$CJ?$CIStatus@ 0000000000066b28     Shell:AutoGen.obj
 0002:00000030       ??_C@_0HI@DJMHKDNL@d?3?2uefi_specs_personal_collecti@ 0000000000066b50     Shell:AutoGen.obj
 0002:000000a8       ??_C@_0CB@DMEJJJHA@?6ASSERT_EFI_ERROR?5?$CIStatus?5?$DN?5?$CFr?$CJ@ 0000000000066bc8     Shell:AutoGen.obj
 0002:000000d0       _gPcd_FixedAtBuild_PcdShellSupplier 0000000000066bf0     Shell:AutoGen.obj
 0002:000000e0       ??_C@_0BH@MAAHKCPC@String?5?$CB?$DN?5?$CI?$CIvoid?5?$CK?$CJ?50?$CJ@ 0000000000066c00     Shell:Shell.obj
 0002:00000100       ??_C@_0EL@JJCEFLNE@D?3?2uefi_specs_personal_collecti@ 0000000000066c20     Shell:Shell.obj
 0002:00000150       ??_C@_0BI@OEIGECFN@?$CKString?5?$CB?$DN?5?$CI?$CIvoid?5?$CK?$CJ?50?$CJ@ 0000000000066c70     Shell:Shell.obj
 0002:00000168       ??_C@_0BK@LACMFILE@BeginPercent?5?$DM?5EndPercent@ 0000000000066c88     Shell:Shell.obj
 0002:00000184       ??_C@_13NEIAEHFG@?$AA?$CC@ 0000000000066ca4     Shell:Shell.obj
 0002:00000188       ??_C@_13PPFCDPMH@?$AA?$HM@ 0000000000066ca8     Shell:Shell.obj
 0002:00000190       ??_C@_0DL@HPCOOOPC@ShellInfoObject?4NewShellParamet@ 0000000000066cb0     Shell:Shell.obj
 0002:000001d0       ??_C@_0DE@NALNPBBL@ShellInfoObject?4NewEfiShellProt@ 0000000000066cf0     Shell:Shell.obj
 0002:00000208       ??_C@_1M@GDFLIJGE@?$AAF?$AAa?$AAl?$AAs?$AAe@ 0000000000066d28     Shell:Shell.obj
 0002:00000218       ??_C@_17HJKEOJJP@?$AAm?$AAa?$AAp@ 0000000000066d38     Shell:Shell.obj
 0002:00000220       ??_C@_1BC@JPGJMLGC@?$AAp?$AAr?$AAo?$AAf?$AAi?$AAl?$AAe?$AAs@ 0000000000066d40     Shell:Shell.obj
 0002:00000234       ??_C@_15KNBIKKIN@?$AA?$CF?$AAd@ 0000000000066d54     Shell:Shell.obj
 0002:00000240       ??_C@_1CC@OOEJBCHO@?$AAu?$AAe?$AAf?$AAi?$AAs?$AAh?$AAe?$AAl?$AAl?$AAs?$AAu?$AAp?$AAp?$AAo?$AAr@ 0000000000066d60     Shell:Shell.obj
 0002:00000268       ??_C@_1M@NDGNLFMH@?$AA?$CF?$AAd?$AA?4?$AA?$CF?$AAd@ 0000000000066d88     Shell:Shell.obj
 0002:00000278       ??_C@_1CC@LDCNHJKB@?$AAu?$AAe?$AAf?$AAi?$AAs?$AAh?$AAe?$AAl?$AAl?$AAv?$AAe?$AAr?$AAs?$AAi?$AAo@ 0000000000066d98     Shell:Shell.obj
 0002:000002a0       ??_C@_1BI@BCLCNCIC@?$AAu?$AAe?$AAf?$AAi?$AAv?$AAe?$AAr?$AAs?$AAi?$AAo?$AAn@ 0000000000066dc0     Shell:Shell.obj
 0002:000002b8       ??_C@_0CM@IAGDMIGD@ShellInfoObject?4ConsoleInfo?5?$CB?$DN?5@ 0000000000066dd8     Shell:Shell.obj
 0002:000002e8       ??_C@_17GGNKNKOD@?$AAc?$AAw?$AAd@ 0000000000066e08     Shell:Shell.obj
 0002:000002f0       ??_C@_0BC@FEDIJHFF@?$CI?$CIBOOLEAN?$CJ?$CI0?$DN?$DN1?$CJ?$CJ@ 0000000000066e10     Shell:Shell.obj
 0002:00000308       ??_C@_17LEMNFMDC@?$AAf?$AAo?$AAr@ 0000000000066e28     Shell:Shell.obj
 0002:00000310       ??_C@_1O@BBEFAAME@?$AAe?$AAn?$AAd?$AAf?$AAo?$AAr@ 0000000000066e30     Shell:Shell.obj
 0002:00000320       ??_C@_15HPILKIBB@?$AAi?$AAf@ 0000000000066e40     Shell:Shell.obj
 0002:00000328       ??_C@_19CNLBJFBH@?$AAe?$AAl?$AAs?$AAe@ 0000000000066e48     Shell:Shell.obj
 0002:00000338       ??_C@_1M@JOOCEOEH@?$AAe?$AAn?$AAd?$AAi?$AAf@ 0000000000066e58     Shell:Shell.obj
 0002:00000348       ??_C@_19NFHDJCBF@?$AAg?$AAo?$AAt?$AAo@ 0000000000066e68     Shell:Shell.obj
 0002:00000358       ??_C@_0BI@OIEOGPFD@DevPath?5?$CB?$DN?5?$CI?$CIvoid?5?$CK?$CJ?50?$CJ@ 0000000000066e78     Shell:Shell.obj
 0002:00000370       ??_C@_0BJ@LNALCLOM@FilePath?5?$CB?$DN?5?$CI?$CIvoid?5?$CK?$CJ?50?$CJ@ 0000000000066e90     Shell:Shell.obj
 0002:00000390       ??_C@_1BC@GKOFKKJK@?$AA?9?$AAs?$AAt?$AAa?$AAr?$AAt?$AAu?$AAp@ 0000000000066eb0     Shell:Shell.obj
 0002:000003a8       ??_C@_1BG@FGCHDHKN@?$AA?9?$AAn?$AAo?$AAs?$AAt?$AAa?$AAr?$AAt?$AAu?$AAp@ 0000000000066ec8     Shell:Shell.obj
 0002:000003c0       ??_C@_1BM@PMGGPCI@?$AA?9?$AAn?$AAo?$AAc?$AAo?$AAn?$AAs?$AAo?$AAl?$AAe?$AAo?$AAu?$AAt@ 0000000000066ee0     Shell:Shell.obj
 0002:000003e0       ??_C@_1BK@IANHHEEL@?$AA?9?$AAn?$AAo?$AAc?$AAo?$AAn?$AAs?$AAo?$AAl?$AAe?$AAi?$AAn@ 0000000000066f00     Shell:Shell.obj
 0002:00000400       ??_C@_1BK@HIGCBJDG@?$AA?9?$AAn?$AAo?$AAi?$AAn?$AAt?$AAe?$AAr?$AAr?$AAu?$AAp?$AAt@ 0000000000066f20     Shell:Shell.obj
 0002:00000420       ??_C@_1O@FGCMKHFJ@?$AA?9?$AAn?$AAo?$AAm?$AAa?$AAp@ 0000000000066f40     Shell:Shell.obj
 0002:00000430       ??_C@_1BG@LGLCEGDI@?$AA?9?$AAn?$AAo?$AAv?$AAe?$AAr?$AAs?$AAi?$AAo?$AAn@ 0000000000066f50     Shell:Shell.obj
 0002:00000448       ??_C@_1BA@COHPHGOG@?$AA?9?$AAn?$AAo?$AAn?$AAe?$AAs?$AAt@ 0000000000066f68     Shell:Shell.obj
 0002:00000458       ??_C@_1O@BKJLJAOF@?$AA?9?$AAd?$AAe?$AAl?$AAa?$AAy@ 0000000000066f78     Shell:Shell.obj
 0002:00000468       ??_C@_1M@IBGJMPMO@?$AA?9?$AAe?$AAx?$AAi?$AAt@ 0000000000066f88     Shell:Shell.obj
 0002:00000474       ??_C@_13IMODFHAA@?$AA?9@   0000000000066f94     Shell:Shell.obj
 0002:00000478       ??_C@_13HOIJIPNN@?$AA?5@   0000000000066f98     Shell:Shell.obj
 0002:00000480       ??_C@_0JA@FNLKFKGO@?$CIShellInfoObject?4ShellInitSetti@ 0000000000066fa0     Shell:Shell.obj
 0002:00000510       ??_C@_13PJJBFPED@?$AA?$DL@ 0000000000067030     Shell:Shell.obj
 0002:00000518       ??_C@_1BO@FLDKLBBG@?$AAh?$AAo?$AAm?$AAe?$AAf?$AAi?$AAl?$AAe?$AAs?$AAy?$AAs?$AAt?$AAe?$AAm@ 0000000000067038     Shell:Shell.obj
 0002:00000538       ??_C@_13EJFHHPOP@?$AA?$CF@ 0000000000067058     Shell:Shell.obj
 0002:00000540       ??_C@_0CE@LJCHIGCM@OriginalCommandLine?5?$CB?$DN?5?$CI?$CIvoid?5?$CK@ 0000000000067060     Shell:Shell.obj
 0002:00000564       ??_C@_15OPFFGINH@?$AA?$FO?$AA?$CF@ 0000000000067084     Shell:Shell.obj
 0002:00000570       ??_C@_0BH@NPJELEAM@StdOut?5?$DN?$DN?5?$CI?$CIvoid?5?$CK?$CJ?50?$CJ@ 0000000000067090     Shell:Shell.obj
 0002:00000588       ??_C@_0CH@EMNPLADO@StrStr?5?$CICmdLine?0?5L?$CC?$HM?$CC?$CJ?5?$CB?$DN?5?$CI?$CIvoi@ 00000000000670a8     Shell:Shell.obj
 0002:000005b0       ??_C@_0CD@IEFOICLO@Split?9?$DOSplitStdOut?5?$CB?$DN?5?$CI?$CIvoid?5?$CK?$CJ@ 00000000000670d0     Shell:Shell.obj
 0002:000005e0       ??_C@_0EG@BGEHLAMA@?$CISPLIT_LIST?5?$CK?$CJGetFirstNode?5?$CI?$CGSh@ 0000000000067100     Shell:Shell.obj
 0002:00000628       ??_C@_0BI@CCIALOMF@CmdLine?5?$CB?$DN?5?$CI?$CIvoid?5?$CK?$CJ?50?$CJ@ 0000000000067148     Shell:Shell.obj
 0002:00000640       ??_C@_0BJ@GEMNIBFM@?$CKCmdLine?5?$CB?$DN?5?$CI?$CIvoid?5?$CK?$CJ?50?$CJ@ 0000000000067160     Shell:Shell.obj
 0002:0000065c       ??_C@_13EBCNDICG@?$AA?3@   000000000006717c     Shell:Shell.obj
 0002:00000660       ??_C@_0FA@ICMJJMLF@CmdLine?$FL?$CIStrLen?5?$CICmdLine?$CJ?91?$CJ?$FN?5?$DN@ 0000000000067180     Shell:Shell.obj
 0002:000006b0       ??_C@_15FNEHKAED@?$AA?9?$AA?$DP@ 00000000000671d0     Shell:Shell.obj
 0002:000006b8       ??_C@_1M@LBOOPLFJ@?$AAh?$AAe?$AAl?$AAp?$AA?5@ 00000000000671d8     Shell:Shell.obj
 0002:000006c8       ??_C@_1M@BCBKOEKO@?$AA0?$AAx?$AA?$CF?$AAL?$AAx@ 00000000000671e8     Shell:Shell.obj
 0002:000006d8       ??_C@_19PCNJIDGC@?$AA0?$AAx?$AA?$CF?$AAx@ 00000000000671f8     Shell:Shell.obj
 0002:000006e8       ??_C@_1BO@PIKGDIKH@?$AAd?$AAe?$AAb?$AAu?$AAg?$AAl?$AAa?$AAs?$AAt?$AAe?$AAr?$AAr?$AAo?$AAr@ 0000000000067208     Shell:Shell.obj
 0002:00000708       ??_C@_1BE@JFEAOBEI@?$AAl?$AAa?$AAs?$AAt?$AAe?$AAr?$AAr?$AAo?$AAr@ 0000000000067228     Shell:Shell.obj
 0002:0000071c       ??_C@_13HGPDMIBE@?$AA?$DP@ 000000000006723c     Shell:Shell.obj
 0002:00000720       ??_C@_0CA@MFCCBFOP@CommandWithPath?5?$CB?$DN?5?$CI?$CIvoid?5?$CK?$CJ?50?$CJ@ 0000000000067240     Shell:Shell.obj
 0002:00000740       ??_C@_0BO@FIAKEDAD@?$CBShellCommandGetScriptExit?5?$CI?$CJ@ 0000000000067260     Shell:Shell.obj
 0002:00000760       ??_C@_0CK@GPOFFFON@NewScriptFile?9?$DOScriptName?5?$DN?$DN?5?$CI?$CI@ 0000000000067280     Shell:Shell.obj
 0002:00000790       ??_C@_0CN@MDCLIFIC@NewScriptFile?9?$DOArgv?$FLLoopVar?$FN?5?$DN?$DN@ 00000000000672b0     Shell:Shell.obj
 0002:000007c0       ??_C@_15JEHPHNPC@?$AA?$CF?$AA9@ 00000000000672e0     Shell:Shell.obj
 0002:000007c8       ??_C@_15CMMDBKJH@?$AA?$CF?$AA8@ 00000000000672e8     Shell:Shell.obj
 0002:000007d0       ??_C@_15HEKAAKMB@?$AA?$CF?$AA7@ 00000000000672f0     Shell:Shell.obj
 0002:000007d8       ??_C@_15MMBMGNKE@?$AA?$CF?$AA6@ 00000000000672f8     Shell:Shell.obj
 0002:000007e0       ??_C@_15NOKJMCEK@?$AA?$CF?$AA5@ 0000000000067300     Shell:Shell.obj
 0002:000007e8       ??_C@_15GGBFKFCP@?$AA?$CF?$AA4@ 0000000000067308     Shell:Shell.obj
 0002:000007f0       ??_C@_15PLMCJNJG@?$AA?$CF?$AA3@ 0000000000067310     Shell:Shell.obj
 0002:000007f8       ??_C@_15EDHOPKPD@?$AA?$CF?$AA2@ 0000000000067318     Shell:Shell.obj
 0002:00000800       ??_C@_15FBMLFFBN@?$AA?$CF?$AA1@ 0000000000067320     Shell:Shell.obj
 0002:00000808       ??_C@_15OJHHDCHI@?$AA?$CF?$AA0@ 0000000000067328     Shell:Shell.obj
 0002:00000810       ??_C@_15OGCJNNE@?$AA?$CC?$AA?$CC@ 0000000000067330     Shell:Shell.obj
 0002:00000818       ??_C@_1BG@GPPJNEOI@?$AA?$EA?$AAe?$AAc?$AAh?$AAo?$AA?5?$AA?9?$AAo?$AAf?$AAf@ 0000000000067338     Shell:Shell.obj
 0002:00000830       ??_C@_1BE@DMFNHPCI@?$AA?$EA?$AAe?$AAc?$AAh?$AAo?$AA?5?$AA?9?$AAo?$AAn@ 0000000000067350     Shell:Shell.obj
 0002:00000848       ??_C@_19EEPNDKNE@?$AA?$CF?$AAs?$AA?$AN?$AA?6@ 0000000000067368     Shell:Shell.obj
 0002:00000858       mNoNestingEnvVarName       0000000000067378     Shell:Shell.obj
 0002:00000898       mNoNestingTrue             00000000000673b8     Shell:Shell.obj
 0002:000008d0       ??_C@_0FE@BCKIOHKK@?$CIPathForReturn?5?$DN?$DN?5?$CI?$CIvoid?5?$CK?$CJ?50?$CJ?5@ 00000000000673f0     Shell:ShellProtocol.obj
 0002:00000930       ??_C@_0FD@MJFJDPIH@D?3?2uefi_specs_personal_collecti@ 0000000000067450     Shell:ShellProtocol.obj
 0002:00000988       ??_C@_0BP@OFJBBFCN@DevicePathCopy?5?$CB?$DN?5?$CI?$CIvoid?5?$CK?$CJ?50?$CJ@ 00000000000674a8     Shell:ShellProtocol.obj
 0002:000009a8       ??_C@_0BM@DBMGMBPA@MapPathCopy?5?$CB?$DN?5?$CI?$CIvoid?5?$CK?$CJ?50?$CJ@ 00000000000674c8     Shell:ShellProtocol.obj
 0002:000009c4       ??_C@_13FPGAJAPJ@?$AA?2@   00000000000674e4     Shell:ShellProtocol.obj
 0002:000009c8       ??_C@_15DOBJMHMB@?$AA?$DO?$AAv@ 00000000000674e8     Shell:ShellProtocol.obj
 0002:000009d0       ??_C@_15DGGDIAAI@?$AA?$DO?$AAi@ 00000000000674f0     Shell:ShellProtocol.obj
 0002:000009d8       ??_C@_0BM@CPHPCMLA@?$CKFileHandle?5?$CB?$DN?5?$CI?$CIvoid?5?$CK?$CJ?50?$CJ@ 00000000000674f8     Shell:ShellProtocol.obj
 0002:000009f4       ??_C@_15BDAINPNE@?$AA?$DO?$AAo@ 0000000000067514     Shell:ShellProtocol.obj
 0002:00000a00       ??_C@_17CLELIOII@?$AAN?$AAU?$AAL@ 0000000000067520     Shell:ShellProtocol.obj
 0002:00000a08       ??_C@_19CIJIHAKK@?$AAN?$AAU?$AAL?$AAL@ 0000000000067528     Shell:ShellProtocol.obj
 0002:00000a14       ??_C@_15HMLFDPLA@?$AA?$DO?$AAe@ 0000000000067534     Shell:ShellProtocol.obj
 0002:00000a20       ??_C@_0CC@JOLAKDKP@LoadedImage?9?$DOLoadOptionsSize?5?$DN?$DN@ 0000000000067540     Shell:ShellProtocol.obj
 0002:00000a48       ??_C@_0CO@KPPFNCFM@?$CB?$CI?$CI?$CIINTN?$CJ?$CIRETURN_STATUS?$CJ?$CICleanu@ 0000000000067568     Shell:ShellProtocol.obj
 0002:00000a78       ??_C@_1CC@HKOPKFLN@?$AAS?$AAh?$AAe?$AAl?$AAl?$AA?4?$AAe?$AAf?$AAi?$AA?5?$AA?9?$AAe?$AAx?$AAi?$AAt@ 0000000000067598     Shell:ShellProtocol.obj
 0002:00000aa0       ??_C@_0BL@CMJHFCBI@TempString?5?$DN?$DN?5?$CI?$CIvoid?5?$CK?$CJ?50?$CJ@ 00000000000675c0     Shell:ShellProtocol.obj
 0002:00000ac0       ??_C@_0EK@KCBJNLOB@?$CITempString?5?$DN?$DN?5?$CI?$CIvoid?5?$CK?$CJ?50?$CJ?5?$CG?$CG?5@ 00000000000675e0     Shell:ShellProtocol.obj
 0002:00000b0c       ??_C@_13JOFGPIOO@?$AA?4@   000000000006762c     Shell:ShellProtocol.obj
 0002:00000b10       ??_C@_15DDHGOCBH@?$AA?4?$AA?4@ 0000000000067630     Shell:ShellProtocol.obj
 0002:00000b18       ??_C@_0BO@OAECAICK@Count?5?$DM?$DN?5StrLen?5?$CIPatternCopy?$CJ@ 0000000000067638     Shell:ShellProtocol.obj
 0002:00000b40       ??_C@_0EF@BMFMOKDK@?$CIPath2?5?$DN?$DN?5?$CI?$CIvoid?5?$CK?$CJ?50?$CJ?5?$CG?$CG?5Path2@ 0000000000067660     Shell:ShellProtocol.obj
 0002:00000b88       ??_C@_0BK@EGBMOPOO@Node?9?$DOKey?5?$CB?$DN?5?$CI?$CIvoid?5?$CK?$CJ?50?$CJ@ 00000000000676a8     Shell:ShellProtocol.obj
 0002:00000ba8       ??_C@_0BN@BDINJONM@Status?5?$DN?$DN?5?$CIRETURN_STATUS?$CJ?$CI0?$CJ@ 00000000000676c8     Shell:ShellProtocol.obj
 0002:00000bc8       ??_C@_0BO@PFNEAFPA@DirectoryName?5?$CB?$DN?5?$CI?$CIvoid?5?$CK?$CJ?50?$CJ@ 00000000000676e8     Shell:ShellProtocol.obj
 0002:00000bf0       ??_C@_0HI@CAPEDHNF@?$CIMapListItem?9?$DOCurrentDirectoryP@ 0000000000067710     Shell:ShellProtocol.obj
 0002:00000c68       ??_C@_0BJ@CNCJBBAK@HelpText?5?$CB?$DN?5?$CI?$CIvoid?5?$CK?$CJ?50?$CJ@ 0000000000067788     Shell:ShellProtocol.obj
 0002:00000c90       ??_C@_0EF@GIBEAODI@?$CIRetVal?5?$DN?$DN?5?$CI?$CIvoid?5?$CK?$CJ?50?$CJ?5?$CG?$CG?5RetS@ 00000000000677b0     Shell:ShellProtocol.obj
 0002:00000cd8       ??_C@_0BG@PMINLNNJ@Alias?5?$CB?$DN?5?$CI?$CIvoid?5?$CK?$CJ?50?$CJ@ 00000000000677f8     Shell:ShellProtocol.obj
 0002:00000cf0       ??_C@_0DB@GPEBFHNA@IsListEmpty?5?$CI?$CGShellInfoObject?4O@ 0000000000067810     Shell:ShellProtocol.obj
 0002:00000d28       ??_C@_0BJ@PICCNDGH@Volatile?5?$CB?$DN?5?$CI?$CIvoid?5?$CK?$CJ?50?$CJ@ 0000000000067848     Shell:ShellEnvVar.obj
 0002:00000d50       ??_C@_0FB@BCMFHKMC@D?3?2uefi_specs_personal_collecti@ 0000000000067870     Shell:ShellEnvVar.obj
 0002:00000da8       ??_C@_0BF@NJNGJMPC@List?5?$CB?$DN?5?$CI?$CIvoid?5?$CK?$CJ?50?$CJ@ 00000000000678c8     Shell:ShellEnvVar.obj
 0002:00000dc0       ??_C@_0BF@CBLMFKOC@Node?5?$CB?$DN?5?$CI?$CIvoid?5?$CK?$CJ?50?$CJ@ 00000000000678e0     Shell:ShellEnvVar.obj
 0002:00000dd8       ??_C@_13NMPKAAJP@?$AA?$DN@ 00000000000678f8     Shell:ShellEnvVar.obj
 0002:00000de0       ??_C@_0CN@DGOJNAKA@StrStr?5?$CICurrentString?0?5L?$CC?$DN?$CC?$CJ?5?$CB?$DN@ 0000000000067900     Shell:ShellEnvVar.obj
 0002:00000e10       ??_C@_15EDKKDMNP@?$AA?5?$AA?$CC@ 0000000000067930     Shell:ShellParametersProtocol.obj
 0002:00000e18       ??_C@_15CPILICPA@?$AA?$CC?$AA?$FO@ 0000000000067938     Shell:ShellParametersProtocol.obj
 0002:00000e20       ??_C@_0BF@JGBEECGI@Argc?5?$CB?$DN?5?$CI?$CIvoid?5?$CK?$CJ?50?$CJ@ 0000000000067940     Shell:ShellParametersProtocol.obj
 0002:00000e40       ??_C@_0FN@KPGKOAIA@D?3?2uefi_specs_personal_collecti@ 0000000000067960     Shell:ShellParametersProtocol.obj
 0002:00000ea0       ??_C@_0BF@FMENHPJH@Argv?5?$CB?$DN?5?$CI?$CIvoid?5?$CK?$CJ?50?$CJ@ 00000000000679c0     Shell:ShellParametersProtocol.obj
 0002:00000eb8       ??_C@_0BB@FEAIBCKF@Count?5?$DO?$DN?5?$CI?$CKArgc?$CJ@ 00000000000679d8     Shell:ShellParametersProtocol.obj
 0002:00000ed0       ??_C@_0CD@FIFEEFHJ@NewShellParameters?5?$CB?$DN?5?$CI?$CIvoid?5?$CK?$CJ@ 00000000000679f0     Shell:ShellParametersProtocol.obj
 0002:00000ef8       ??_C@_0CC@LCFPHEN@RootShellInstance?5?$CB?$DN?5?$CI?$CIvoid?5?$CK?$CJ?5@ 0000000000067a18     Shell:ShellParametersProtocol.obj
 0002:00000f20       ??_C@_1BC@FNCBBNBI@?$AAS?$AAh?$AAe?$AAl?$AAl?$AAO?$AAp?$AAt@ 0000000000067a40     Shell:ShellParametersProtocol.obj
 0002:00000f38       ??_C@_0CA@MFNMGLLM@FullCommandLine?5?$DN?$DN?5?$CI?$CIvoid?5?$CK?$CJ?50?$CJ@ 0000000000067a58     Shell:ShellParametersProtocol.obj
 0002:00000f60       ??_C@_0EA@BJKCAJCJ@?$CI?$CI?$CIINTN?$CJ?$CIRETURN_STATUS?$CJ?$CIStatus?$CJ@ 0000000000067a80     Shell:ShellParametersProtocol.obj
 0002:00000fa0       ??_C@_1O@IAAGOEFN@?$AA?5?$AA2?$AA?$DO?$AA?$DO?$AAv?$AA?5@ 0000000000067ac0     Shell:ShellParametersProtocol.obj
 0002:00000fb0       ??_C@_1O@PHJIDGKN@?$AA?5?$AA1?$AA?$DO?$AA?$DO?$AAv?$AA?5@ 0000000000067ad0     Shell:ShellParametersProtocol.obj
 0002:00000fc0       ??_C@_1M@HCPFAEO@?$AA?5?$AA?$DO?$AA?$DO?$AAv?$AA?5@ 0000000000067ae0     Shell:ShellParametersProtocol.obj
 0002:00000fd0       ??_C@_19LOCGJEPE@?$AA?5?$AA?$DO?$AAv?$AA?5@ 0000000000067af0     Shell:ShellParametersProtocol.obj
 0002:00000fe0       ??_C@_1O@OJELAEIO@?$AA?5?$AA1?$AA?$DO?$AA?$DO?$AAa?$AA?5@ 0000000000067b00     Shell:ShellParametersProtocol.obj
 0002:00000ff0       ??_C@_1M@BFCPIDMC@?$AA?5?$AA1?$AA?$DO?$AA?$DO?$AA?5@ 0000000000067b10     Shell:ShellParametersProtocol.obj
 0002:00001000       ??_C@_19FNCNBMPF@?$AA?5?$AA?$DO?$AA?$DO?$AA?5@ 0000000000067b20     Shell:ShellParametersProtocol.obj
 0002:00001010       ??_C@_1M@BJPMGCGN@?$AA?5?$AA?$DO?$AA?$DO?$AAa?$AA?5@ 0000000000067b30     Shell:ShellParametersProtocol.obj
 0002:00001020       ??_C@_1M@OIPHDJOA@?$AA?5?$AA1?$AA?$DO?$AAa?$AA?5@ 0000000000067b40     Shell:ShellParametersProtocol.obj
 0002:00001030       ??_C@_19KAPFKGNH@?$AA?5?$AA?$DO?$AAa?$AA?5@ 0000000000067b50     Shell:ShellParametersProtocol.obj
 0002:00001040       ??_C@_1M@POBIDIMB@?$AA?5?$AA2?$AA?$DO?$AA?$DO?$AA?5@ 0000000000067b60     Shell:ShellParametersProtocol.obj
 0002:00001050       ??_C@_1M@BNBDLAMA@?$AA?5?$AA2?$AA?$DO?$AAv?$AA?5@ 0000000000067b70     Shell:ShellParametersProtocol.obj
 0002:00001060       ??_C@_1M@PGCEALMD@?$AA?5?$AA1?$AA?$DO?$AAv?$AA?5@ 0000000000067b80     Shell:ShellParametersProtocol.obj
 0002:00001070       ??_C@_1M@DMAICOD@?$AA?5?$AA2?$AA?$DO?$AAa?$AA?5@ 0000000000067b90     Shell:ShellParametersProtocol.obj
 0002:00001080       ??_C@_19KICAJLK@?$AA?5?$AA2?$AA?$DO?$AA?5@ 0000000000067ba0     Shell:ShellParametersProtocol.obj
 0002:00001090       ??_C@_19IEANAOFJ@?$AA?5?$AA1?$AA?$DO?$AA?5@ 0000000000067bb0     Shell:ShellParametersProtocol.obj
 0002:000010a0       ??_C@_17PNOJILCD@?$AA?5?$AA?$DO?$AA?5@ 0000000000067bc0     Shell:ShellParametersProtocol.obj
 0002:000010a8       ??_C@_17LACBCKCI@?$AA?5?$AA?$DM?$AA?5@ 0000000000067bc8     Shell:ShellParametersProtocol.obj
 0002:000010b0       ??_C@_19OCNAKBKK@?$AA?5?$AA?$DM?$AAa?$AA?5@ 0000000000067bd0     Shell:ShellParametersProtocol.obj
 0002:000010c0       ??_C@_19PMADJDIJ@?$AA?5?$AA?$DM?$AAv?$AA?5@ 0000000000067be0     Shell:ShellParametersProtocol.obj
 0002:000010d0       ??_C@_1BG@LDKDBFGF@?$AAc?$AAo?$AAn?$AAn?$AAe?$AAc?$AAt?$AA?5?$AA?9?$AAr@ 0000000000067bf0     Shell:ShellParametersProtocol.obj
 0002:000010e8       ??_C@_0BL@EDBMIKGG@TempHandle?5?$CB?$DN?5?$CI?$CIvoid?5?$CK?$CJ?50?$CJ@ 0000000000067c08     Shell:ShellParametersProtocol.obj
 0002:00001104       ??_C@_11LOCGONAA@@         0000000000067c24     Shell:ShellParametersProtocol.obj
 0002:00001108       ??_C@_0CA@CBKMDJNI@ShellParameters?5?$CB?$DN?5?$CI?$CIvoid?5?$CK?$CJ?50?$CJ@ 0000000000067c28     Shell:ShellParametersProtocol.obj
 0002:00001128       ??_C@_0BI@GCPLFEFJ@OldArgv?5?$CB?$DN?5?$CI?$CIvoid?5?$CK?$CJ?50?$CJ@ 0000000000067c48     Shell:ShellParametersProtocol.obj
 0002:00001140       ??_C@_0BI@KIKCGJKG@OldArgc?5?$CB?$DN?5?$CI?$CIvoid?5?$CK?$CJ?50?$CJ@ 0000000000067c60     Shell:ShellParametersProtocol.obj
 0002:00001158       ??_C@_0BM@JJEJGGGM@ConsoleInfo?5?$CB?$DN?5?$CI?$CIvoid?5?$CK?$CJ?50?$CJ@ 0000000000067c78     Shell:ConsoleLogger.obj
 0002:00001180       ??_C@_0FD@DAAJHANM@D?3?2uefi_specs_personal_collecti@ 0000000000067ca0     Shell:ConsoleLogger.obj
 0002:000011d8       ??_C@_0CH@CKEDIBJ@ConsoleInfo?9?$DOOldConOut?5?$CB?$DN?5?$CI?$CIvoi@ 0000000000067cf8     Shell:ConsoleLogger.obj
 0002:00001200       ??_C@_0BF@NDBIKIKC@CR?5has?5Bad?5Signature@ 0000000000067d20     Shell:ConsoleLogger.obj
 0002:00001220       ??_C@_0GJ@MDFBOPCM@ConsoleInfo?9?$DOHistoryMode?4Cursor@ 0000000000067d40     Shell:ConsoleLogger.obj
 0002:00001290       ??_C@_0CD@DPJJJNIG@CopySize?5?$DM?5ConsoleInfo?9?$DOAttribS@ 0000000000067db0     Shell:ConsoleLogger.obj
 0002:000012b8       ??_C@_0CD@PHAIKNHA@CopySize?5?$DM?5ConsoleInfo?9?$DOBufferS@ 0000000000067dd8     Shell:ConsoleLogger.obj
 0002:000012e0       ??_C@_0DO@NPBKMNEP@ConsoleInfo?9?$DOOriginalStartRow?5?$DN@ 0000000000067e00     Shell:ConsoleLogger.obj
 0002:00001320       ??_C@_0EK@BCAFEPBD@PrintIndex?5?$CL?5ConsoleInfo?9?$DOHisto@ 0000000000067e40     Shell:ConsoleLogger.obj
 0002:00001370       ??_C@_0CF@EFFGCKGM@PrintIndex?5?$DM?5ConsoleInfo?9?$DOAttri@ 0000000000067e90     Shell:ConsoleLogger.obj
 0002:00001398       ??_C@_15JNBOKNOG@?$AA?$AN?$AA?6@ 0000000000067eb8     Shell:ConsoleLogger.obj
 0002:000013a0       ??_C@_0CB@IPIIKOIN@ShellInfoObject?4PageBreakEnable@ 0000000000067ec0     Shell:ConsoleLogger.obj
 0002:000013c8       ??_C@_0BF@JJGDGIED@Resp?5?$CB?$DN?5?$CI?$CIvoid?5?$CK?$CJ?50?$CJ@ 0000000000067ee8     Shell:ConsoleLogger.obj
 0002:000013e0       ??_C@_0CL@KGMELDIO@ShellInfoObject?4ConsoleInfo?5?$DN?$DN?5@ 0000000000067f00     Shell:ConsoleLogger.obj
 0002:0000140c       ??_C@_13BBDEGPLJ@?$AA?$CK@ 0000000000067f2c     Shell:FileHandleWrappers.obj
 0002:00001410       ??_C@_17HBKEMHNM@?$AA?$CF?$AAN?$AA?6@ 0000000000067f30     Shell:FileHandleWrappers.obj
 0002:00001418       ??_C@_0CA@EPIHLNMK@TabCompleteList?5?$CB?$DN?5?$CI?$CIvoid?5?$CK?$CJ?50?$CJ@ 0000000000067f38     Shell:FileHandleWrappers.obj
 0002:00001440       ??_C@_0FI@GMOIEEKJ@D?3?2uefi_specs_personal_collecti@ 0000000000067f60     Shell:FileHandleWrappers.obj
 0002:00001498       ??_C@_1O@KOGCFCFL@?$AA?$CF?$AAs?$AA?$CF?$AA?4?$AA?$CK?$AAs@ 0000000000067fb8     Shell:FileHandleWrappers.obj
 0002:000014a8       ??_C@_0CA@OICFAJM@TabCompleteList?5?$DN?$DN?5?$CI?$CIvoid?5?$CK?$CJ?50?$CJ@ 0000000000067fc8     Shell:FileHandleWrappers.obj
 0002:000014c8       ??_C@_13LBAGMAIH@?$AA?6@   0000000000067fe8     Shell:FileHandleWrappers.obj
 0002:000014d0       ??_C@_1BC@CPFBHBNI@?$AA?$CF?$AA2?$AAd?$AA?4?$AA?5?$AA?$CF?$AAs?$AA?6@ 0000000000067ff0     Shell:FileHandleWrappers.obj
 0002:000014e4       ??_C@_02KPKOKMHB@?$CFS@    0000000000068004     Shell:FileHandleWrappers.obj
 0002:000014e8       ??_C@_0CG@LGHBJIPJ@FileInterface?9?$DOBuffer?5?$DN?$DN?5?$CI?$CIvoid@ 0000000000068008     Shell:FileHandleWrappers.obj
 0002:00001510       ??_C@_0BP@HJLEIBOC@FileInterface?9?$DOBufferSize?5?$DN?$DN?50@ 0000000000068030     Shell:FileHandleWrappers.obj
 0002:00001530       ??_C@_0BN@IGDFKHEM@FileInterface?9?$DOPosition?5?$DN?$DN?50@ 0000000000068050     Shell:FileHandleWrappers.obj
 0002:00001550       ??_C@_19ENGJFOPL@?$AA?4?$AAe?$AAf?$AAi@ 0000000000068070     Shell:ShellManParser.obj
 0002:00001560       ??_C@_19BOFOENEP@?$AA?4?$AAm?$AAa?$AAn@ 0000000000068080     Shell:ShellManParser.obj
 0002:00001570       ??_C@_17LPJOGKMB@?$AA?4?$AAT?$AAH@ 0000000000068090     Shell:ShellManParser.obj
 0002:00001578       ??_C@_17KCJLFKHJ@?$AA?4?$AAS?$AAH@ 0000000000068098     Shell:ShellManParser.obj
 0002:00001580       ??_C@_0EN@MKJGMOL@?$CI?$CKHelpText?5?$DN?$DN?5?$CI?$CIvoid?5?$CK?$CJ?50?$CJ?5?$CG?$CG?5?$CK@ 00000000000680a0     Shell:ShellManParser.obj
 0002:000015d0       ??_C@_0FE@PMAHAKMB@D?3?2uefi_specs_personal_collecti@ 00000000000680f0     Shell:ShellManParser.obj
 0002:00001628       ??_C@_19NPLEHOOJ@?$AA?4?$AAT?$AAH?$AA?5@ 0000000000068148     Shell:ShellManParser.obj
 0002:00001638       ??_C@_19CIOJOFN@?$AA?4?$AAT?$AAH?$AA?7@ 0000000000068158     Shell:ShellManParser.obj
 0002:00001650       ??_C@_0ED@MKGCMJG@?$CILength?5?9?51?$CJ?5?$DM?$DN?5?$CI0xFFFFFFFFFFFF@ 0000000000068170     BaseMemoryLibRepStr:CopyMemWrapper.obj
 0002:000016a0       ??_C@_0FM@IDPIEKJH@D?3?2uefi_specs_personal_collecti@ 00000000000681c0     BaseMemoryLibRepStr:CopyMemWrapper.obj
 0002:00001700       ??_C@_0DO@MAOBOFEG@?$CILength?5?9?51?$CJ?5?$DM?$DN?5?$CI0xFFFFFFFFFFFF@ 0000000000068220     BaseMemoryLibRepStr:CopyMemWrapper.obj
 0002:00001740       ??_C@_0DG@EEENIGGL@Length?5?$DM?$DN?5?$CI0xFFFFFFFFFFFFFFFFUL@ 0000000000068260     BaseMemoryLibRepStr:MemLibGuid.obj
 0002:00001778       ??_C@_0BH@IACGKAP@Buffer?5?$CB?$DN?5?$CI?$CIvoid?5?$CK?$CJ?50?$CJ@ 0000000000068298     BaseMemoryLibRepStr:ZeroMemWrapper.obj
 0002:00001790       ??_C@_0FM@DHFKCLFA@D?3?2uefi_specs_personal_collecti@ 00000000000682b0     BaseMemoryLibRepStr:ZeroMemWrapper.obj
 0002:000017f0       ??_C@_0FN@FGCCNHON@D?3?2uefi_specs_personal_collecti@ 0000000000068310     BaseMemoryLibRepStr:SetMem16Wrapper.obj
 0002:00001850       ??_C@_0DI@DAGDPLPG@?$CILength?5?9?51?$CJ?5?$DM?$DN?5?$CI0xFFFFFFFFFFFF@ 0000000000068370     BaseMemoryLibRepStr:SetMem16Wrapper.obj
 0002:00001888       ??_C@_0CO@LECKNDNC@?$CI?$CI?$CIUINTN?$CJBuffer?$CJ?5?$CG?5?$CIsizeof?5?$CIVal@ 00000000000683a8     BaseMemoryLibRepStr:SetMem16Wrapper.obj
 0002:000018b8       ??_C@_0CF@LEICOABD@?$CILength?5?$CG?5?$CIsizeof?5?$CIValue?$CJ?5?9?51?$CJ?$CJ@ 00000000000683d8     BaseMemoryLibRepStr:SetMem16Wrapper.obj
 0002:000018e0       ??_C@_0FL@MFFLICHL@D?3?2uefi_specs_personal_collecti@ 0000000000068400     BaseMemoryLibRepStr:SetMemWrapper.obj
 0002:00001940       ??_C@_0CC@GFNLNIOC@?$CI?$CIUINTN?$CJString?5?$CG?50x00000001?$CJ?5?$DN?$DN@ 0000000000068460     BaseLib:SafeString.obj
 0002:00001970       ??_C@_0EM@OAPOMMAE@D?3?2uefi_specs_personal_collecti@ 0000000000068490     BaseLib:SafeString.obj
 0002:000019c0       ??_C@_0CH@LALFPBMC@?$CI?$CIUINTN?$CJDestination?5?$CG?50x0000000@ 00000000000684e0     BaseLib:SafeString.obj
 0002:000019e8       ??_C@_0CC@HEBCMBPF@?$CI?$CIUINTN?$CJSource?5?$CG?50x00000001?$CJ?5?$DN?$DN@ 0000000000068508     BaseLib:SafeString.obj
 0002:00001a10       ??_C@_0BO@ECNIOIHG@?$CIDestination?5?$CB?$DN?5?$CI?$CIvoid?5?$CK?$CJ?50?$CJ?$CJ@ 0000000000068530     BaseLib:SafeString.obj
 0002:00001a30       ??_C@_07KBGDFDAM@StrCpyS@  0000000000068550     BaseLib:SafeString.obj
 0002:00001a40       ??_C@_0EA@PDPDJJNN@?$CFa?$CI?$CFd?$CJ?5?$CFa?3?5SAFE_STRING_CONSTRAI@ 0000000000068560     BaseLib:SafeString.obj
 0002:00001a80       ??_C@_0BJ@EAEEJIP@?$CISource?5?$CB?$DN?5?$CI?$CIvoid?5?$CK?$CJ?50?$CJ?$CJ@ 00000000000685a0     BaseLib:SafeString.obj
 0002:00001aa0       ??_C@_0EA@BBALOHPI@?$CIDestMax?5?$DM?$DN?5?$CI_gPcd_FixedAtBuild@ 00000000000685c0     BaseLib:SafeString.obj
 0002:00001ae0       ??_C@_0P@PMIMLIHM@?$CIDestMax?5?$CB?$DN?50?$CJ@ 0000000000068600     BaseLib:SafeString.obj
 0002:00001af0       ??_C@_0BG@EEGIIOKH@?$CIDestMax?5?$DO?5SourceLen?$CJ@ 0000000000068610     BaseLib:SafeString.obj
 0002:00001b10       ??_C@_0FH@PPBLBDBJ@InternalSafeStringNoStrOverlap?5@ 0000000000068630     BaseLib:SafeString.obj
 0002:00001b68       ??_C@_08INOAHJON@StrnCpyS@ 0000000000068688     BaseLib:SafeString.obj
 0002:00001b78       ??_C@_0DP@PBOJGJC@?$CILength?5?$DM?$DN?5?$CI_gPcd_FixedAtBuild_@ 0000000000068698     BaseLib:SafeString.obj
 0002:00001bb8       ??_C@_07EBBOPAKF@StrCatS@  00000000000686d8     BaseLib:SafeString.obj
 0002:00001bc0       ??_C@_0P@BHOOOJPD@?$CICopyLen?5?$CB?$DN?50?$CJ@ 00000000000686e0     BaseLib:SafeString.obj
 0002:00001bd0       ??_C@_0BG@BPGICNPK@?$CICopyLen?5?$DO?5SourceLen?$CJ@ 00000000000686f0     BaseLib:SafeString.obj
 0002:00001be8       ??_C@_08GNJNNKEE@StrnCatS@ 0000000000068708     BaseLib:SafeString.obj
 0002:00001bf8       ??_C@_0BJ@MBBOBCLN@?$CIString?5?$CB?$DN?5?$CI?$CIvoid?5?$CK?$CJ?50?$CJ?$CJ@ 0000000000068718     BaseLib:SafeString.obj
 0002:00001c18       ??_C@_0BD@NNBAKNOF@StrDecimalToUintnS@ 0000000000068738     BaseLib:SafeString.obj
 0002:00001c30       ??_C@_0BH@JPMEDPAI@?$CIData?5?$CB?$DN?5?$CI?$CIvoid?5?$CK?$CJ?50?$CJ?$CJ@ 0000000000068750     BaseLib:SafeString.obj
 0002:00001c50       ??_C@_0IC@CFBPEAPC@?$CIStrnLenS?5?$CIString?0?5?$CI_gPcd_Fixed@ 0000000000068770     BaseLib:SafeString.obj
 0002:00001cd8       ??_C@_0P@FDCJFGP@StrHexToUintnS@ 00000000000687f8     BaseLib:SafeString.obj
 0002:00001ce8       ??_C@_0BA@PLPLKCD@StrHexToUint64S@ 0000000000068808     BaseLib:SafeString.obj
 0002:00001cf8       ??_C@_0BB@LMEEEKHP@StrToIpv6Address@ 0000000000068818     BaseLib:SafeString.obj
 0002:00001d10       ??_C@_0BK@PFCDEPEA@?$CIAddress?5?$CB?$DN?5?$CI?$CIvoid?5?$CK?$CJ?50?$CJ?$CJ@ 0000000000068830     BaseLib:SafeString.obj
 0002:00001d30       ??_C@_0EK@OFPBBCEA@AddressIndex?5?$CL?51?5?$DM?5?$CIsizeof?5?$CIAdd@ 0000000000068850     BaseLib:SafeString.obj
 0002:00001d80       ??_C@_0BB@JCLCGCPJ@StrToIpv4Address@ 00000000000688a0     BaseLib:SafeString.obj
 0002:00001d98       ??_C@_09NDPBFECG@StrToGuid@ 00000000000688b8     BaseLib:SafeString.obj
 0002:00001da8       ??_C@_0BH@JHLMKECN@?$CIGuid?5?$CB?$DN?5?$CI?$CIvoid?5?$CK?$CJ?50?$CJ?$CJ@ 00000000000688c8     BaseLib:SafeString.obj
 0002:00001dc0       ??_C@_0O@GDLPMLII@StrHexToBytes@ 00000000000688e0     BaseLib:SafeString.obj
 0002:00001dd0       ??_C@_0BJ@CNKJJNE@?$CIBuffer?5?$CB?$DN?5?$CI?$CIvoid?5?$CK?$CJ?50?$CJ?$CJ@ 00000000000688f0     BaseLib:SafeString.obj
 0002:00001df0       ??_C@_0BN@ECMFIFKJ@?$CI?$CILength?5?$CG?50x00000001?$CJ?5?$DN?$DN?50?$CJ@ 0000000000068910     BaseLib:SafeString.obj
 0002:00001e10       ??_C@_0BO@HHMNFJIK@?$CIMaxBufferSize?5?$DO?$DN?5Length?5?1?52?$CJ@ 0000000000068930     BaseLib:SafeString.obj
 0002:00001e30       ??_C@_0BG@MFINJFHO@AsciiStrToUnicodeStrS@ 0000000000068950     BaseLib:SafeString.obj
 0002:00001e50       ??_C@_0GF@GCLJAOAI@?$CBInternalSafeStringIsOverlap?5?$CID@ 0000000000068970     BaseLib:SafeString.obj
 0002:00001ec0       ??_C@_0EI@LOLLHGDK@D?3?2uefi_specs_personal_collecti@ 00000000000689e0     BaseLib:String.obj
 0002:00001f08       ??_C@_0DK@EOJCOAME@Length?5?$DM?5_gPcd_FixedAtBuild_Pcd@ 0000000000068a28     BaseLib:String.obj
 0002:00001f48       ??_C@_0BL@JAAMOCAJ@StrSize?5?$CIFirstString?$CJ?5?$CB?$DN?50@ 0000000000068a68     BaseLib:String.obj
 0002:00001f68       ??_C@_0BM@DALBOILC@StrSize?5?$CISecondString?$CJ?5?$CB?$DN?50@ 0000000000068a88     BaseLib:String.obj
 0002:00001f88       ??_C@_0DL@LFIMEMJP@Length?5?$DM?$DN?5_gPcd_FixedAtBuild_Pc@ 0000000000068aa8     BaseLib:String.obj
 0002:00001fc8       ??_C@_0BG@KBNOLIGE@StrSize?5?$CIString?$CJ?5?$CB?$DN?50@ 0000000000068ae8     BaseLib:String.obj
 0002:00001fe0       ??_C@_0BM@NNBLOHJD@StrSize?5?$CISearchString?$CJ?5?$CB?$DN?50@ 0000000000068b00     BaseLib:String.obj
 0002:00002000       ??_C@_0DI@MDIKFADO@Length?5?$DM?5_gPcd_FixedAtBuild_Pcd@ 0000000000068b20     BaseLib:String.obj
 0002:00002038       ??_C@_0BL@IKFBNFIL@AsciiStrSize?5?$CIFirstString?$CJ@ 0000000000068b58     BaseLib:String.obj
 0002:00002058       ??_C@_0BM@EDNOKLLE@AsciiStrSize?5?$CISecondString?$CJ@ 0000000000068b78     BaseLib:String.obj
 0002:00002078       ??_C@_0DJ@JJHGIFMP@Length?5?$DM?$DN?5_gPcd_FixedAtBuild_Pc@ 0000000000068b98     BaseLib:String.obj
 0002:000020b8       ??_C@_0BM@NLNKOJGD@Destination?5?$CB?$DN?5?$CI?$CIvoid?5?$CK?$CJ?50?$CJ@ 0000000000068bd8     BaseLib:String.obj
 0002:000020e0       ??_C@_0EM@NCJPOFNN@D?3?2uefi_specs_personal_collecti@ 0000000000068c00     BaseLib:LinkedList.obj
 0002:00002130       ??_C@_0CC@KDLPLAED@List?9?$DOForwardLink?5?$CB?$DN?5?$CI?$CIvoid?5?$CK?$CJ?5@ 0000000000068c50     BaseLib:LinkedList.obj
 0002:00002158       ??_C@_0BP@IJJCCMAK@List?9?$DOBackLink?5?$CB?$DN?5?$CI?$CIvoid?5?$CK?$CJ?50?$CJ@ 0000000000068c78     BaseLib:LinkedList.obj
 0002:00002178       ??_C@_0CI@BMHOPIIO@InternalBaseLibIsListValid?5?$CIFir@ 0000000000068c98     BaseLib:LinkedList.obj
 0002:000021a0       ??_C@_0BJ@NJABNCDK@ListHead?5?$CB?$DN?5?$CI?$CIvoid?5?$CK?$CJ?50?$CJ@ 0000000000068cc0     BaseLib:LinkedList.obj
 0002:000021c0       ??_C@_0CG@LGIALJFK@InternalBaseLibIsListValid?5?$CILis@ 0000000000068ce0     BaseLib:LinkedList.obj
 0002:000021e8       ??_C@_0CC@JLDICICM@InternalBaseLibIsListValid?5?$CILis@ 0000000000068d08     BaseLib:LinkedList.obj
 0002:00002210       ??_C@_0BF@NMBJJECB@?$CBIsListEmpty?5?$CIEntry?$CJ@ 0000000000068d30     BaseLib:LinkedList.obj
 0002:00002228       ??_C@_15LEKKCGMK@?$AA?2?$AA?2@ 0000000000068d48     BaseLib:FilePaths.obj
 0002:00002230       ??_C@_17CECJBCED@?$AA?2?$AA?4?$AA?2@ 0000000000068d50     BaseLib:FilePaths.obj
 0002:00002238       ??_C@_15HFJMEONN@?$AA?2?$AA?4@ 0000000000068d58     BaseLib:FilePaths.obj
 0002:00002240       ??_C@_17OFBPHKFE@?$AA?2?$AA?4?$AA?4@ 0000000000068d60     BaseLib:FilePaths.obj
 0002:00002250       ??_C@_0EL@GLNKFHII@D?3?2uefi_specs_personal_collecti@ 0000000000068d70     BaseLib:Unaligned.obj
 0002:000022a0       ??_C@_0N@KGHEHMDL@Divisor?5?$CB?$DN?50@ 0000000000068dc0     BaseLib:DivU64x32.obj
 0002:000022b0       ??_C@_0L@MEMPDLHB@Count?5?$DM?564@ 0000000000068dd0     BaseLib:LShiftU64.obj
 0002:000022c0       ??_C@_0EL@BPCLAPLB@D?3?2uefi_specs_personal_collecti@ 0000000000068de0     BaseLib:RShiftU64.obj
 0002:00002310       ??_C@_0CI@BGLNHBLM@?$CI?$CI?$CIUINTN?$CJ?5?$CIStartOfBuffer?$CJ?$CJ?5?$CG?50x@ 0000000000068e30     BasePrintLib:PrintLib.obj
 0002:00002340       ??_C@_0EP@OFLCNDBG@D?3?2uefi_specs_personal_collecti@ 0000000000068e60     BasePrintLib:PrintLib.obj
 0002:00002390       ??_C@_0CH@KJLBGOBB@?$CI?$CI?$CIUINTN?$CJ?5?$CIFormatString?$CJ?$CJ?5?$CG?50x0@ 0000000000068eb0     BasePrintLib:PrintLib.obj
 0002:000023b8       ??_C@_0CB@LDBAOPMG@?$CI?$CI?$CIUINTN?$CJ?5?$CIBuffer?$CJ?$CJ?5?$CG?50x01?$CJ?5?$DN?$DN?5@ 0000000000068ed8     BasePrintLib:PrintLib.obj
 0002:000023e0       ??_C@_0FH@MODEAFEI@D?3?2uefi_specs_personal_collecti@ 0000000000068f00     BasePrintLib:PrintLibInternal.obj
 0002:00002440       ??_C@_0EB@HDGIDCIO@?$CIBufferSize?5?$DM?$DN?5?$CI_gPcd_FixedAtBu@ 0000000000068f60     BasePrintLib:PrintLibInternal.obj
 0002:00002488       ??_C@_0CI@HPJOGFNE@?$CIBufferSize?5?$DO?$DN?5?$CIWidth?5?$CL?51?$CJ?5?$CK?5In@ 0000000000068fa8     BasePrintLib:PrintLibInternal.obj
 0002:000024b0       ??_C@_0BJ@PPAKKDJG@?$CIFormat?5?$CB?$DN?5?$CI?$CIvoid?5?$CK?$CJ?50?$CJ?$CJ@ 0000000000068fd0     BasePrintLib:PrintLibInternal.obj
 0002:000024d0       ??_C@_0ED@LPDDCECB@?$CIBufferSize?5?$DM?$DN?5?$CI_gPcd_FixedAtBu@ 0000000000068ff0     BasePrintLib:PrintLibInternal.obj
 0002:00002520       ??_C@_0IM@BFJJFLGB@?$CIStrnLenS?5?$CI?$CICHAR16?5?$CK?$CJFormat?0?5?$CI_@ 0000000000069040     BasePrintLib:PrintLibInternal.obj
 0002:000025b0       ??_C@_0ID@PLGJGION@?$CIAsciiStrnLenS?5?$CIFormat?0?5?$CI_gPcd_@ 00000000000690d0     BasePrintLib:PrintLibInternal.obj
 0002:00002638       ??_C@_0O@MLOLIMFM@?$DMnull?5string?$DO@ 0000000000069158     BasePrintLib:PrintLibInternal.obj
 0002:00002648       ??_C@_0M@BJJDNPHK@?$DMnull?5guid?$DO@ 0000000000069168     BasePrintLib:PrintLibInternal.obj
 0002:00002658       ??_C@_0DB@PMLHLBMO@?$CF08x?9?$CF04x?9?$CF04x?9?$CF02x?$CF02x?9?$CF02x?$CF02@ 0000000000069178     BasePrintLib:PrintLibInternal.obj
 0002:00002690       ??_C@_0M@LHGBCIKM@?$DMnull?5time?$DO@ 00000000000691b0     BasePrintLib:PrintLibInternal.obj
 0002:000026a0       ??_C@_0BK@FCPKCIDD@?$CF02d?1?$CF02d?1?$CF04d?5?5?$CF02d?3?$CF02d@ 00000000000691c0     BasePrintLib:PrintLibInternal.obj
 0002:000026bc       ??_C@_04JIMNDDED@?$CF08X@  00000000000691dc     BasePrintLib:PrintLibInternal.obj
 0002:000026c4       ??_C@_02PCIJFNDE@?$AN?6@   00000000000691e4     BasePrintLib:PrintLibInternal.obj
 0002:000026c8       ??_C@_01LIIJDEN@?$AN@      00000000000691e8     BasePrintLib:PrintLibInternal.obj
 0002:000026d0       mWarningString             00000000000691f0     BasePrintLib:PrintLibInternal.obj
 0002:000027a0       mErrorString               00000000000692c0     BasePrintLib:PrintLibInternal.obj
 0002:00002a80       mHexStr                    00000000000695a0     BasePrintLib:PrintLibInternal.obj
 0002:00002a90       ??_C@_0BH@LKMBFCBF@Format?5?$CB?$DN?5?$CI?$CIvoid?5?$CK?$CJ?50?$CJ@ 00000000000695b0     BaseDebugLibSerialPort:DebugLib.obj
 0002:00002ab0       ??_C@_0FJ@BNNHJMAJ@D?3?2uefi_specs_personal_collecti@ 00000000000695d0     BaseDebugLibSerialPort:DebugLib.obj
 0002:00002b10       ??_C@_0BI@NOCKJDBJ@ASSERT?5?$FL?$CFa?$FN?5?$CFa?$CI?$CFd?$CJ?3?5?$CFa?6@ 0000000000069630     BaseDebugLibSerialPort:DebugLib.obj
 0002:00002b28       ??_C@_0BN@COECPDCC@gImageHandle?5?$CB?$DN?5?$CI?$CIvoid?5?$CK?$CJ?50?$CJ@ 0000000000069648     UefiBootServicesTableLib:UefiBootServicesTableLib.obj
 0002:00002b50       ??_C@_0GL@PJCPJLGM@D?3?2uefi_specs_personal_collecti@ 0000000000069670     UefiBootServicesTableLib:UefiBootServicesTableLib.obj
 0002:00002bc0       ??_C@_0BE@DGNHAHIL@gST?5?$CB?$DN?5?$CI?$CIvoid?5?$CK?$CJ?50?$CJ@ 00000000000696e0     UefiBootServicesTableLib:UefiBootServicesTableLib.obj
 0002:00002bd8       ??_C@_0BE@BDFJLGLN@gBS?5?$CB?$DN?5?$CI?$CIvoid?5?$CK?$CJ?50?$CJ@ 00000000000696f8     UefiBootServicesTableLib:UefiBootServicesTableLib.obj
 0002:00002bf0       ??_C@_0GF@KMHDEKMA@D?3?2uefi_specs_personal_collecti@ 0000000000069710     UefiMemoryAllocationLib:MemoryAllocationLib.obj
 0002:00002c58       ??_C@_0DO@GEEICOOO@AllocationSize?5?$DM?$DN?5?$CI0xFFFFFFFFFF@ 0000000000069778     UefiMemoryAllocationLib:MemoryAllocationLib.obj
 0002:00002ca0       ??_C@_0GP@HEOOPGAM@D?3?2uefi_specs_personal_collecti@ 00000000000697c0     UefiDevicePathLibDevicePathProtocol:UefiDevicePathLib.obj
 0002:00002d10       ??_C@_0DC@CNNBPJA@mDevicePathLibDevicePathUtiliti@ 0000000000069830     UefiDevicePathLibDevicePathProtocol:UefiDevicePathLib.obj
 0002:00002d48       ??_C@_0BL@JFODOCGB@DevicePath?5?$CB?$DN?5?$CI?$CIvoid?5?$CK?$CJ?50?$CJ@ 0000000000069868     UefiDevicePathLibDevicePathProtocol:UefiDevicePathLib.obj
 0002:00002d70       ??_C@_0EH@ENCEEKKL@?$CILength?5?$DO?$DN?5sizeof?5?$CIEFI_DEVICE_P@ 0000000000069890     UefiDevicePathLibDevicePathProtocol:UefiDevicePathLib.obj
 0002:00002db8       ??_C@_0BF@MBJFHGBE@Size?5?$CB?$DN?5?$CI?$CIvoid?5?$CK?$CJ?50?$CJ@ 00000000000698d8     UefiDevicePathLibDevicePathProtocol:UefiDevicePathLib.obj
 0002:00002dd0       mUefiDevicePathLibEndDevicePath 00000000000698f0     UefiDevicePathLibDevicePathProtocol:UefiDevicePathLib.obj
 0002:00002dd8       ??_C@_0BE@OBDFIHND@gRT?5?$CB?$DN?5?$CI?$CIvoid?5?$CK?$CJ?50?$CJ@ 00000000000698f8     UefiRuntimeServicesTableLib:UefiRuntimeServicesTableLib.obj
 0002:00002df0       ??_C@_0HB@NCAPNEDO@D?3?2uefi_specs_personal_collecti@ 0000000000069910     UefiRuntimeServicesTableLib:UefiRuntimeServicesTableLib.obj
 0002:00002e68       ??_C@_0BK@PPOBBAMB@TableGuid?5?$CB?$DN?5?$CI?$CIvoid?5?$CK?$CJ?50?$CJ@ 0000000000069988     UefiLib:UefiLib.obj
 0002:00002e90       ??_C@_0EJ@PPOMJLJB@D?3?2uefi_specs_personal_collecti@ 00000000000699b0     UefiLib:UefiLib.obj
 0002:00002ee0       ??_C@_0BG@JDKEGFNB@Table?5?$CB?$DN?5?$CI?$CIvoid?5?$CK?$CJ?50?$CJ@ 0000000000069a00     UefiLib:UefiLib.obj
 0002:00002ef8       ??_C@_0BF@OGAHIMFI@Name?5?$CB?$DN?5?$CI?$CIvoid?5?$CK?$CJ?50?$CJ@ 0000000000069a18     UefiLib:UefiLib.obj
 0002:00002f10       ??_C@_0EG@GOBFPEEP@Name?5?$CB?$DN?5?$CI?$CIvoid?5?$CK?$CJ?50?$CJ?5?$CG?$CG?5Guid?5?$CB?$DN@ 0000000000069a30     UefiLib:UefiLib.obj
 0002:00002f58       ??_C@_0BH@FMEOEIBC@?$CKValue?5?$CB?$DN?5?$CI?$CIvoid?5?$CK?$CJ?50?$CJ@ 0000000000069a78     UefiLib:UefiLib.obj
 0002:00002f70       ??_C@_0CD@OLFKAJF@SupportedLanguages?5?$CB?$DN?5?$CI?$CIvoid?5?$CK?$CJ@ 0000000000069a90     UefiLib:UefiLib.obj
 0002:00002f98       ??_C@_0CG@CADOKAGM@?$CI?$CI?$CIINTN?$CJ?$CIRETURN_STATUS?$CJ?$CIStatus?$CJ@ 0000000000069ab8     UefiLib:UefiLib.obj
 0002:00002fc0       ??_C@_0GF@MFAMBDAB@D?3?2uefi_specs_personal_collecti@ 0000000000069ae0     UefiHiiServicesLib:UefiHiiServicesLib.obj
 0002:00003030       ??_C@_0EK@CGIIDOCH@D?3?2uefi_specs_personal_collecti@ 0000000000069b50     DxeHobLib:HobLib.obj
 0002:00003080       ??_C@_0BJ@OBFMLLDO@mHobList?5?$CB?$DN?5?$CI?$CIvoid?5?$CK?$CJ?50?$CJ@ 0000000000069ba0     DxeHobLib:HobLib.obj
 0002:000030a0       ??_C@_0BN@FHPHCJAL@BufferToSort?5?$CB?$DN?5?$CI?$CIvoid?5?$CK?$CJ?50?$CJ@ 0000000000069bc0     UefiSortLib:UefiSortLib.obj
 0002:000030c0       ??_C@_0FH@OPABPOLM@D?3?2uefi_specs_personal_collecti@ 0000000000069be0     UefiSortLib:UefiSortLib.obj
 0002:00003118       ??_C@_0BF@PEDOPNMP@Guid?5?$CB?$DN?5?$CI?$CIvoid?5?$CK?$CJ?50?$CJ@ 0000000000069c38     UefiHiiLib:HiiLib.obj
 0002:00003130       ??_C@_0FB@IJGKLPLP@D?3?2uefi_specs_personal_collecti@ 0000000000069c50     UefiHiiLib:HiiLib.obj
 0002:00003188       ??_C@_0BH@OOIJJHNK@Handle?5?$CB?$DN?5?$CI?$CIvoid?5?$CK?$CJ?50?$CJ@ 0000000000069ca8     UefiHiiLib:HiiLib.obj
 0002:000031a0       ??_C@_0CA@OEKIMLLB@PackageListGuid?5?$CB?$DN?5?$CI?$CIvoid?5?$CK?$CJ?50?$CJ@ 0000000000069cc0     UefiHiiLib:HiiLib.obj
 0002:000031c0       ??_C@_0BK@KLJHMMPJ@HiiHandle?5?$CB?$DN?5?$CI?$CIvoid?5?$CK?$CJ?50?$CJ@ 0000000000069ce0     UefiHiiLib:HiiLib.obj
 0002:000031e0       ??_C@_19LJDFFCJJ@?$AA?$CF?$AAs?$AA?$CF?$AAs@ 0000000000069d00     UefiHiiLib:HiiLib.obj
 0002:000031ec       mEndOfPakageList           0000000000069d0c     UefiHiiLib:HiiLib.obj
 0002:000031f0       ??_C@_0FE@MDBONEFA@D?3?2uefi_specs_personal_collecti@ 0000000000069d10     UefiHiiLib:HiiString.obj
 0002:00003244       ??_C@_06PLDEFKP@x?9UEFI@   0000000000069d64     UefiHiiLib:HiiString.obj
 0002:00003250       ??_C@_0O@EMMLPDMJ@StringId?5?$CB?$DN?50@ 0000000000069d70     UefiHiiLib:HiiString.obj
 0002:00003260       ??_C@_1BK@GGGENMOA@?$AAP?$AAl?$AAa?$AAt?$AAf?$AAo?$AAr?$AAm?$AAL?$AAa?$AAn?$AAg@ 0000000000069d80     UefiHiiLib:HiiString.obj
 0002:0000327a       ??_C@_00CNPNBAHC@@         0000000000069d9a     UefiHiiLib:HiiString.obj
 0002:00003280       ??_C@_0FG@CHPJEMDC@D?3?2uefi_specs_personal_collecti@ 0000000000069da0     UefiHiiLib:HiiLanguage.obj
 0002:000032d8       gUnicodeFileTag            0000000000069df8     UefiFileHandleLib:UefiFileHandleLib.obj
 0002:000032e0       ??_C@_0DJ@IBOAFPFC@Status?5?$CB?$DN?5?$CI?$CIRETURN_STATUS?$CJ?$CI0x80@ 0000000000069e00     UefiFileHandleLib:UefiFileHandleLib.obj
 0002:00003320       ??_C@_0FN@KMONAPHI@D?3?2uefi_specs_personal_collecti@ 0000000000069e40     UefiFileHandleLib:UefiFileHandleLib.obj
 0002:00003380       ??_C@_0BB@PMNGACIB@CurrentSize?5?$CB?$DN?50@ 0000000000069ea0     UefiFileHandleLib:UefiFileHandleLib.obj
 0002:00003398       ??_C@_0CF@PEEFMLCB@DestinationStartSize?5?$DM?$DN?5?$CKCurren@ 0000000000069eb8     UefiFileHandleLib:UefiFileHandleLib.obj
 0002:000033c0       ??_C@_0FA@DCHCMINO@?$CI?$CKFullFileName?5?$DN?$DN?5?$CI?$CIvoid?5?$CK?$CJ?50?$CJ?5@ 0000000000069ee0     UefiFileHandleLib:UefiFileHandleLib.obj
 0002:00003410       ??_C@_0GB@FAJPOEDK@D?3?2uefi_specs_personal_collecti@ 0000000000069f30     DxeServicesTableLib:DxeServicesTableLib.obj
 0002:00003478       ??_C@_0BE@IOIFLNKO@gDS?5?$CB?$DN?5?$CI?$CIvoid?5?$CK?$CJ?50?$CJ@ 0000000000069f98     DxeServicesTableLib:DxeServicesTableLib.obj
 0002:00003490       ??_C@_19DJOBICII@?$AA?9?$AAs?$AAf?$AAo@ 0000000000069fb0     UefiShellLib:UefiShellLib.obj
 0002:000034a0       ??_C@_0BF@EAIGPLDI@Path?5?$CB?$DN?5?$CI?$CIvoid?5?$CK?$CJ?50?$CJ@ 0000000000069fc0     UefiShellLib:UefiShellLib.obj
 0002:000034c0       ??_C@_0FF@DKIFPHAN@D?3?2uefi_specs_personal_collecti@ 0000000000069fe0     UefiShellLib:UefiShellLib.obj
 0002:00003518       ??_C@_0BB@FIMNCDND@Status?3?50x?$CF08x?$AN?6@ 000000000006a038     UefiShellLib:UefiShellLib.obj
 0002:00003530       ??_C@_0BJ@BLIKFMIM@FileName?5?$CB?$DN?5?$CI?$CIvoid?5?$CK?$CJ?50?$CJ@ 000000000006a050     UefiShellLib:UefiShellLib.obj
 0002:00003550       ??_C@_0BJ@LGIAPEFG@FileInfo?5?$CB?$DN?5?$CI?$CIvoid?5?$CK?$CJ?50?$CJ@ 000000000006a070     UefiShellLib:UefiShellLib.obj
 0002:00003570       ??_C@_0CG@HOBDBICG@mEfiShellEnvironment2?5?$CB?$DN?5?$CI?$CIvoid@ 000000000006a090     UefiShellLib:UefiShellLib.obj
 0002:00003598       ??_C@_0BJ@CEFLEMCG@FileList?5?$CB?$DN?5?$CI?$CIvoid?5?$CK?$CJ?50?$CJ@ 000000000006a0b8     UefiShellLib:UefiShellLib.obj
 0002:000035b8       ??_C@_0BI@HFLLAPEM@OldInfo?5?$CB?$DN?5?$CI?$CIvoid?5?$CK?$CJ?50?$CJ@ 000000000006a0d8     UefiShellLib:UefiShellLib.obj
 0002:000035d0       ??_C@_0BO@JMFHFMII@OldInfo?9?$DOInfo?5?$CB?$DN?5?$CI?$CIvoid?5?$CK?$CJ?50?$CJ@ 000000000006a0f0     UefiShellLib:UefiShellLib.obj
 0002:000035f0       ??_C@_0CC@BMDNOILF@OldInfo?9?$DOFullName?5?$CB?$DN?5?$CI?$CIvoid?5?$CK?$CJ?5@ 000000000006a110     UefiShellLib:UefiShellLib.obj
 0002:00003618       ??_C@_0CC@HGDGHHKJ@OldInfo?9?$DOFileName?5?$CB?$DN?5?$CI?$CIvoid?5?$CK?$CJ?5@ 000000000006a138     UefiShellLib:UefiShellLib.obj
 0002:00003640       ??_C@_0BE@MAANAFFD@Arg?5?$CB?$DN?5?$CI?$CIvoid?5?$CK?$CJ?50?$CJ@ 000000000006a160     UefiShellLib:UefiShellLib.obj
 0002:00003658       ??_C@_19JIFMCCAP@?$AAp?$AAa?$AAt?$AAh@ 000000000006a178     UefiShellLib:UefiShellLib.obj
 0002:00003668       ??_C@_0CA@PJEKBINO@ExtensionWalker?5?$CB?$DN?5?$CI?$CIvoid?5?$CK?$CJ?50?$CJ@ 000000000006a188     UefiShellLib:UefiShellLib.obj
 0002:00003688       ??_C@_0BK@KFLCMCGE@CheckList?5?$CB?$DN?5?$CI?$CIvoid?5?$CK?$CJ?50?$CJ@ 000000000006a1a8     UefiShellLib:UefiShellLib.obj
 0002:000036a8       ??_C@_0BF@DFKBEABN@Type?5?$CB?$DN?5?$CI?$CIvoid?5?$CK?$CJ?50?$CJ@ 000000000006a1c8     UefiShellLib:UefiShellLib.obj
 0002:000036c0       ??_C@_15GECAHHDM@?$AA?9?$AAb@ 000000000006a1e0     UefiShellLib:UefiShellLib.obj
 0002:000036c8       ??_C@_0BC@DHCAIFAM@GetItemValue?5?$DN?$DN?50@ 000000000006a1e8     UefiShellLib:UefiShellLib.obj
 0002:000036e0       ??_C@_0BN@EKAHENGP@CheckPackage?5?$CB?$DN?5?$CI?$CIvoid?5?$CK?$CJ?50?$CJ@ 000000000006a200     UefiShellLib:UefiShellLib.obj
 0002:00003700       ??_C@_0CD@OLNJGJNE@mEfiShellInterface?5?$CB?$DN?5?$CI?$CIvoid?5?$CK?$CJ@ 000000000006a220     UefiShellLib:UefiShellLib.obj
 0002:00003728       ??_C@_17HOBPHCP@?$AA?$CF?$AA?$CF?$AAN@ 000000000006a248     UefiShellLib:UefiShellLib.obj
 0002:00003730       ??_C@_15GCJHOFNH@?$AA?$CF?$AAN@ 000000000006a250     UefiShellLib:UefiShellLib.obj
 0002:00003738       ??_C@_17NAOAHACO@?$AA?$CF?$AA?$CF?$AAE@ 000000000006a258     UefiShellLib:UefiShellLib.obj
 0002:00003740       ??_C@_15LFJGGCNG@?$AA?$CF?$AAE@ 000000000006a260     UefiShellLib:UefiShellLib.obj
 0002:00003748       ??_C@_17CCIKKIPD@?$AA?$CF?$AA?$CF?$AAH@ 000000000006a268     UefiShellLib:UefiShellLib.obj
 0002:00003750       ??_C@_15EHPMLKAL@?$AA?$CF?$AAH@ 000000000006a270     UefiShellLib:UefiShellLib.obj
 0002:00003758       ??_C@_17ENDHEIJH@?$AA?$CF?$AA?$CF?$AAB@ 000000000006a278     UefiShellLib:UefiShellLib.obj
 0002:00003760       ??_C@_15CIEBFKGP@?$AA?$CF?$AAB@ 000000000006a280     UefiShellLib:UefiShellLib.obj
 0002:00003768       ??_C@_17JCEMIIFP@?$AA?$CF?$AA?$CF?$AAV@ 000000000006a288     UefiShellLib:UefiShellLib.obj
 0002:00003770       ??_C@_15PHDKJKKH@?$AA?$CF?$AAV@ 000000000006a290     UefiShellLib:UefiShellLib.obj
 0002:00003778       ??_C@_0BI@BCILGJIG@DirName?5?$CB?$DN?5?$CI?$CIvoid?5?$CK?$CJ?50?$CJ@ 000000000006a298     UefiShellLib:UefiShellLib.obj
 0002:00003790       ??_C@_15GANGMFKL@?$AA?$CF?$AAs@ 000000000006a2b0     UefiShellLib:UefiShellLib.obj
 0002:00003798       ??_C@_15DAMPJCDE@?$AA?$CF?$AAc@ 000000000006a2b8     UefiShellLib:UefiShellLib.obj
 0002:000037a0       ??_C@_0EC@NPOOM@?$CIBuffer?5?$DN?$DN?5?$CI?$CIvoid?5?$CK?$CJ?50?$CJ?5?$CG?$CG?5Size@ 000000000006a2c0     UefiShellLib:UefiShellLib.obj
 0002:000037e4       ??_C@_15OEMMNBIC@?$AA0?$AAx@ 000000000006a304     UefiShellLib:UefiShellLib.obj
 0002:000037ec       ??_C@_15EEPOHOLM@?$AA0?$AAX@ 000000000006a30c     UefiShellLib:UefiShellLib.obj
 0002:000037f8       ??_C@_0L@NOBFEIA@?$CKSize?5?$DN?$DN?50@ 000000000006a318     UefiShellLib:UefiShellLib.obj
 0002:00003808       ??_C@_0DC@PFNNBEEF@The?5line?5was?5truncated?5in?5Shell@ 000000000006a328     UefiShellLib:UefiShellLib.obj
 0002:00003840       ??_C@_1CA@MKFFJJHF@?$AA?$CF?$AAH?$AA?$CF?$AA?9?$AA1?$AA4?$AAs?$AA?$CF?$AAN?$AA?9?$AA?5?$AA?$CF?$AAs?$AA?$AN?$AA?6@ 000000000006a360     UefiShellLib:UefiShellLib.obj
 0002:00003860       ??_C@_1O@OGFJFJDO@?$AA?$CF?$AAN?$AA?$CF?$AAs?$AA?$AN?$AA?6@ 000000000006a380     UefiShellLib:UefiShellLib.obj
 0002:00003870       ??_C@_1CM@FFPOKMDE@?$AAE?$AAf?$AAi?$AAR?$AAe?$AAs?$AAe?$AAr?$AAv?$AAe?$AAd?$AAM?$AAe?$AAm?$AAo@ 000000000006a390     UefiHandleParsingLib:UefiHandleParsingLib.obj
 0002:000038a0       ??_C@_1BM@FAGLICOG@?$AAE?$AAf?$AAi?$AAL?$AAo?$AAa?$AAd?$AAe?$AAr?$AAC?$AAo?$AAd?$AAe@ 000000000006a3c0     UefiHandleParsingLib:UefiHandleParsingLib.obj
 0002:000038c0       ??_C@_1BM@CLIJBOGB@?$AAE?$AAf?$AAi?$AAL?$AAo?$AAa?$AAd?$AAe?$AAr?$AAD?$AAa?$AAt?$AAa@ 000000000006a3e0     UefiHandleParsingLib:UefiHandleParsingLib.obj
 0002:000038e0       ??_C@_1CI@DPCOKMCE@?$AAE?$AAf?$AAi?$AAB?$AAo?$AAo?$AAt?$AAS?$AAe?$AAr?$AAv?$AAi?$AAc?$AAe?$AAs@ 000000000006a400     UefiHandleParsingLib:UefiHandleParsingLib.obj
 0002:00003908       ??_C@_1CI@EEMMDAKD@?$AAE?$AAf?$AAi?$AAB?$AAo?$AAo?$AAt?$AAS?$AAe?$AAr?$AAv?$AAi?$AAc?$AAe?$AAs@ 000000000006a428     UefiHandleParsingLib:UefiHandleParsingLib.obj
 0002:00003930       ??_C@_1CO@GDFCIHHC@?$AAE?$AAf?$AAi?$AAR?$AAu?$AAn?$AAt?$AAi?$AAm?$AAe?$AAS?$AAe?$AAr?$AAv?$AAi@ 000000000006a450     UefiHandleParsingLib:UefiHandleParsingLib.obj
 0002:00003960       ??_C@_1CO@BILABLPF@?$AAE?$AAf?$AAi?$AAR?$AAu?$AAn?$AAt?$AAi?$AAm?$AAe?$AAS?$AAe?$AAr?$AAv?$AAi@ 000000000006a480     UefiHandleParsingLib:UefiHandleParsingLib.obj
 0002:00003990       ??_C@_1CM@NMFKEKLB@?$AAE?$AAf?$AAi?$AAC?$AAo?$AAn?$AAv?$AAe?$AAn?$AAt?$AAi?$AAo?$AAn?$AAa?$AAl@ 000000000006a4b0     UefiHandleParsingLib:UefiHandleParsingLib.obj
 0002:000039c0       ??_C@_1CE@EGDMDJFH@?$AAE?$AAf?$AAi?$AAU?$AAn?$AAu?$AAs?$AAa?$AAb?$AAl?$AAe?$AAM?$AAe?$AAm?$AAo@ 000000000006a4e0     UefiHandleParsingLib:UefiHandleParsingLib.obj
 0002:000039e8       ??_C@_1CK@IPMNKCMJ@?$AAE?$AAf?$AAi?$AAA?$AAC?$AAP?$AAI?$AAR?$AAe?$AAc?$AAl?$AAa?$AAi?$AAm?$AAM@ 000000000006a508     UefiHandleParsingLib:UefiHandleParsingLib.obj
 0002:00003a18       ??_C@_1CC@JFBAOHPO@?$AAE?$AAf?$AAi?$AAA?$AAC?$AAP?$AAI?$AAM?$AAe?$AAm?$AAo?$AAr?$AAy?$AAN?$AAV@ 000000000006a538     UefiHandleParsingLib:UefiHandleParsingLib.obj
 0002:00003a40       ??_C@_1CE@GDAFGIDL@?$AAE?$AAf?$AAi?$AAM?$AAe?$AAm?$AAo?$AAr?$AAy?$AAM?$AAa?$AAp?$AAp?$AAe?$AAd@ 000000000006a560     UefiHandleParsingLib:UefiHandleParsingLib.obj
 0002:00003a68       ??_C@_1DG@HOCHGHPB@?$AAE?$AAf?$AAi?$AAM?$AAe?$AAm?$AAo?$AAr?$AAy?$AAM?$AAa?$AAp?$AAp?$AAe?$AAd@ 000000000006a588     UefiHandleParsingLib:UefiHandleParsingLib.obj
 0002:00003aa0       ??_C@_1BG@HFPGOEBG@?$AAE?$AAf?$AAi?$AAP?$AAa?$AAl?$AAC?$AAo?$AAd?$AAe@ 000000000006a5c0     UefiHandleParsingLib:UefiHandleParsingLib.obj
 0002:00003ab8       ??_C@_1CC@PCJPCHMF@?$AAE?$AAf?$AAi?$AAM?$AAa?$AAx?$AAM?$AAe?$AAm?$AAo?$AAr?$AAy?$AAT?$AAy?$AAp@ 000000000006a5d8     UefiHandleParsingLib:UefiHandleParsingLib.obj
 0002:00003ae0       ??_C@_0GF@OBMLBGCL@D?3?2uefi_specs_personal_collecti@ 000000000006a600     UefiHandleParsingLib:UefiHandleParsingLib.obj
 0002:00003b50       ??_C@_1EM@PFGNLEFJ@?$AAP?$AAi?$AAx?$AAe?$AAl?$AAR?$AAe?$AAd?$AAG?$AAr?$AAe?$AAe?$AAn?$AAB?$AAl@ 000000000006a670     UefiHandleParsingLib:UefiHandleParsingLib.obj
 0002:00003ba0       ??_C@_1EM@LHEAPBOF@?$AAP?$AAi?$AAx?$AAe?$AAl?$AAB?$AAl?$AAu?$AAe?$AAG?$AAr?$AAe?$AAe?$AAn?$AAR@ 000000000006a6c0     UefiHandleParsingLib:UefiHandleParsingLib.obj
 0002:00003bf0       ??_C@_1BK@KCONFGPO@?$AAP?$AAi?$AAx?$AAe?$AAl?$AAB?$AAi?$AAt?$AAM?$AAa?$AAs?$AAk@ 000000000006a710     UefiHandleParsingLib:UefiHandleParsingLib.obj
 0002:00003c10       ??_C@_1BK@PDALNFFI@?$AAP?$AAi?$AAx?$AAe?$AAl?$AAB?$AAl?$AAt?$AAO?$AAn?$AAl?$AAy@ 000000000006a730     UefiHandleParsingLib:UefiHandleParsingLib.obj
 0002:00003c30       ??_C@_1BO@LDACBODH@?$AAP?$AAi?$AAx?$AAe?$AAl?$AAF?$AAo?$AAr?$AAm?$AAa?$AAt?$AAM?$AAa?$AAx@ 000000000006a750     UefiHandleParsingLib:UefiHandleParsingLib.obj
 0002:00003c50       ??_C@_0CI@CDMOAKJF@mHandleParsingHiiHandle?5?$CB?$DN?5?$CI?$CIvo@ 000000000006a770     UefiHandleParsingLib:UefiHandleParsingLib.obj
 0002:00003c78       ??_C@_1BO@IKNCGJNK@?$AAG?$AAr?$AAa?$AAp?$AAh?$AAi?$AAc?$AAs?$AAO?$AAu?$AAt?$AAp?$AAu?$AAt@ 000000000006a798     UefiHandleParsingLib:UefiHandleParsingLib.obj
 0002:00003c98       ??_C@_1BO@COINAGCD@?$AAE?$AAD?$AAI?$AAD?$AAD?$AAi?$AAs?$AAc?$AAo?$AAv?$AAe?$AAr?$AAe?$AAd@ 000000000006a7b8     UefiHandleParsingLib:UefiHandleParsingLib.obj
 0002:00003cb8       ??_C@_1BG@HHDKNMEH@?$AAE?$AAD?$AAI?$AAD?$AAA?$AAc?$AAt?$AAi?$AAv?$AAe@ 000000000006a7d8     UefiHandleParsingLib:UefiHandleParsingLib.obj
 0002:00003cd0       ??_C@_1CA@DFHAODOI@?$AAP?$AAc?$AAi?$AAR?$AAo?$AAo?$AAt?$AAB?$AAr?$AAi?$AAd?$AAg?$AAe?$AAI?$AAo@ 000000000006a7f0     UefiHandleParsingLib:UefiHandleParsingLib.obj
 0002:00003cf0       ??_C@_19FGKAJLAG@?$AA?$AN?$AA?6?$AA?$CF?$AAs@ 000000000006a810     UefiHandleParsingLib:UefiHandleParsingLib.obj
 0002:00003d00       ??_C@_1EG@OKJPEDO@?$AA?$CF?$AA?$CF?$AAH?$AA?$CF?$AA0?$AA2?$AAx?$AA?5?$AA?5?$AA?5?$AA?5?$AA?$CF?$AA0?$AA1?$AA6@ 000000000006a820     UefiHandleParsingLib:UefiHandleParsingLib.obj
 0002:00003d48       ??_C@_0DB@FBDJHOFE@Dev?5?$CB?$DN?5?$CI?$CIvoid?5?$CK?$CJ?50?$CJ?5?$CG?$CG?5Dev?9?$DOMod@ 000000000006a868     UefiHandleParsingLib:UefiHandleParsingLib.obj
 0002:00003d80       ??_C@_1O@MNMPKDNM@?$AA0?$AAx?$AA?$CF?$AA0?$AA8?$AAx@ 000000000006a8a0     UefiHandleParsingLib:UefiHandleParsingLib.obj
 0002:00003d90       ??_C@_15OJKDPEFE@?$AA?5?$AA?5@ 000000000006a8b0     UefiHandleParsingLib:UefiHandleParsingLib.obj
 0002:00003d98       ??_C@_1O@LIKMPGGN@?$AAc?$AAa?$AAc?$AAh?$AAe?$AAd@ 000000000006a8b8     UefiHandleParsingLib:UefiHandleParsingLib.obj
 0002:00003da8       ??_C@_1BA@DMPLCOBD@?$AA?$CB?$AAc?$AAa?$AAc?$AAh?$AAe?$AAd@ 000000000006a8c8     UefiHandleParsingLib:UefiHandleParsingLib.obj
 0002:00003db8       ??_C@_15GLJCBFMD@?$AAr?$AAo@ 000000000006a8d8     UefiHandleParsingLib:UefiHandleParsingLib.obj
 0002:00003dc0       ??_C@_15PODPGKLD@?$AAr?$AAw@ 000000000006a8e0     UefiHandleParsingLib:UefiHandleParsingLib.obj
 0002:00003dc8       ??_C@_1BE@DLNCBOIL@?$AAp?$AAa?$AAr?$AAt?$AAi?$AAt?$AAi?$AAo?$AAn@ 000000000006a8e8     UefiHandleParsingLib:UefiHandleParsingLib.obj
 0002:00003de0       ??_C@_17EBOIPCKB@?$AAr?$AAa?$AAw@ 000000000006a900     UefiHandleParsingLib:UefiHandleParsingLib.obj
 0002:00003de8       ??_C@_1BK@FJPEHKJB@?$AAn?$AAo?$AAt?$AA?9?$AAp?$AAr?$AAe?$AAs?$AAe?$AAn?$AAt?$AA?5@ 000000000006a908     UefiHandleParsingLib:UefiHandleParsingLib.obj
 0002:00003e08       ??_C@_1BG@LGHNKLOH@?$AAR?$AAe?$AAm?$AAo?$AAv?$AAa?$AAb?$AAl?$AAe?$AA?5@ 000000000006a928     UefiHandleParsingLib:UefiHandleParsingLib.obj
 0002:00003e20       ??_C@_1O@GMAGOFCH@?$AAF?$AAi?$AAx?$AAe?$AAd?$AA?5@ 000000000006a940     UefiHandleParsingLib:UefiHandleParsingLib.obj
 0002:00003e30       ??_C@_1M@OCCHOKMB@?$AAI?$AAA?$AA?9?$AA3?$AA2@ 000000000006a950     UefiHandleParsingLib:UefiHandleParsingLib.obj
 0002:00003e40       ??_C@_17BOPOPGEG@?$AAI?$AAP?$AAF@ 000000000006a960     UefiHandleParsingLib:UefiHandleParsingLib.obj
 0002:00003e48       ??_C@_17DAJBLAKL@?$AAE?$AAB?$AAC@ 000000000006a968     UefiHandleParsingLib:UefiHandleParsingLib.obj
 0002:00003e50       ??_C@_1BM@NDIOGKH@?$AA?$AN?$AA?6?$AA?5?$AA?5?$AA?5?$AA?5?$AA?5?$AA?5?$AA?5?$AA?$CF?$AA0?$AA2?$AAx@ 000000000006a970     UefiHandleParsingLib:UefiHandleParsingLib.obj
 0002:00003e70       ??_C@_19NHPFCCLF@?$AA?$CF?$AA0?$AA2?$AAx@ 000000000006a990     UefiHandleParsingLib:UefiHandleParsingLib.obj
 0002:00003e80       ??_C@_1BI@LHMCEDBK@?$AAA?$AAd?$AAa?$AAp?$AAt?$AAe?$AAr?$AAI?$AAn?$AAf?$AAo@ 000000000006a9a0     UefiHandleParsingLib:UefiHandleParsingLib.obj
 0002:00003e98       ??_C@_1DM@EKBICOFE@?$AAg?$AAE?$AAf?$AAi?$AAA?$AAd?$AAa?$AAp?$AAt?$AAe?$AAr?$AAI?$AAn?$AAf?$AAo@ 000000000006a9b8     UefiHandleParsingLib:UefiHandleParsingLib.obj
 0002:00003ed8       ??_C@_1DO@IEEOKFIB@?$AAg?$AAE?$AAf?$AAi?$AAA?$AAd?$AAa?$AAp?$AAt?$AAe?$AAr?$AAI?$AAn?$AAf?$AAo@ 000000000006a9f8     UefiHandleParsingLib:UefiHandleParsingLib.obj
 0002:00003f20       ??_C@_1EC@HNCAJDGK@?$AAg?$AAE?$AAf?$AAi?$AAA?$AAd?$AAa?$AAp?$AAt?$AAe?$AAr?$AAI?$AAn?$AAf?$AAo@ 000000000006aa40     UefiHandleParsingLib:UefiHandleParsingLib.obj
 0002:00003f70       ??_C@_1EG@HIHCKIMP@?$AAg?$AAE?$AAf?$AAi?$AAA?$AAd?$AAa?$AAp?$AAt?$AAe?$AAr?$AAI?$AAn?$AAf?$AAo@ 000000000006aa90     UefiHandleParsingLib:UefiHandleParsingLib.obj
 0002:00003fb8       ??_C@_1CA@MBEPGFBE@?$AAU?$AAn?$AAk?$AAn?$AAo?$AAw?$AAn?$AAI?$AAn?$AAf?$AAo?$AAT?$AAy?$AAp?$AAe@ 000000000006aad8     UefiHandleParsingLib:UefiHandleParsingLib.obj
 0002:00003fd8       ??_C@_1CG@JPDLKBMG@?$AAF?$AAi?$AAr?$AAm?$AAw?$AAa?$AAr?$AAe?$AAM?$AAa?$AAn?$AAa?$AAg?$AAe?$AAm@ 000000000006aaf8     UefiHandleParsingLib:UefiHandleParsingLib.obj
 0002:00004000       ??_C@_19KLMLHLJG@?$AAN?$AAo?$AAn?$AAe@ 000000000006ab20     UefiHandleParsingLib:UefiHandleParsingLib.obj
 0002:0000400c       ??_C@_13LLDNKHDC@?$AA?$CI@ 000000000006ab2c     UefiHandleParsingLib:UefiHandleParsingLib.obj
 0002:00004010       ??_C@_1EC@DFECDMDI@?$AA?5?$AAI?$AAM?$AAA?$AAG?$AAE?$AA_?$AAA?$AAT?$AAT?$AAR?$AAI?$AAB?$AAU?$AAT@ 000000000006ab30     UefiHandleParsingLib:UefiHandleParsingLib.obj
 0002:00004060       ??_C@_1EA@MKHJJKBH@?$AA?5?$AAI?$AAM?$AAA?$AAG?$AAE?$AA_?$AAA?$AAT?$AAT?$AAR?$AAI?$AAB?$AAU?$AAT@ 000000000006ab80     UefiHandleParsingLib:UefiHandleParsingLib.obj
 0002:000040a0       ??_C@_1FC@DDNKJMEO@?$AA?5?$AAI?$AAM?$AAA?$AAG?$AAE?$AA_?$AAA?$AAT?$AAT?$AAR?$AAI?$AAB?$AAU?$AAT@ 000000000006abc0     UefiHandleParsingLib:UefiHandleParsingLib.obj
 0002:000040f8       ??_C@_1DA@IKPCBJLI@?$AA?5?$AAI?$AAM?$AAA?$AAG?$AAE?$AA_?$AAA?$AAT?$AAT?$AAR?$AAI?$AAB?$AAU?$AAT@ 000000000006ac18     UefiHandleParsingLib:UefiHandleParsingLib.obj
 0002:00004128       ??_C@_1DI@KCIAMJKA@?$AA?5?$AAI?$AAM?$AAA?$AAG?$AAE?$AA_?$AAA?$AAT?$AAT?$AAR?$AAI?$AAB?$AAU?$AAT@ 000000000006ac48     UefiHandleParsingLib:UefiHandleParsingLib.obj
 0002:00004160       ??_C@_15JEKLLLNO@?$AA?5?$AA?$CJ@ 000000000006ac80     UefiHandleParsingLib:UefiHandleParsingLib.obj
 0002:00004168       ??_C@_1O@HOICMPAG@?$AA?$CF?$AAs?$AA?$AN?$AA?6?$AA?$CF?$AAs@ 000000000006ac88     UefiHandleParsingLib:UefiHandleParsingLib.obj
 0002:00004178       ??_C@_0M@GGBOIEOM@NameID?5?$CB?$DN?50@ 000000000006ac98     UefiHandleParsingLib:UefiHandleParsingLib.obj
 0002:00004188       ??_C@_0BK@GAPIBOAM@TheHandle?5?$CB?$DN?5?$CI?$CIvoid?5?$CK?$CJ?50?$CJ@ 000000000006aca8     UefiHandleParsingLib:UefiHandleParsingLib.obj
 0002:000041a8       ??_C@_0BM@COIKDDAB@HandleCount?5?$CB?$DN?5?$CI?$CIvoid?5?$CK?$CJ?50?$CJ@ 000000000006acc8     UefiHandleParsingLib:UefiHandleParsingLib.obj
 0002:000041c8       ??_C@_0BN@BOHIKNIF@HandleBuffer?5?$CB?$DN?5?$CI?$CIvoid?5?$CK?$CJ?50?$CJ@ 000000000006ace8     UefiHandleParsingLib:UefiHandleParsingLib.obj
 0002:000041e8       ??_C@_0BL@FBKBNKMC@HandleType?5?$CB?$DN?5?$CI?$CIvoid?5?$CK?$CJ?50?$CJ@ 000000000006ad08     UefiHandleParsingLib:UefiHandleParsingLib.obj
 0002:00004210       ??_C@_0EI@PBLAOGFL@DriverBindingHandle?5?$CB?$DN?5?$CI?$CIvoid?5?$CK@ 000000000006ad30     UefiHandleParsingLib:UefiHandleParsingLib.obj
 0002:00004258       ??_C@_0CE@NBHJFFJO@MatchingHandleCount?5?$CB?$DN?5?$CI?$CIvoid?5?$CK@ 000000000006ad78     UefiHandleParsingLib:UefiHandleParsingLib.obj
 0002:00004280       ??_C@_0LH@DLLMLJLM@?$CIMatchingHandleBuffer?5?$DN?$DN?5?$CI?$CIvoid@ 000000000006ada0     UefiHandleParsingLib:UefiHandleParsingLib.obj
 0002:00004338       ??_C@_0CC@JOEHDGKB@DestinationBuffer?5?$CB?$DN?5?$CI?$CIvoid?5?$CK?$CJ?5@ 000000000006ae58     UefiHandleParsingLib:UefiHandleParsingLib.obj
 0002:00004360       ??_C@_0DO@DJKKKJCP@HandleList?$FL?$CITotalSize?1sizeof?5?$CIE@ 000000000006ae80     UefiHandleParsingLib:UefiHandleParsingLib.obj
 0002:00005ea8       SupportLevel               000000000006c9c8     UefiShellCommandLib:UefiShellCommandLib.obj
 0002:00005ec8       ??_C@_1BA@DNMMBOC@?$AAM?$AAi?$AAn?$AAi?$AAm?$AAa?$AAl@ 000000000006c9e8     UefiShellCommandLib:UefiShellCommandLib.obj
 0002:00005ed8       ??_C@_1BE@HNPOGPLM@?$AAS?$AAc?$AAr?$AAi?$AAp?$AAt?$AAi?$AAn?$AAg@ 000000000006c9f8     UefiShellCommandLib:UefiShellCommandLib.obj
 0002:00005ef0       ??_C@_1M@ECOAOPLN@?$AAB?$AAa?$AAs?$AAi?$AAc@ 000000000006ca10     UefiShellCommandLib:UefiShellCommandLib.obj
 0002:00005f00       ??_C@_1BI@NFOKHDOD@?$AAI?$AAn?$AAt?$AAe?$AAr?$AAa?$AAc?$AAt?$AAi?$AAv?$AAe@ 000000000006ca20     UefiShellCommandLib:UefiShellCommandLib.obj
 0002:00005f18       ??_C@_0CI@LPGDMEAP@BufferListEntry?9?$DOBuffer?5?$CB?$DN?5?$CI?$CIvo@ 000000000006ca38     UefiShellCommandLib:UefiShellCommandLib.obj
 0002:00005f40       ??_C@_0GD@BMOIMDII@D?3?2uefi_specs_personal_collecti@ 000000000006ca60     UefiShellCommandLib:UefiShellCommandLib.obj
 0002:00005fa8       ??_C@_0BI@KIPBGMAD@MapNode?5?$CB?$DN?5?$CI?$CIvoid?5?$CK?$CJ?50?$CJ@ 000000000006cac8     UefiShellCommandLib:UefiShellCommandLib.obj
 0002:00005fc0       ??_C@_0BO@MBONBKCA@CommandString?5?$CB?$DN?5?$CI?$CIvoid?5?$CK?$CJ?50?$CJ@ 000000000006cae0     UefiShellCommandLib:UefiShellCommandLib.obj
 0002:00005fe0       ??_C@_0CE@GJHPJEHO@Node?9?$DOCommandString?5?$CB?$DN?5?$CI?$CIvoid?5?$CK@ 000000000006cb00     UefiShellCommandLib:UefiShellCommandLib.obj
 0002:00006004       ??_C@_02LFNMGJAP@en@       000000000006cb24     UefiShellCommandLib:UefiShellCommandLib.obj
 0002:00006008       ??_C@_0BP@MPGCBHML@GetManFileName?5?$CB?$DN?5?$CI?$CIvoid?5?$CK?$CJ?50?$CJ@ 000000000006cb28     UefiShellCommandLib:UefiShellCommandLib.obj
 0002:00006028       ??_C@_0BP@KLHDEOMH@CommandHandler?5?$CB?$DN?5?$CI?$CIvoid?5?$CK?$CJ?50?$CJ@ 000000000006cb48     UefiShellCommandLib:UefiShellCommandLib.obj
 0002:00006048       ??_C@_0BM@OPPIBMMG@ProfileName?5?$CB?$DN?5?$CI?$CIvoid?5?$CK?$CJ?50?$CJ@ 000000000006cb68     UefiShellCommandLib:UefiShellCommandLib.obj
 0002:00006070       ??_C@_0FK@HAGBHMMB@?$CImProfileList?5?$DN?$DN?5?$CI?$CIvoid?5?$CK?$CJ?50?$CJ?5?$CG@ 000000000006cb90     UefiShellCommandLib:UefiShellCommandLib.obj
 0002:000060d0       ??_C@_0BI@BLOGOJPJ@Command?5?$CB?$DN?5?$CI?$CIvoid?5?$CK?$CJ?50?$CJ@ 000000000006cbf0     UefiShellCommandLib:UefiShellCommandLib.obj
 0002:000060e8       ??_C@_0BM@KBBHHLCN@Node?9?$DOAlias?5?$CB?$DN?5?$CI?$CIvoid?5?$CK?$CJ?50?$CJ@ 000000000006cc08     UefiShellCommandLib:UefiShellCommandLib.obj
 0002:00006108       ??_C@_0BG@NGLBKNON@Type?5?$DM?5MappingTypeMax@ 000000000006cc28     UefiShellCommandLib:UefiShellCommandLib.obj
 0002:00006120       ??_C@_1M@LEDCCPHA@?$AAF?$AAS?$AA?$CF?$AAd?$AA?3@ 000000000006cc40     UefiShellCommandLib:UefiShellCommandLib.obj
 0002:00006130       ??_C@_1O@GAMFIKPJ@?$AAB?$AAL?$AAK?$AA?$CF?$AAd?$AA?3@ 000000000006cc50     UefiShellCommandLib:UefiShellCommandLib.obj
 0002:00006140       ??_C@_1BK@CAPKGIMF@?$AA?2?$AAe?$AAf?$AAi?$AA?2?$AAt?$AAo?$AAo?$AAl?$AAs?$AA?2?$AA?$DL@ 000000000006cc60     UefiShellCommandLib:UefiShellCommandLib.obj
 0002:00006160       ??_C@_1BI@PKLDNON@?$AA?2?$AAe?$AAf?$AAi?$AA?2?$AAb?$AAo?$AAo?$AAt?$AA?2?$AA?$DL@ 000000000006cc80     UefiShellCommandLib:UefiShellCommandLib.obj
 0002:00006178       ??_C@_0BP@CPABMANL@NewDefaultName?5?$CB?$DN?5?$CI?$CIvoid?5?$CK?$CJ?50?$CJ@ 000000000006cc98     UefiShellCommandLib:UefiShellCommandLib.obj
 0002:00006198       ??_C@_1CM@PBLCLIC@?$AA?$CF?$AA?$CK?$AAa?$AA?$CF?$AA0?$AA8?$AAX?$AA?3?$AA?5?$AA?$CF?$AA?9?$AA4?$AA8?$AAa?$AA?5@ 000000000006ccb8     UefiShellCommandLib:UefiShellCommandLib.obj
 0002:000061c8       ??_C@_0DK@NNPIMKMP@Status?5?$DN?$DN?5?$CI?$CIRETURN_STATUS?$CJ?$CI0x80@ 000000000006cce8     UefiShellCommandLib:UefiShellCommandLib.obj
 0002:00006208       ??_C@_0BK@LKPHBLMB@SortEntry?5?$CB?$DN?5?$CI?$CIvoid?5?$CK?$CJ?50?$CJ@ 000000000006cd28     UefiShellCommandLib:UefiShellCommandLib.obj
 0002:00006228       ??_C@_0CE@LNAKIMOF@IsListEmpty?5?$CI?$CGUnique?9?$DOSameNameL@ 000000000006cd48     UefiShellCommandLib:UefiShellCommandLib.obj
 0002:0000624c       ??_C@_13GAMECHAC@?$AAF@    000000000006cd6c     UefiShellCommandLib:ConsistMapping.obj
 0002:00006250       ??_C@_15FMDBLIIP@?$AAF?$AAP@ 000000000006cd70     UefiShellCommandLib:ConsistMapping.obj
 0002:00006258       ??_C@_15LJEABJDH@?$AAH?$AAD@ 000000000006cd78     UefiShellCommandLib:ConsistMapping.obj
 0002:00006260       ??_C@_15NDIHOJPE@?$AAC?$AAD@ 000000000006cd80     UefiShellCommandLib:ConsistMapping.obj
 0002:00006268       ??_C@_0BE@LNIAOOBG@Str?5?$CB?$DN?5?$CI?$CIvoid?5?$CK?$CJ?50?$CJ@ 000000000006cd88     UefiShellCommandLib:ConsistMapping.obj
 0002:00006280       ??_C@_0FO@NLJJPKPF@D?3?2uefi_specs_personal_collecti@ 000000000006cda0     UefiShellCommandLib:ConsistMapping.obj
 0002:000062e0       ??_C@_0BM@HIGDLIKJ@MappingItem?5?$CB?$DN?5?$CI?$CIvoid?5?$CK?$CJ?50?$CJ@ 000000000006ce00     UefiShellCommandLib:ConsistMapping.obj
 0002:00006300       ??_C@_17OADJODNB@?$AA?$CF?$AAl?$AAd@ 000000000006ce20     UefiShellCommandLib:ConsistMapping.obj
 0002:00006308       ??_C@_0DD@DMJAEFC@Str?5?$CB?$DN?5?$CI?$CIvoid?5?$CK?$CJ?50?$CJ?5?$CG?$CG?5MappingI@ 000000000006ce28     UefiShellCommandLib:ConsistMapping.obj
 0002:0000633c       ??_C@_15FEFLCNCJ@?$AA1?$AA6@ 000000000006ce5c     UefiShellCommandLib:ConsistMapping.obj
 0002:00006348       ??_C@_17KNEILPBN@?$AA1?$AA?$CF?$AAc@ 000000000006ce68     UefiShellCommandLib:ConsistMapping.obj
 0002:00006350       ??_C@_0DE@FCJINMCJ@Guid?5?$CB?$DN?5?$CI?$CIvoid?5?$CK?$CJ?50?$CJ?5?$CG?$CG?5Mapping@ 000000000006ce70     UefiShellCommandLib:ConsistMapping.obj
 0002:00006384       ??_C@_15LPKNAFGD@?$AA?$CF?$AAg@ 000000000006cea4     UefiShellCommandLib:ConsistMapping.obj
 0002:00006390       ??_C@_0BM@MPGMLKPE@DevicePath1?5?$CB?$DN?5?$CI?$CIvoid?5?$CK?$CJ?50?$CJ@ 000000000006ceb0     UefiShellCommandLib:ConsistMapping.obj
 0002:000063b0       ??_C@_0BM@CFOKGHJG@DevicePath2?5?$CB?$DN?5?$CI?$CIvoid?5?$CK?$CJ?50?$CJ@ 000000000006ced0     UefiShellCommandLib:ConsistMapping.obj
 0002:000063d0       ??_C@_0BP@IFDAIIIE@DevicePathNode?5?$CB?$DN?5?$CI?$CIvoid?5?$CK?$CJ?50?$CJ@ 000000000006cef0     UefiShellCommandLib:ConsistMapping.obj
 0002:000063f0       ??_C@_0BG@CBCHCMKB@UsbIo?5?$CB?$DN?5?$CI?$CIvoid?5?$CK?$CJ?50?$CJ@ 000000000006cf10     UefiShellCommandLib:ConsistMapping.obj
 0002:00006408       ??_C@_1CC@LFFNJKKE@?$AA?$CF?$AA0?$AA2?$AAx?$AA?$CF?$AA0?$AA2?$AAx?$AA?$CF?$AA0?$AA2?$AAx?$AA?$CF?$AA0?$AA2@ 000000000006cf28     UefiShellCommandLib:ConsistMapping.obj
 0002:00006430       ??_C@_17PKPGALPG@?$AA?$CF?$AAl?$AAx@ 000000000006cf50     UefiShellCommandLib:ConsistMapping.obj
 0002:00006438       ??_C@_1O@LHNJIAPJ@?$AAa?$AAt?$AAt?$AAr?$AAi?$AAb@ 000000000006cf58     UefiShellLevel2CommandsLib:UefiShellLevel2CommandsLib.obj
 0002:00006448       ??_C@_15HEBJEDPM@?$AAc?$AAd@ 000000000006cf68     UefiShellLevel2CommandsLib:UefiShellLevel2CommandsLib.obj
 0002:00006450       ??_C@_15KLGCIDDE@?$AAc?$AAp@ 000000000006cf70     UefiShellLevel2CommandsLib:UefiShellLevel2CommandsLib.obj
 0002:00006458       ??_C@_19KJIJHNML@?$AAl?$AAo?$AAa?$AAd@ 000000000006cf78     UefiShellLevel2CommandsLib:UefiShellLevel2CommandsLib.obj
 0002:00006468       ??_C@_1M@KBLMDDDF@?$AAm?$AAk?$AAd?$AAi?$AAr@ 000000000006cf88     UefiShellLevel2CommandsLib:UefiShellLevel2CommandsLib.obj
 0002:00006474       ??_C@_15LEADLNJI@?$AAm?$AAv@ 000000000006cf94     UefiShellLevel2CommandsLib:UefiShellLevel2CommandsLib.obj
 0002:00006480       ??_C@_1M@PBHODJJJ@?$AAp?$AAa?$AAr?$AAs?$AAe@ 000000000006cfa0     UefiShellLevel2CommandsLib:UefiShellLevel2CommandsLib.obj
 0002:00006490       ??_C@_1M@OFCONGJO@?$AAr?$AAe?$AAs?$AAe?$AAt@ 000000000006cfb0     UefiShellLevel2CommandsLib:UefiShellLevel2CommandsLib.obj
 0002:000064a0       ??_C@_17EGGBPMH@?$AAs?$AAe?$AAt@ 000000000006cfc0     UefiShellLevel2CommandsLib:UefiShellLevel2CommandsLib.obj
 0002:000064a8       ??_C@_15EIIBJOAP@?$AAl?$AAs@ 000000000006cfc8     UefiShellLevel2CommandsLib:UefiShellLevel2CommandsLib.obj
 0002:000064b0       ??_C@_15MBJLNNEI@?$AAr?$AAm@ 000000000006cfd0     UefiShellLevel2CommandsLib:UefiShellLevel2CommandsLib.obj
 0002:000064b8       ??_C@_17HILAENLF@?$AAv?$AAo?$AAl@ 000000000006cfd8     UefiShellLevel2CommandsLib:UefiShellLevel2CommandsLib.obj
 0002:000064c0       ??_C@_17OHLFFIIF@?$AAd?$AAe?$AAl@ 000000000006cfe0     UefiShellLevel2CommandsLib:UefiShellLevel2CommandsLib.obj
 0002:000064c8       ??_C@_17CALBLIFC@?$AAd?$AAi?$AAr@ 000000000006cfe8     UefiShellLevel2CommandsLib:UefiShellLevel2CommandsLib.obj
 0002:000064d0       ??_C@_19DCHLHIDK@?$AAc?$AAo?$AAp?$AAy@ 000000000006cff0     UefiShellLevel2CommandsLib:UefiShellLevel2CommandsLib.obj
 0002:000064dc       ??_C@_15EOBDCCIM@?$AAm?$AAd@ 000000000006cffc     UefiShellLevel2CommandsLib:UefiShellLevel2CommandsLib.obj
 0002:000064e8       ??_C@_19PEPDKPA@?$AAc?$AAd?$AA?4?$AA?4@ 000000000006d008     UefiShellLevel2CommandsLib:UefiShellLevel2CommandsLib.obj
 0002:000064f8       ??_C@_1M@IHNHPNHP@?$AAc?$AAd?$AA?5?$AA?4?$AA?4@ 000000000006d018     UefiShellLevel2CommandsLib:UefiShellLevel2CommandsLib.obj
 0002:00006508       ??_C@_17NGAHHKJI@?$AAc?$AAd?$AA?2@ 000000000006d028     UefiShellLevel2CommandsLib:UefiShellLevel2CommandsLib.obj
 0002:00006510       ??_C@_19PEHDDDJH@?$AAc?$AAd?$AA?5?$AA?2@ 000000000006d030     UefiShellLevel2CommandsLib:UefiShellLevel2CommandsLib.obj
 0002:00006520       ??_C@_17PHGIKIKC@?$AAr?$AAe?$AAn@ 000000000006d040     UefiShellLevel2CommandsLib:UefiShellLevel2CommandsLib.obj
 0002:00006528       ??_C@_19OACEEDLD@?$AAm?$AAo?$AAv?$AAe@ 000000000006d048     UefiShellLevel2CommandsLib:UefiShellLevel2CommandsLib.obj
 0002:00006538       ??_C@_1M@CACIMNJO@?$AAm?$AAo?$AAu?$AAn?$AAt@ 000000000006d058     UefiShellLevel2CommandsLib:UefiShellLevel2CommandsLib.obj
 0002:00006548       ??_C@_19EEHDNLEA@?$AAd?$AAa?$AAt?$AAe@ 000000000006d068     UefiShellLevel2CommandsLib:UefiShellLevel2CommandsLib.obj
 0002:00006558       ??_C@_19JEOBBCEO@?$AAt?$AAi?$AAm?$AAe@ 000000000006d078     UefiShellLevel2CommandsLib:UefiShellLevel2CommandsLib.obj
 0002:00006568       ??_C@_1BC@ODGONKJC@?$AAt?$AAi?$AAm?$AAe?$AAz?$AAo?$AAn?$AAe@ 000000000006d088     UefiShellLevel2CommandsLib:UefiShellLevel2CommandsLib.obj
 0002:00006580       ??_C@_0HB@LIOANADD@D?3?2uefi_specs_personal_collecti@ 000000000006d0a0     UefiShellLevel2CommandsLib:UefiShellLevel2CommandsLib.obj
 0002:000065f8       mFileName                  000000000006d118     UefiShellLevel2CommandsLib:UefiShellLevel2CommandsLib.obj
 0002:00006614       ??_C@_15DOHNAJB@?$AA?9?$AAw@ 000000000006d134     UefiShellLevel2CommandsLib:Reset.obj
 0002:0000661c       ??_C@_15IMIFEHMG@?$AA?9?$AAs@ 000000000006d13c     UefiShellLevel2CommandsLib:Reset.obj
 0002:00006624       ??_C@_15NMJMBAFJ@?$AA?9?$AAc@ 000000000006d144     UefiShellLevel2CommandsLib:Reset.obj
 0002:00006630       ??_C@_1M@GFBJCLMD@?$AA?9?$AAf?$AAw?$AAu?$AAi@ 000000000006d150     UefiShellLevel2CommandsLib:Reset.obj
 0002:00006640       ??_C@_0FM@IOJGMKDG@D?3?2uefi_specs_personal_collecti@ 000000000006d160     UefiShellLevel2CommandsLib:Reset.obj
 0002:000066a0       ??_C@_1CO@MENFEBKM@?$AAO?$AAs?$AAI?$AAn?$AAd?$AAi?$AAc?$AAa?$AAt?$AAi?$AAo?$AAn?$AAs?$AAS?$AAu@ 000000000006d1c0     UefiShellLevel2CommandsLib:Reset.obj
 0002:000066d0       ??_C@_1BM@MDLAABPK@?$AAO?$AAs?$AAI?$AAn?$AAd?$AAi?$AAc?$AAa?$AAt?$AAi?$AAo?$AAn?$AAs@ 000000000006d1f0     UefiShellLevel2CommandsLib:Reset.obj
 0002:000066f0       ??_C@_1DC@HCBBIEMO@?$AAR?$AAe?$AAs?$AAe?$AAt?$AA?5?$AAw?$AAi?$AAt?$AAh?$AA?5?$AA?$CF?$AAs?$AA?5?$AA?$CI@ 000000000006d210     UefiShellLevel2CommandsLib:Reset.obj
 0002:00006780       ??_C@_0FL@OMIEACCD@D?3?2uefi_specs_personal_collecti@ 000000000006d2a0     UefiShellLevel2CommandsLib:Load.obj
 0002:000067e0       ??_C@_0CC@BPGMMONK@LoadedDriverImage?5?$CB?$DN?5?$CI?$CIvoid?5?$CK?$CJ?5@ 000000000006d300     UefiShellLevel2CommandsLib:Load.obj
 0002:00006808       ??_C@_17ODMDGBNG@?$AA?9?$AAn?$AAc@ 000000000006d328     UefiShellLevel2CommandsLib:Load.obj
 0002:00006830       ??_C@_1BK@IBFCCNCI@?$AAg?$AAR?$AAT?$AA?9?$AA?$DO?$AAG?$AAe?$AAt?$AAT?$AAi?$AAm?$AAe@ 000000000006d350     UefiShellLevel2CommandsLib:TimeDate.obj
 0002:0000684c       ??_C@_13CGOKJPIL@?$AA?1@   000000000006d36c     UefiShellLevel2CommandsLib:TimeDate.obj
 0002:00006850       ??_C@_0FP@GKECCBPB@D?3?2uefi_specs_personal_collecti@ 000000000006d370     UefiShellLevel2CommandsLib:TimeDate.obj
 0002:000068b0       ??_C@_15EBELCIOA@?$AA?9?$AAd@ 000000000006d3d0     UefiShellLevel2CommandsLib:TimeDate.obj
 0002:000068b8       ??_C@_17GMJPFIDO@?$AA?9?$AAt?$AAz@ 000000000006d3d8     UefiShellLevel2CommandsLib:TimeDate.obj
 0002:000068c0       ??_C@_13KJIIAINM@?$AA?$CL@ 000000000006d3e0     UefiShellLevel2CommandsLib:TimeDate.obj
 0002:000068c8       ??_C@_1CC@NOCPFBIB@?$AAT?$AAh?$AAe?$AAT?$AAi?$AAm?$AAe?$AA?4?$AAD?$AAa?$AAy?$AAl?$AAi?$AAg?$AAh@ 000000000006d3e8     UefiShellLevel2CommandsLib:TimeDate.obj
 0002:000068f0       ??_C@_1O@LOFDLEDL@?$AA_?$AAl?$AAo?$AAc?$AAa?$AAl@ 000000000006d410     UefiShellLevel2CommandsLib:TimeDate.obj
 0002:00006900       ??_C@_15IEPPAAAP@?$AA?9?$AAl@ 000000000006d420     UefiShellLevel2CommandsLib:TimeDate.obj
 0002:00006908       ??_C@_15OLECOAGL@?$AA?9?$AAf@ 000000000006d428     UefiShellLevel2CommandsLib:TimeDate.obj
 0002:00006910       ??_C@_1BC@JBHNBLED@?$AA?9?$AAl?$AA?5?$AAo?$AAr?$AA?5?$AA?9?$AAf@ 000000000006d430     UefiShellLevel2CommandsLib:TimeDate.obj
 0002:00006a30       ??_C@_0FM@PEKFGICF@D?3?2uefi_specs_personal_collecti@ 000000000006d550     UefiShellLevel2CommandsLib:Parse.obj
 0002:00006a90       ??_C@_0BK@ONNIGBFG@TableName?5?$CB?$DN?5?$CI?$CIvoid?5?$CK?$CJ?50?$CJ@ 000000000006d5b0     UefiShellLevel2CommandsLib:Parse.obj
 0002:00006ab0       ??_C@_1BM@JGMAIAOM@?$AAS?$AAh?$AAe?$AAl?$AAl?$AAC?$AAo?$AAm?$AAm?$AAa?$AAn?$AAd?$AA?0@ 000000000006d5d0     UefiShellLevel2CommandsLib:Parse.obj
 0002:00006acc       ??_C@_15DEGIPMKE@?$AA?0?$AA?$CC@ 000000000006d5ec     UefiShellLevel2CommandsLib:Parse.obj
 0002:00006ad8       ??_C@_1BK@BOMKEOAF@?$AAC?$AAo?$AAl?$AAu?$AAm?$AAn?$AA?5?$AAI?$AAn?$AAd?$AAe?$AAx@ 000000000006d5f8     UefiShellLevel2CommandsLib:Parse.obj
 0002:00006af4       ??_C@_15LDCBPADN@?$AA?9?$AAi@ 000000000006d614     UefiShellLevel2CommandsLib:Parse.obj
 0002:00006b30       ??_C@_0BG@JMDNBIJO@Splitter?5?$CB?$DN?5?$CKFullPath@ 000000000006d650     UefiShellLevel2CommandsLib:Cd.obj
 0002:00006b50       ??_C@_0FJ@PFCIIHEI@D?3?2uefi_specs_personal_collecti@ 000000000006d670     UefiShellLevel2CommandsLib:Cd.obj
 0002:00006bb0       ??_C@_0BJ@NHAALEPA@FullPath?5?$CB?$DN?5?$CI?$CIvoid?5?$CK?$CJ?50?$CJ@ 000000000006d6d0     UefiShellLevel2CommandsLib:Cd.obj
 0002:00006bcc       ??_C@_15HGJFNINC@?$AA?9?$AAa@ 000000000006d6ec     UefiShellLevel2CommandsLib:Attrib.obj
 0002:00006bd4       ??_C@_15KAMMDLMP@?$AA?$CL?$AAa@ 000000000006d6f4     UefiShellLevel2CommandsLib:Attrib.obj
 0002:00006bdc       ??_C@_15FKNMKENL@?$AA?$CL?$AAs@ 000000000006d6fc     UefiShellLevel2CommandsLib:Attrib.obj
 0002:00006be4       ??_C@_15LJNJHFI@?$AA?9?$AAh@ 000000000006d704     UefiShellLevel2CommandsLib:Attrib.obj
 0002:00006bec       ??_C@_15NNMEHEEF@?$AA?$CL?$AAh@ 000000000006d70c     UefiShellLevel2CommandsLib:Attrib.obj
 0002:00006bf4       ??_C@_15DEDJCAKD@?$AA?9?$AAr@ 000000000006d714     UefiShellLevel2CommandsLib:Attrib.obj
 0002:00006bfc       ??_C@_15OCGAMDLO@?$AA?$CL?$AAr@ 000000000006d71c     UefiShellLevel2CommandsLib:Attrib.obj
 0002:00006c10       ??_C@_0FN@EODMNCLO@D?3?2uefi_specs_personal_collecti@ 000000000006d730     UefiShellLevel2CommandsLib:Attrib.obj
 0002:00006c70       ??_C@_0BM@PPAFNGLK@ListOfFiles?5?$DN?$DN?5?$CI?$CIvoid?5?$CK?$CJ?50?$CJ@ 000000000006d790     UefiShellLevel2CommandsLib:Attrib.obj
 0002:00006d20       ??_C@_0FJ@LKLGHPLP@D?3?2uefi_specs_personal_collecti@ 000000000006d840     UefiShellLevel2CommandsLib:Ls.obj
 0002:00006d80       ??_C@_0BI@OHKIGLJK@SysInfo?5?$CB?$DN?5?$CI?$CIvoid?5?$CK?$CJ?50?$CJ@ 000000000006d8a0     UefiShellLevel2CommandsLib:Ls.obj
 0002:00006d98       ??_C@_19ELAAHEEL@?$AAT?$AAR?$AAU?$AAE@ 000000000006d8b8     UefiShellLevel2CommandsLib:Ls.obj
 0002:00006da8       ??_C@_1M@HCOOECOK@?$AAF?$AAA?$AAL?$AAS?$AAE@ 000000000006d8c8     UefiShellLevel2CommandsLib:Ls.obj
 0002:00006db8       ??_C@_0BG@NGJFNJEB@Files?5?$CB?$DN?5?$CI?$CIvoid?5?$CK?$CJ?50?$CJ@ 000000000006d8d8     UefiShellLevel2CommandsLib:Ls.obj
 0002:00006dd0       ??_C@_0BF@MKOIBPLI@Dirs?5?$CB?$DN?5?$CI?$CIvoid?5?$CK?$CJ?50?$CJ@ 000000000006d8f0     UefiShellLevel2CommandsLib:Ls.obj
 0002:00006de8       ??_C@_0BI@PNAGFONE@TheNode?5?$CB?$DN?5?$CI?$CIvoid?5?$CK?$CJ?50?$CJ@ 000000000006d908     UefiShellLevel2CommandsLib:Ls.obj
 0002:00006e00       ??_C@_13KHDBCPJB@?$AAs@    000000000006d920     UefiShellLevel2CommandsLib:Ls.obj
 0002:00006e04       ??_C@_13BPINEIPE@?$AAr@    000000000006d924     UefiShellLevel2CommandsLib:Ls.obj
 0002:00006e08       ??_C@_13CACJPPAP@?$AAh@    000000000006d928     UefiShellLevel2CommandsLib:Ls.obj
 0002:00006e0c       ??_C@_13GKPPEALH@?$AAd@    000000000006d92c     UefiShellLevel2CommandsLib:Ls.obj
 0002:00006e10       ??_C@_13FNCBLAIF@?$AAa@    000000000006d930     UefiShellLevel2CommandsLib:Ls.obj
 0002:00006e18       ??_C@_1M@GFDIBKGH@?$AA?$DM?$AAD?$AAI?$AAR?$AA?$DO@ 000000000006d938     UefiShellLevel2CommandsLib:Ls.obj
 0002:00006e28       ??_C@_19PLKELGOA@?$AA?4?$AAn?$AAs?$AAh@ 000000000006d948     UefiShellLevel2CommandsLib:Ls.obj
 0002:00006e38       ??_C@_0DG@DLFOGLEB@?$CITime?9?$DOTimeZone?5?$DO?$DN?5?91440?$CJ?5?$CG?$CG?5?$CIT@ 000000000006d958     UefiShellLevel2CommandsLib:Ls.obj
 0002:00006e70       ??_C@_0DE@HHNNGGB@?$CILocalTimeZone?5?$DO?$DN?5?91440?$CJ?5?$CG?$CG?5?$CILo@ 000000000006d990     UefiShellLevel2CommandsLib:Ls.obj
 0002:00006ea8       ??_C@_0CK@EBFHICFE@?$CITime?9?$DOMonth?5?$DO?$DN?51?$CJ?5?$CG?$CG?5?$CITime?9?$DOMo@ 000000000006d9c8     UefiShellLevel2CommandsLib:Ls.obj
 0002:00006ed8       ??_C@_0BL@LJNANCHI@Node?9?$DOInfo?5?$CB?$DN?5?$CI?$CIvoid?5?$CK?$CJ?50?$CJ@ 000000000006d9f8     UefiShellLevel2CommandsLib:Ls.obj
 0002:00006f00       ??_C@_0EJ@NBAHNBEF@?$CINode?9?$DOInfo?9?$DOAttribute?5?$CG?50x0000@ 000000000006da20     UefiShellLevel2CommandsLib:Ls.obj
 0002:00006f90       ??_C@_0BJ@COCMLIKB@TempList?5?$CB?$DN?5?$CI?$CIvoid?5?$CK?$CJ?50?$CJ@ 000000000006dab0     UefiShellLevel2CommandsLib:Map.obj
 0002:00006fb0       ??_C@_0FK@JHFIFBED@D?3?2uefi_specs_personal_collecti@ 000000000006dad0     UefiShellLevel2CommandsLib:Map.obj
 0002:00007010       ??_C@_17DLODPOOO@?$AAH?$AAD?$AA?$CK@ 000000000006db30     UefiShellLevel2CommandsLib:Map.obj
 0002:00007018       ??_C@_17GGIJOCLI@?$AAC?$AAD?$AA?$CK@ 000000000006db38     UefiShellLevel2CommandsLib:Map.obj
 0002:00007020       ??_C@_15FILDPIHH@?$AAF?$AA?$CK@ 000000000006db40     UefiShellLevel2CommandsLib:Map.obj
 0002:00007028       ??_C@_17LGCOKMFB@?$AAF?$AAP?$AA?$CK@ 000000000006db48     UefiShellLevel2CommandsLib:Map.obj
 0002:00007030       ??_C@_15EOIEBHGB@?$AAF?$AAS@ 000000000006db50     UefiShellLevel2CommandsLib:Map.obj
 0002:00007038       ??_C@_17MFOKPACN@?$AAB?$AAL?$AAK@ 000000000006db58     UefiShellLevel2CommandsLib:Map.obj
 0002:00007040       ??_C@_17PBAHFJOA@?$AAY?$AAe?$AAs@ 000000000006db60     UefiShellLevel2CommandsLib:Map.obj
 0002:00007048       ??_C@_15BICKNCBF@?$AAN?$AAo@ 000000000006db68     UefiShellLevel2CommandsLib:Map.obj
 0002:00007050       ??_C@_13DEFPDAGF@?$AA?0@   000000000006db70     UefiShellLevel2CommandsLib:Map.obj
 0002:00007054       ??_C@_15LLFLLHPE@?$AA?9?$AAv@ 000000000006db74     UefiShellLevel2CommandsLib:Map.obj
 0002:0000705c       ??_C@_15KJOOBIBK@?$AA?9?$AAu@ 000000000006db7c     UefiShellLevel2CommandsLib:Map.obj
 0002:00007064       ??_C@_15BBFCHPHP@?$AA?9?$AAt@ 000000000006db84     UefiShellLevel2CommandsLib:Map.obj
 0002:00007070       Hd                         000000000006db90     UefiShellLevel2CommandsLib:Map.obj
 0002:00007110       Cd                         000000000006dc30     UefiShellLevel2CommandsLib:Map.obj
 0002:00007118       Fp                         000000000006dc38     UefiShellLevel2CommandsLib:Map.obj
 0002:00007120       ??_C@_0FJ@CKFDEHIA@D?3?2uefi_specs_personal_collecti@ 000000000006dc40     UefiShellLevel2CommandsLib:Cp.obj
 0002:0000717c       ??_C@_15PKPONJIK@?$AA?2?$AA?$CK@ 000000000006dc9c     UefiShellLevel2CommandsLib:Cp.obj
 0002:00007188       ??_C@_0BI@PMPALEG@DestDir?5?$CB?$DN?5?$CI?$CIvoid?5?$CK?$CJ?50?$CJ@ 000000000006dca8     UefiShellLevel2CommandsLib:Cp.obj
 0002:000071a0       ??_C@_0CB@HHHHOICB@CleanFilePathStr?5?$CB?$DN?5?$CI?$CIvoid?5?$CK?$CJ?50@ 000000000006dcc0     UefiShellLevel2CommandsLib:Cp.obj
 0002:000071c8       ??_C@_0BP@CEDNINEP@Node?9?$DOFileName?5?$CB?$DN?5?$CI?$CIvoid?5?$CK?$CJ?50?$CJ@ 000000000006dce8     UefiShellLevel2CommandsLib:Cp.obj
 0002:000071e8       ??_C@_0BP@EODGBCFD@Node?9?$DOFullName?5?$CB?$DN?5?$CI?$CIvoid?5?$CK?$CJ?50?$CJ@ 000000000006dd08     UefiShellLevel2CommandsLib:Cp.obj
 0002:00007210       ??_C@_0EA@HBMPJEPK@?$CI?$CIEFI_SHELL_FILE_INFO?5?$CK?$CJList?9?$DOL@ 000000000006dd30     UefiShellLevel2CommandsLib:Cp.obj
 0002:00007250       ??_C@_0EK@LEAHEFB@?$CI?$CIEFI_SHELL_FILE_INFO?5?$CK?$CJList?9?$DOL@ 000000000006dd70     UefiShellLevel2CommandsLib:Cp.obj
 0002:0000729c       ??_C@_15CGIMIPEN@?$AA?9?$AAq@ 000000000006ddbc     UefiShellLevel2CommandsLib:Cp.obj
 0002:000072e0       ??_C@_13PFGJFIHC@?$AA?$FO@ 000000000006de00     UefiShellLevel2CommandsLib:Vol.obj
 0002:000072e4       ??_C@_13MCLHKIEA@?$AA?$FL@ 000000000006de04     UefiShellLevel2CommandsLib:Vol.obj
 0002:000072e8       ??_C@_13OHNMPHJM@?$AA?$FN@ 000000000006de08     UefiShellLevel2CommandsLib:Vol.obj
 0002:000072ec       ??_C@_13GEEGGHPK@?$AA?$DM@ 000000000006de0c     UefiShellLevel2CommandsLib:Vol.obj
 0002:000072f0       ??_C@_13MOEPKPHB@?$AA?$DO@ 000000000006de10     UefiShellLevel2CommandsLib:Vol.obj
 0002:00007300       ??_C@_0FK@FLLGPFFN@D?3?2uefi_specs_personal_collecti@ 000000000006de20     UefiShellLevel2CommandsLib:Vol.obj
 0002:0000735c       ??_C@_15COPGMIIE@?$AA?9?$AAn@ 000000000006de7c     UefiShellLevel2CommandsLib:Vol.obj
 0002:00007364       ??_C@_15GKAHMKIN@?$AA?3?$AA?2@ 000000000006de84     UefiShellLevel2CommandsLib:Vol.obj
 0002:000073a0       ??_C@_0FJ@NFKAHGPA@D?3?2uefi_specs_personal_collecti@ 000000000006dec0     UefiShellLevel2CommandsLib:Rm.obj
 0002:00007420       ??_C@_0FK@NEGGADDP@D?3?2uefi_specs_personal_collecti@ 000000000006df40     UefiShellLevel2CommandsLib:Set.obj
 0002:000074b0       ??_C@_0FM@ICNGBHCE@D?3?2uefi_specs_personal_collecti@ 000000000006dfd0     UefiShellLevel2CommandsLib:MkDir.obj
 0002:00007510       ??_C@_0BL@MMALFFMO@FileHandle?5?$DN?$DN?5?$CI?$CIvoid?5?$CK?$CJ?50?$CJ@ 000000000006e030     UefiShellLevel2CommandsLib:MkDir.obj
 0002:00007530       ??_C@_0BI@LCBFIOEA@CwdPath?5?$CB?$DN?5?$CI?$CIvoid?5?$CK?$CJ?50?$CJ@ 000000000006e050     UefiShellLevel2CommandsLib:Mv.obj
 0002:00007550       ??_C@_0FJ@LAAIKGDN@D?3?2uefi_specs_personal_collecti@ 000000000006e070     UefiShellLevel2CommandsLib:Mv.obj
 0002:000075b0       ??_C@_0BL@JJLEDFJJ@SourcePath?5?$CB?$DN?5?$CI?$CIvoid?5?$CK?$CJ?50?$CJ@ 000000000006e0d0     UefiShellLevel2CommandsLib:Mv.obj
 0002:000075d0       ??_C@_0BJ@HMJPKPMK@DestAttr?5?$CB?$DN?5?$CI?$CIvoid?5?$CK?$CJ?50?$CJ@ 000000000006e0f0     UefiShellLevel2CommandsLib:Mv.obj
 0002:000075f0       ??_C@_0BO@OPBKFEGF@DestParameter?5?$CB?$DN?5?$CI?$CIvoid?5?$CK?$CJ?50?$CJ@ 000000000006e110     UefiShellLevel2CommandsLib:Mv.obj
 0002:00007610       ??_C@_1M@DKNLGIMJ@?$AAs?$AAt?$AAa?$AAl?$AAl@ 000000000006e130     UefiShellLevel1CommandsLib:UefiShellLevel1CommandsLib.obj
 0002:00007620       ??_C@_1M@OAJKEOAM@?$AAs?$AAh?$AAi?$AAf?$AAt@ 000000000006e140     UefiShellLevel1CommandsLib:UefiShellLevel1CommandsLib.obj
 0002:00007630       ??_C@_19JPKILLMB@?$AAe?$AAx?$AAi?$AAt@ 000000000006e150     UefiShellLevel1CommandsLib:UefiShellLevel1CommandsLib.obj
 0002:00007660       ??_C@_0BP@EFNHGOCI@ProfilesString?5?$CB?$DN?5?$CI?$CIvoid?5?$CK?$CJ?50?$CJ@ 000000000006e180     UefiShellLevel1CommandsLib:If.obj
 0002:00007680       ??_C@_0FJ@PPBHIKAA@D?3?2uefi_specs_personal_collecti@ 000000000006e1a0     UefiShellLevel1CommandsLib:If.obj
 0002:000076e0       ??_C@_0CK@MGCONFMJ@?$CIEND_TAG_TYPE?$CJOperatorToUse?5?$CB?$DN?5@ 000000000006e200     UefiShellLevel1CommandsLib:If.obj
 0002:00007710       ??_C@_17ECEDBIFL@?$AAn?$AAo?$AAt@ 000000000006e230     UefiShellLevel1CommandsLib:If.obj
 0002:00007718       ??_C@_1M@DFKILDOD@?$AAi?$AAs?$AAi?$AAn?$AAt@ 000000000006e238     UefiShellLevel1CommandsLib:If.obj
 0002:00007728       ??_C@_1O@OCGIGJBK@?$AAe?$AAx?$AAi?$AAs?$AAt?$AAs@ 000000000006e248     UefiShellLevel1CommandsLib:If.obj
 0002:00007738       ??_C@_1M@HHAKBENA@?$AAe?$AAx?$AAi?$AAs?$AAt@ 000000000006e258     UefiShellLevel1CommandsLib:If.obj
 0002:00007748       ??_C@_1BC@MDECFFOE@?$AAe?$AAx?$AAi?$AAs?$AAt?$AA?$CI?$AAs?$AA?$CJ@ 000000000006e268     UefiShellLevel1CommandsLib:If.obj
 0002:00007760       ??_C@_1BE@DKICMKIK@?$AAa?$AAv?$AAa?$AAi?$AAl?$AAa?$AAb?$AAl?$AAe@ 000000000006e280     UefiShellLevel1CommandsLib:If.obj
 0002:00007778       ??_C@_1BA@PNHGIEJF@?$AAp?$AAr?$AAo?$AAf?$AAi?$AAl?$AAe@ 000000000006e298     UefiShellLevel1CommandsLib:If.obj
 0002:00007788       ??_C@_1BC@EHCCAAMH@?$AAe?$AAf?$AAi?$AAe?$AAr?$AAr?$AAo?$AAr@ 000000000006e2a8     UefiShellLevel1CommandsLib:If.obj
 0002:0000779c       ??_C@_13DIBMAFH@?$AA?$CJ@  000000000006e2bc     UefiShellLevel1CommandsLib:If.obj
 0002:000077a0       ??_C@_1BA@HKAFHKBC@?$AAp?$AAi?$AAe?$AAr?$AAr?$AAo?$AAr@ 000000000006e2c0     UefiShellLevel1CommandsLib:If.obj
 0002:000077b0       ??_C@_1BC@GFMDPOKB@?$AAo?$AAe?$AAm?$AAe?$AAr?$AAr?$AAo?$AAr@ 000000000006e2d0     UefiShellLevel1CommandsLib:If.obj
 0002:000077c4       ??_C@_15LPJBFGHF@?$AAg?$AAt@ 000000000006e2e4     UefiShellLevel1CommandsLib:If.obj
 0002:000077cc       ??_C@_15NFFGKGLG@?$AAl?$AAt@ 000000000006e2ec     UefiShellLevel1CommandsLib:If.obj
 0002:000077d4       ??_C@_15MFIHAHEM@?$AAe?$AAq@ 000000000006e2f4     UefiShellLevel1CommandsLib:If.obj
 0002:000077dc       ??_C@_15HADLDHEH@?$AAn?$AAe@ 000000000006e2fc     UefiShellLevel1CommandsLib:If.obj
 0002:000077e4       ??_C@_15FHDEGGIP@?$AAg?$AAe@ 000000000006e304     UefiShellLevel1CommandsLib:If.obj
 0002:000077ec       ??_C@_15DNPDJGEM@?$AAl?$AAe@ 000000000006e30c     UefiShellLevel1CommandsLib:If.obj
 0002:000077f4       ??_C@_15PEJIGKFD@?$AA?$DN?$AA?$DN@ 000000000006e314     UefiShellLevel1CommandsLib:If.obj
 0002:00007800       ??_C@_17IPMBLHEL@?$AAu?$AAg?$AAt@ 000000000006e320     UefiShellLevel1CommandsLib:If.obj
 0002:00007808       ??_C@_17OFAGEHII@?$AAu?$AAl?$AAt@ 000000000006e328     UefiShellLevel1CommandsLib:If.obj
 0002:00007810       ??_C@_17GHGEIHLB@?$AAu?$AAg?$AAe@ 000000000006e330     UefiShellLevel1CommandsLib:If.obj
 0002:00007818       ??_C@_17NKDHHHC@?$AAu?$AAl?$AAe@ 000000000006e338     UefiShellLevel1CommandsLib:If.obj
 0002:00007820       ??_C@_0CN@IKFKLGIO@StartParameterNumber?$CL2?5?$DM?$DN?5EndPa@ 000000000006e340     UefiShellLevel1CommandsLib:If.obj
 0002:00007850       ??_C@_15HGKJILME@?$AAo?$AAr@ 000000000006e370     UefiShellLevel1CommandsLib:If.obj
 0002:00007858       ??_C@_17CGIOMN@?$AAa?$AAn?$AAd@ 000000000006e378     UefiShellLevel1CommandsLib:If.obj
 0002:00007860       ??_C@_19GDBJBHLM@?$AAt?$AAh?$AAe?$AAn@ 000000000006e380     UefiShellLevel1CommandsLib:If.obj
 0002:0000786c       ??_C@_15HICHKNCH@?$AAI?$AAf@ 000000000006e38c     UefiShellLevel1CommandsLib:If.obj
 0002:00007878       ??_C@_1M@IBHPJAIJ@?$AAE?$AAn?$AAd?$AAI?$AAf@ 000000000006e398     UefiShellLevel1CommandsLib:If.obj
 0002:00007884       ??_C@_15POOJFBDG@?$AA?1?$AAi@ 000000000006e3a4     UefiShellLevel1CommandsLib:If.obj
 0002:0000788c       ??_C@_15MBENOGMN@?$AA?1?$AAs@ 000000000006e3ac     UefiShellLevel1CommandsLib:If.obj
 0002:00007898       ??_C@_19CMEEBEGM@?$AAT?$AAh?$AAe?$AAn@ 000000000006e3b8     UefiShellLevel1CommandsLib:If.obj
 0002:000078a8       ??_C@_19GCOMJGMH@?$AAE?$AAl?$AAs?$AAe@ 000000000006e3c8     UefiShellLevel1CommandsLib:If.obj
 0002:000078b4       ??_C@_04JGADNOIL@Else@     000000000006e3d4     UefiShellLevel1CommandsLib:If.obj
 0002:000078c0       ??_C@_1M@IGNDJFLP@?$AAE?$AAn?$AAd?$AAi?$AAf@ 000000000006e3e0     UefiShellLevel1CommandsLib:If.obj
 0002:000078d0       ??_C@_0FM@COCIGBKA@D?3?2uefi_specs_personal_collecti@ 000000000006e3f0     UefiShellLevel1CommandsLib:Stall.obj
 0002:00007930       ??_C@_0FK@ELPAFBMD@D?3?2uefi_specs_personal_collecti@ 000000000006e450     UefiShellLevel1CommandsLib:For.obj
 0002:00007990       ??_C@_1O@CFFHBKEK@?$AAE?$AAn?$AAd?$AAF?$AAo?$AAr@ 000000000006e4b0     UefiShellLevel1CommandsLib:For.obj
 0002:000079a0       ??_C@_17ENLLDOGE@?$AAF?$AAo?$AAr@ 000000000006e4c0     UefiShellLevel1CommandsLib:For.obj
 0002:000079a8       ??_C@_0BM@OABCJGHL@Node?9?$DOAlias?5?$DN?$DN?5?$CI?$CIvoid?5?$CK?$CJ?50?$CJ@ 000000000006e4c8     UefiShellLevel1CommandsLib:For.obj
 0002:000079c8       ??_C@_0CE@CIHKHJCI@Node?9?$DOCommandString?5?$DN?$DN?5?$CI?$CIvoid?5?$CK@ 000000000006e4e8     UefiShellLevel1CommandsLib:For.obj
 0002:000079f0       ??_C@_0CC@IMJMDDEE@CurrentScriptFile?5?$CB?$DN?5?$CI?$CIvoid?5?$CK?$CJ?5@ 000000000006e510     UefiShellLevel1CommandsLib:For.obj
 0002:00007a14       ??_C@_15LKDPIAPO@?$AAi?$AAn@ 000000000006e534     UefiShellLevel1CommandsLib:For.obj
 0002:00007a20       ??_C@_0EF@PAMGJHH@?$CIArgSet?5?$DN?$DN?5?$CI?$CIvoid?5?$CK?$CJ?50?$CJ?5?$CG?$CG?5ArgS@ 000000000006e540     UefiShellLevel1CommandsLib:For.obj
 0002:00007a68       ??_C@_17PELOKKDJ@?$AAr?$AAu?$AAn@ 000000000006e588     UefiShellLevel1CommandsLib:For.obj
 0002:00007a70       ??_C@_0CE@FDICNFOP@Info?9?$DOStep?5?$DN?$DN?51?5?$HM?$HM?5Info?9?$DOStep?5?$DN@ 000000000006e590     UefiShellLevel1CommandsLib:For.obj
 0002:00007a98       ??_C@_0BF@ELANCEIC@Info?5?$CB?$DN?5?$CI?$CIvoid?5?$CK?$CJ?50?$CJ@ 000000000006e5b8     UefiShellLevel1CommandsLib:For.obj
 0002:00007ab0       ??_C@_0BK@IBPGOKHK@Info?9?$DOSet?5?$CB?$DN?5?$CI?$CIvoid?5?$CK?$CJ?50?$CJ@ 000000000006e5d0     UefiShellLevel1CommandsLib:For.obj
 0002:00007ad0       ??_C@_17CMBJCHDO@?$AA?$CC?$AA?5?$AA?$CC@ 000000000006e5f0     UefiShellLevel1CommandsLib:For.obj
 0002:00007ae0       ??_C@_0FM@LNBIHCKG@D?3?2uefi_specs_personal_collecti@ 000000000006e600     UefiShellLevel1CommandsLib:Shift.obj
 0002:00007b40       ??_C@_0FL@DOCLIEOA@D?3?2uefi_specs_personal_collecti@ 000000000006e660     UefiShellLevel1CommandsLib:Goto.obj
 0002:00007ba0       ??_C@_19JKCOJBMF@?$AAG?$AAo?$AAt?$AAo@ 000000000006e6c0     UefiShellLevel1CommandsLib:Goto.obj
 0002:00007bac       ??_C@_15CJOINGDH@?$AA?1?$AAb@ 000000000006e6cc     UefiShellLevel1CommandsLib:Exit.obj
 0002:00007bc0       ??_C@_0FL@KIAPCEEH@D?3?2uefi_specs_personal_collecti@ 000000000006e6e0     UefiShellLevel1CommandsLib:Exit.obj
 0002:00007c40       ??_C@_19FHBCDCCA@?$AAt?$AAy?$AAp?$AAe@ 000000000006e760     UefiShellLevel3CommandsLib:UefiShellLevel3CommandsLib.obj
 0002:00007c50       ??_C@_1M@BHMIOBAK@?$AAt?$AAo?$AAu?$AAc?$AAh@ 000000000006e770     UefiShellLevel3CommandsLib:UefiShellLevel3CommandsLib.obj
 0002:00007c60       ??_C@_17GJONEOHP@?$AAv?$AAe?$AAr@ 000000000006e780     UefiShellLevel3CommandsLib:UefiShellLevel3CommandsLib.obj
 0002:00007c68       ??_C@_1M@IJIAJFBE@?$AAa?$AAl?$AAi?$AAa?$AAs@ 000000000006e788     UefiShellLevel3CommandsLib:UefiShellLevel3CommandsLib.obj
 0002:00007c78       ??_C@_17MCAFEHJN@?$AAc?$AAl?$AAs@ 000000000006e798     UefiShellLevel3CommandsLib:UefiShellLevel3CommandsLib.obj
 0002:00007c80       ??_C@_19PCDNJFIH@?$AAe?$AAc?$AAh?$AAo@ 000000000006e7a0     UefiShellLevel3CommandsLib:UefiShellLevel3CommandsLib.obj
 0002:00007c90       ??_C@_1M@PLLLDAIA@?$AAp?$AAa?$AAu?$AAs?$AAe@ 000000000006e7b0     UefiShellLevel3CommandsLib:UefiShellLevel3CommandsLib.obj
 0002:00007ca0       ??_C@_1O@HKMJDPHL@?$AAg?$AAe?$AAt?$AAm?$AAt?$AAc@ 000000000006e7c0     UefiShellLevel3CommandsLib:UefiShellLevel3CommandsLib.obj
 0002:00007cb0       ??_C@_19FCEHBCGP@?$AAh?$AAe?$AAl?$AAp@ 000000000006e7d0     UefiShellLevel3CommandsLib:UefiShellLevel3CommandsLib.obj
 0002:00007cc0       ??_C@_17ODEMGMPK@?$AAc?$AAa?$AAt@ 000000000006e7e0     UefiShellLevel3CommandsLib:UefiShellLevel3CommandsLib.obj
 0002:00007cc8       gShellLevel3FileName       000000000006e7e8     UefiShellLevel3CommandsLib:UefiShellLevel3CommandsLib.obj
 0002:00007ce8       ??_C@_1O@PAAFNODC@?$AA?9?$AAu?$AAs?$AAa?$AAg?$AAe@ 000000000006e808     UefiShellLevel3CommandsLib:Help.obj
 0002:00007cf8       ??_C@_1BC@IFEILMPD@?$AA?9?$AAs?$AAe?$AAc?$AAt?$AAi?$AAo?$AAn@ 000000000006e818     UefiShellLevel3CommandsLib:Help.obj
 0002:00007d10       ??_C@_1BC@CHGGHNLP@?$AA?9?$AAv?$AAe?$AAr?$AAb?$AAo?$AAs?$AAe@ 000000000006e830     UefiShellLevel3CommandsLib:Help.obj
 0002:00007d30       ??_C@_0FL@PLNMDKGJ@D?3?2uefi_specs_personal_collecti@ 000000000006e850     UefiShellLevel3CommandsLib:Help.obj
 0002:00007d90       ??_C@_19GGDNNDFE@?$AAN?$AAA?$AAM?$AAE@ 000000000006e8b0     UefiShellLevel3CommandsLib:Help.obj
 0002:00007da0       ??_C@_1BM@FNNGFIAF@?$AAN?$AAA?$AAM?$AAE?$AA?0?$AAS?$AAY?$AAN?$AAO?$AAP?$AAS?$AAI?$AAS@ 000000000006e8c0     UefiShellLevel3CommandsLib:Help.obj
 0002:00007dc0       ??_C@_1FG@FJOCLHCB@?$AAN?$AAA?$AAM?$AAE?$AA?0?$AAS?$AAY?$AAN?$AAO?$AAP?$AAS?$AAI?$AAS?$AA?0?$AAO@ 000000000006e8e0     UefiShellLevel3CommandsLib:Help.obj
 0002:00007e18       ??_C@_1BA@PIFIILLL@?$AAs?$AAp?$AAe?$AAc?$AAi?$AAa?$AAl@ 000000000006e938     UefiShellLevel3CommandsLib:Help.obj
 0002:00007e80       ??_C@_0FL@ONGBNDBN@D?3?2uefi_specs_personal_collecti@ 000000000006e9a0     UefiShellLevel3CommandsLib:Type.obj
 0002:00007ee0       ??_C@_1BA@FIDEGPKO@?$AA?9?$AAa?$AA?5?$AA?$CG?$AA?5?$AA?9?$AAu@ 000000000006ea00     UefiShellLevel3CommandsLib:Type.obj
 0002:00007ef0       ??_C@_0BN@NBHLEDMH@ShellStatus?5?$DN?$DN?5SHELL_SUCCESS@ 000000000006ea10     UefiShellLevel3CommandsLib:Type.obj
 0002:00007f40       ??_C@_17NKPFGKKO@?$AA?9?$AAo?$AAn@ 000000000006ea60     UefiShellLevel3CommandsLib:Echo.obj
 0002:00007f48       ??_C@_19GPPNOJGG@?$AA?9?$AAo?$AAf?$AAf@ 000000000006ea68     UefiShellLevel3CommandsLib:Echo.obj
 0002:00007f60       ??_C@_0FL@LBKIFJLN@D?3?2uefi_specs_personal_collecti@ 000000000006ea80     UefiShellLevel3CommandsLib:Echo.obj
 0002:00007ff0       ??_C@_0FM@HGHKNLAD@D?3?2uefi_specs_personal_collecti@ 000000000006eb10     UefiShellLevel3CommandsLib:Pause.obj
 0002:00008070       ??_C@_0FM@DAIFOBPL@D?3?2uefi_specs_personal_collecti@ 000000000006eb90     UefiShellLevel3CommandsLib:Touch.obj
 0002:000080f0       ??_C@_0FN@EPPPHPGP@D?3?2uefi_specs_personal_collecti@ 000000000006ec10     UefiShellLevel3CommandsLib:GetMtc.obj
 0002:00008150       ??_C@_1O@CLGDBFLH@?$AA?9?$AAt?$AAe?$AAr?$AAs?$AAe@ 000000000006ec70     UefiShellLevel3CommandsLib:Ver.obj
 0002:00008160       ??_C@_19KCGIGDCE@?$AA?9?$AA_?$AAp?$AAa@ 000000000006ec80     UefiShellLevel3CommandsLib:Ver.obj
 0002:00008170       ??_C@_0FK@HGCCENAI@D?3?2uefi_specs_personal_collecti@ 000000000006ec90     UefiShellLevel3CommandsLib:Ver.obj
 0002:000081d0       ??_C@_1BK@IMKBAMOC@?$AA?9?$AAt?$AA?5?$AAo?$AAr?$AA?5?$AA?9?$AAt?$AAe?$AAr?$AAs?$AAe@ 000000000006ecf0     UefiShellLevel3CommandsLib:Ver.obj
 0002:000081f0       ??_C@_19DCIDACOG@?$AA?$CF?$AAd?$AA?$AN?$AA?6@ 000000000006ed10     UefiShellLevel3CommandsLib:Ver.obj
 0002:00008250       ??_C@_0FM@LMPKIFDH@D?3?2uefi_specs_personal_collecti@ 000000000006ed70     UefiShellLevel3CommandsLib:Alias.obj
 0002:000082e0       ??_C@_0FK@JAJFNLDE@D?3?2uefi_specs_personal_collecti@ 000000000006ee00     UefiShellLevel3CommandsLib:Cls.obj
 0002:00008360       ??_C@_1BA@DKNAEHKI@?$AAD?$AAr?$AAi?$AAv?$AAe?$AAr?$AA1@ 000000000006ee80     UefiShellDriver1CommandsLib:UefiShellDriver1CommandsLib.obj
 0002:00008370       ??_C@_1BA@CFPPNJDF@?$AAc?$AAo?$AAn?$AAn?$AAe?$AAc?$AAt@ 000000000006ee90     UefiShellDriver1CommandsLib:UefiShellDriver1CommandsLib.obj
 0002:00008380       ??_C@_1BA@GPBIKJID@?$AAd?$AAe?$AAv?$AAi?$AAc?$AAe?$AAs@ 000000000006eea0     UefiShellDriver1CommandsLib:UefiShellDriver1CommandsLib.obj
 0002:00008390       ??_C@_1BC@MKFACHOA@?$AAo?$AAp?$AAe?$AAn?$AAi?$AAn?$AAf?$AAo@ 000000000006eeb0     UefiShellDriver1CommandsLib:UefiShellDriver1CommandsLib.obj
 0002:000083a8       ??_C@_1BG@ILELFFEH@?$AAd?$AAi?$AAs?$AAc?$AAo?$AAn?$AAn?$AAe?$AAc?$AAt@ 000000000006eec8     UefiShellDriver1CommandsLib:UefiShellDriver1CommandsLib.obj
 0002:000083c0       ??_C@_1BE@MAKMINOO@?$AAr?$AAe?$AAc?$AAo?$AAn?$AAn?$AAe?$AAc?$AAt@ 000000000006eee0     UefiShellDriver1CommandsLib:UefiShellDriver1CommandsLib.obj
 0002:000083d8       ??_C@_1O@DEBHAOEE@?$AAu?$AAn?$AAl?$AAo?$AAa?$AAd@ 000000000006eef8     UefiShellDriver1CommandsLib:UefiShellDriver1CommandsLib.obj
 0002:000083e8       ??_C@_1BA@EMLDCKIJ@?$AAd?$AAr?$AAv?$AAd?$AAi?$AAa?$AAg@ 000000000006ef08     UefiShellDriver1CommandsLib:UefiShellDriver1CommandsLib.obj
 0002:000083f8       ??_C@_15CDMKMMPM@?$AAd?$AAh@ 000000000006ef18     UefiShellDriver1CommandsLib:UefiShellDriver1CommandsLib.obj
 0002:00008400       ??_C@_1BA@BMPCKMGD@?$AAd?$AAr?$AAi?$AAv?$AAe?$AAr?$AAs@ 000000000006ef20     UefiShellDriver1CommandsLib:UefiShellDriver1CommandsLib.obj
 0002:00008410       ??_C@_1BA@HICLJKCN@?$AAd?$AAe?$AAv?$AAt?$AAr?$AAe?$AAe@ 000000000006ef30     UefiShellDriver1CommandsLib:UefiShellDriver1CommandsLib.obj
 0002:00008420       ??_C@_1O@KOCLOIBL@?$AAd?$AAr?$AAv?$AAc?$AAf?$AAg@ 000000000006ef40     UefiShellDriver1CommandsLib:UefiShellDriver1CommandsLib.obj
 0002:00008450       ??_C@_1BA@DCMAKCEI@?$AAC?$AAo?$AAn?$AAn?$AAe?$AAc?$AAt@ 000000000006ef70     UefiShellDriver1CommandsLib:Connect.obj
 0002:00008460       ??_C@_0FP@KPKEEOGL@D?3?2uefi_specs_personal_collecti@ 000000000006ef80     UefiShellDriver1CommandsLib:Connect.obj
 0002:000084c0       ??_C@_1BC@OBFMLJLI@?$AAC?$AAo?$AAn?$AAI?$AAn?$AAD?$AAe?$AAv@ 000000000006efe0     UefiShellDriver1CommandsLib:Connect.obj
 0002:000084d8       ??_C@_1BE@INNAKDAF@?$AAC?$AAo?$AAn?$AAO?$AAu?$AAt?$AAD?$AAe?$AAv@ 000000000006eff8     UefiShellDriver1CommandsLib:Connect.obj
 0002:000084f0       ??_C@_1BE@JFPOEAHF@?$AAE?$AAr?$AAr?$AAO?$AAu?$AAt?$AAD?$AAe?$AAv@ 000000000006f010     UefiShellDriver1CommandsLib:Connect.obj
 0002:00008508       ??_C@_1O@JOJMCOJC@?$AAE?$AAr?$AAr?$AAO?$AAu?$AAt@ 000000000006f028     UefiShellDriver1CommandsLib:Connect.obj
 0002:00008518       ??_C@_1M@NFPEGKHA@?$AAC?$AAo?$AAn?$AAI?$AAn@ 000000000006f038     UefiShellDriver1CommandsLib:Connect.obj
 0002:00008528       ??_C@_1O@MJHLOIFA@?$AAC?$AAo?$AAn?$AAO?$AAu?$AAt@ 000000000006f048     UefiShellDriver1CommandsLib:Connect.obj
 0002:00008570       ??_C@_0FP@HGGBOFJI@D?3?2uefi_specs_personal_collecti@ 000000000006f090     UefiShellDriver1CommandsLib:Devices.obj
 0002:000085d0       ??_C@_0BL@LNNGAGCN@HandleList?5?$CB?$DN?5?$CI?$CIvoid?5?$CK?$CJ?50?$CJ@ 000000000006f0f0     UefiShellDriver1CommandsLib:Devices.obj
 0002:00008620       ??_C@_0FO@HJPGOKPF@D?3?2uefi_specs_personal_collecti@ 000000000006f140     UefiShellDriver1CommandsLib:Unload.obj
 0002:00008680       ??_C@_1O@PJHDHGJM@?$AAU?$AAn?$AAl?$AAo?$AAa?$AAd@ 000000000006f1a0     UefiShellDriver1CommandsLib:Unload.obj
 0002:000086d0       ??_C@_0GB@GFGDBLED@D?3?2uefi_specs_personal_collecti@ 000000000006f1f0     UefiShellDriver1CommandsLib:Reconnect.obj
 0002:00008760       ??_C@_0GA@DPLMFHJK@D?3?2uefi_specs_personal_collecti@ 000000000006f280     UefiShellDriver1CommandsLib:OpenInfo.obj
 0002:000087c0       ??_C@_1BC@CAGGCOJA@?$AA?$CF?$AAH?$AA?$CF?$AAs?$AA?$CF?$AAN?$AA?$AN?$AA?6@ 000000000006f2e0     UefiShellDriver1CommandsLib:OpenInfo.obj
 0002:000088a0       ??_C@_0FP@IOFEKNAP@D?3?2uefi_specs_personal_collecti@ 000000000006f3c0     UefiShellDriver1CommandsLib:Drivers.obj
 0002:00008930       ??_C@_1EE@NHOEDGHC@?$AAg?$AAE?$AAf?$AAi?$AAD?$AAr?$AAi?$AAv?$AAe?$AAr?$AAD?$AAi?$AAa?$AAg?$AAn@ 000000000006f450     UefiShellDriver1CommandsLib:DrvDiag.obj
 0002:00008980       ??_C@_1EG@EPGLAAKO@?$AAg?$AAE?$AAf?$AAi?$AAD?$AAr?$AAi?$AAv?$AAe?$AAr?$AAD?$AAi?$AAa?$AAg?$AAn@ 000000000006f4a0     UefiShellDriver1CommandsLib:DrvDiag.obj
 0002:000089c8       ??_C@_0CA@MFIJNLGK@ChildHandleList?5?$DN?$DN?5?$CI?$CIvoid?5?$CK?$CJ?50?$CJ@ 000000000006f4e8     UefiShellDriver1CommandsLib:DrvDiag.obj
 0002:000089f0       ??_C@_0FP@JLMKNHBC@D?3?2uefi_specs_personal_collecti@ 000000000006f510     UefiShellDriver1CommandsLib:DrvDiag.obj
 0002:00008a50       ??_C@_1BA@BENBFCCE@?$AAD?$AAr?$AAv?$AAD?$AAi?$AAa?$AAg@ 000000000006f570     UefiShellDriver1CommandsLib:DrvDiag.obj
 0002:00008a60       ??_C@_15PJPHEPIF@?$AA?9?$AAe@ 000000000006f580     UefiShellDriver1CommandsLib:DrvDiag.obj
 0002:00008a68       ??_C@_15DMEDGHGK@?$AA?9?$AAm@ 000000000006f588     UefiShellDriver1CommandsLib:DrvDiag.obj
 0002:00008ad0       ??_C@_15JODAOICI@?$AA?9?$AAp@ 000000000006f5f0     UefiShellDriver1CommandsLib:Dh.obj
 0002:00008ae0       ??_C@_0EC@KKFLCAGI@?$CIRetVal?5?$DN?$DN?5?$CI?$CIvoid?5?$CK?$CJ?50?$CJ?5?$CG?$CG?5Size@ 000000000006f600     UefiShellDriver1CommandsLib:Dh.obj
 0002:00008b30       ??_C@_0FK@PCMLJPMF@D?3?2uefi_specs_personal_collecti@ 000000000006f650     UefiShellDriver1CommandsLib:Dh.obj
 0002:00008b90       ??_C@_17LJIPLNCC@?$AA?$CI?$AA?$CF?$AAH@ 000000000006f6b0     UefiShellDriver1CommandsLib:Dh.obj
 0002:00008b98       ??_C@_15HCGDGKEF@?$AA?$CF?$AAp@ 000000000006f6b8     UefiShellDriver1CommandsLib:Dh.obj
 0002:00008ba0       ??_C@_17MDCDMHAM@?$AA?$CF?$AAN?$AA?$CJ@ 000000000006f6c0     UefiShellDriver1CommandsLib:Dh.obj
 0002:00008ba8       ??_C@_1BE@BGMELJBK@?$AA?$DM?$AAU?$AAn?$AAk?$AAn?$AAo?$AAw?$AAn?$AA?$DO@ 000000000006f6c8     UefiShellDriver1CommandsLib:Dh.obj
 0002:00008bc0       ??_C@_17FGJJPDOI@?$AAY?$AAE?$AAS@ 000000000006f6e0     UefiShellDriver1CommandsLib:Dh.obj
 0002:00008bc8       ??_C@_15LIBIHNCL@?$AAN?$AAO@ 000000000006f6e8     UefiShellDriver1CommandsLib:Dh.obj
 0002:00008bd0       ??_C@_19OLEIDBPB@?$AAR?$AAO?$AAO?$AAT@ 000000000006f6f0     UefiShellDriver1CommandsLib:Dh.obj
 0002:00008be0       ??_C@_17HEJONMAO@?$AAB?$AAU?$AAS@ 000000000006f700     UefiShellDriver1CommandsLib:Dh.obj
 0002:00008be8       ??_C@_1O@HJEPMBDG@?$AAD?$AAE?$AAV?$AAI?$AAC?$AAE@ 000000000006f708     UefiShellDriver1CommandsLib:Dh.obj
 0002:00008bf8       ??_C@_1O@NLHFMLEA@?$AA?$DM?$AAN?$AAo?$AAn?$AAe?$AA?$DO@ 000000000006f718     UefiShellDriver1CommandsLib:Dh.obj
 0002:00008c08       ??_C@_17NDAAHGAG@?$AAB?$AAu?$AAs@ 000000000006f728     UefiShellDriver1CommandsLib:Dh.obj
 0002:00008c10       ??_C@_1O@HAMLNBEA@?$AAD?$AAe?$AAv?$AAi?$AAc?$AAe@ 000000000006f730     UefiShellDriver1CommandsLib:Dh.obj
 0002:00008c20       ??_C@_1BA@OBHGHNNB@?$AAD?$AAe?$AAv?$AAP?$AAa?$AAt?$AAh@ 000000000006f740     UefiShellDriver1CommandsLib:Dh.obj
 0002:00008c30       ??_C@_1BO@JHBAADC@?$AAC?$AAo?$AAn?$AAt?$AAr?$AAo?$AAl?$AAl?$AAe?$AAr?$AAN?$AAa?$AAm?$AAe@ 000000000006f750     UefiShellDriver1CommandsLib:Dh.obj
 0002:00008c50       ??_C@_1BG@LDKFKLIA@?$AAD?$AAr?$AAi?$AAv?$AAe?$AAr?$AAN?$AAa?$AAm?$AAe@ 000000000006f770     UefiShellDriver1CommandsLib:Dh.obj
 0002:00008c68       ??_C@_1BI@PIGGPLMC@?$AAH?$AAa?$AAn?$AAd?$AAl?$AAe?$AAs?$AAI?$AAn?$AAf?$AAo@ 000000000006f788     UefiShellDriver1CommandsLib:Dh.obj
 0002:00008c80       ??_C@_1BG@HBNBALLH@?$AAH?$AAa?$AAn?$AAd?$AAl?$AAe?$AAI?$AAn?$AAf?$AAo@ 000000000006f7a0     UefiShellDriver1CommandsLib:Dh.obj
 0002:00008c98       ??_C@_05DEHGPOPE@en?9us@   000000000006f7b8     UefiShellDriver1CommandsLib:Dh.obj
 0002:00008ca0       ??_C@_1O@KHECNKAL@?$AAd?$AAe?$AAc?$AAo?$AAd?$AAe@ 000000000006f7c0     UefiShellDriver1CommandsLib:Dh.obj
 0002:00008cb0       mGuidDataLen               000000000006f7d0     UefiShellDriver1CommandsLib:Dh.obj
 0002:00008d50       ??_C@_0FP@CCNPIHH@D?3?2uefi_specs_personal_collecti@ 000000000006f870     UefiShellDriver1CommandsLib:DevTree.obj
 0002:00008db0       ??_C@_0BK@IFBJPJNB@HiiString?5?$CB?$DN?5?$CI?$CIvoid?5?$CK?$CJ?50?$CJ@ 000000000006f8d0     UefiShellDriver1CommandsLib:DevTree.obj
 0002:00008dd0       ??_C@_1BC@OEEOMJPG@?$AA?$CF?$AA?$CF?$AA?$CF?$AAd?$AAs?$AA?5?$AA?$CF?$AAs@ 000000000006f8f0     UefiShellDriver1CommandsLib:DevTree.obj
 0002:00008de8       ??_C@_1BA@LEPJIIOK@?$AAU?$AAn?$AAk?$AAn?$AAo?$AAw?$AAn@ 000000000006f908     UefiShellDriver1CommandsLib:DevTree.obj
 0002:00008e30       ??_C@_0BJ@HMGEGPJ@DevPath1?5?$CB?$DN?5?$CI?$CIvoid?5?$CK?$CJ?50?$CJ@ 000000000006f950     UefiShellDriver1CommandsLib:DrvCfg.obj
 0002:00008e50       ??_C@_0FO@PKAMONJA@D?3?2uefi_specs_personal_collecti@ 000000000006f970     UefiShellDriver1CommandsLib:DrvCfg.obj
 0002:00008eb0       ??_C@_0BL@PMHHHLIM@?$CKHiiHandle?5?$DN?$DN?5?$CI?$CIvoid?5?$CK?$CJ?50?$CJ@ 000000000006f9d0     UefiShellDriver1CommandsLib:DrvCfg.obj
 0002:00008ed0       ??_C@_0BG@GDKGJGL@HiiDb?5?$CB?$DN?5?$CI?$CIvoid?5?$CK?$CJ?50?$CJ@ 000000000006f9f0     UefiShellDriver1CommandsLib:DrvCfg.obj
 0002:00008ee8       ??_C@_1CO@BBNCKDAD@?$AAE?$AAf?$AAi?$AAH?$AAi?$AAi?$AAD?$AAa?$AAt?$AAa?$AAb?$AAa?$AAs?$AAe?$AAP@ 000000000006fa08     UefiShellDriver1CommandsLib:DrvCfg.obj
 0002:00008f18       ??_C@_1DO@DAJOAMHC@?$AAH?$AAi?$AAi?$AAD?$AAa?$AAt?$AAa?$AAb?$AAa?$AAs?$AAe?$AA?9?$AA?$DO?$AAU?$AAp@ 000000000006fa38     UefiShellDriver1CommandsLib:DrvCfg.obj
 0002:00008f58       ??_C@_1CA@BBCLIDIM@?$AAs?$AAt?$AAo?$AAp?$AA?5?$AAc?$AAo?$AAn?$AAt?$AAr?$AAo?$AAl?$AAl?$AAe?$AAr@ 000000000006fa78     UefiShellDriver1CommandsLib:DrvCfg.obj
 0002:00008f78       ??_C@_1BA@PKILJGND@?$AAs?$AAt?$AAo?$AAp?$AAp?$AAe?$AAd@ 000000000006fa98     UefiShellDriver1CommandsLib:DrvCfg.obj
 0002:00008f88       ??_C@_1BG@OACNEEF@?$AAc?$AAo?$AAn?$AAt?$AAr?$AAo?$AAl?$AAl?$AAe?$AAr@ 000000000006faa8     UefiShellDriver1CommandsLib:DrvCfg.obj
 0002:00008fa0       ??_C@_1CG@MCGKPHJM@?$AAr?$AAe?$AAs?$AAt?$AAa?$AAr?$AAt?$AA?5?$AAc?$AAo?$AAn?$AAt?$AAr?$AAo?$AAl@ 000000000006fac0     UefiShellDriver1CommandsLib:DrvCfg.obj
 0002:00008fc8       ??_C@_1BE@HGFGMPNB@?$AAr?$AAe?$AAs?$AAt?$AAa?$AAr?$AAt?$AAe?$AAd@ 000000000006fae8     UefiShellDriver1CommandsLib:DrvCfg.obj
 0002:00008fe0       ??_C@_1BC@KDOFGLFF@?$AAp?$AAl?$AAa?$AAt?$AAf?$AAo?$AAr?$AAm@ 000000000006fb00     UefiShellDriver1CommandsLib:DrvCfg.obj
 0002:00008ff8       ??_C@_1CC@PCBPHGE@?$AAr?$AAe?$AAs?$AAt?$AAa?$AAr?$AAt?$AA?5?$AAp?$AAl?$AAa?$AAt?$AAf?$AAo?$AAr@ 000000000006fb18     UefiShellDriver1CommandsLib:DrvCfg.obj
 0002:00009020       ??_C@_0BI@NIPGFGFF@DriverImageHandleBuffer@ 000000000006fb40     UefiShellDriver1CommandsLib:DrvCfg.obj
 0002:00009038       ??_C@_15JGEKKPOB@?$AA?9?$AAo@ 000000000006fb58     UefiShellDriver1CommandsLib:DrvCfg.obj
 0002:00009100       ??_C@_0GC@MJFFECPF@D?3?2uefi_specs_personal_collecti@ 000000000006fc20     UefiShellDriver1CommandsLib:Disconnect.obj
 0002:00009168       ??_C@_0BH@BKMFDLMK@Param2?5?$CB?$DN?5?$CI?$CIvoid?5?$CK?$CJ?50?$CJ@ 000000000006fc88     UefiShellDriver1CommandsLib:Disconnect.obj
 0002:00009180       ??_C@_1BM@PPEFOEMK@?$AAd?$AAr?$AAi?$AAv?$AAe?$AAr?$AA?5?$AAh?$AAa?$AAn?$AAd?$AAl?$AAe@ 000000000006fca0     UefiShellDriver1CommandsLib:Disconnect.obj
 0002:000091a0       ??_C@_0BH@PAEDOGKI@Param1?5?$CB?$DN?5?$CI?$CIvoid?5?$CK?$CJ?50?$CJ@ 000000000006fcc0     UefiShellDriver1CommandsLib:Disconnect.obj
 0002:000091b8       ??_C@_1BG@DNEMHIE@?$AAD?$AAi?$AAs?$AAc?$AAo?$AAn?$AAn?$AAe?$AAc?$AAt@ 000000000006fcd8     UefiShellDriver1CommandsLib:Disconnect.obj
 0002:00009200       ??_C@_1O@KKGEAOFF@?$AAD?$AAe?$AAb?$AAu?$AAg?$AA1@ 000000000006fd20     UefiShellDebug1CommandsLib:UefiShellDebug1CommandsLib.obj
 0002:00009210       ??_C@_1BA@LOEDEEBD@?$AAs?$AAe?$AAt?$AAs?$AAi?$AAz?$AAe@ 000000000006fd30     UefiShellDebug1CommandsLib:UefiShellDebug1CommandsLib.obj
 0002:00009220       ??_C@_19PADLCGPF@?$AAc?$AAo?$AAm?$AAp@ 000000000006fd40     UefiShellDebug1CommandsLib:UefiShellDebug1CommandsLib.obj
 0002:00009230       ??_C@_19KODKOACD@?$AAm?$AAo?$AAd?$AAe@ 000000000006fd50     UefiShellDebug1CommandsLib:UefiShellDebug1CommandsLib.obj
 0002:00009240       ??_C@_1O@GCPCCEJL@?$AAm?$AAe?$AAm?$AAm?$AAa?$AAp@ 000000000006fd60     UefiShellDebug1CommandsLib:UefiShellDebug1CommandsLib.obj
 0002:00009250       ??_C@_1BI@LAIPDGGL@?$AAe?$AAf?$AAi?$AAc?$AAo?$AAm?$AAp?$AAr?$AAe?$AAs?$AAs@ 000000000006fd70     UefiShellDebug1CommandsLib:UefiShellDebug1CommandsLib.obj
 0002:00009268       ??_C@_1BM@PNCADKIC@?$AAe?$AAf?$AAi?$AAd?$AAe?$AAc?$AAo?$AAm?$AAp?$AAr?$AAe?$AAs?$AAs@ 000000000006fd88     UefiShellDebug1CommandsLib:UefiShellDebug1CommandsLib.obj
 0002:00009288       ??_C@_19BOOCDHNO@?$AAd?$AAm?$AAe?$AAm@ 000000000006fda8     UefiShellDebug1CommandsLib:UefiShellDebug1CommandsLib.obj
 0002:00009298       ??_C@_1BG@FNFDCN@?$AAl?$AAo?$AAa?$AAd?$AAp?$AAc?$AAi?$AAr?$AAo?$AAm@ 000000000006fdb8     UefiShellDebug1CommandsLib:UefiShellDebug1CommandsLib.obj
 0002:000092b0       ??_C@_15DDBLGNAG@?$AAm?$AAm@ 000000000006fdd0     UefiShellDebug1CommandsLib:UefiShellDebug1CommandsLib.obj
 0002:000092b8       ??_C@_1O@JPLIACKD@?$AAs?$AAe?$AAt?$AAv?$AAa?$AAr@ 000000000006fdd8     UefiShellDebug1CommandsLib:UefiShellDebug1CommandsLib.obj
 0002:000092c8       ??_C@_1BA@JHKKDKME@?$AAs?$AAe?$AAr?$AAm?$AAo?$AAd?$AAe@ 000000000006fde8     UefiShellDebug1CommandsLib:UefiShellDebug1CommandsLib.obj
 0002:000092d8       ??_C@_17POMDHEHL@?$AAp?$AAc?$AAi@ 000000000006fdf8     UefiShellDebug1CommandsLib:UefiShellDebug1CommandsLib.obj
 0002:000092e0       ??_C@_1BG@JEHOOHI@?$AAs?$AAm?$AAb?$AAi?$AAo?$AAs?$AAv?$AAi?$AAe?$AAw@ 000000000006fe00     UefiShellDebug1CommandsLib:UefiShellDebug1CommandsLib.obj
 0002:000092f8       ??_C@_1BC@EBEMDMHF@?$AAd?$AAm?$AAp?$AAs?$AAt?$AAo?$AAr?$AAe@ 000000000006fe18     UefiShellDebug1CommandsLib:UefiShellDebug1CommandsLib.obj
 0002:00009310       ??_C@_19MFKGCLGG@?$AAd?$AAb?$AAl?$AAk@ 000000000006fe30     UefiShellDebug1CommandsLib:UefiShellDebug1CommandsLib.obj
 0002:00009320       ??_C@_19LELMJPKF@?$AAe?$AAd?$AAi?$AAt@ 000000000006fe40     UefiShellDebug1CommandsLib:UefiShellDebug1CommandsLib.obj
 0002:00009330       ??_C@_1BA@NLOHLIAA@?$AAh?$AAe?$AAx?$AAe?$AAd?$AAi?$AAt@ 000000000006fe50     UefiShellDebug1CommandsLib:UefiShellDebug1CommandsLib.obj
 0002:00009340       ??_C@_17EAEGCEML@?$AAm?$AAe?$AAm@ 000000000006fe60     UefiShellDebug1CommandsLib:UefiShellDebug1CommandsLib.obj
 0002:00009350       ??_C@_0HB@BAPJKLLH@D?3?2uefi_specs_personal_collecti@ 000000000006fe70     UefiShellDebug1CommandsLib:UefiShellDebug1CommandsLib.obj
 0002:000093c8       ??_C@_1BK@OCGPFNFF@?$AAN?$AAe?$AAw?$AAF?$AAi?$AAl?$AAe?$AA?$CF?$AAd?$AA?4?$AA?$CF?$AAs@ 000000000006fee8     UefiShellDebug1CommandsLib:UefiShellDebug1CommandsLib.obj
 0002:00009408       ??_C@_1CE@KILBNFLH@?$AAR?$AAt?$AAP?$AAr?$AAo?$AAp?$AAe?$AAr?$AAt?$AAi?$AAe?$AAs?$AAT?$AAa?$AAb@ 000000000006ff28     UefiShellDebug1CommandsLib:Dmem.obj
 0002:00009430       ??_C@_1BO@EOGHFKKG@?$AAA?$AAU?$AAT?$AAH?$AAE?$AAN?$AAT?$AAI?$AAC?$AAA?$AAT?$AAI?$AAO?$AAN@ 000000000006ff50     UefiShellDebug1CommandsLib:Dmem.obj
 0002:00009450       ??_C@_1BM@HKLKAGDB@?$AAA?$AAU?$AAT?$AAH?$AA_?$AAU?$AAN?$AAT?$AAE?$AAS?$AAT?$AAE?$AAD@ 000000000006ff70     UefiShellDebug1CommandsLib:Dmem.obj
 0002:00009470       ??_C@_1CA@FDHEKDNO@?$AAA?$AAU?$AAT?$AAH?$AA_?$AAS?$AAI?$AAG?$AA_?$AAF?$AAA?$AAI?$AAL?$AAE?$AAD@ 000000000006ff90     UefiShellDebug1CommandsLib:Dmem.obj
 0002:00009490       ??_C@_1CA@FIBDOGKC@?$AAA?$AAU?$AAT?$AAH?$AA_?$AAS?$AAI?$AAG?$AA_?$AAP?$AAA?$AAS?$AAS?$AAE?$AAD@ 000000000006ffb0     UefiShellDebug1CommandsLib:Dmem.obj
 0002:000094b0       ??_C@_1CG@FHMAOOKD@?$AAA?$AAU?$AAT?$AAH?$AA_?$AAS?$AAI?$AAG?$AA_?$AAN?$AAO?$AAT?$AA_?$AAF?$AAO@ 000000000006ffd0     UefiShellDebug1CommandsLib:Dmem.obj
 0002:000094d8       ??_C@_1BO@LDPKBOMD@?$AAA?$AAU?$AAT?$AAH?$AA_?$AAS?$AAI?$AAG?$AA_?$AAF?$AAO?$AAU?$AAN?$AAD@ 000000000006fff8     UefiShellDebug1CommandsLib:Dmem.obj
 0002:000094f8       ??_C@_1BM@EMGBIINO@?$AAP?$AAO?$AAL?$AAI?$AAC?$AAY?$AA_?$AAF?$AAA?$AAI?$AAL?$AAE?$AAD@ 0000000000070018     UefiShellDebug1CommandsLib:Dmem.obj
 0002:00009518       ??_C@_1BI@INIEPMCL@?$AAI?$AAN?$AAI?$AAT?$AAI?$AAA?$AAL?$AAI?$AAZ?$AAE?$AAD@ 0000000000070038     UefiShellDebug1CommandsLib:Dmem.obj
 0002:00009530       ??_C@_1BO@BBPIOFH@?$AAi?$AAn?$AAv?$AAa?$AAl?$AAi?$AAd?$AA?5?$AAa?$AAc?$AAt?$AAi?$AAo?$AAn@ 0000000000070050     UefiShellDebug1CommandsLib:Dmem.obj
 0002:00009550       ??_C@_1CI@COOKDEFM@?$AAI?$AAm?$AAa?$AAg?$AAe?$AAE?$AAx?$AAe?$AAc?$AAu?$AAt?$AAi?$AAo?$AAn?$AAT@ 0000000000070070     UefiShellDebug1CommandsLib:Dmem.obj
 0002:00009578       ??_C@_1CA@CLLNCEHI@?$AAU?$AAn?$AAk?$AAn?$AAo?$AAw?$AAn?$AA_?$AAP?$AAr?$AAo?$AAf?$AAi?$AAl?$AAe@ 0000000000070098     UefiShellDebug1CommandsLib:Dmem.obj
 0002:000095a0       ??_C@_1EO@KNFJIBCF@?$AAE?$AAF?$AAI?$AA_?$AAC?$AAO?$AAN?$AAF?$AAO?$AAR?$AAM?$AAA?$AAN?$AAC?$AAE@ 00000000000700c0     UefiShellDebug1CommandsLib:Dmem.obj
 0002:000095f0       ??_C@_1BC@OFBMHHCE@?$AAE?$AAB?$AAB?$AAR?$AA_?$AA2?$AA?4?$AA1@ 0000000000070110     UefiShellDebug1CommandsLib:Dmem.obj
 0002:00009608       ??_C@_1BC@PHKJNIMK@?$AAE?$AAB?$AAB?$AAR?$AA_?$AA2?$AA?4?$AA2@ 0000000000070128     UefiShellDebug1CommandsLib:Dmem.obj
 0002:00009620       ??_C@_1DC@FFIMOOEH@?$AAC?$AAo?$AAm?$AAf?$AAo?$AAr?$AAm?$AAa?$AAn?$AAc?$AAe?$AAP?$AAr?$AAo?$AAf@ 0000000000070140     UefiShellDebug1CommandsLib:Dmem.obj
 0002:00009660       ??_C@_1FA@MBAOEPCF@?$AAE?$AAF?$AAI?$AA_?$AAC?$AAO?$AAN?$AAF?$AAO?$AAR?$AAM?$AAA?$AAN?$AAC?$AAE@ 0000000000070180     UefiShellDebug1CommandsLib:Dmem.obj
 0002:000096b0       ??_C@_1M@CBPNGAOL@?$AA?9?$AAm?$AAm?$AAi?$AAo@ 00000000000701d0     UefiShellDebug1CommandsLib:Dmem.obj
 0002:000096c0       ??_C@_0FL@GPLMDMHD@D?3?2uefi_specs_personal_collecti@ 00000000000701e0     UefiShellDebug1CommandsLib:Dmem.obj
 0002:00009750       ??_C@_1BO@FHHPGHDB@?$AAP?$AAr?$AAe?$AA?5?$AA2?$AA?4?$AA0?$AA?5?$AAd?$AAe?$AAv?$AAi?$AAc?$AAe@ 0000000000070270     UefiShellDebug1CommandsLib:Pci.obj
 0002:00009770       ??_C@_1DA@LLLBNMP@?$AAM?$AAa?$AAs?$AAs?$AA?5?$AAS?$AAt?$AAo?$AAr?$AAa?$AAg?$AAe?$AA?5?$AAC?$AAo@ 0000000000070290     UefiShellDebug1CommandsLib:Pci.obj
 0002:000097a0       ??_C@_1CG@DJOJHJK@?$AAN?$AAe?$AAt?$AAw?$AAo?$AAr?$AAk?$AA?5?$AAC?$AAo?$AAn?$AAt?$AAr?$AAo?$AAl@ 00000000000702c0     UefiShellDebug1CommandsLib:Pci.obj
 0002:000097c8       ??_C@_1CG@JJENDPNP@?$AAD?$AAi?$AAs?$AAp?$AAl?$AAa?$AAy?$AA?5?$AAC?$AAo?$AAn?$AAt?$AAr?$AAo?$AAl@ 00000000000702e8     UefiShellDebug1CommandsLib:Pci.obj
 0002:000097f0       ??_C@_1CE@KMCFHDII@?$AAM?$AAu?$AAl?$AAt?$AAi?$AAm?$AAe?$AAd?$AAi?$AAa?$AA?5?$AAD?$AAe?$AAv?$AAi@ 0000000000070310     UefiShellDebug1CommandsLib:Pci.obj
 0002:00009818       ??_C@_1CE@HHMPPPCO@?$AAM?$AAe?$AAm?$AAo?$AAr?$AAy?$AA?5?$AAC?$AAo?$AAn?$AAt?$AAr?$AAo?$AAl?$AAl@ 0000000000070338     UefiShellDebug1CommandsLib:Pci.obj
 0002:00009840       ??_C@_1BM@PEBPFOIH@?$AAB?$AAr?$AAi?$AAd?$AAg?$AAe?$AA?5?$AAD?$AAe?$AAv?$AAi?$AAc?$AAe@ 0000000000070360     UefiShellDebug1CommandsLib:Pci.obj
 0002:00009860       ??_C@_1EE@OJMDAEND@?$AAS?$AAi?$AAm?$AAp?$AAl?$AAe?$AA?5?$AAC?$AAo?$AAm?$AAm?$AAu?$AAn?$AAi?$AAc@ 0000000000070380     UefiShellDebug1CommandsLib:Pci.obj
 0002:000098a8       ??_C@_1DA@JJPCHBJI@?$AAB?$AAa?$AAs?$AAe?$AA?5?$AAS?$AAy?$AAs?$AAt?$AAe?$AAm?$AA?5?$AAP?$AAe?$AAr@ 00000000000703c8     UefiShellDebug1CommandsLib:Pci.obj
 0002:000098d8       ??_C@_1BM@IPNGOEEO@?$AAI?$AAn?$AAp?$AAu?$AAt?$AA?5?$AAD?$AAe?$AAv?$AAi?$AAc?$AAe?$AAs@ 00000000000703f8     UefiShellDebug1CommandsLib:Pci.obj
 0002:000098f8       ??_C@_1CC@BFNJJODO@?$AAD?$AAo?$AAc?$AAk?$AAi?$AAn?$AAg?$AA?5?$AAS?$AAt?$AAa?$AAt?$AAi?$AAo?$AAn@ 0000000000070418     UefiShellDebug1CommandsLib:Pci.obj
 0002:00009920       ??_C@_1BG@EACBMCBE@?$AAP?$AAr?$AAo?$AAc?$AAe?$AAs?$AAs?$AAo?$AAr?$AAs@ 0000000000070440     UefiShellDebug1CommandsLib:Pci.obj
 0002:00009938       ??_C@_1CO@FGNBEBNP@?$AAS?$AAe?$AAr?$AAi?$AAa?$AAl?$AA?5?$AAB?$AAu?$AAs?$AA?5?$AAC?$AAo?$AAn?$AAt@ 0000000000070458     UefiShellDebug1CommandsLib:Pci.obj
 0002:00009968       ??_C@_1CK@EGCGOPBE@?$AAW?$AAi?$AAr?$AAe?$AAl?$AAe?$AAs?$AAs?$AA?5?$AAC?$AAo?$AAn?$AAt?$AAr?$AAo@ 0000000000070488     UefiShellDebug1CommandsLib:Pci.obj
 0002:00009998       ??_C@_1DG@MPIOKBPH@?$AAI?$AAn?$AAt?$AAe?$AAl?$AAl?$AAi?$AAg?$AAe?$AAn?$AAt?$AA?5?$AAI?$AAO?$AA?5@ 00000000000704b8     UefiShellDebug1CommandsLib:Pci.obj
 0002:000099d0       ??_C@_1EK@IEOCACFF@?$AAS?$AAa?$AAt?$AAe?$AAl?$AAl?$AAi?$AAt?$AAe?$AA?5?$AAC?$AAo?$AAm?$AAm?$AAu@ 00000000000704f0     UefiShellDebug1CommandsLib:Pci.obj
 0002:00009a20       ??_C@_1EE@LDCDGNDM@?$AAE?$AAn?$AAc?$AAr?$AAy?$AAp?$AAt?$AAi?$AAo?$AAn?$AA?1?$AAD?$AAe?$AAc?$AAr@ 0000000000070540     UefiShellDebug1CommandsLib:Pci.obj
 0002:00009a70       ??_C@_1GC@PAEFCGGN@?$AAD?$AAa?$AAt?$AAa?$AA?5?$AAA?$AAc?$AAq?$AAu?$AAi?$AAs?$AAi?$AAt?$AAi?$AAo@ 0000000000070590     UefiShellDebug1CommandsLib:Pci.obj
 0002:00009ad8       ??_C@_1DA@IKKFKEGB@?$AAP?$AAr?$AAo?$AAc?$AAe?$AAs?$AAs?$AAi?$AAn?$AAg?$AA?5?$AAA?$AAc?$AAc?$AAe@ 00000000000705f8     UefiShellDebug1CommandsLib:Pci.obj
 0002:00009b08       ??_C@_1DM@FBKJCLED@?$AAN?$AAo?$AAn?$AA?9?$AAE?$AAs?$AAs?$AAe?$AAn?$AAt?$AAi?$AAa?$AAl?$AA?5?$AAI@ 0000000000070628     UefiShellDebug1CommandsLib:Pci.obj
 0002:00009b50       ??_C@_1FG@FGDNODGF@?$AAD?$AAe?$AAv?$AAi?$AAc?$AAe?$AA?5?$AAd?$AAo?$AAe?$AAs?$AA?5?$AAn?$AAo?$AAt@ 0000000000070670     UefiShellDebug1CommandsLib:Pci.obj
 0002:00009ba8       ??_C@_1DG@EIEHDMIH@?$AAA?$AAl?$AAl?$AA?5?$AAd?$AAe?$AAv?$AAi?$AAc?$AAe?$AAs?$AA?5?$AAo?$AAt?$AAh@ 00000000000706c8     UefiShellDebug1CommandsLib:Pci.obj
 0002:00009be0       ??_C@_1CO@GHIDOIFO@?$AAV?$AAG?$AAA?$AA?9?$AAc?$AAo?$AAm?$AAp?$AAa?$AAt?$AAi?$AAb?$AAl?$AAe?$AA?5@ 0000000000070700     UefiShellDebug1CommandsLib:Pci.obj
 0002:00009c10       ??_C@_19IFECACCC@?$AAS?$AAC?$AAS?$AAI@ 0000000000070730     UefiShellDebug1CommandsLib:Pci.obj
 0002:00009c20       ??_C@_1BO@CGNFEKHE@?$AAI?$AAD?$AAE?$AA?5?$AAc?$AAo?$AAn?$AAt?$AAr?$AAo?$AAl?$AAl?$AAe?$AAr@ 0000000000070740     UefiShellDebug1CommandsLib:Pci.obj
 0002:00009c40       ??_C@_1CO@OCPABPEM@?$AAF?$AAl?$AAo?$AAp?$AAp?$AAy?$AA?5?$AAd?$AAi?$AAs?$AAk?$AA?5?$AAc?$AAo?$AAn@ 0000000000070760     UefiShellDebug1CommandsLib:Pci.obj
 0002:00009c70       ??_C@_1BO@EEOANELC@?$AAI?$AAP?$AAI?$AA?5?$AAc?$AAo?$AAn?$AAt?$AAr?$AAo?$AAl?$AAl?$AAe?$AAr@ 0000000000070790     UefiShellDebug1CommandsLib:Pci.obj
 0002:00009c90       ??_C@_1CA@LKIEKACD@?$AAR?$AAA?$AAI?$AAD?$AA?5?$AAc?$AAo?$AAn?$AAt?$AAr?$AAo?$AAl?$AAl?$AAe?$AAr@ 00000000000707b0     UefiShellDebug1CommandsLib:Pci.obj
 0002:00009cb0       ??_C@_1EG@LKIEOAKF@?$AAA?$AAT?$AAA?$AA?5?$AAc?$AAo?$AAn?$AAt?$AAr?$AAo?$AAl?$AAl?$AAe?$AAr?$AA?5@ 00000000000707d0     UefiShellDebug1CommandsLib:Pci.obj
 0002:00009cf8       ??_C@_1CM@JHAKIJKJ@?$AAS?$AAe?$AAr?$AAi?$AAa?$AAl?$AA?5?$AAA?$AAT?$AAA?$AA?5?$AAc?$AAo?$AAn?$AAt@ 0000000000070818     UefiShellDebug1CommandsLib:Pci.obj
 0002:00009d30       ??_C@_1EO@DAJIOEPF@?$AAS?$AAe?$AAr?$AAi?$AAa?$AAl?$AA?5?$AAA?$AAt?$AAt?$AAa?$AAc?$AAh?$AAe?$AAd@ 0000000000070850     UefiShellDebug1CommandsLib:Pci.obj
 0002:00009d80       ??_C@_1DM@PIFIGALG@?$AAN?$AAo?$AAn?$AA?9?$AAv?$AAo?$AAl?$AAa?$AAt?$AAi?$AAl?$AAe?$AA?5?$AAm?$AAe@ 00000000000708a0     UefiShellDebug1CommandsLib:Pci.obj
 0002:00009dc0       ??_C@_1FE@JNFDMGLF@?$AAU?$AAn?$AAi?$AAv?$AAe?$AAr?$AAs?$AAa?$AAl?$AA?5?$AAF?$AAl?$AAa?$AAs?$AAh@ 00000000000708e0     UefiShellDebug1CommandsLib:Pci.obj
 0002:00009e18       ??_C@_1DM@GMADEAE@?$AAO?$AAt?$AAh?$AAe?$AAr?$AA?5?$AAm?$AAa?$AAs?$AAs?$AA?5?$AAs?$AAt?$AAo?$AAr@ 0000000000070938     UefiShellDebug1CommandsLib:Pci.obj
 0002:00009e58       ??_C@_1CI@MKGCMDAM@?$AAE?$AAt?$AAh?$AAe?$AAr?$AAn?$AAe?$AAt?$AA?5?$AAc?$AAo?$AAn?$AAt?$AAr?$AAo@ 0000000000070978     UefiShellDebug1CommandsLib:Pci.obj
 0002:00009e80       ??_C@_1CM@NBJAIACL@?$AAT?$AAo?$AAk?$AAe?$AAn?$AA?5?$AAr?$AAi?$AAn?$AAg?$AA?5?$AAc?$AAo?$AAn?$AAt@ 00000000000709a0     UefiShellDebug1CommandsLib:Pci.obj
 0002:00009eb0       ??_C@_1CA@IJNJEHLM@?$AAF?$AAD?$AAD?$AAI?$AA?5?$AAc?$AAo?$AAn?$AAt?$AAr?$AAo?$AAl?$AAl?$AAe?$AAr@ 00000000000709d0     UefiShellDebug1CommandsLib:Pci.obj
 0002:00009ed0       ??_C@_1BO@FANFKIBJ@?$AAA?$AAT?$AAM?$AA?5?$AAc?$AAo?$AAn?$AAt?$AAr?$AAo?$AAl?$AAl?$AAe?$AAr@ 00000000000709f0     UefiShellDebug1CommandsLib:Pci.obj
 0002:00009ef0       ??_C@_1CA@MPFFIPGB@?$AAI?$AAS?$AAD?$AAN?$AA?5?$AAc?$AAo?$AAn?$AAt?$AAr?$AAo?$AAl?$AAl?$AAe?$AAr@ 0000000000070a10     UefiShellDebug1CommandsLib:Pci.obj
 0002:00009f10       ??_C@_1CI@ODICNMOO@?$AAW?$AAo?$AAr?$AAl?$AAd?$AAF?$AAi?$AAp?$AA?5?$AAc?$AAo?$AAn?$AAt?$AAr?$AAo@ 0000000000070a30     UefiShellDebug1CommandsLib:Pci.obj
 0002:00009f38       ??_C@_1DG@HDLKGLB@?$AAP?$AAI?$AAC?$AAM?$AAG?$AA?5?$AA2?$AA?4?$AA1?$AA4?$AA?5?$AAM?$AAu?$AAl?$AAt@ 0000000000070a58     UefiShellDebug1CommandsLib:Pci.obj
 0002:00009f70       ??_C@_1CM@POJFDLKO@?$AAI?$AAn?$AAf?$AAi?$AAn?$AAi?$AAB?$AAa?$AAn?$AAd?$AA?5?$AAc?$AAo?$AAn?$AAt@ 0000000000070a90     UefiShellDebug1CommandsLib:Pci.obj
 0002:00009fa0       ??_C@_1DC@POIFFGNG@?$AAO?$AAt?$AAh?$AAe?$AAr?$AA?5?$AAn?$AAe?$AAt?$AAw?$AAo?$AAr?$AAk?$AA?5?$AAc@ 0000000000070ac0     UefiShellDebug1CommandsLib:Pci.obj
 0002:00009fd8       ??_C@_1CI@IOIIPJMI@?$AAV?$AAG?$AAA?$AA?1?$AA8?$AA5?$AA1?$AA4?$AA?5?$AAc?$AAo?$AAn?$AAt?$AAr?$AAo@ 0000000000070af8     UefiShellDebug1CommandsLib:Pci.obj
 0002:0000a000       ??_C@_1BO@ECBDAEIH@?$AAX?$AAG?$AAA?$AA?5?$AAc?$AAo?$AAn?$AAt?$AAr?$AAo?$AAl?$AAl?$AAe?$AAr@ 0000000000070b20     UefiShellDebug1CommandsLib:Pci.obj
 0002:0000a020       ??_C@_1BM@BJPNGIJM@?$AA3?$AAD?$AA?5?$AAc?$AAo?$AAn?$AAt?$AAr?$AAo?$AAl?$AAl?$AAe?$AAr@ 0000000000070b40     UefiShellDebug1CommandsLib:Pci.obj
 0002:0000a040       ??_C@_1DC@GEFGPOJD@?$AAO?$AAt?$AAh?$AAe?$AAr?$AA?5?$AAd?$AAi?$AAs?$AAp?$AAl?$AAa?$AAy?$AA?5?$AAc@ 0000000000070b60     UefiShellDebug1CommandsLib:Pci.obj
 0002:0000a078       ??_C@_1BK@FPJMHJC@?$AAV?$AAi?$AAd?$AAe?$AAo?$AA?5?$AAd?$AAe?$AAv?$AAi?$AAc?$AAe@ 0000000000070b98     UefiShellDebug1CommandsLib:Pci.obj
 0002:0000a098       ??_C@_1BK@GADOAHPL@?$AAA?$AAu?$AAd?$AAi?$AAo?$AA?5?$AAd?$AAe?$AAv?$AAi?$AAc?$AAe@ 0000000000070bb8     UefiShellDebug1CommandsLib:Pci.obj
 0002:0000a0b8       ??_C@_1DE@DHNAOJDN@?$AAC?$AAo?$AAm?$AAp?$AAu?$AAt?$AAe?$AAr?$AA?5?$AAT?$AAe?$AAl?$AAe?$AAp?$AAh@ 0000000000070bd8     UefiShellDebug1CommandsLib:Pci.obj
 0002:0000a0f0       ??_C@_1CE@LALKIPBB@?$AAM?$AAi?$AAx?$AAe?$AAd?$AA?5?$AAm?$AAo?$AAd?$AAe?$AA?5?$AAd?$AAe?$AAv?$AAi@ 0000000000070c10     UefiShellDebug1CommandsLib:Pci.obj
 0002:0000a118       ??_C@_1DA@JPDDOFFC@?$AAO?$AAt?$AAh?$AAe?$AAr?$AA?5?$AAm?$AAu?$AAl?$AAt?$AAi?$AAm?$AAe?$AAd?$AAi@ 0000000000070c38     UefiShellDebug1CommandsLib:Pci.obj
 0002:0000a148       ??_C@_1CM@CDONCKCE@?$AAR?$AAA?$AAM?$AA?5?$AAm?$AAe?$AAm?$AAo?$AAr?$AAy?$AA?5?$AAc?$AAo?$AAn?$AAt@ 0000000000070c68     UefiShellDebug1CommandsLib:Pci.obj
 0002:0000a178       ??_C@_1DA@BLKLFNMJ@?$AAF?$AAl?$AAa?$AAs?$AAh?$AA?5?$AAm?$AAe?$AAm?$AAo?$AAr?$AAy?$AA?5?$AAc?$AAo@ 0000000000070c98     UefiShellDebug1CommandsLib:Pci.obj
 0002:0000a1a8       ??_C@_1DA@BCCIDOP@?$AAO?$AAt?$AAh?$AAe?$AAr?$AA?5?$AAm?$AAe?$AAm?$AAo?$AAr?$AAy?$AA?5?$AAc?$AAo@ 0000000000070cc8     UefiShellDebug1CommandsLib:Pci.obj
 0002:0000a1d8       ??_C@_1CA@PJEDLLCL@?$AAH?$AAo?$AAs?$AAt?$AA?1?$AAP?$AAC?$AAI?$AA?5?$AAb?$AAr?$AAi?$AAd?$AAg?$AAe@ 0000000000070cf8     UefiShellDebug1CommandsLib:Pci.obj
 0002:0000a1f8       ??_C@_1BO@KJACFBI@?$AAP?$AAC?$AAI?$AA?1?$AAI?$AAS?$AAA?$AA?5?$AAb?$AAr?$AAi?$AAd?$AAg?$AAe@ 0000000000070d18     UefiShellDebug1CommandsLib:Pci.obj
 0002:0000a218       ??_C@_1CA@OGMGGONI@?$AAP?$AAC?$AAI?$AA?1?$AAE?$AAI?$AAS?$AAA?$AA?5?$AAb?$AAr?$AAi?$AAd?$AAg?$AAe@ 0000000000070d38     UefiShellDebug1CommandsLib:Pci.obj
 0002:0000a238       ??_C@_1DC@PGKAHCKF@?$AAP?$AAC?$AAI?$AA?1?$AAM?$AAi?$AAc?$AAr?$AAo?$AA?5?$AAC?$AAh?$AAa?$AAn?$AAn@ 0000000000070d58     UefiShellDebug1CommandsLib:Pci.obj
 0002:0000a270       ??_C@_1BO@PKJLCILA@?$AAP?$AAC?$AAI?$AA?1?$AAP?$AAC?$AAI?$AA?5?$AAb?$AAr?$AAi?$AAd?$AAg?$AAe@ 0000000000070d90     UefiShellDebug1CommandsLib:Pci.obj
 0002:0000a290       ??_C@_1CE@FCMDMIFD@?$AAP?$AAC?$AAI?$AA?1?$AAP?$AAC?$AAM?$AAC?$AAI?$AAA?$AA?5?$AAb?$AAr?$AAi?$AAd@ 0000000000070db0     UefiShellDebug1CommandsLib:Pci.obj
 0002:0000a2b8       ??_C@_1BK@EAGDOIJJ@?$AAN?$AAu?$AAB?$AAu?$AAs?$AA?5?$AAb?$AAr?$AAi?$AAd?$AAg?$AAe@ 0000000000070dd8     UefiShellDebug1CommandsLib:Pci.obj
 0002:0000a2d8       ??_C@_1BO@ENOKOIAD@?$AAC?$AAa?$AAr?$AAd?$AAB?$AAu?$AAs?$AA?5?$AAb?$AAr?$AAi?$AAd?$AAg?$AAe@ 0000000000070df8     UefiShellDebug1CommandsLib:Pci.obj
 0002:0000a2f8       ??_C@_1BO@FMPPOIBL@?$AAR?$AAA?$AAC?$AAE?$AAw?$AAa?$AAy?$AA?5?$AAb?$AAr?$AAi?$AAd?$AAg?$AAe@ 0000000000070e18     UefiShellDebug1CommandsLib:Pci.obj
 0002:0000a320       ??_C@_1EG@KGEAMFNP@?$AAS?$AAe?$AAm?$AAi?$AA?9?$AAt?$AAr?$AAa?$AAn?$AAs?$AAp?$AAa?$AAr?$AAe?$AAn@ 0000000000070e40     UefiShellDebug1CommandsLib:Pci.obj
 0002:0000a368       ??_C@_1DM@EABGMKAJ@?$AAI?$AAn?$AAf?$AAi?$AAn?$AAi?$AAB?$AAa?$AAn?$AAd?$AA?9?$AAt?$AAo?$AA?9?$AAP@ 0000000000070e88     UefiShellDebug1CommandsLib:Pci.obj
 0002:0000a3b0       ??_C@_1EM@OLOAJOAL@?$AAA?$AAd?$AAv?$AAa?$AAn?$AAc?$AAe?$AAd?$AA?5?$AAS?$AAw?$AAi?$AAt?$AAc?$AAh@ 0000000000070ed0     UefiShellDebug1CommandsLib:Pci.obj
 0002:0000a400       ??_C@_1CE@NEKBIMIP@?$AAO?$AAt?$AAh?$AAe?$AAr?$AA?5?$AAb?$AAr?$AAi?$AAd?$AAg?$AAe?$AA?5?$AAt?$AAy@ 0000000000070f20     UefiShellDebug1CommandsLib:Pci.obj
 0002:0000a428       ??_C@_1CE@BGLBPGLN@?$AAS?$AAe?$AAr?$AAi?$AAa?$AAl?$AA?5?$AAc?$AAo?$AAn?$AAt?$AAr?$AAo?$AAl?$AAl@ 0000000000070f48     UefiShellDebug1CommandsLib:Pci.obj
 0002:0000a450       ??_C@_1BM@CJCKEIPF@?$AAP?$AAa?$AAr?$AAa?$AAl?$AAl?$AAe?$AAl?$AA?5?$AAp?$AAo?$AAr?$AAt@ 0000000000070f70     UefiShellDebug1CommandsLib:Pci.obj
 0002:0000a470       ??_C@_1DI@PLEGPFLG@?$AAM?$AAu?$AAl?$AAt?$AAi?$AAp?$AAo?$AAr?$AAt?$AA?5?$AAs?$AAe?$AAr?$AAi?$AAa@ 0000000000070f90     UefiShellDebug1CommandsLib:Pci.obj
 0002:0000a4a8       ??_C@_1M@MPNOMPAF@?$AAM?$AAo?$AAd?$AAe?$AAm@ 0000000000070fc8     UefiShellDebug1CommandsLib:Pci.obj
 0002:0000a4b8       ??_C@_1DO@IJFMBKM@?$AAG?$AAP?$AAI?$AAB?$AA?5?$AA?$CI?$AAI?$AAE?$AAE?$AAE?$AA?5?$AA4?$AA8?$AA8?$AA?4@ 0000000000070fd8     UefiShellDebug1CommandsLib:Pci.obj
 0002:0000a4f8       ??_C@_1BG@LEINKDBM@?$AAS?$AAm?$AAa?$AAr?$AAt?$AA?5?$AAC?$AAa?$AAr?$AAd@ 0000000000071018     UefiShellDebug1CommandsLib:Pci.obj
 0002:0000a510       ??_C@_1DG@CJEOCFGB@?$AAO?$AAt?$AAh?$AAe?$AAr?$AA?5?$AAc?$AAo?$AAm?$AAm?$AAu?$AAn?$AAi?$AAc?$AAa@ 0000000000071030     UefiShellDebug1CommandsLib:Pci.obj
 0002:0000a548       ??_C@_17GOANHPCH@?$AAP?$AAI?$AAC@ 0000000000071068     UefiShellDebug1CommandsLib:Pci.obj
 0002:0000a550       ??_C@_1BO@PFMOLIHG@?$AAD?$AAM?$AAA?$AA?5?$AAc?$AAo?$AAn?$AAt?$AAr?$AAo?$AAl?$AAl?$AAe?$AAr@ 0000000000071070     UefiShellDebug1CommandsLib:Pci.obj
 0002:0000a570       ??_C@_1BK@ENPFJMHF@?$AAS?$AAy?$AAs?$AAt?$AAe?$AAm?$AA?5?$AAt?$AAi?$AAm?$AAe?$AAr@ 0000000000071090     UefiShellDebug1CommandsLib:Pci.obj
 0002:0000a590       ??_C@_1BO@OGPEBAO@?$AAR?$AAT?$AAC?$AA?5?$AAc?$AAo?$AAn?$AAt?$AAr?$AAo?$AAl?$AAl?$AAe?$AAr@ 00000000000710b0     UefiShellDebug1CommandsLib:Pci.obj
 0002:0000a5b0       ??_C@_1EA@CDECOACP@?$AAG?$AAe?$AAn?$AAe?$AAr?$AAi?$AAc?$AA?5?$AAP?$AAC?$AAI?$AA?5?$AAH?$AAo?$AAt@ 00000000000710d0     UefiShellDebug1CommandsLib:Pci.obj
 0002:0000a5f0       ??_C@_1CG@KIGJEEJF@?$AAS?$AAD?$AA?5?$AAH?$AAo?$AAs?$AAt?$AA?5?$AAc?$AAo?$AAn?$AAt?$AAr?$AAo?$AAl@ 0000000000071110     UefiShellDebug1CommandsLib:Pci.obj
 0002:0000a618       ??_C@_1M@LLNMNJMC@?$AAI?$AAO?$AAM?$AAM?$AAU@ 0000000000071138     UefiShellDebug1CommandsLib:Pci.obj
 0002:0000a628       ??_C@_1DK@FAENCBAC@?$AAR?$AAo?$AAo?$AAt?$AA?5?$AAC?$AAo?$AAm?$AAp?$AAl?$AAe?$AAx?$AA?5?$AAE?$AAv@ 0000000000071148     UefiShellDebug1CommandsLib:Pci.obj
 0002:0000a668       ??_C@_1DA@EFOIJPG@?$AAO?$AAt?$AAh?$AAe?$AAr?$AA?5?$AAs?$AAy?$AAs?$AAt?$AAe?$AAm?$AA?5?$AAp?$AAe@ 0000000000071188     UefiShellDebug1CommandsLib:Pci.obj
 0002:0000a698       ??_C@_1CI@BAKBKHNI@?$AAK?$AAe?$AAy?$AAb?$AAo?$AAa?$AAr?$AAd?$AA?5?$AAc?$AAo?$AAn?$AAt?$AAr?$AAo@ 00000000000711b8     UefiShellDebug1CommandsLib:Pci.obj
 0002:0000a6c0       ??_C@_1CA@KMFJBDH@?$AAD?$AAi?$AAg?$AAi?$AAt?$AAi?$AAz?$AAe?$AAr?$AA?5?$AA?$CI?$AAp?$AAe?$AAn?$AA?$CJ@ 00000000000711e0     UefiShellDebug1CommandsLib:Pci.obj
 0002:0000a6e0       ??_C@_1CC@FCDLEDHK@?$AAM?$AAo?$AAu?$AAs?$AAe?$AA?5?$AAc?$AAo?$AAn?$AAt?$AAr?$AAo?$AAl?$AAl?$AAe@ 0000000000071200     UefiShellDebug1CommandsLib:Pci.obj
 0002:0000a708       ??_C@_1CG@DBNALJHF@?$AAS?$AAc?$AAa?$AAn?$AAn?$AAe?$AAr?$AA?5?$AAc?$AAo?$AAn?$AAt?$AAr?$AAo?$AAl@ 0000000000071228     UefiShellDebug1CommandsLib:Pci.obj
 0002:0000a730       ??_C@_1CI@JKMDFCJL@?$AAG?$AAa?$AAm?$AAe?$AAp?$AAo?$AAr?$AAt?$AA?5?$AAc?$AAo?$AAn?$AAt?$AAr?$AAo@ 0000000000071250     UefiShellDebug1CommandsLib:Pci.obj
 0002:0000a758       ??_C@_1CO@PNNLGBCE@?$AAO?$AAt?$AAh?$AAe?$AAr?$AA?5?$AAi?$AAn?$AAp?$AAu?$AAt?$AA?5?$AAc?$AAo?$AAn@ 0000000000071278     UefiShellDebug1CommandsLib:Pci.obj
 0002:0000a788       ??_C@_1DA@BIIEBDGB@?$AAG?$AAe?$AAn?$AAe?$AAr?$AAi?$AAc?$AA?5?$AAd?$AAo?$AAc?$AAk?$AAi?$AAn?$AAg@ 00000000000712a8     UefiShellDebug1CommandsLib:Pci.obj
 0002:0000a7b8       ??_C@_1DM@GALPNCIO@?$AAO?$AAt?$AAh?$AAe?$AAr?$AA?5?$AAt?$AAy?$AAp?$AAe?$AA?5?$AAo?$AAf?$AA?5?$AAd@ 00000000000712d8     UefiShellDebug1CommandsLib:Pci.obj
 0002:0000a7f8       ??_C@_17KMPGFGLF@?$AA3?$AA8?$AA6@ 0000000000071318     UefiShellDebug1CommandsLib:Pci.obj
 0002:0000a800       ??_C@_17KGDDFPKM@?$AA4?$AA8?$AA6@ 0000000000071320     UefiShellDebug1CommandsLib:Pci.obj
 0002:0000a808       ??_C@_1BA@LAKFAPEC@?$AAP?$AAe?$AAn?$AAt?$AAi?$AAu?$AAm@ 0000000000071328     UefiShellDebug1CommandsLib:Pci.obj
 0002:0000a818       ??_C@_1M@CPFKKKDA@?$AAA?$AAl?$AAp?$AAh?$AAa@ 0000000000071338     UefiShellDebug1CommandsLib:Pci.obj
 0002:0000a828       ??_C@_1BA@NBCIJJH@?$AAP?$AAo?$AAw?$AAe?$AAr?$AAP?$AAC@ 0000000000071348     UefiShellDebug1CommandsLib:Pci.obj
 0002:0000a838       ??_C@_19JENFGKOE@?$AAM?$AAI?$AAP?$AAS@ 0000000000071358     UefiShellDebug1CommandsLib:Pci.obj
 0002:0000a848       ??_C@_1BK@NEHJAFMH@?$AAC?$AAo?$AA?9?$AAp?$AAr?$AAo?$AAc?$AAe?$AAs?$AAs?$AAo?$AAr@ 0000000000071368     UefiShellDebug1CommandsLib:Pci.obj
 0002:0000a868       ??_C@_1CA@GFOGEFGB@?$AAO?$AAt?$AAh?$AAe?$AAr?$AA?5?$AAp?$AAr?$AAo?$AAc?$AAe?$AAs?$AAs?$AAo?$AAr@ 0000000000071388     UefiShellDebug1CommandsLib:Pci.obj
 0002:0000a888       ??_C@_1BE@DKFKNFJE@?$AAI?$AAE?$AAE?$AAE?$AA?5?$AA1?$AA3?$AA9?$AA4@ 00000000000713a8     UefiShellDebug1CommandsLib:Pci.obj
 0002:0000a8a0       ??_C@_1BG@OFHNADDF@?$AAA?$AAC?$AAC?$AAE?$AAS?$AAS?$AA?4?$AAb?$AAu?$AAs@ 00000000000713c0     UefiShellDebug1CommandsLib:Pci.obj
 0002:0000a8b8       ??_C@_17OIMGJBLC@?$AAS?$AAS?$AAA@ 00000000000713d8     UefiShellDebug1CommandsLib:Pci.obj
 0002:0000a8c0       ??_C@_17DMBMDHNL@?$AAU?$AAS?$AAB@ 00000000000713e0     UefiShellDebug1CommandsLib:Pci.obj
 0002:0000a8c8       ??_C@_1BM@FLLLFMPO@?$AAF?$AAi?$AAb?$AAr?$AAe?$AA?5?$AAC?$AAh?$AAa?$AAn?$AAn?$AAe?$AAl@ 00000000000713e8     UefiShellDebug1CommandsLib:Pci.obj
 0002:0000a8e8       ??_C@_1CM@OLOJIGK@?$AAS?$AAy?$AAs?$AAt?$AAe?$AAm?$AA?5?$AAM?$AAa?$AAn?$AAa?$AAg?$AAe?$AAm?$AAe@ 0000000000071408     UefiShellDebug1CommandsLib:Pci.obj
 0002:0000a918       ??_C@_1BG@PKILJGBI@?$AAI?$AAn?$AAf?$AAi?$AAn?$AAi?$AAB?$AAa?$AAn?$AAd@ 0000000000071438     UefiShellDebug1CommandsLib:Pci.obj
 0002:0000a930       ??_C@_19HOCGEGCA@?$AAI?$AAP?$AAM?$AAI@ 0000000000071450     UefiShellDebug1CommandsLib:Pci.obj
 0002:0000a940       ??_C@_1EM@LAEBEEFJ@?$AAS?$AAE?$AAR?$AAC?$AAO?$AAS?$AA?5?$AAI?$AAn?$AAt?$AAe?$AAr?$AAf?$AAa?$AAc@ 0000000000071460     UefiShellDebug1CommandsLib:Pci.obj
 0002:0000a990       ??_C@_1O@IIICKMFI@?$AAC?$AAA?$AAN?$AAb?$AAu?$AAs@ 00000000000714b0     UefiShellDebug1CommandsLib:Pci.obj
 0002:0000a9a0       ??_C@_1BO@FPNLADDK@?$AAO?$AAt?$AAh?$AAe?$AAr?$AA?5?$AAb?$AAu?$AAs?$AA?5?$AAt?$AAy?$AAp?$AAe@ 00000000000714c0     UefiShellDebug1CommandsLib:Pci.obj
 0002:0000a9c0       ??_C@_1DG@DBOMLJPI@?$AAi?$AAR?$AAD?$AAA?$AA?5?$AAc?$AAo?$AAm?$AAp?$AAa?$AAt?$AAi?$AAb?$AAl?$AAe@ 00000000000714e0     UefiShellDebug1CommandsLib:Pci.obj
 0002:0000a9f8       ??_C@_1BM@FGMCDKAO@?$AAR?$AAF?$AA?5?$AAc?$AAo?$AAn?$AAt?$AAr?$AAo?$AAl?$AAl?$AAe?$AAr@ 0000000000071518     UefiShellDebug1CommandsLib:Pci.obj
 0002:0000aa18       ??_C@_1BE@DJCFELKD@?$AAB?$AAl?$AAu?$AAe?$AAt?$AAo?$AAo?$AAt?$AAh@ 0000000000071538     UefiShellDebug1CommandsLib:Pci.obj
 0002:0000aa30       ??_C@_1BE@BGEOEKA@?$AAB?$AAr?$AAo?$AAa?$AAd?$AAb?$AAa?$AAn?$AAd@ 0000000000071550     UefiShellDebug1CommandsLib:Pci.obj
 0002:0000aa48       ??_C@_1DG@HAKEKOOP@?$AAE?$AAt?$AAh?$AAe?$AAr?$AAn?$AAe?$AAt?$AA?5?$AA?$CI?$AA8?$AA0?$AA2?$AA?4?$AA1@ 0000000000071568     UefiShellDebug1CommandsLib:Pci.obj
 0002:0000aa80       ??_C@_1DK@LKPANDDE@?$AAE?$AAt?$AAh?$AAe?$AAr?$AAn?$AAe?$AAt?$AA?5?$AA?$CI?$AA8?$AA0?$AA2?$AA?4?$AA1@ 00000000000715a0     UefiShellDebug1CommandsLib:Pci.obj
 0002:0000aac0       ??_C@_1EE@PIAOLOPJ@?$AAO?$AAt?$AAh?$AAe?$AAr?$AA?5?$AAt?$AAy?$AAp?$AAe?$AA?5?$AAo?$AAf?$AA?5?$AAw@ 00000000000715e0     UefiShellDebug1CommandsLib:Pci.obj
 0002:0000ab08       ??_C@_1CC@MJHFFKLA@?$AAI?$AA2?$AAO?$AA?5?$AAA?$AAr?$AAc?$AAh?$AAi?$AAt?$AAe?$AAc?$AAt?$AAu?$AAr@ 0000000000071628     UefiShellDebug1CommandsLib:Pci.obj
 0002:0000ab2c       ??_C@_15DHEEEEMD@?$AAT?$AAV@ 000000000007164c     UefiShellDebug1CommandsLib:Pci.obj
 0002:0000ab38       ??_C@_1M@CHJDJLFF@?$AAA?$AAu?$AAd?$AAi?$AAo@ 0000000000071658     UefiShellDebug1CommandsLib:Pci.obj
 0002:0000ab48       ??_C@_1M@DKLMFINE@?$AAV?$AAo?$AAi?$AAc?$AAe@ 0000000000071668     UefiShellDebug1CommandsLib:Pci.obj
 0002:0000ab58       ??_C@_19IEEMEPMH@?$AAD?$AAa?$AAt?$AAa@ 0000000000071678     UefiShellDebug1CommandsLib:Pci.obj
 0002:0000ab70       ??_C@_1FC@PHCKLFJE@?$AAO?$AAt?$AAh?$AAe?$AAr?$AA?5?$AAs?$AAa?$AAt?$AAe?$AAl?$AAl?$AAi?$AAt?$AAe@ 0000000000071690     UefiShellDebug1CommandsLib:Pci.obj
 0002:0000abd0       ??_C@_1EI@GIMDOGOI@?$AAN?$AAe?$AAt?$AAw?$AAo?$AAr?$AAk?$AA?5?$AA?$CG?$AA?5?$AAc?$AAo?$AAm?$AAp?$AAu@ 00000000000716f0     UefiShellDebug1CommandsLib:Pci.obj
 0002:0000ac18       ??_C@_1DM@IIOOLDOK@?$AAE?$AAn?$AAt?$AAe?$AAr?$AAt?$AAa?$AAi?$AAn?$AAm?$AAe?$AAn?$AAt?$AA?5?$AAE@ 0000000000071738     UefiShellDebug1CommandsLib:Pci.obj
 0002:0000ac58       ??_C@_1CM@JNEDPPDM@?$AAO?$AAt?$AAh?$AAe?$AAr?$AA?5?$AAE?$AAn?$AAc?$AAr?$AAy?$AAp?$AAt?$AA?1?$AAD@ 0000000000071778     UefiShellDebug1CommandsLib:Pci.obj
 0002:0000ac88       ??_C@_1BK@OAGPPFHN@?$AAD?$AAP?$AAI?$AAO?$AA?5?$AAm?$AAo?$AAd?$AAu?$AAl?$AAe?$AAs@ 00000000000717a8     UefiShellDebug1CommandsLib:Pci.obj
 0002:0000aca8       ??_C@_1CK@LCFFEOGH@?$AAP?$AAe?$AAr?$AAf?$AAo?$AAr?$AAm?$AAa?$AAn?$AAc?$AAe?$AA?5?$AAC?$AAo?$AAu@ 00000000000717c8     UefiShellDebug1CommandsLib:Pci.obj
 0002:0000ace0       ??_C@_1JC@NCFHMIHP@?$AAC?$AAo?$AAm?$AAm?$AAu?$AAn?$AAi?$AAc?$AAa?$AAt?$AAi?$AAo?$AAn?$AAs?$AA?5@ 0000000000071800     UefiShellDebug1CommandsLib:Pci.obj
 0002:0000ad78       ??_C@_1CA@JGEMEBBN@?$AAM?$AAa?$AAn?$AAa?$AAg?$AAe?$AAm?$AAe?$AAn?$AAt?$AA?5?$AAc?$AAa?$AAr?$AAd@ 0000000000071898     UefiShellDebug1CommandsLib:Pci.obj
 0002:0000ad98       ??_C@_1DG@DKBFJFCP@?$AAO?$AAt?$AAh?$AAe?$AAr?$AA?5?$AAD?$AAA?$AAQ?$AA?5?$AA?$CG?$AA?5?$AAS?$AAP?$AA?5@ 00000000000718b8     UefiShellDebug1CommandsLib:Pci.obj
 0002:0000add0       ??_C@_1CO@NDPDJMEK@?$AAP?$AAr?$AAo?$AAc?$AAe?$AAs?$AAs?$AAi?$AAn?$AAg?$AA?5?$AAA?$AAc?$AAc?$AAe@ 00000000000718f0     UefiShellDebug1CommandsLib:Pci.obj
 0002:0000ae00       ??_C@_1EO@GLBMBJBC@?$AAN?$AAo?$AAn?$AA?9?$AAE?$AAs?$AAs?$AAe?$AAn?$AAt?$AAi?$AAa?$AAl?$AA?5?$AAI@ 0000000000071920     UefiShellDebug1CommandsLib:Pci.obj
 0002:0000ae50       ??_C@_1CA@LOKELNGO@?$AAS?$AAC?$AAS?$AAI?$AA?5?$AAc?$AAo?$AAn?$AAt?$AAr?$AAo?$AAl?$AAl?$AAe?$AAr@ 0000000000071970     UefiShellDebug1CommandsLib:Pci.obj
 0002:0000ae70       ??_C@_1EE@BFEKJLPP@?$AAS?$AAC?$AAS?$AAI?$AA?5?$AAs?$AAt?$AAo?$AAr?$AAa?$AAg?$AAe?$AA?5?$AAd?$AAe@ 0000000000071990     UefiShellDebug1CommandsLib:Pci.obj
 0002:0000aeb8       ??_C@_1DM@BJOLKNOM@?$AAS?$AAC?$AAS?$AAI?$AA?5?$AAc?$AAo?$AAn?$AAt?$AAr?$AAo?$AAl?$AAl?$AAe?$AAr@ 00000000000719d8     UefiShellDebug1CommandsLib:Pci.obj
 0002:0000af00       ??_C@_1GC@PCIOGEHB@?$AAS?$AAC?$AAS?$AAI?$AA?5?$AAs?$AAt?$AAo?$AAr?$AAa?$AAg?$AAe?$AA?5?$AAd?$AAe@ 0000000000071a20     UefiShellDebug1CommandsLib:Pci.obj
 0002:0000af70       ??_C@_1EG@FADCFPJB@?$AAS?$AAC?$AAS?$AAI?$AA?5?$AAs?$AAt?$AAo?$AAr?$AAa?$AAg?$AAe?$AA?5?$AAd?$AAe@ 0000000000071a90     UefiShellDebug1CommandsLib:Pci.obj
 0002:0000afb8       ??_C@_1BG@GFFPFKKJ@?$AAO?$AAM?$AA?9?$AAp?$AAr?$AAi?$AAm?$AAa?$AAr?$AAy@ 0000000000071ad8     UefiShellDebug1CommandsLib:Pci.obj
 0002:0000afd0       ??_C@_1BG@FONPODPB@?$AAP?$AAI?$AA?9?$AAp?$AAr?$AAi?$AAm?$AAa?$AAr?$AAy@ 0000000000071af0     UefiShellDebug1CommandsLib:Pci.obj
 0002:0000afe8       ??_C@_1BM@FDOGPGGG@?$AAO?$AAM?$AA?1?$AAP?$AAI?$AA?9?$AAp?$AAr?$AAi?$AAm?$AAa?$AAr?$AAy@ 0000000000071b08     UefiShellDebug1CommandsLib:Pci.obj
 0002:0000b008       ??_C@_1BK@IDONELAO@?$AAO?$AAM?$AA?9?$AAs?$AAe?$AAc?$AAo?$AAn?$AAd?$AAa?$AAr?$AAy@ 0000000000071b28     UefiShellDebug1CommandsLib:Pci.obj
 0002:0000b028       ??_C@_1DC@HICNPOMK@?$AAO?$AAM?$AA?9?$AAp?$AAr?$AAi?$AAm?$AAa?$AAr?$AAy?$AA?0?$AA?5?$AAO?$AAM?$AA?9@ 0000000000071b48     UefiShellDebug1CommandsLib:Pci.obj
 0002:0000b060       ??_C@_1DC@HABNGELM@?$AAP?$AAI?$AA?9?$AAp?$AAr?$AAi?$AAm?$AAa?$AAr?$AAy?$AA?0?$AA?5?$AAO?$AAM?$AA?9@ 0000000000071b80     UefiShellDebug1CommandsLib:Pci.obj
 0002:0000b098       ??_C@_1DI@BICDKEO@?$AAO?$AAM?$AA?1?$AAP?$AAI?$AA?9?$AAp?$AAr?$AAi?$AAm?$AAa?$AAr?$AAy?$AA?0?$AA?5@ 0000000000071bb8     UefiShellDebug1CommandsLib:Pci.obj
 0002:0000b0d0       ??_C@_1DC@DGJDGNHH@?$AAO?$AAM?$AA?9?$AAp?$AAr?$AAi?$AAm?$AAa?$AAr?$AAy?$AA?0?$AA?5?$AAP?$AAI?$AA?9@ 0000000000071bf0     UefiShellDebug1CommandsLib:Pci.obj
 0002:0000b108       ??_C@_1DC@DOKDPHAB@?$AAP?$AAI?$AA?9?$AAp?$AAr?$AAi?$AAm?$AAa?$AAr?$AAy?$AA?0?$AA?5?$AAP?$AAI?$AA?9@ 0000000000071c28     UefiShellDebug1CommandsLib:Pci.obj
 0002:0000b140       ??_C@_1DI@EPDMKJPD@?$AAO?$AAM?$AA?1?$AAP?$AAI?$AA?9?$AAp?$AAr?$AAi?$AAm?$AAa?$AAr?$AAy?$AA?0?$AA?5@ 0000000000071c60     UefiShellDebug1CommandsLib:Pci.obj
 0002:0000b178       ??_C@_1DI@BKJODIMD@?$AAO?$AAM?$AA?9?$AAp?$AAr?$AAi?$AAm?$AAa?$AAr?$AAy?$AA?0?$AA?5?$AAO?$AAM?$AA?1@ 0000000000071c98     UefiShellDebug1CommandsLib:Pci.obj
 0002:0000b1b0       ??_C@_1DI@KCGLEALH@?$AAP?$AAI?$AA?9?$AAp?$AAr?$AAi?$AAm?$AAa?$AAr?$AAy?$AA?0?$AA?5?$AAO?$AAM?$AA?1@ 0000000000071cd0     UefiShellDebug1CommandsLib:Pci.obj
 0002:0000b1e8       ??_C@_1DO@MNACHKJK@?$AAO?$AAM?$AA?1?$AAP?$AAI?$AA?9?$AAp?$AAr?$AAi?$AAm?$AAa?$AAr?$AAy?$AA?0?$AA?5@ 0000000000071d08     UefiShellDebug1CommandsLib:Pci.obj
 0002:0000b228       ??_C@_1O@MHJLHGPK@?$AAM?$AAa?$AAs?$AAt?$AAe?$AAr@ 0000000000071d48     UefiShellDebug1CommandsLib:Pci.obj
 0002:0000b238       ??_C@_1CG@PPNKKIGM@?$AAM?$AAa?$AAs?$AAt?$AAe?$AAr?$AA?0?$AA?5?$AAO?$AAM?$AA?9?$AAp?$AAr?$AAi?$AAm@ 0000000000071d58     UefiShellDebug1CommandsLib:Pci.obj
 0002:0000b260       ??_C@_1CG@MEFKBBDE@?$AAM?$AAa?$AAs?$AAt?$AAe?$AAr?$AA?0?$AA?5?$AAP?$AAI?$AA?9?$AAp?$AAr?$AAi?$AAm@ 0000000000071d80     UefiShellDebug1CommandsLib:Pci.obj
 0002:0000b288       ??_C@_1CM@KDEABHD@?$AAM?$AAa?$AAs?$AAt?$AAe?$AAr?$AA?0?$AA?5?$AAO?$AAM?$AA?1?$AAP?$AAI?$AA?9?$AAp@ 0000000000071da8     UefiShellDebug1CommandsLib:Pci.obj
 0002:0000b2b8       ??_C@_1CK@CCBAOENA@?$AAM?$AAa?$AAs?$AAt?$AAe?$AAr?$AA?0?$AA?5?$AAO?$AAM?$AA?9?$AAs?$AAe?$AAc?$AAo@ 0000000000071dd8     UefiShellDebug1CommandsLib:Pci.obj
 0002:0000b2f0       ??_C@_1EC@BNMCFFBJ@?$AAM?$AAa?$AAs?$AAt?$AAe?$AAr?$AA?0?$AA?5?$AAO?$AAM?$AA?9?$AAp?$AAr?$AAi?$AAm@ 0000000000071e10     UefiShellDebug1CommandsLib:Pci.obj
 0002:0000b340       ??_C@_1EC@BFPCMPGP@?$AAM?$AAa?$AAs?$AAt?$AAe?$AAr?$AA?0?$AA?5?$AAP?$AAI?$AA?9?$AAp?$AAr?$AAi?$AAm@ 0000000000071e60     UefiShellDebug1CommandsLib:Pci.obj
 0002:0000b390       ??_C@_1EI@FCNPKCON@?$AAM?$AAa?$AAs?$AAt?$AAe?$AAr?$AA?0?$AA?5?$AAO?$AAM?$AA?1?$AAP?$AAI?$AA?9?$AAp@ 0000000000071eb0     UefiShellDebug1CommandsLib:Pci.obj
 0002:0000b3e0       ??_C@_1EC@FDHMMGKE@?$AAM?$AAa?$AAs?$AAt?$AAe?$AAr?$AA?0?$AA?5?$AAO?$AAM?$AA?9?$AAp?$AAr?$AAi?$AAm@ 0000000000071f00     UefiShellDebug1CommandsLib:Pci.obj
 0002:0000b430       ??_C@_1EC@FLEMFMNC@?$AAM?$AAa?$AAs?$AAt?$AAe?$AAr?$AA?0?$AA?5?$AAP?$AAI?$AA?9?$AAp?$AAr?$AAi?$AAm@ 0000000000071f50     UefiShellDebug1CommandsLib:Pci.obj
 0002:0000b480       ??_C@_1EI@BMGBDBFA@?$AAM?$AAa?$AAs?$AAt?$AAe?$AAr?$AA?0?$AA?5?$AAO?$AAM?$AA?1?$AAP?$AAI?$AA?9?$AAp@ 0000000000071fa0     UefiShellDebug1CommandsLib:Pci.obj
 0002:0000b4d0       ??_C@_1EI@EJMDKAGA@?$AAM?$AAa?$AAs?$AAt?$AAe?$AAr?$AA?0?$AA?5?$AAO?$AAM?$AA?9?$AAp?$AAr?$AAi?$AAm@ 0000000000071ff0     UefiShellDebug1CommandsLib:Pci.obj
 0002:0000b520       ??_C@_1EI@PBDGNIBE@?$AAM?$AAa?$AAs?$AAt?$AAe?$AAr?$AA?0?$AA?5?$AAP?$AAI?$AA?9?$AAp?$AAr?$AAi?$AAm@ 0000000000072040     UefiShellDebug1CommandsLib:Pci.obj
 0002:0000b570       ??_C@_1EO@OEGBDCJN@?$AAM?$AAa?$AAs?$AAt?$AAe?$AAr?$AA?0?$AA?5?$AAO?$AAM?$AA?1?$AAP?$AAI?$AA?9?$AAp@ 0000000000072090     UefiShellDebug1CommandsLib:Pci.obj
 0002:0000b5c0       ??_C@_1CA@KDAMFDGL@?$AAS?$AAi?$AAn?$AAg?$AAl?$AAe?$AA?5?$AAs?$AAt?$AAe?$AAp?$AAp?$AAi?$AAn?$AAg@ 00000000000720e0     UefiShellDebug1CommandsLib:Pci.obj
 0002:0000b5e0       ??_C@_1CK@LBNIIJOF@?$AAC?$AAo?$AAn?$AAt?$AAi?$AAn?$AAu?$AAo?$AAu?$AAs?$AA?5?$AAo?$AAp?$AAe?$AAr@ 0000000000072100     UefiShellDebug1CommandsLib:Pci.obj
 0002:0000b610       ??_C@_19PIKFENDK@?$AAA?$AAH?$AAC?$AAI@ 0000000000072130     UefiShellDebug1CommandsLib:Pci.obj
 0002:0000b620       ??_C@_1CG@LEHKELII@?$AAS?$AAe?$AAr?$AAi?$AAa?$AAl?$AA?5?$AAS?$AAt?$AAo?$AAr?$AAa?$AAg?$AAe?$AA?5@ 0000000000072140     UefiShellDebug1CommandsLib:Pci.obj
 0002:0000b648       ??_C@_1BC@GJKECLHO@?$AAO?$AAb?$AAs?$AAo?$AAl?$AAe?$AAt?$AAe@ 0000000000072168     UefiShellDebug1CommandsLib:Pci.obj
 0002:0000b660       ??_C@_1O@IJMMOBJI@?$AAN?$AAV?$AAM?$AAH?$AAC?$AAI@ 0000000000072180     UefiShellDebug1CommandsLib:Pci.obj
 0002:0000b670       ??_C@_1BI@OAKFAAAF@?$AAN?$AAV?$AAM?$AA?5?$AAE?$AAx?$AAp?$AAr?$AAe?$AAs?$AAs@ 0000000000072190     UefiShellDebug1CommandsLib:Pci.obj
 0002:0000b688       ??_C@_1O@JFDJLKLO@?$AAU?$AAF?$AAS?$AAH?$AAC?$AAI@ 00000000000721a8     UefiShellDebug1CommandsLib:Pci.obj
 0002:0000b698       ??_C@_1BO@LDKLHGIO@?$AAV?$AAG?$AAA?$AA?5?$AAc?$AAo?$AAm?$AAp?$AAa?$AAt?$AAi?$AAb?$AAl?$AAe@ 00000000000721b8     UefiShellDebug1CommandsLib:Pci.obj
 0002:0000b6b8       ??_C@_1CA@LKBFLGHB@?$AA8?$AA5?$AA1?$AA4?$AA?5?$AAc?$AAo?$AAm?$AAp?$AAa?$AAt?$AAi?$AAb?$AAl?$AAe@ 00000000000721d8     UefiShellDebug1CommandsLib:Pci.obj
 0002:0000b6d8       ??_C@_1CG@BDOIBFMC@?$AAS?$AAu?$AAb?$AAt?$AAr?$AAa?$AAc?$AAt?$AAi?$AAv?$AAe?$AA?5?$AAd?$AAe?$AAc@ 00000000000721f8     UefiShellDebug1CommandsLib:Pci.obj
 0002:0000b700       ??_C@_1GM@BAGIKEEJ@?$AAP?$AAr?$AAi?$AAm?$AAa?$AAr?$AAy?$AA?5?$AAP?$AAC?$AAI?$AA?5?$AAb?$AAu?$AAs@ 0000000000072220     UefiShellDebug1CommandsLib:Pci.obj
 0002:0000b770       ??_C@_1HA@EIOBAMFG@?$AAS?$AAe?$AAc?$AAo?$AAn?$AAd?$AAa?$AAr?$AAy?$AA?5?$AAP?$AAC?$AAI?$AA?5?$AAb@ 0000000000072290     UefiShellDebug1CommandsLib:Pci.obj
 0002:0000b7e0       ??_C@_1O@KKPPJBFG@?$AAC?$AAu?$AAs?$AAt?$AAo?$AAm@ 0000000000072300     UefiShellDebug1CommandsLib:Pci.obj
 0002:0000b7f0       ??_C@_1CO@KMFHKOFL@?$AAA?$AAS?$AAI?$AA?9?$AAS?$AAI?$AAG?$AA?5?$AAD?$AAe?$AAf?$AAi?$AAn?$AAe?$AAd@ 0000000000072310     UefiShellDebug1CommandsLib:Pci.obj
 0002:0000b820       ??_C@_1CM@BOFGGGIA@?$AAG?$AAe?$AAn?$AAe?$AAr?$AAi?$AAc?$AA?5?$AAX?$AAT?$AA?9?$AAc?$AAo?$AAm?$AAp@ 0000000000072340     UefiShellDebug1CommandsLib:Pci.obj
 0002:0000b850       ??_C@_1CC@CIGAJBCK@?$AA1?$AA6?$AA4?$AA5?$AA0?$AA?9?$AAc?$AAo?$AAm?$AAp?$AAa?$AAt?$AAi?$AAb?$AAl@ 0000000000072370     UefiShellDebug1CommandsLib:Pci.obj
 0002:0000b878       ??_C@_1CC@BEAAHCCC@?$AA1?$AA6?$AA5?$AA5?$AA0?$AA?9?$AAc?$AAo?$AAm?$AAp?$AAa?$AAt?$AAi?$AAb?$AAl@ 0000000000072398     UefiShellDebug1CommandsLib:Pci.obj
 0002:0000b8a0       ??_C@_1CC@FAKBFHDK@?$AA1?$AA6?$AA6?$AA5?$AA0?$AA?9?$AAc?$AAo?$AAm?$AAp?$AAa?$AAt?$AAi?$AAb?$AAl@ 00000000000723c0     UefiShellDebug1CommandsLib:Pci.obj
 0002:0000b8c8       ??_C@_1CC@GMMBLEDC@?$AA1?$AA6?$AA7?$AA5?$AA0?$AA?9?$AAc?$AAo?$AAm?$AAp?$AAa?$AAt?$AAi?$AAb?$AAl@ 00000000000723e8     UefiShellDebug1CommandsLib:Pci.obj
 0002:0000b8f0       ??_C@_1CC@OBJFADAL@?$AA1?$AA6?$AA8?$AA5?$AA0?$AA?9?$AAc?$AAo?$AAm?$AAp?$AAa?$AAt?$AAi?$AAb?$AAl@ 0000000000072410     UefiShellDebug1CommandsLib:Pci.obj
 0002:0000b918       ??_C@_1CC@NNPFOAAD@?$AA1?$AA6?$AA9?$AA5?$AA0?$AA?9?$AAc?$AAo?$AAm?$AAp?$AAa?$AAt?$AAi?$AAb?$AAl@ 0000000000072438     UefiShellDebug1CommandsLib:Pci.obj
 0002:0000b940       ??_C@_1BO@IFLLGKJH@?$AAB?$AAi?$AA?9?$AAd?$AAi?$AAr?$AAe?$AAc?$AAt?$AAi?$AAo?$AAn?$AAa?$AAl@ 0000000000072460     UefiShellDebug1CommandsLib:Pci.obj
 0002:0000b960       ??_C@_1CE@MAJJBDCC@?$AAE?$AAC?$AAP?$AA?5?$AA1?$AA?4?$AAX?$AA?9?$AAc?$AAo?$AAm?$AAp?$AAl?$AAi?$AAa@ 0000000000072480     UefiShellDebug1CommandsLib:Pci.obj
 0002:0000b988       ??_C@_1BE@DNKMAGKP@?$AAI?$AAE?$AAE?$AAE?$AA?5?$AA1?$AA2?$AA8?$AA4@ 00000000000724a8     UefiShellDebug1CommandsLib:Pci.obj
 0002:0000b9a0       ??_C@_1EI@FJLDGOLD@?$AAI?$AAE?$AAE?$AAE?$AA?5?$AA1?$AA2?$AA8?$AA4?$AA?5?$AAt?$AAa?$AAr?$AAg?$AAe@ 00000000000724c0     UefiShellDebug1CommandsLib:Pci.obj
 0002:0000b9e8       ??_C@_1BA@NGANLLNB@?$AAG?$AAe?$AAn?$AAe?$AAr?$AAi?$AAc@ 0000000000072508     UefiShellDebug1CommandsLib:Pci.obj
 0002:0000b9f8       ??_C@_1CO@OBFAMHI@?$AAH?$AAa?$AAy?$AAe?$AAs?$AA?9?$AAc?$AAo?$AAm?$AAp?$AAa?$AAt?$AAi?$AAb?$AAl@ 0000000000072518     UefiShellDebug1CommandsLib:Pci.obj
 0002:0000ba28       ??_C@_1CO@MCLPAMOG@?$AAH?$AAa?$AAy?$AAe?$AAs?$AA?9?$AAc?$AAo?$AAm?$AAp?$AAa?$AAt?$AAi?$AAb?$AAl@ 0000000000072548     UefiShellDebug1CommandsLib:Pci.obj
 0002:0000ba58       ??_C@_1CO@EMDAALAF@?$AAH?$AAa?$AAy?$AAe?$AAs?$AA?9?$AAc?$AAo?$AAm?$AAp?$AAa?$AAt?$AAi?$AAb?$AAl@ 0000000000072578     UefiShellDebug1CommandsLib:Pci.obj
 0002:0000ba88       ??_C@_1CO@IAJKALJL@?$AAH?$AAa?$AAy?$AAe?$AAs?$AA?9?$AAc?$AAo?$AAm?$AAp?$AAa?$AAt?$AAi?$AAb?$AAl@ 00000000000725a8     UefiShellDebug1CommandsLib:Pci.obj
 0002:0000bab8       ??_C@_1BK@FEJNPFJI@?$AAG?$AAe?$AAn?$AAe?$AAr?$AAi?$AAc?$AA?5?$AA8?$AA2?$AA5?$AA9@ 00000000000725d8     UefiShellDebug1CommandsLib:Pci.obj
 0002:0000bad8       ??_C@_17FLNLMFB@?$AAI?$AAS?$AAA@ 00000000000725f8     UefiShellDebug1CommandsLib:Pci.obj
 0002:0000bae0       ??_C@_19PLIGMHKK@?$AAE?$AAI?$AAS?$AAA@ 0000000000072600     UefiShellDebug1CommandsLib:Pci.obj
 0002:0000baf0       ??_C@_1BA@GKPFOHFO@?$AAI?$AAO?$AA?5?$AAA?$AAP?$AAI?$AAC@ 0000000000072610     UefiShellDebug1CommandsLib:Pci.obj
 0002:0000bb00       ??_C@_1EA@DHDEDKEO@?$AAI?$AAO?$AA?$CI?$AAx?$AA?$CJ?$AA?5?$AAA?$AAP?$AAI?$AAC?$AA?5?$AAi?$AAn?$AAt?$AAe@ 0000000000072620     UefiShellDebug1CommandsLib:Pci.obj
 0002:0000bb40       ??_C@_1BK@GCBLGBLG@?$AAG?$AAe?$AAn?$AAe?$AAr?$AAi?$AAc?$AA?5?$AA8?$AA2?$AA3?$AA7@ 0000000000072660     UefiShellDebug1CommandsLib:Pci.obj
 0002:0000bb60       ??_C@_1BK@KGPHCNEF@?$AAG?$AAe?$AAn?$AAe?$AAr?$AAi?$AAc?$AA?5?$AA8?$AA2?$AA5?$AA4@ 0000000000072680     UefiShellDebug1CommandsLib:Pci.obj
 0002:0000bb80       ??_C@_1DA@CHHIFNOJ@?$AAU?$AAs?$AAi?$AAn?$AAg?$AA?5?$AA1?$AA3?$AA9?$AA4?$AA?5?$AAO?$AAp?$AAe?$AAn@ 00000000000726a0     UefiShellDebug1CommandsLib:Pci.obj
 0002:0000bbb0       ??_C@_19NGOAGMKI@?$AAU?$AAH?$AAC?$AAI@ 00000000000726d0     UefiShellDebug1CommandsLib:Pci.obj
 0002:0000bbc0       ??_C@_19OGGMHNIJ@?$AAO?$AAH?$AAC?$AAI@ 00000000000726e0     UefiShellDebug1CommandsLib:Pci.obj
 0002:0000bbd0       ??_C@_19PBEOONEA@?$AAE?$AAH?$AAC?$AAI@ 00000000000726f0     UefiShellDebug1CommandsLib:Pci.obj
 0002:0000bbe0       ??_C@_19GMEDOEMI@?$AAx?$AAH?$AAC?$AAI@ 0000000000072700     UefiShellDebug1CommandsLib:Pci.obj
 0002:0000bbf0       ??_C@_1EE@DFNHODEM@?$AAN?$AAo?$AA?5?$AAs?$AAp?$AAe?$AAc?$AAi?$AAf?$AAi?$AAc?$AA?5?$AAp?$AAr?$AAo@ 0000000000072710     UefiShellDebug1CommandsLib:Pci.obj
 0002:0000bc38       ??_C@_1CM@KHPKJIHG@?$AA?$CI?$AAN?$AAo?$AAt?$AA?5?$AAH?$AAo?$AAs?$AAt?$AA?5?$AAC?$AAo?$AAn?$AAt?$AAr@ 0000000000072758     UefiShellDebug1CommandsLib:Pci.obj
 0002:0000bc68       ??_C@_19FNDINBIJ@?$AAS?$AAM?$AAI?$AAC@ 0000000000072788     UefiShellDebug1CommandsLib:Pci.obj
 0002:0000bc78       ??_C@_1DE@JKDCGLGM@?$AAK?$AAe?$AAy?$AAb?$AAo?$AAa?$AAr?$AAd?$AA?5?$AAC?$AAo?$AAn?$AAt?$AAr?$AAo@ 0000000000072798     UefiShellDebug1CommandsLib:Pci.obj
 0002:0000bcb0       ??_C@_1BO@NEKAJCNL@?$AAB?$AAl?$AAo?$AAc?$AAk?$AA?5?$AAT?$AAr?$AAa?$AAn?$AAs?$AAf?$AAe?$AAr@ 00000000000727d0     UefiShellDebug1CommandsLib:Pci.obj
 0002:0000bcd0       ??_C@_1CO@JPLPKLME@?$AAC?$AAo?$AAn?$AAs?$AAu?$AAm?$AAe?$AAr?$AA?5?$AAI?$AAR?$AA?5?$AAc?$AAo?$AAn@ 00000000000727f0     UefiShellDebug1CommandsLib:Pci.obj
 0002:0000bd00       ??_C@_1CK@HPJMCFFA@?$AAU?$AAW?$AAB?$AA?5?$AAR?$AAa?$AAd?$AAi?$AAo?$AA?5?$AAc?$AAo?$AAn?$AAt?$AAr@ 0000000000072820     UefiShellDebug1CommandsLib:Pci.obj
 0002:0000bd30       ??_C@_1DG@ENMJNAED@?$AAM?$AAe?$AAs?$AAs?$AAa?$AAg?$AAe?$AA?5?$AAF?$AAI?$AAF?$AAO?$AA?5?$AAa?$AAt@ 0000000000072850     UefiShellDebug1CommandsLib:Pci.obj
 0002:0000bd68       ??_C@_1BE@FIGOEEEG@?$AAU?$AAN?$AAD?$AAE?$AAF?$AAI?$AAN?$AAE?$AAD@ 0000000000072888     UefiShellDebug1CommandsLib:Pci.obj
 0002:0000bd80       ??_C@_1BK@BKCDPFHG@?$AA?$CF?$AAs?$AA?5?$AA?9?$AA?5?$AA?$CF?$AAs?$AA?5?$AA?9?$AA?5?$AA?$CF?$AAs@ 00000000000728a0     UefiShellDebug1CommandsLib:Pci.obj
 0002:0000bda0       ??_C@_1BA@JNCDCOGG@?$AA?$CF?$AAs?$AA?5?$AA?9?$AA?5?$AA?$CF?$AAs@ 00000000000728c0     UefiShellDebug1CommandsLib:Pci.obj
 0002:0000bdb0       ??_C@_17IJAEJBBF@?$AA?9?$AAe?$AAc@ 00000000000728d0     UefiShellDebug1CommandsLib:Pci.obj
 0002:0000bdb8       ??_C@_1CK@LGAIPNNI@?$AAP?$AAC?$AAI?$AA?5?$AAE?$AAx?$AAp?$AAr?$AAe?$AAs?$AAs?$AA?5?$AAE?$AAn?$AAd@ 00000000000728d8     UefiShellDebug1CommandsLib:Pci.obj
 0002:0000bde8       ??_C@_1DI@NBAABCOO@?$AAL?$AAe?$AAg?$AAa?$AAc?$AAy?$AA?5?$AAP?$AAC?$AAI?$AA?5?$AAE?$AAx?$AAp?$AAr@ 0000000000072908     UefiShellDebug1CommandsLib:Pci.obj
 0002:0000be20       ??_C@_1BK@NFFICGLM@?$AAU?$AAn?$AAk?$AAn?$AAo?$AAw?$AAn?$AA?5?$AAT?$AAy?$AAp?$AAe@ 0000000000072940     UefiShellDebug1CommandsLib:Pci.obj
 0002:0000be40       ??_C@_1BK@CGOANFNA@?$AAU?$AAn?$AAk?$AAn?$AAo?$AAn?$AAw?$AA?5?$AAT?$AAy?$AAp?$AAe@ 0000000000072960     UefiShellDebug1CommandsLib:Pci.obj
 0002:0000be60       ??_C@_1EM@KJGCONCC@?$AAR?$AAo?$AAo?$AAt?$AA?5?$AAP?$AAo?$AAr?$AAt?$AA?5?$AAo?$AAf?$AA?5?$AAP?$AAC@ 0000000000072980     UefiShellDebug1CommandsLib:Pci.obj
 0002:0000beb0       ??_C@_1EI@DOOOOBJL@?$AAU?$AAp?$AAs?$AAt?$AAr?$AAe?$AAa?$AAm?$AA?5?$AAP?$AAo?$AAr?$AAt?$AA?5?$AAo@ 00000000000729d0     UefiShellDebug1CommandsLib:Pci.obj
 0002:0000bf00       ??_C@_1EM@LHMEPGPD@?$AAD?$AAo?$AAw?$AAn?$AAs?$AAt?$AAr?$AAe?$AAa?$AAm?$AA?5?$AAP?$AAo?$AAr?$AAt@ 0000000000072a20     UefiShellDebug1CommandsLib:Pci.obj
 0002:0000bf50       ??_C@_1EA@IGKOLDOG@?$AAP?$AAC?$AAI?$AA?5?$AAE?$AAx?$AAp?$AAr?$AAe?$AAs?$AAs?$AA?5?$AAt?$AAo?$AA?5@ 0000000000072a70     UefiShellDebug1CommandsLib:Pci.obj
 0002:0000bf90       ??_C@_1EA@KFIDJNJK@?$AAP?$AAC?$AAI?$AA?1?$AAP?$AAC?$AAI?$AA?9?$AAX?$AA?5?$AAt?$AAo?$AA?5?$AAP?$AAC@ 0000000000072ab0     UefiShellDebug1CommandsLib:Pci.obj
 0002:0000bfd0       ??_C@_1EC@DNMCNNFH@?$AAR?$AAo?$AAo?$AAt?$AA?5?$AAC?$AAo?$AAm?$AAp?$AAl?$AAe?$AAx?$AA?5?$AAI?$AAn@ 0000000000072af0     UefiShellDebug1CommandsLib:Pci.obj
 0002:0000c018       ??_C@_1BO@IAHCGMHK@?$AAL?$AAe?$AAs?$AAs?$AA?5?$AAt?$AAh?$AAa?$AAn?$AA?5?$AA6?$AA4?$AAn?$AAs@ 0000000000072b38     UefiShellDebug1CommandsLib:Pci.obj
 0002:0000c038       ??_C@_1DA@HJJJPCKH@?$AA6?$AA4?$AAn?$AAs?$AA?5?$AAt?$AAo?$AA?5?$AAl?$AAe?$AAs?$AAs?$AA?5?$AAt?$AAh@ 0000000000072b58     UefiShellDebug1CommandsLib:Pci.obj
 0002:0000c068       ??_C@_1DC@HICECCOG@?$AA1?$AA2?$AA8?$AAn?$AAs?$AA?5?$AAt?$AAo?$AA?5?$AAl?$AAe?$AAs?$AAs?$AA?5?$AAt@ 0000000000072b88     UefiShellDebug1CommandsLib:Pci.obj
 0002:0000c0a0       ??_C@_1DC@PFEAEAJO@?$AA2?$AA5?$AA6?$AAn?$AAs?$AA?5?$AAt?$AAo?$AA?5?$AAl?$AAe?$AAs?$AAs?$AA?5?$AAt@ 0000000000072bc0     UefiShellDebug1CommandsLib:Pci.obj
 0002:0000c0d8       ??_C@_1CO@FDINLBAE@?$AA5?$AA1?$AA2?$AAn?$AAs?$AA?5?$AAt?$AAo?$AA?5?$AAl?$AAe?$AAs?$AAs?$AA?5?$AAt@ 0000000000072bf8     UefiShellDebug1CommandsLib:Pci.obj
 0002:0000c108       ??_C@_1CK@DFGAJBII@?$AA1?$AAu?$AAs?$AA?5?$AAt?$AAo?$AA?5?$AAl?$AAe?$AAs?$AAs?$AA?5?$AAt?$AAh?$AAa@ 0000000000072c28     UefiShellDebug1CommandsLib:Pci.obj
 0002:0000c138       ??_C@_1BA@MBKFBMOB@?$AA2?$AAu?$AAs?$AA?9?$AA4?$AAu?$AAs@ 0000000000072c58     UefiShellDebug1CommandsLib:Pci.obj
 0002:0000c148       ??_C@_1BM@IHLKEDHF@?$AAM?$AAo?$AAr?$AAe?$AA?5?$AAt?$AAh?$AAa?$AAn?$AA?5?$AA4?$AAu?$AAs@ 0000000000072c68     UefiShellDebug1CommandsLib:Pci.obj
 0002:0000c168       ??_C@_1BM@NEKPKDDJ@?$AAL?$AAe?$AAs?$AAs?$AA?5?$AAt?$AAh?$AAa?$AAn?$AA?5?$AA1?$AAu?$AAs@ 0000000000072c88     UefiShellDebug1CommandsLib:Pci.obj
 0002:0000c188       ??_C@_1CK@MLDEBDHM@?$AA2?$AAu?$AAs?$AA?5?$AAt?$AAo?$AA?5?$AAl?$AAe?$AAs?$AAs?$AA?5?$AAt?$AAh?$AAa@ 0000000000072ca8     UefiShellDebug1CommandsLib:Pci.obj
 0002:0000c1b8       ??_C@_1CK@OMOMBANF@?$AA4?$AAu?$AAs?$AA?5?$AAt?$AAo?$AA?5?$AAl?$AAe?$AAs?$AAs?$AA?5?$AAt?$AAh?$AAa@ 0000000000072cd8     UefiShellDebug1CommandsLib:Pci.obj
 0002:0000c1e8       ??_C@_1CM@DHLMOLKA@?$AA8?$AAu?$AAs?$AA?5?$AAt?$AAo?$AA?5?$AAl?$AAe?$AAs?$AAs?$AA?5?$AAt?$AAh?$AAa@ 0000000000072d08     UefiShellDebug1CommandsLib:Pci.obj
 0002:0000c218       ??_C@_1CO@FGMGHCAD@?$AA1?$AA6?$AAu?$AAs?$AA?5?$AAt?$AAo?$AA?5?$AAl?$AAe?$AAs?$AAs?$AA?5?$AAt?$AAh@ 0000000000072d38     UefiShellDebug1CommandsLib:Pci.obj
 0002:0000c248       ??_C@_1BE@CACIEDEC@?$AA3?$AA2?$AAu?$AAs?$AA?9?$AA6?$AA4?$AAu?$AAs@ 0000000000072d68     UefiShellDebug1CommandsLib:Pci.obj
 0002:0000c260       ??_C@_1BO@PDIMOEAC@?$AAM?$AAo?$AAr?$AAe?$AA?5?$AAt?$AAh?$AAa?$AAn?$AA?5?$AA6?$AA4?$AAu?$AAs@ 0000000000072d80     UefiShellDebug1CommandsLib:Pci.obj
 0002:0000c280       ??_C@_1BC@FGCJDNHA@?$AAD?$AAi?$AAs?$AAa?$AAb?$AAl?$AAe?$AAd@ 0000000000072da0     UefiShellDebug1CommandsLib:Pci.obj
 0002:0000c298       ??_C@_1CE@MOLMINKE@?$AAL?$AA0?$AAs?$AA?5?$AAE?$AAn?$AAt?$AAr?$AAy?$AA?5?$AAE?$AAn?$AAa?$AAb?$AAl@ 0000000000072db8     UefiShellDebug1CommandsLib:Pci.obj
 0002:0000c2c0       ??_C@_1CC@EGKEAOOB@?$AAL?$AA1?$AA?5?$AAE?$AAn?$AAt?$AAr?$AAy?$AA?5?$AAE?$AAn?$AAa?$AAb?$AAl?$AAe@ 0000000000072de0     UefiShellDebug1CommandsLib:Pci.obj
 0002:0000c2e8       ??_C@_1DC@OOCMPFKO@?$AAL?$AA0?$AAs?$AA?5?$AAa?$AAn?$AAd?$AA?5?$AAL?$AA1?$AA?5?$AAE?$AAn?$AAt?$AAr@ 0000000000072e08     UefiShellDebug1CommandsLib:Pci.obj
 0002:0000c320       ??_C@_19NNEJIBDF@?$AA1?$AA?4?$AA0?$AAx@ 0000000000072e40     UefiShellDebug1CommandsLib:Pci.obj
 0002:0000c330       ??_C@_19PJNHDJKO@?$AA0?$AA?4?$AA1?$AAx@ 0000000000072e50     UefiShellDebug1CommandsLib:Pci.obj
 0002:0000c340       ??_C@_1M@CFPHDDPB@?$AA0?$AA?4?$AA0?$AA1?$AAx@ 0000000000072e60     UefiShellDebug1CommandsLib:Pci.obj
 0002:0000c350       ??_C@_1O@PIABEHFE@?$AA0?$AA?4?$AA0?$AA0?$AA1?$AAx@ 0000000000072e70     UefiShellDebug1CommandsLib:Pci.obj
 0002:0000c360       ??_C@_1BC@BIAHJJFB@?$AAR?$AAe?$AAs?$AAe?$AAr?$AAv?$AAe?$AAd@ 0000000000072e80     UefiShellDebug1CommandsLib:Pci.obj
 0002:0000c374       ??_C@_15GLMKGGNF@?$AAO?$AAn@ 0000000000072e94     UefiShellDebug1CommandsLib:Pci.obj
 0002:0000c380       ??_C@_1M@ICNEFBLJ@?$AAB?$AAl?$AAi?$AAn?$AAk@ 0000000000072ea0     UefiShellDebug1CommandsLib:Pci.obj
 0002:0000c390       ??_C@_17KKIALEEP@?$AAO?$AAf?$AAf@ 0000000000072eb0     UefiShellDebug1CommandsLib:Pci.obj
 0002:0000c3a0       ??_C@_0FK@ICFKOBLB@D?3?2uefi_specs_personal_collecti@ 0000000000072ec0     UefiShellDebug1CommandsLib:Pci.obj
 0002:0000c400       ??_C@_1JI@DIBCOKEL@?$AA?$AN?$AA?6?$AA?$CF?$AAH?$AAS?$AAt?$AAa?$AAr?$AAt?$AA?5?$AAd?$AAu?$AAm?$AAp?$AAi@ 0000000000072f20     UefiShellDebug1CommandsLib:Pci.obj
 0002:0000c4a0       ??_C@_1GC@IOBLCMJB@?$AA?5?$AA?5?$AAC?$AAa?$AAp?$AAa?$AAb?$AAi?$AAl?$AAi?$AAt?$AAy?$AA?5?$AAV?$AAe@ 0000000000072fc0     UefiShellDebug1CommandsLib:Pci.obj
 0002:0000c510       ??_C@_1FK@OIGKJCNB@?$AA?5?$AA?5?$AAD?$AAe?$AAv?$AAi?$AAc?$AAe?$AA?1?$AAP?$AAo?$AAr?$AAt?$AAT?$AAy@ 0000000000073030     UefiShellDebug1CommandsLib:Pci.obj
 0002:0000c570       ??_C@_1FK@KEMDJDCE@?$AA?5?$AA?5?$AAS?$AAl?$AAo?$AAt?$AA?5?$AAI?$AAm?$AAp?$AAl?$AAe?$AAm?$AAe?$AAn@ 0000000000073090     UefiShellDebug1CommandsLib:Pci.obj
 0002:0000c5d0       ??_C@_1GC@FONILIJO@?$AA?5?$AA?5?$AAI?$AAn?$AAt?$AAe?$AAr?$AAr?$AAu?$AAp?$AAt?$AA?5?$AAM?$AAe?$AAs@ 00000000000730f0     UefiShellDebug1CommandsLib:Pci.obj
 0002:0000c640       ??_C@_1FK@NPFDPGMM@?$AA?5?$AA?5?$AAM?$AAa?$AAx?$AA_?$AAP?$AAa?$AAy?$AAl?$AAo?$AAa?$AAd?$AA_?$AAS@ 0000000000073160     UefiShellDebug1CommandsLib:Pci.obj
 0002:0000c6a0       ??_C@_1BO@OLMPP@?$AA?$CF?$AAE?$AA?$CF?$AAd?$AA?5?$AAb?$AAy?$AAt?$AAe?$AAs?$AA?$CF?$AAN?$AA?$AN?$AA?6@ 00000000000731c0     UefiShellDebug1CommandsLib:Pci.obj
 0002:0000c6c0       ??_C@_1BM@CDEMNAKC@?$AA?$CF?$AAE?$AAU?$AAn?$AAk?$AAn?$AAo?$AAw?$AAn?$AA?$CF?$AAN?$AA?$AN?$AA?6@ 00000000000731e0     UefiShellDebug1CommandsLib:Pci.obj
 0002:0000c6e0       ??_C@_1GK@FMJEGDJO@?$AA?5?$AA?5?$AAP?$AAh?$AAa?$AAn?$AAt?$AAo?$AAm?$AA?5?$AAF?$AAu?$AAn?$AAc?$AAt@ 0000000000073200     UefiShellDebug1CommandsLib:Pci.obj
 0002:0000c750       ??_C@_1JK@GDJHHFPD@?$AA?5?$AA?5?$AAE?$AAx?$AAt?$AAe?$AAn?$AAd?$AAe?$AAd?$AA?5?$AAT?$AAa?$AAg?$AA?5@ 0000000000073270     UefiShellDebug1CommandsLib:Pci.obj
 0002:0000c7f0       ??_C@_1FK@DEGMCBMF@?$AA?5?$AA?5?$AAE?$AAn?$AAd?$AAp?$AAo?$AAi?$AAn?$AAt?$AA?5?$AAL?$AA0?$AAs?$AA?5@ 0000000000073310     UefiShellDebug1CommandsLib:Pci.obj
 0002:0000c850       ??_C@_1CO@KHCIHDMD@?$AA?$CF?$AAE?$AAM?$AAa?$AAx?$AAi?$AAm?$AAu?$AAm?$AA?5?$AAo?$AAf?$AA?5?$AA?$CF?$AAd@ 0000000000073370     UefiShellDebug1CommandsLib:Pci.obj
 0002:0000c880       ??_C@_1CO@IOKCHEEC@?$AA?$CF?$AAE?$AAM?$AAa?$AAx?$AAi?$AAm?$AAu?$AAm?$AA?5?$AAo?$AAf?$AA?5?$AA?$CF?$AAd@ 00000000000733a0     UefiShellDebug1CommandsLib:Pci.obj
 0002:0000c8b0       ??_C@_1BO@DEAGGBCC@?$AA?$CF?$AAE?$AAN?$AAo?$AA?5?$AAl?$AAi?$AAm?$AAi?$AAt?$AA?$CF?$AAN?$AA?$AN?$AA?6@ 00000000000733d0     UefiShellDebug1CommandsLib:Pci.obj
 0002:0000c8d0       ??_C@_1FK@IEAAEIBG@?$AA?5?$AA?5?$AAE?$AAn?$AAd?$AAp?$AAo?$AAi?$AAn?$AAt?$AA?5?$AAL?$AA1?$AA?5?$AAA@ 00000000000733f0     UefiShellDebug1CommandsLib:Pci.obj
 0002:0000c930       ??_C@_1GK@GIGLEIEC@?$AA?5?$AA?5?$AAR?$AAo?$AAl?$AAe?$AA?9?$AAb?$AAa?$AAs?$AAe?$AAd?$AA?5?$AAE?$AAr@ 0000000000073450     UefiShellDebug1CommandsLib:Pci.obj
 0002:0000c9a0       ??_C@_1HC@CBDBOADF@?$AA?5?$AA?5?$AAC?$AAa?$AAp?$AAt?$AAu?$AAr?$AAe?$AAd?$AA?5?$AAS?$AAl?$AAo?$AAt@ 00000000000734c0     UefiShellDebug1CommandsLib:Pci.obj
 0002:0000ca20       ??_C@_1GK@NGJPMHJI@?$AA?5?$AA?5?$AAC?$AAa?$AAp?$AAt?$AAu?$AAr?$AAe?$AAd?$AA?5?$AAS?$AAl?$AAo?$AAt@ 0000000000073540     UefiShellDebug1CommandsLib:Pci.obj
 0002:0000ca90       ??_C@_1GK@JIFHJGKP@?$AA?5?$AA?5?$AAF?$AAu?$AAn?$AAc?$AAt?$AAi?$AAo?$AAn?$AA?5?$AAL?$AAe?$AAv?$AAe@ 00000000000735b0     UefiShellDebug1CommandsLib:Pci.obj
 0002:0000cb00       ??_C@_1GK@FGJNFMLD@?$AA?5?$AA?5?$AAC?$AAo?$AAr?$AAr?$AAe?$AAc?$AAt?$AAa?$AAb?$AAl?$AAe?$AA?5?$AAE@ 0000000000073620     UefiShellDebug1CommandsLib:Pci.obj
 0002:0000cb70       ??_C@_1GK@ENPGOHN@?$AA?5?$AA?5?$AAN?$AAo?$AAn?$AA?9?$AAF?$AAa?$AAt?$AAa?$AAl?$AA?5?$AAE?$AAr?$AAr@ 0000000000073690     UefiShellDebug1CommandsLib:Pci.obj
 0002:0000cbe0       ??_C@_1GK@KNGICADE@?$AA?5?$AA?5?$AAF?$AAa?$AAt?$AAa?$AAl?$AA?5?$AAE?$AAr?$AAr?$AAo?$AAr?$AA?5?$AAR@ 0000000000073700     UefiShellDebug1CommandsLib:Pci.obj
 0002:0000cc50       ??_C@_1GK@PEFNOOJJ@?$AA?5?$AA?5?$AAU?$AAn?$AAs?$AAu?$AAp?$AAp?$AAo?$AAr?$AAt?$AAe?$AAd?$AA?5?$AAR@ 0000000000073770     UefiShellDebug1CommandsLib:Pci.obj
 0002:0000ccc0       ??_C@_1GK@KNAFJEEN@?$AA?5?$AA?5?$AAE?$AAn?$AAa?$AAb?$AAl?$AAe?$AA?5?$AAR?$AAe?$AAl?$AAa?$AAx?$AAe@ 00000000000737e0     UefiShellDebug1CommandsLib:Pci.obj
 0002:0000cd30       ??_C@_1FK@DOIMONG@?$AA?5?$AA?5?$AAM?$AAa?$AAx?$AA_?$AAP?$AAa?$AAy?$AAl?$AAo?$AAa?$AAd?$AA_?$AAS@ 0000000000073850     UefiShellDebug1CommandsLib:Pci.obj
 0002:0000cd90       ??_C@_1GK@NDFLOBEB@?$AA?5?$AA?5?$AAE?$AAx?$AAt?$AAe?$AAn?$AAd?$AAe?$AAd?$AA?5?$AAT?$AAa?$AAg?$AA?5@ 00000000000738b0     UefiShellDebug1CommandsLib:Pci.obj
 0002:0000ce00       ??_C@_1GK@JOCEMCGI@?$AA?5?$AA?5?$AAP?$AAh?$AAa?$AAn?$AAt?$AAo?$AAm?$AA?5?$AAF?$AAu?$AAn?$AAc?$AAt@ 0000000000073920     UefiShellDebug1CommandsLib:Pci.obj
 0002:0000ce70       ??_C@_1GK@DIPPPKNF@?$AA?5?$AA?5?$AAA?$AAu?$AAx?$AAi?$AAl?$AAi?$AAa?$AAr?$AAy?$AA?5?$AA?$CI?$AAA?$AAU@ 0000000000073990     UefiShellDebug1CommandsLib:Pci.obj
 0002:0000cee0       ??_C@_1GK@BHBAOJJF@?$AA?5?$AA?5?$AAE?$AAn?$AAa?$AAb?$AAl?$AAe?$AA?5?$AAN?$AAo?$AA?5?$AAS?$AAn?$AAo@ 0000000000073a00     UefiShellDebug1CommandsLib:Pci.obj
 0002:0000cf50       ??_C@_1FK@LLANKGGK@?$AA?5?$AA?5?$AAM?$AAa?$AAx?$AA_?$AAR?$AAe?$AAa?$AAd?$AA_?$AAR?$AAe?$AAq?$AAu@ 0000000000073a70     UefiShellDebug1CommandsLib:Pci.obj
 0002:0000cfb0       ??_C@_1GG@OFHJCJFD@?$AA?5?$AA?5?$AAB?$AAr?$AAi?$AAd?$AAg?$AAe?$AA?5?$AAC?$AAo?$AAn?$AAf?$AAi?$AAg@ 0000000000073ad0     UefiShellDebug1CommandsLib:Pci.obj
 0002:0000d020       ??_C@_1GK@BINMDEJF@?$AA?5?$AA?5?$AAC?$AAo?$AAr?$AAr?$AAe?$AAc?$AAt?$AAa?$AAb?$AAl?$AAe?$AA?5?$AAE@ 0000000000073b40     UefiShellDebug1CommandsLib:Pci.obj
 0002:0000d090       ??_C@_1GK@EDPIDOEM@?$AA?5?$AA?5?$AAN?$AAo?$AAn?$AA?9?$AAF?$AAa?$AAt?$AAa?$AAl?$AA?5?$AAE?$AAr?$AAr@ 0000000000073bb0     UefiShellDebug1CommandsLib:Pci.obj
 0002:0000d100       ??_C@_1GK@MNNNPGMB@?$AA?5?$AA?5?$AAF?$AAa?$AAt?$AAa?$AAl?$AA?5?$AAE?$AAr?$AAr?$AAo?$AAr?$AA?5?$AAD@ 0000000000073c20     UefiShellDebug1CommandsLib:Pci.obj
 0002:0000d170       ??_C@_1GK@BJCBKOPC@?$AA?5?$AA?5?$AAU?$AAn?$AAs?$AAu?$AAp?$AAp?$AAo?$AAr?$AAt?$AAe?$AAd?$AA?5?$AAR@ 0000000000073c90     UefiShellDebug1CommandsLib:Pci.obj
 0002:0000d1e0       ??_C@_1GK@HPMFLNAP@?$AA?5?$AA?5?$AAA?$AAU?$AAX?$AA?5?$AAP?$AAo?$AAw?$AAe?$AAr?$AA?5?$AAD?$AAe?$AAt@ 0000000000073d00     UefiShellDebug1CommandsLib:Pci.obj
 0002:0000d250       ??_C@_1GK@LEJACGLB@?$AA?5?$AA?5?$AAT?$AAr?$AAa?$AAn?$AAs?$AAa?$AAc?$AAt?$AAi?$AAo?$AAn?$AAs?$AA?5@ 0000000000073d70     UefiShellDebug1CommandsLib:Pci.obj
 0002:0000d2c0       ??_C@_1BC@MMFGJKJK@?$AA2?$AA?4?$AA5?$AA?5?$AAG?$AAT?$AA?1?$AAs@ 0000000000073de0     UefiShellDebug1CommandsLib:Pci.obj
 0002:0000d2d8       ??_C@_1BC@KJNLPOJD@?$AA5?$AA?4?$AA0?$AA?5?$AAG?$AAT?$AA?1?$AAs@ 0000000000073df8     UefiShellDebug1CommandsLib:Pci.obj
 0002:0000d2f0       ??_C@_1BC@FKHADBHI@?$AA8?$AA?4?$AA0?$AA?5?$AAG?$AAT?$AA?1?$AAs@ 0000000000073e10     UefiShellDebug1CommandsLib:Pci.obj
 0002:0000d308       ??_C@_1BE@LEMOLHFJ@?$AA1?$AA6?$AA?4?$AA0?$AA?5?$AAG?$AAT?$AA?1?$AAs@ 0000000000073e28     UefiShellDebug1CommandsLib:Pci.obj
 0002:0000d320       ??_C@_1BE@HFKIBGND@?$AA3?$AA2?$AA?4?$AA0?$AA?5?$AAG?$AAT?$AA?1?$AAs@ 0000000000073e40     UefiShellDebug1CommandsLib:Pci.obj
 0002:0000d338       ??_C@_1BE@FAFOHKEJ@?$AA6?$AA4?$AA?4?$AA0?$AA?5?$AAG?$AAT?$AA?1?$AAs@ 0000000000073e58     UefiShellDebug1CommandsLib:Pci.obj
 0002:0000d350       ??_C@_1HO@BFOKIJPF@?$AA?5?$AA?5?$AAM?$AAa?$AAx?$AAi?$AAm?$AAu?$AAm?$AA?5?$AAL?$AAi?$AAn?$AAk?$AA?5@ 0000000000073e70     UefiShellDebug1CommandsLib:Pci.obj
 0002:0000d3d0       ??_C@_1IA@FKPHADIH@?$AA?5?$AA?5?$AAM?$AAa?$AAx?$AAi?$AAm?$AAu?$AAm?$AA?5?$AAL?$AAi?$AAn?$AAk?$AA?5@ 0000000000073ef0     UefiShellDebug1CommandsLib:Pci.obj
 0002:0000d450       ??_C@_17LLDFHKAN@?$AAN?$AAo?$AAt@ 0000000000073f70     UefiShellDebug1CommandsLib:Pci.obj
 0002:0000d458       ??_C@_17JJBPPPOL@?$AAL?$AA0?$AAs@ 0000000000073f78     UefiShellDebug1CommandsLib:Pci.obj
 0002:0000d460       ??_C@_15HODAALIP@?$AAL?$AA1@ 0000000000073f80     UefiShellDebug1CommandsLib:Pci.obj
 0002:0000d468       ??_C@_1BG@HHFHFDGH@?$AAL?$AA0?$AAs?$AA?5?$AAa?$AAn?$AAd?$AA?5?$AAL?$AA1@ 0000000000073f88     UefiShellDebug1CommandsLib:Pci.obj
 0002:0000d480       ??_C@_1JC@POMDGFJL@?$AA?5?$AA?5?$AAA?$AAc?$AAt?$AAi?$AAv?$AAe?$AA?5?$AAS?$AAt?$AAa?$AAt?$AAe?$AA?5@ 0000000000073fa0     UefiShellDebug1CommandsLib:Pci.obj
 0002:0000d520       ??_C@_1HO@NKEIDOOB@?$AA?5?$AA?5?$AAL?$AA0?$AAs?$AA?5?$AAE?$AAx?$AAi?$AAt?$AA?5?$AAL?$AAa?$AAt?$AAe@ 0000000000074040     UefiShellDebug1CommandsLib:Pci.obj
 0002:0000d5a0       ??_C@_1HO@BLGJHOAB@?$AA?5?$AA?5?$AAL?$AA1?$AA?5?$AAE?$AAx?$AAi?$AAt?$AA?5?$AAL?$AAa?$AAt?$AAe?$AAn@ 00000000000740c0     UefiShellDebug1CommandsLib:Pci.obj
 0002:0000d620       ??_C@_1HO@HGACLBBN@?$AA?5?$AA?5?$AAC?$AAl?$AAo?$AAc?$AAk?$AA?5?$AAP?$AAo?$AAw?$AAe?$AAr?$AA?5?$AAM@ 0000000000074140     UefiShellDebug1CommandsLib:Pci.obj
 0002:0000d6a0       ??_C@_1HO@MGNBADFC@?$AA?5?$AA?5?$AAS?$AAu?$AAr?$AAp?$AAr?$AAi?$AAs?$AAe?$AA?5?$AAD?$AAo?$AAw?$AAn@ 00000000000741c0     UefiShellDebug1CommandsLib:Pci.obj
 0002:0000d720       ??_C@_1HO@EKMMKHE@?$AA?5?$AA?5?$AAD?$AAa?$AAt?$AAa?$AA?5?$AAL?$AAi?$AAn?$AAk?$AA?5?$AAL?$AAa?$AAy@ 0000000000074240     UefiShellDebug1CommandsLib:Pci.obj
 0002:0000d7a0       ??_C@_1HO@BLBMJKEI@?$AA?5?$AA?5?$AAL?$AAi?$AAn?$AAk?$AA?5?$AAB?$AAa?$AAn?$AAd?$AAw?$AAi?$AAd?$AAt@ 00000000000742c0     UefiShellDebug1CommandsLib:Pci.obj
 0002:0000d820       ??_C@_1IG@BGGCJOF@?$AA?5?$AA?5?$AAP?$AAo?$AAr?$AAt?$AA?5?$AAN?$AAu?$AAm?$AAb?$AAe?$AAr?$AA?$CI?$AA3@ 0000000000074340     UefiShellDebug1CommandsLib:Pci.obj
 0002:0000d8b0       ??_C@_1HO@PGCJOKAE@?$AA?5?$AA?5?$AAA?$AAc?$AAt?$AAi?$AAv?$AAe?$AA?5?$AAS?$AAt?$AAa?$AAt?$AAe?$AA?5@ 00000000000743d0     UefiShellDebug1CommandsLib:Pci.obj
 0002:0000d930       ??_C@_1II@IFDMMLML@?$AA?5?$AA?5?$AAR?$AAe?$AAa?$AAd?$AA?5?$AAC?$AAo?$AAm?$AAp?$AAl?$AAe?$AAt?$AAi@ 0000000000074450     UefiShellDebug1CommandsLib:Pci.obj
 0002:0000d9c0       ??_C@_1HO@KENJMJBG@?$AA?5?$AA?5?$AAL?$AAi?$AAn?$AAk?$AA?5?$AAD?$AAi?$AAs?$AAa?$AAb?$AAl?$AAe?$AA?$CI@ 00000000000744e0     UefiShellDebug1CommandsLib:Pci.obj
 0002:0000da40       ??_C@_1HO@EOPOHPHO@?$AA?5?$AA?5?$AAC?$AAo?$AAm?$AAm?$AAo?$AAn?$AA?5?$AAC?$AAl?$AAo?$AAc?$AAk?$AA?5@ 0000000000074560     UefiShellDebug1CommandsLib:Pci.obj
 0002:0000dac0       ??_C@_1HO@PCFCBCBK@?$AA?5?$AA?5?$AAE?$AAx?$AAt?$AAe?$AAn?$AAd?$AAe?$AAd?$AA?5?$AAS?$AAy?$AAn?$AAc@ 00000000000745e0     UefiShellDebug1CommandsLib:Pci.obj
 0002:0000db40       ??_C@_1HO@ONMDCMJB@?$AA?5?$AA?5?$AAE?$AAn?$AAa?$AAb?$AAl?$AAe?$AA?5?$AAC?$AAl?$AAo?$AAc?$AAk?$AA?5@ 0000000000074660     UefiShellDebug1CommandsLib:Pci.obj
 0002:0000dbc0       ??_C@_1HO@KLHLOFFG@?$AA?5?$AA?5?$AAH?$AAa?$AAr?$AAd?$AAw?$AAa?$AAr?$AAe?$AA?5?$AAA?$AAu?$AAt?$AAo@ 00000000000746e0     UefiShellDebug1CommandsLib:Pci.obj
 0002:0000dc40       ??_C@_1HO@OLNOLBIG@?$AA?5?$AA?5?$AAL?$AAi?$AAn?$AAk?$AA?5?$AAB?$AAa?$AAn?$AAd?$AAw?$AAi?$AAd?$AAt@ 0000000000074760     UefiShellDebug1CommandsLib:Pci.obj
 0002:0000dcc0       ??_C@_1HO@CKJDBHKB@?$AA?5?$AA?5?$AAL?$AAi?$AAn?$AAk?$AA?5?$AAA?$AAu?$AAt?$AAo?$AAn?$AAo?$AAm?$AAo@ 00000000000747e0     UefiShellDebug1CommandsLib:Pci.obj
 0002:0000dd40       ??_C@_1HO@FACFEDDH@?$AA?5?$AA?5?$AAC?$AAu?$AAr?$AAr?$AAe?$AAn?$AAt?$AA?5?$AAL?$AAi?$AAn?$AAk?$AA?5@ 0000000000074860     UefiShellDebug1CommandsLib:Pci.obj
 0002:0000ddc0       ??_C@_1IA@FLJDNCHJ@?$AA?5?$AA?5?$AAN?$AAe?$AAg?$AAo?$AAt?$AAi?$AAa?$AAt?$AAe?$AAd?$AA?5?$AAL?$AAi@ 00000000000748e0     UefiShellDebug1CommandsLib:Pci.obj
 0002:0000de40       ??_C@_1HO@GEMKBANG@?$AA?5?$AA?5?$AAL?$AAi?$AAn?$AAk?$AA?5?$AAT?$AAr?$AAa?$AAi?$AAn?$AAi?$AAn?$AAg@ 0000000000074960     UefiShellDebug1CommandsLib:Pci.obj
 0002:0000dec0       ??_C@_1HO@EJKKKOMM@?$AA?5?$AA?5?$AAS?$AAl?$AAo?$AAt?$AA?5?$AAC?$AAl?$AAo?$AAc?$AAk?$AA?5?$AAC?$AAo@ 00000000000749e0     UefiShellDebug1CommandsLib:Pci.obj
 0002:0000df40       ??_C@_1HO@OCIHIJDB@?$AA?5?$AA?5?$AAD?$AAa?$AAt?$AAa?$AA?5?$AAL?$AAi?$AAn?$AAk?$AA?5?$AAL?$AAa?$AAy@ 0000000000074a60     UefiShellDebug1CommandsLib:Pci.obj
 0002:0000dfc0       ??_C@_1HO@GNJLEODF@?$AA?5?$AA?5?$AAL?$AAi?$AAn?$AAk?$AA?5?$AAB?$AAa?$AAn?$AAd?$AAw?$AAi?$AAd?$AAt@ 0000000000074ae0     UefiShellDebug1CommandsLib:Pci.obj
 0002:0000e040       ??_C@_1HO@IJPBBAJC@?$AA?5?$AA?5?$AAL?$AAi?$AAn?$AAk?$AA?5?$AAA?$AAu?$AAt?$AAo?$AAn?$AAo?$AAm?$AAo@ 0000000000074b60     UefiShellDebug1CommandsLib:Pci.obj
 0002:0000e0c0       ??_C@_1HO@JJFLBGML@?$AA?5?$AA?5?$AAA?$AAt?$AAt?$AAe?$AAn?$AAt?$AAi?$AAo?$AAn?$AA?5?$AAB?$AAu?$AAt@ 0000000000074be0     UefiShellDebug1CommandsLib:Pci.obj
 0002:0000e140       ??_C@_1HO@IEGGKKNI@?$AA?5?$AA?5?$AAP?$AAo?$AAw?$AAe?$AAr?$AA?5?$AAC?$AAo?$AAn?$AAt?$AAr?$AAo?$AAl@ 0000000000074c60     UefiShellDebug1CommandsLib:Pci.obj
 0002:0000e1c0       ??_C@_1HO@JLADNJFD@?$AA?5?$AA?5?$AAM?$AAR?$AAL?$AA?5?$AAS?$AAe?$AAn?$AAs?$AAo?$AAr?$AA?5?$AAP?$AAr@ 0000000000074ce0     UefiShellDebug1CommandsLib:Pci.obj
 0002:0000e240       ??_C@_1HO@DIFAEIHC@?$AA?5?$AA?5?$AAA?$AAt?$AAt?$AAe?$AAn?$AAt?$AAi?$AAo?$AAn?$AA?5?$AAI?$AAn?$AAd@ 0000000000074d60     UefiShellDebug1CommandsLib:Pci.obj
 0002:0000e2c0       ??_C@_1HO@BCFFALPG@?$AA?5?$AA?5?$AAP?$AAo?$AAw?$AAe?$AAr?$AA?5?$AAI?$AAn?$AAd?$AAi?$AAc?$AAa?$AAt@ 0000000000074de0     UefiShellDebug1CommandsLib:Pci.obj
 0002:0000e340       ??_C@_1HO@MCHNEOFL@?$AA?5?$AA?5?$AAH?$AAo?$AAt?$AA?9?$AAP?$AAl?$AAu?$AAg?$AA?5?$AAS?$AAu?$AAr?$AAp@ 0000000000074e60     UefiShellDebug1CommandsLib:Pci.obj
 0002:0000e3c0       ??_C@_1HO@GGDJFIAL@?$AA?5?$AA?5?$AAH?$AAo?$AAt?$AA?9?$AAP?$AAl?$AAu?$AAg?$AA?5?$AAC?$AAa?$AAp?$AAa@ 0000000000074ee0     UefiShellDebug1CommandsLib:Pci.obj
 0002:0000e440       ??_C@_1IG@ELHKLOAO@?$AA?5?$AA?5?$AAS?$AAl?$AAo?$AAt?$AA?5?$AAP?$AAo?$AAw?$AAe?$AAr?$AA?5?$AAL?$AAi@ 0000000000074f60     UefiShellDebug1CommandsLib:Pci.obj
 0002:0000e4d0       ??_C@_1HO@POKCLING@?$AA?5?$AA?5?$AAS?$AAl?$AAo?$AAt?$AA?5?$AAP?$AAo?$AAw?$AAe?$AAr?$AA?5?$AAL?$AAi@ 0000000000074ff0     UefiShellDebug1CommandsLib:Pci.obj
 0002:0000e550       ??_C@_1HO@LPCJLOLK@?$AA?5?$AA?5?$AAE?$AAl?$AAe?$AAc?$AAt?$AAr?$AAo?$AAm?$AAe?$AAc?$AAh?$AAa?$AAn@ 0000000000075070     UefiShellDebug1CommandsLib:Pci.obj
 0002:0000e5d0       ??_C@_1HO@CHMPHHCK@?$AA?5?$AA?5?$AAN?$AAo?$AA?5?$AAC?$AAo?$AAm?$AAm?$AAa?$AAn?$AAd?$AA?5?$AAC?$AAo@ 00000000000750f0     UefiShellDebug1CommandsLib:Pci.obj
 0002:0000e650       ??_C@_1HO@FFMFLOGE@?$AA?5?$AA?5?$AAP?$AAh?$AAy?$AAs?$AAi?$AAc?$AAa?$AAl?$AA?5?$AAS?$AAl?$AAo?$AAt@ 0000000000075170     UefiShellDebug1CommandsLib:Pci.obj
 0002:0000e6d0       ??_C@_1HO@CHENGLMM@?$AA?5?$AA?5?$AAA?$AAt?$AAt?$AAe?$AAn?$AAt?$AAi?$AAo?$AAn?$AA?5?$AAB?$AAu?$AAt@ 00000000000751f0     UefiShellDebug1CommandsLib:Pci.obj
 0002:0000e750       ??_C@_1HO@IMMNLBNA@?$AA?5?$AA?5?$AAP?$AAo?$AAw?$AAe?$AAr?$AA?5?$AAF?$AAa?$AAu?$AAl?$AAt?$AA?5?$AAD@ 0000000000075270     UefiShellDebug1CommandsLib:Pci.obj
 0002:0000e7d0       ??_C@_1HO@OOACDIEJ@?$AA?5?$AA?5?$AAM?$AAR?$AAL?$AA?5?$AAS?$AAe?$AAn?$AAs?$AAo?$AAr?$AA?5?$AAC?$AAh@ 00000000000752f0     UefiShellDebug1CommandsLib:Pci.obj
 0002:0000e850       ??_C@_1HO@NFCLABLC@?$AA?5?$AA?5?$AAP?$AAr?$AAe?$AAs?$AAe?$AAn?$AAc?$AAe?$AA?5?$AAD?$AAe?$AAt?$AAe@ 0000000000075370     UefiShellDebug1CommandsLib:Pci.obj
 0002:0000e8d0       ??_C@_1HO@CBGCGHCH@?$AA?5?$AA?5?$AAC?$AAo?$AAm?$AAm?$AAa?$AAn?$AAd?$AA?5?$AAC?$AAo?$AAm?$AAp?$AAl@ 00000000000753f0     UefiShellDebug1CommandsLib:Pci.obj
 0002:0000e950       ??_C@_1HO@OFHDEMPC@?$AA?5?$AA?5?$AAH?$AAo?$AAt?$AA?9?$AAP?$AAl?$AAu?$AAg?$AA?5?$AAI?$AAn?$AAt?$AAe@ 0000000000075470     UefiShellDebug1CommandsLib:Pci.obj
 0002:0000e9d0       ??_C@_1HO@CBADMLH@?$AA?5?$AA?5?$AAA?$AAt?$AAt?$AAe?$AAn?$AAt?$AAi?$AAo?$AAn?$AA?5?$AAI?$AAn?$AAd@ 00000000000754f0     UefiShellDebug1CommandsLib:Pci.obj
 0002:0000ea50       ??_C@_1HO@LPIMLJDE@?$AA?5?$AA?5?$AAP?$AAo?$AAw?$AAe?$AAr?$AA?5?$AAI?$AAn?$AAd?$AAi?$AAc?$AAa?$AAt@ 0000000000075570     UefiShellDebug1CommandsLib:Pci.obj
 0002:0000ead0       ??_C@_1HO@LKCCCMED@?$AA?5?$AA?5?$AAP?$AAo?$AAw?$AAe?$AAr?$AA?5?$AAC?$AAo?$AAn?$AAt?$AAr?$AAo?$AAl@ 00000000000755f0     UefiShellDebug1CommandsLib:Pci.obj
 0002:0000eb50       ??_C@_1BA@EGOAMDOM@?$AAO?$AAf?$AAf?$AA?$CF?$AAN?$AA?$AN?$AA?6@ 0000000000075670     UefiShellDebug1CommandsLib:Pci.obj
 0002:0000eb60       ??_C@_1O@LOEKJBNI@?$AAO?$AAn?$AA?$CF?$AAN?$AA?$AN?$AA?6@ 0000000000075680     UefiShellDebug1CommandsLib:Pci.obj
 0002:0000eb70       ??_C@_1HO@LFHFGPOF@?$AA?5?$AA?5?$AAE?$AAl?$AAe?$AAc?$AAt?$AAr?$AAo?$AAm?$AAe?$AAc?$AAh?$AAa?$AAn@ 0000000000075690     UefiShellDebug1CommandsLib:Pci.obj
 0002:0000ebf0       ??_C@_1HO@PLMJPIOI@?$AA?5?$AA?5?$AAD?$AAa?$AAt?$AAa?$AA?5?$AAL?$AAi?$AAn?$AAk?$AA?5?$AAL?$AAa?$AAy@ 0000000000075710     UefiShellDebug1CommandsLib:Pci.obj
 0002:0000ec70       ??_C@_1GE@ODBNHABI@?$AA?5?$AA?5?$AAA?$AAt?$AAt?$AAe?$AAn?$AAt?$AAi?$AAo?$AAn?$AA?5?$AAB?$AAu?$AAt@ 0000000000075790     UefiShellDebug1CommandsLib:Pci.obj
 0002:0000ece0       ??_C@_1GE@DDHGKGBN@?$AA?5?$AA?5?$AAP?$AAo?$AAw?$AAe?$AAr?$AA?5?$AAF?$AAa?$AAu?$AAl?$AAt?$AA?5?$AAD@ 0000000000075800     UefiShellDebug1CommandsLib:Pci.obj
 0002:0000ed50       ??_C@_1GE@MLGNJMHN@?$AA?5?$AA?5?$AAM?$AAR?$AAL?$AA?5?$AAS?$AAe?$AAn?$AAs?$AAo?$AAr?$AA?5?$AAC?$AAh@ 0000000000075870     UefiShellDebug1CommandsLib:Pci.obj
 0002:0000edc0       ??_C@_1GE@EJGOJMEO@?$AA?5?$AA?5?$AAP?$AAr?$AAe?$AAs?$AAe?$AAn?$AAc?$AAe?$AA?5?$AAD?$AAe?$AAt?$AAe@ 00000000000758e0     UefiShellDebug1CommandsLib:Pci.obj
 0002:0000ee30       ??_C@_1GE@MAOPPEGL@?$AA?5?$AA?5?$AAC?$AAo?$AAm?$AAm?$AAa?$AAn?$AAd?$AA?5?$AAC?$AAo?$AAm?$AAp?$AAl@ 0000000000075950     UefiShellDebug1CommandsLib:Pci.obj
 0002:0000eea0       ??_C@_1GA@PBCKMNIP@?$AA?5?$AA?5?$AAM?$AAR?$AAL?$AA?5?$AAS?$AAe?$AAn?$AAs?$AAo?$AAr?$AA?5?$AAS?$AAt@ 00000000000759c0     UefiShellDebug1CommandsLib:Pci.obj
 0002:0000ef00       ??_C@_1BI@EGGCEED@?$AA?5?$AAO?$AAp?$AAe?$AAn?$AAe?$AAd?$AA?$CF?$AAN?$AA?$AN?$AA?6@ 0000000000075a20     UefiShellDebug1CommandsLib:Pci.obj
 0002:0000ef18       ??_C@_1BI@CPJMLOMF@?$AA?5?$AAC?$AAl?$AAo?$AAs?$AAe?$AAd?$AA?$CF?$AAN?$AA?$AN?$AA?6@ 0000000000075a38     UefiShellDebug1CommandsLib:Pci.obj
 0002:0000ef30       ??_C@_1FE@IDHMEKEC@?$AA?5?$AA?5?$AAP?$AAr?$AAe?$AAs?$AAe?$AAn?$AAc?$AAe?$AA?5?$AAD?$AAe?$AAt?$AAe@ 0000000000075a50     UefiShellDebug1CommandsLib:Pci.obj
 0002:0000ef88       ??_C@_1DG@HDMNCNJO@?$AA?$CF?$AAE?$AAC?$AAa?$AAr?$AAd?$AA?5?$AAP?$AAr?$AAe?$AAs?$AAe?$AAn?$AAt?$AA?5@ 0000000000075aa8     UefiShellDebug1CommandsLib:Pci.obj
 0002:0000efc0       ??_C@_1CC@JDGBFIHB@?$AA?$CF?$AAE?$AAS?$AAl?$AAo?$AAt?$AA?5?$AAE?$AAm?$AAp?$AAt?$AAy?$AA?$CF?$AAN?$AA?$AN@ 0000000000075ae0     UefiShellDebug1CommandsLib:Pci.obj
 0002:0000eff0       ??_C@_1JA@FGMPOLDD@?$AA?5?$AA?5?$AAE?$AAl?$AAe?$AAc?$AAt?$AAr?$AAo?$AAm?$AAe?$AAc?$AAh?$AAa?$AAn@ 0000000000075b10     UefiShellDebug1CommandsLib:Pci.obj
 0002:0000f080       ??_C@_1BI@HMKJPJJJ@?$AAE?$AAn?$AAg?$AAa?$AAg?$AAe?$AAd?$AA?$CF?$AAN?$AA?$AN?$AA?6@ 0000000000075ba0     UefiShellDebug1CommandsLib:Pci.obj
 0002:0000f098       ??_C@_1BO@IMCIBJBI@?$AAD?$AAi?$AAs?$AAe?$AAn?$AAg?$AAa?$AAg?$AAe?$AAd?$AA?$CF?$AAN?$AA?$AN?$AA?6@ 0000000000075bb8     UefiShellDebug1CommandsLib:Pci.obj
 0002:0000f0c0       ??_C@_1GE@IGGKHOAG@?$AA?5?$AA?5?$AAD?$AAa?$AAt?$AAa?$AA?5?$AAL?$AAi?$AAn?$AAk?$AA?5?$AAL?$AAa?$AAy@ 0000000000075be0     UefiShellDebug1CommandsLib:Pci.obj
 0002:0000f130       ??_C@_1HC@JBPDHMHJ@?$AA?5?$AA?5?$AAS?$AAy?$AAs?$AAt?$AAe?$AAm?$AA?5?$AAE?$AAr?$AAr?$AAo?$AAr?$AA?5@ 0000000000075c50     UefiShellDebug1CommandsLib:Pci.obj
 0002:0000f1b0       ??_C@_1HC@JLDOKAK@?$AA?5?$AA?5?$AAS?$AAy?$AAs?$AAt?$AAe?$AAm?$AA?5?$AAE?$AAr?$AAr?$AAo?$AAr?$AA?5@ 0000000000075cd0     UefiShellDebug1CommandsLib:Pci.obj
 0002:0000f230       ??_C@_1HC@NCFIIDHK@?$AA?5?$AA?5?$AAS?$AAy?$AAs?$AAt?$AAe?$AAm?$AA?5?$AAE?$AAr?$AAr?$AAo?$AAr?$AA?5@ 0000000000075d50     UefiShellDebug1CommandsLib:Pci.obj
 0002:0000f2b0       ??_C@_1HC@PBPODCFJ@?$AA?5?$AA?5?$AAP?$AAM?$AAE?$AA?5?$AAI?$AAn?$AAt?$AAe?$AAr?$AAr?$AAu?$AAp?$AAt@ 0000000000075dd0     UefiShellDebug1CommandsLib:Pci.obj
 0002:0000f330       ??_C@_1HC@JCCDDEEI@?$AA?5?$AA?5?$AAC?$AAR?$AAS?$AA?5?$AAS?$AAo?$AAf?$AAt?$AAw?$AAa?$AAr?$AAe?$AA?5@ 0000000000075e50     UefiShellDebug1CommandsLib:Pci.obj
 0002:0000f3b0       ??_C@_1HC@OIKKOENE@?$AA?5?$AA?5?$AAC?$AAR?$AAS?$AA?5?$AAS?$AAo?$AAf?$AAt?$AAw?$AAa?$AAr?$AAe?$AA?5@ 0000000000075ed0     UefiShellDebug1CommandsLib:Pci.obj
 0002:0000f430       ??_C@_1HK@BNFJOPIN@?$AA?5?$AA?5?$AAP?$AAM?$AAE?$AA?5?$AAR?$AAe?$AAq?$AAu?$AAe?$AAs?$AAt?$AAe?$AAr@ 0000000000075f50     UefiShellDebug1CommandsLib:Pci.obj
 0002:0000f4b0       ??_C@_1HC@JILFODAC@?$AA?5?$AA?5?$AAP?$AAM?$AAE?$AA?5?$AAS?$AAt?$AAa?$AAt?$AAu?$AAs?$AA?$CI?$AA1?$AA6@ 0000000000075fd0     UefiShellDebug1CommandsLib:Pci.obj
 0002:0000f530       ??_C@_1HC@BBKGBKAD@?$AA?5?$AA?5?$AAP?$AAM?$AAE?$AA?5?$AAP?$AAe?$AAn?$AAd?$AAi?$AAn?$AAg?$AA?$CI?$AA1@ 0000000000076050     UefiShellDebug1CommandsLib:Pci.obj
 0002:0000f5b0       ??_C@_1JK@KBMBBAMM@?$AAU?$AAn?$AAk?$AAn?$AAo?$AAw?$AAn?$AA?5?$AAP?$AAC?$AAI?$AAe?$AA?5?$AAe?$AAx@ 00000000000760d0     UefiShellDebug1CommandsLib:Pci.obj
 0002:0000f650       ??_C@_1FK@DDPMPKMG@?$AA?$AN?$AA?6?$AAP?$AAc?$AAi?$AA?5?$AAE?$AAx?$AAp?$AAr?$AAe?$AAs?$AAs?$AA?5?$AAd@ 0000000000076170     UefiShellDebug1CommandsLib:Pci.obj
 0002:0000f6b0       SlotPwrLmtScaleTable       00000000000761d0     UefiShellDebug1CommandsLib:Pci.obj
 0002:0000f6d0       L1LatencyStrTable          00000000000761f0     UefiShellDebug1CommandsLib:Pci.obj
 0002:0000f710       L0sLatencyStrTable         0000000000076230     UefiShellDebug1CommandsLib:Pci.obj
 0002:0000f750       DevicePortTypeTable        0000000000076270     UefiShellDebug1CommandsLib:Pci.obj
 0002:0000f7f0       ASPMCtrlStrTable           0000000000076310     UefiShellDebug1CommandsLib:Pci.obj
 0002:0000f810       IndicatorTable             0000000000076330     UefiShellDebug1CommandsLib:Pci.obj
 0002:0000f830       ??_C@_0GG@HBGDLOMF@D?3?2uefi_specs_personal_collecti@ 0000000000076350     UefiShellDebug1CommandsLib:HexEdit.obj
 0002:0000f898       ??_C@_17PMBBFJPC@?$AAb?$AAi?$AAn@ 00000000000763b8     UefiShellDebug1CommandsLib:HexEdit.obj
 0002:0000f8e0       ??_C@_0FN@IEHELLNG@D?3?2uefi_specs_personal_collecti@ 0000000000076400     UefiShellDebug1CommandsLib:MemMap.obj
 0002:0000f940       ??_C@_0N@NCOLDFBP@Version?5?$DN?$DN?51@ 0000000000076460     UefiShellDebug1CommandsLib:MemMap.obj
 0002:0000fbd0       ??_C@_1FE@DLJCFBIL@?$AA?5?$AA?5?$AAB?$AAl?$AAo?$AAc?$AAk?$AAS?$AAi?$AAz?$AAe?$AA?3?$AA?5?$AA0?$AAx@ 00000000000766f0     UefiShellDebug1CommandsLib:Dblk.obj
 0002:0000fc28       ??_C@_1BA@LKDHDFCB@?$AAB?$AAl?$AAo?$AAc?$AAk?$AAI?$AAo@ 0000000000076748     UefiShellDebug1CommandsLib:Dblk.obj
 0002:0000fc40       ??_C@_0FL@LGJBLDAL@D?3?2uefi_specs_personal_collecti@ 0000000000076760     UefiShellDebug1CommandsLib:Dblk.obj
 0002:0000fca0       ??_C@_1BA@GHOECOCL@?$AAD?$AAe?$AAf?$AAa?$AAu?$AAl?$AAt@ 00000000000767c0     UefiShellDebug1CommandsLib:SerMode.obj
 0002:0000fcb0       ??_C@_13JGCMLPCH@?$AA1@    00000000000767d0     UefiShellDebug1CommandsLib:SerMode.obj
 0002:0000fcb4       ??_C@_13IEJJBAMJ@?$AA2@    00000000000767d4     UefiShellDebug1CommandsLib:SerMode.obj
 0002:0000fcb8       ??_C@_17CJOJBPKA@?$AA1?$AA?4?$AA5@ 00000000000767d8     UefiShellDebug1CommandsLib:SerMode.obj
 0002:0000fcc0       ??_C@_0FO@CGCFDIHP@D?3?2uefi_specs_personal_collecti@ 00000000000767e0     UefiShellDebug1CommandsLib:SerMode.obj
 0002:0000fd20       ??_C@_0GE@JDONOEEO@D?3?2uefi_specs_personal_collecti@ 0000000000076840     UefiShellDebug1CommandsLib:EfiDecompress.obj
 0002:0000fd88       ??_C@_0BK@PNCMJJKN@TempParam?5?$CB?$DN?5?$CI?$CIvoid?5?$CK?$CJ?50?$CJ@ 00000000000768a8     UefiShellDebug1CommandsLib:EfiDecompress.obj
 0002:0000fda8       ??_C@_0BK@KMBEJKOP@Temp64Bit?5?$DM?$DN?5?$CIUINT32?$CJ?$CI?91?$CJ@ 00000000000768c8     UefiShellDebug1CommandsLib:EfiDecompress.obj
 0002:0000fdd0       ??_C@_0GC@DOLDAHDB@D?3?2uefi_specs_personal_collecti@ 00000000000768f0     UefiShellDebug1CommandsLib:EfiCompress.obj
 0002:0000fe38       ??_C@_19HMENBLLE@?$AA?9?$AAm?$AAe?$AAm@ 0000000000076958     UefiShellDebug1CommandsLib:Mm.obj
 0002:0000fe48       ??_C@_17LEBAOONG@?$AA?9?$AAi?$AAo@ 0000000000076968     UefiShellDebug1CommandsLib:Mm.obj
 0002:0000fe50       ??_C@_19MCMIELAE@?$AA?9?$AAp?$AAc?$AAi@ 0000000000076970     UefiShellDebug1CommandsLib:Mm.obj
 0002:0000fe60       ??_C@_1M@IJJKJIOF@?$AA?9?$AAp?$AAc?$AAi?$AAe@ 0000000000076980     UefiShellDebug1CommandsLib:Mm.obj
 0002:0000fe70       ??_C@_0CA@PIKCEAPG@PciRootBridgeIo?5?$CB?$DN?5?$CI?$CIvoid?5?$CK?$CJ?50?$CJ@ 0000000000076990     UefiShellDebug1CommandsLib:Mm.obj
 0002:0000fe90       ??_C@_0FJ@MOADMOLJ@D?3?2uefi_specs_personal_collecti@ 00000000000769b0     UefiShellDebug1CommandsLib:Mm.obj
 0002:0000fef0       mShellMmAccessTypeStr      0000000000076a10     UefiShellDebug1CommandsLib:Mm.obj
 0002:0000ff00       mShellMmRootBridgeIoWidth  0000000000076a20     UefiShellDebug1CommandsLib:Mm.obj
 0002:0000ff00       mShellMmCpuIoWidth         0000000000076a20     UefiShellDebug1CommandsLib:Mm.obj
 0002:0000ff30       mShellMmMaxNumber          0000000000076a50     UefiShellDebug1CommandsLib:Mm.obj
 0002:00010000       ??_C@_1CA@EBDIENLF@?$AA?$CF?$AAs?$AA?3?$AA?5?$AA?$CF?$AAs?$AA?$AN?$AA?6?$AA?5?$AA?5?$AA?$CF?$AA0?$AA8?$AAx?$AA?3@ 0000000000076b20     UefiShellDebug1CommandsLib:Comp.obj
 0002:00010020       ??_C@_1M@FHJLFHFE@?$AA?5?$AA?$CF?$AA0?$AA2?$AAx@ 0000000000076b40     UefiShellDebug1CommandsLib:Comp.obj
 0002:00010030       ??_C@_1M@OCBDMJIC@?$AA?5?$AA?5?$AA?5?$AA?5?$AA?$CK@ 0000000000076b50     UefiShellDebug1CommandsLib:Comp.obj
 0002:00010040       ??_C@_17CBEIKNLC@?$AA?$CK?$AA?$AN?$AA?6@ 0000000000076b60     UefiShellDebug1CommandsLib:Comp.obj
 0002:00010050       ??_C@_0FL@HFNAGHHF@D?3?2uefi_specs_personal_collecti@ 0000000000076b70     UefiShellDebug1CommandsLib:Comp.obj
 0002:000100b0       ??_C@_17IIFKAHCJ@?$AAa?$AAl?$AAl@ 0000000000076bd0     UefiShellDebug1CommandsLib:Comp.obj
 0002:000100b8       ??_C@_1M@OBGMLAOD@?$AAF?$AAi?$AAl?$AAe?$AA1@ 0000000000076bd8     UefiShellDebug1CommandsLib:Comp.obj
 0002:000100c8       ??_C@_1M@PDNJBPAN@?$AAF?$AAi?$AAl?$AAe?$AA2@ 0000000000076be8     UefiShellDebug1CommandsLib:Comp.obj
 0002:00010110       ??_C@_0GM@GPIJNBEK@D?3?2uefi_specs_personal_collecti@ 0000000000076c30     UefiShellDebug1CommandsLib:SmbiosView.obj
 0002:0001017c       ??_C@_04BPEHKPLM@_SM_@     0000000000076c9c     UefiShellDebug1CommandsLib:SmbiosView.obj
 0002:00010190       ??_C@_1HG@KNFKCNDJ@?$AA?$DN?$AA?$DN?$AA?$DN?$AA?$DN?$AA?$DN?$AA?$DN?$AA?$DN?$AA?$DN?$AA?$DN?$AA?$DN?$AA?$DN?$AA?$DN?$AA?$DN?$AA?$DN?$AA?$DN@ 0000000000076cb0     UefiShellDebug1CommandsLib:SmbiosView.obj
 0002:00010208       ??_C@_15IABLJNFO@?$AA?6?$AA?6@ 0000000000076d28     UefiShellDebug1CommandsLib:SmbiosView.obj
 0002:00010210       ??_C@_1HI@EMMFGAEE@?$AA?6?$AA?$DN?$AA?$DN?$AA?$DN?$AA?$DN?$AA?$DN?$AA?$DN?$AA?$DN?$AA?$DN?$AA?$DN?$AA?$DN?$AA?$DN?$AA?$DN?$AA?$DN?$AA?$DN@ 0000000000076d30     UefiShellDebug1CommandsLib:SmbiosView.obj
 0002:00010288       ??_C@_05LOCGMLNH@_SM3_@    0000000000076da8     UefiShellDebug1CommandsLib:SmbiosView.obj
 0002:00010290       ??_C@_1HO@HGFGHOFN@?$AA?6?$AA?$DN?$AA?$DN?$AA?$DN?$AA?$DN?$AA?$DN?$AA?$DN?$AA?$DN?$AA?$DN?$AA?$DN?$AA?$DN?$AA?$DN?$AA?$DN?$AA?$DN?$AA?$DN@ 0000000000076db0     UefiShellDebug1CommandsLib:SmbiosView.obj
 0002:00010310       ??_C@_1HM@CMIKLHNP@?$AA?$DN?$AA?$DN?$AA?$DN?$AA?$DN?$AA?$DN?$AA?$DN?$AA?$DN?$AA?$DN?$AA?$DN?$AA?$DN?$AA?$DN?$AA?$DN?$AA?$DN?$AA?$DN?$AA?$DN@ 0000000000076e30     UefiShellDebug1CommandsLib:SmbiosView.obj
 0002:00010390       ??_C@_1BE@GCIKONEG@?$AAS?$AAH?$AAO?$AAW?$AA_?$AAN?$AAO?$AAN?$AAE@ 0000000000076eb0     UefiShellDebug1CommandsLib:SmbiosView.obj
 0002:000103a8       ??_C@_1BK@GPGPOAOK@?$AAS?$AAH?$AAO?$AAW?$AA_?$AAO?$AAU?$AAT?$AAL?$AAI?$AAN?$AAE@ 0000000000076ec8     UefiShellDebug1CommandsLib:SmbiosView.obj
 0002:000103c8       ??_C@_1BI@IGCEHADI@?$AAS?$AAH?$AAO?$AAW?$AA_?$AAN?$AAO?$AAR?$AAM?$AAA?$AAL@ 0000000000076ee8     UefiShellDebug1CommandsLib:SmbiosView.obj
 0002:000103e0       ??_C@_1BI@IMGKFKH@?$AAS?$AAH?$AAO?$AAW?$AA_?$AAD?$AAE?$AAT?$AAA?$AAI?$AAL@ 0000000000076f00     UefiShellDebug1CommandsLib:SmbiosView.obj
 0002:000103f8       ??_C@_1BC@OAJPGKLN@?$AAS?$AAH?$AAO?$AAW?$AA_?$AAA?$AAL?$AAL@ 0000000000076f18     UefiShellDebug1CommandsLib:SmbiosView.obj
 0002:00010410       ??_C@_1BO@MEBFNKNC@?$AAU?$AAn?$AAd?$AAe?$AAf?$AAi?$AAn?$AAe?$AAd?$AA?5?$AAt?$AAy?$AAp?$AAe@ 0000000000076f30     UefiShellDebug1CommandsLib:SmbiosView.obj
 0002:00010480       ??_C@_0GB@MOJIGGCM@D?3?2uefi_specs_personal_collecti@ 0000000000076fa0     UefiShellDebug1CommandsLib:LoadPciRom.obj
 0002:000104e8       ??_C@_0L@FFCHGHLE@loadpcirom@ 0000000000077008     UefiShellDebug1CommandsLib:LoadPciRom.obj
 0002:000104f8       ??_C@_1O@GODHEIDH@?$AA?$CF?$AAs?$AA?$FL?$AA?$CF?$AAd?$AA?$FN@ 0000000000077018     UefiShellDebug1CommandsLib:LoadPciRom.obj
 0002:00010530       ??_C@_0FO@NOCCBMJF@D?3?2uefi_specs_personal_collecti@ 0000000000077050     UefiShellDebug1CommandsLib:SetSize.obj
 0002:00010590       ??_C@_17OFPFGFPE@?$AA?$CL?$AAN?$AAV@ 00000000000770b0     UefiShellDebug1CommandsLib:DmpStore.obj
 0002:00010598       ??_C@_1O@PDJDFCIH@?$AA?$CL?$AAR?$AAT?$AA?$CL?$AAB?$AAS@ 00000000000770b8     UefiShellDebug1CommandsLib:DmpStore.obj
 0002:000105a8       ??_C@_17KFOJFFLN@?$AA?$CL?$AAB?$AAS@ 00000000000770c8     UefiShellDebug1CommandsLib:DmpStore.obj
 0002:000105b0       ??_C@_17LMMOBBLO@?$AA?$CL?$AAH?$AAR@ 00000000000770d0     UefiShellDebug1CommandsLib:DmpStore.obj
 0002:000105b8       ??_C@_17KMBPLAEE@?$AA?$CL?$AAA?$AAW@ 00000000000770d8     UefiShellDebug1CommandsLib:DmpStore.obj
 0002:000105c0       ??_C@_17LOKKBPKK@?$AA?$CL?$AAA?$AAT@ 00000000000770e0     UefiShellDebug1CommandsLib:DmpStore.obj
 0002:000105c8       ??_C@_1BA@EOKOFGEP@?$AAI?$AAn?$AAv?$AAa?$AAl?$AAi?$AAd@ 00000000000770e8     UefiShellDebug1CommandsLib:DmpStore.obj
 0002:000105e0       ??_C@_0FP@LEBIFJBI@D?3?2uefi_specs_personal_collecti@ 0000000000077100     UefiShellDebug1CommandsLib:DmpStore.obj
 0002:00010640       ??_C@_19LEFBDIFG@?$AA?9?$AAa?$AAl?$AAl@ 0000000000077160     UefiShellDebug1CommandsLib:DmpStore.obj
 0002:00010650       ??_C@_1M@EOIAFNLN@?$AA?9?$AAg?$AAu?$AAi?$AAd@ 0000000000077170     UefiShellDebug1CommandsLib:DmpStore.obj
 0002:00010660       ??_C@_1BC@PGLKLMOO@?$AA?9?$AAl?$AA?5?$AAo?$AAr?$AA?5?$AA?9?$AAs@ 0000000000077180     UefiShellDebug1CommandsLib:DmpStore.obj
 0002:000106f0       ??_C@_17MEBIPGDC@?$AA?9?$AAb?$AAs@ 0000000000077210     UefiShellDebug1CommandsLib:SetVar.obj
 0002:000106f8       ??_C@_17FKBJMMBA@?$AA?9?$AAr?$AAt@ 0000000000077218     UefiShellDebug1CommandsLib:SetVar.obj
 0002:00010700       ??_C@_17IEAEMGHL@?$AA?9?$AAn?$AAv@ 0000000000077220     UefiShellDebug1CommandsLib:SetVar.obj
 0002:00010708       ??_C@_15KHFHDPFH@?$AA?9?$AA?9@ 0000000000077228     UefiShellDebug1CommandsLib:SetVar.obj
 0002:00010710       ??_C@_02DKCKIIND@?$CFs@    0000000000077230     UefiShellDebug1CommandsLib:SetVar.obj
 0002:00010718       ??_C@_0BJ@BGGCNBNB@TempData?5?$CB?$DN?5?$CI?$CIvoid?5?$CK?$CJ?50?$CJ@ 0000000000077238     UefiShellDebug1CommandsLib:SetVar.obj
 0002:00010740       ??_C@_0FN@NBCIMBPL@D?3?2uefi_specs_personal_collecti@ 0000000000077260     UefiShellDebug1CommandsLib:SetVar.obj
 0002:000107a0       ??_C@_1M@OMOAGDNC@?$AA?$CF?$AA0?$AA2?$AAx?$AA?5@ 00000000000772c0     UefiShellDebug1CommandsLib:SetVar.obj
 0002:00010800       ??_C@_0GA@NBIGNCK@D?3?2uefi_specs_personal_collecti@ 0000000000077320     UefiShellDebug1CommandsLib:Edit.obj
 0002:00010860       ??_C@_0FL@EPDINJPE@D?3?2uefi_specs_personal_collecti@ 0000000000077380     UefiShellDebug1CommandsLib:Mode.obj
 0002:000108c0       ??_C@_1O@GIECLFAB@?$AA?$CF?$AAE?$AA?$CF?$AAs?$AA?$CF?$AAN@ 00000000000773e0     UefiShellDebug1CommandsLib:MainHexEditor.obj
 0002:000108d0       ??_C@_1BO@CAEDEPBC@?$AAG?$AAo?$AA?5?$AAT?$AAo?$AA?5?$AAO?$AAf?$AAf?$AAs?$AAe?$AAt?$AA?3?$AA?5@ 00000000000773f0     UefiShellDebug1CommandsLib:MainHexEditor.obj
 0002:000108f0       ??_C@_1BO@COIEEELA@?$AAI?$AAn?$AAv?$AAa?$AAl?$AAi?$AAd?$AA?5?$AAO?$AAf?$AAf?$AAs?$AAe?$AAt@ 0000000000077410     UefiShellDebug1CommandsLib:MainHexEditor.obj
 0002:00010910       ??_C@_1HG@FPDDGJIB@?$AAD?$AAa?$AAn?$AAg?$AAe?$AAr?$AAo?$AAu?$AAs?$AA?5?$AAt?$AAo?$AA?5?$AAs?$AAa@ 0000000000077430     UefiShellDebug1CommandsLib:MainHexEditor.obj
 0002:00010988       ??_C@_1DK@LMKJFHLE@?$AAB?$AAu?$AAf?$AAf?$AAe?$AAr?$AAS?$AAa?$AAv?$AAe?$AA?3?$AA?5?$AAP?$AAr?$AAo@ 00000000000774a8     UefiShellDebug1CommandsLib:MainHexEditor.obj
 0002:000109c8       ??_C@_1CG@NJHNCLOJ@?$AAF?$AAi?$AAl?$AAe?$AA?5?$AAt?$AAo?$AA?5?$AAS?$AAa?$AAv?$AAe?$AA?3?$AA?5?$AA?$FL@ 00000000000774e8     UefiShellDebug1CommandsLib:MainHexEditor.obj
 0002:000109f0       ??_C@_1CE@PAJDEKJB@?$AAI?$AAn?$AAv?$AAa?$AAl?$AAi?$AAd?$AA?5?$AAF?$AAi?$AAl?$AAe?$AA?5?$AAN?$AAa@ 0000000000077510     UefiShellDebug1CommandsLib:MainHexEditor.obj
 0002:00010a18       ??_C@_1BM@HDPINFLL@?$AAA?$AAc?$AAc?$AAe?$AAs?$AAs?$AA?5?$AAD?$AAe?$AAn?$AAi?$AAe?$AAd@ 0000000000077538     UefiShellDebug1CommandsLib:MainHexEditor.obj
 0002:00010a40       ??_C@_1FE@GJKODLCN@?$AAF?$AAi?$AAl?$AAe?$AA?5?$AAe?$AAx?$AAi?$AAs?$AAt?$AAs?$AA?4?$AA?5?$AAO?$AAv@ 0000000000077560     UefiShellDebug1CommandsLib:MainHexEditor.obj
 0002:00010a98       ??_C@_1CI@CKMNKNGO@?$AAI?$AAn?$AAv?$AAa?$AAl?$AAi?$AAd?$AA?5?$AAB?$AAl?$AAo?$AAc?$AAk?$AA?5?$AAS@ 00000000000775b8     UefiShellDebug1CommandsLib:MainHexEditor.obj
 0002:00010ac0       ??_C@_1CE@EGEFGBDB@?$AAI?$AAn?$AAv?$AAa?$AAl?$AAi?$AAd?$AA?5?$AAB?$AAl?$AAo?$AAc?$AAk?$AA?5?$AAE@ 00000000000775e0     UefiShellDebug1CommandsLib:MainHexEditor.obj
 0002:00010ae8       ??_C@_1CK@NPEDAFHE@?$AAN?$AAo?$AA?5?$AAB?$AAl?$AAo?$AAc?$AAk?$AA?5?$AAi?$AAs?$AA?5?$AAS?$AAe?$AAl@ 0000000000077608     UefiShellDebug1CommandsLib:MainHexEditor.obj
 0002:00010b18       ??_C@_1CC@EMEHDNOH@?$AAN?$AAo?$AAt?$AAh?$AAi?$AAn?$AAg?$AA?5?$AAt?$AAo?$AA?5?$AAP?$AAa?$AAs?$AAt@ 0000000000077638     UefiShellDebug1CommandsLib:MainHexEditor.obj
 0002:00010b40       ??_C@_1FC@OIPNEKNP@?$AAB?$AAu?$AAf?$AAf?$AAe?$AAr?$AA?5?$AAm?$AAo?$AAd?$AAi?$AAf?$AAi?$AAe?$AAd@ 0000000000077660     UefiShellDebug1CommandsLib:MainHexEditor.obj
 0002:00010b98       ??_C@_1CI@PPPODMPB@?$AAF?$AAi?$AAl?$AAe?$AA?5?$AAN?$AAa?$AAm?$AAe?$AA?5?$AAt?$AAo?$AA?5?$AAO?$AAp@ 00000000000776b8     UefiShellDebug1CommandsLib:MainHexEditor.obj
 0002:00010bc0       ??_C@_1CO@DPNHKEEI@?$AAB?$AAl?$AAo?$AAc?$AAk?$AA?5?$AAD?$AAe?$AAv?$AAi?$AAc?$AAe?$AA?5?$AAt?$AAo@ 00000000000776e0     UefiShellDebug1CommandsLib:MainHexEditor.obj
 0002:00010bf0       ??_C@_1CE@LPNEOONB@?$AAF?$AAi?$AAr?$AAs?$AAt?$AA?5?$AAB?$AAl?$AAo?$AAc?$AAk?$AA?5?$AAN?$AAo?$AA?4@ 0000000000077710     UefiShellDebug1CommandsLib:MainHexEditor.obj
 0002:00010c18       ??_C@_1CG@DGHIFMFN@?$AAN?$AAu?$AAm?$AAb?$AAe?$AAr?$AA?5?$AAo?$AAf?$AA?5?$AAB?$AAl?$AAo?$AAc?$AAk@ 0000000000077738     UefiShellDebug1CommandsLib:MainHexEditor.obj
 0002:00010c40       ??_C@_1CE@CFGOJKIA@?$AAS?$AAt?$AAa?$AAr?$AAt?$AAi?$AAn?$AAg?$AA?5?$AAO?$AAf?$AAf?$AAs?$AAe?$AAt@ 0000000000077760     UefiShellDebug1CommandsLib:MainHexEditor.obj
 0002:00010c68       ??_C@_1BM@CIHHBIME@?$AAB?$AAu?$AAf?$AAf?$AAe?$AAr?$AA?5?$AAS?$AAi?$AAz?$AAe?$AA?3?$AA?5@ 0000000000077788     UefiShellDebug1CommandsLib:MainHexEditor.obj
 0002:00010c88       ??_C@_1CE@EKGFFJHF@?$AAI?$AAn?$AAv?$AAa?$AAl?$AAi?$AAd?$AA?5?$AAp?$AAa?$AAr?$AAa?$AAm?$AAe?$AAt@ 00000000000777a8     UefiShellDebug1CommandsLib:MainHexEditor.obj
 0002:00010cb0       ??_C@_1CG@CCBIICDO@?$AAR?$AAe?$AAa?$AAd?$AA?5?$AAD?$AAe?$AAv?$AAi?$AAc?$AAe?$AA?5?$AAE?$AAr?$AAr@ 00000000000777d0     UefiShellDebug1CommandsLib:MainHexEditor.obj
 0002:00010cd8       ??_C@_1BK@OCMNPPO@?$AAU?$AAE?$AAF?$AAI?$AA?5?$AAH?$AAE?$AAX?$AAE?$AAD?$AAI?$AAT@ 00000000000777f8     UefiShellDebug1CommandsLib:MainHexEditor.obj
 0002:00010d00       ??_C@_0GM@DMHJJNHF@D?3?2uefi_specs_personal_collecti@ 0000000000077820     UefiShellDebug1CommandsLib:MainHexEditor.obj
 0002:00010d70       ??_C@_1DA@GGLHBKOP@?$AAI?$AAn?$AAv?$AAa?$AAl?$AAi?$AAd?$AA?5?$AAM?$AAo?$AAu?$AAs?$AAe?$AA?5?$AAM@ 0000000000077890     UefiShellDebug1CommandsLib:MainHexEditor.obj
 0002:00010da0       ??_C@_1CA@DIEHGKLA@?$AAU?$AAn?$AAk?$AAn?$AAo?$AAw?$AAn?$AA?5?$AAC?$AAo?$AAm?$AAm?$AAa?$AAn?$AAd@ 00000000000778c0     UefiShellDebug1CommandsLib:MainHexEditor.obj
 0002:00010dc0       ??_C@_1CM@BMOMFGJM@?$AAD?$AAi?$AAs?$AAk?$AA?5?$AAE?$AAr?$AAr?$AAo?$AAr?$AA?4?$AA?5?$AAT?$AAr?$AAy@ 00000000000778e0     UefiShellDebug1CommandsLib:MainHexEditor.obj
 0002:00010df0       ??_C@_1FK@DGMBPBDL@?$AAD?$AAi?$AAs?$AAk?$AA?1?$AAM?$AAe?$AAm?$AA?5?$AAB?$AAu?$AAf?$AAf?$AAe?$AAr@ 0000000000077910     UefiShellDebug1CommandsLib:MainHexEditor.obj
 0002:00010e50       HexEditorMenuItems         0000000000077970     UefiShellDebug1CommandsLib:MainHexEditor.obj
 0002:00010f00       HexMainMenuHelpInfo        0000000000077a20     UefiShellDebug1CommandsLib:MainHexEditor.obj
 0002:00010f30       ??_C@_13NOLLCAOD@?$AA?$AA@ 0000000000077a50     UefiShellDebug1CommandsLib:EditStatusBar.obj
 0002:00010f38       ??_C@_1CA@EIJGJGPK@?$AA?5?$AA?$CF?$AAd?$AA?0?$AA?$CF?$AAd?$AA?5?$AA?5?$AA?5?$AA?5?$AA?5?$AA?5?$AA?5?$AA?$CF?$AAs@ 0000000000077a58     UefiShellDebug1CommandsLib:EditStatusBar.obj
 0002:00010f58       ??_C@_19IELFGNPI@?$AA?5?$AA?5?$AA?$CF?$AAs@ 0000000000077a78     UefiShellDebug1CommandsLib:EditStatusBar.obj
 0002:00010f68       ??_C@_17EAOFDCAA@?$AAI?$AAN?$AAS@ 0000000000077a88     UefiShellDebug1CommandsLib:EditStatusBar.obj
 0002:00010f70       ??_C@_1CI@GJADLICD@?$AA?$HM?$AA?$CF?$AAs?$AA?$HM?$AA?5?$AA?5?$AA?5?$AAH?$AAe?$AAl?$AAp?$AA?3?$AA?5?$AAC?$AAt@ 0000000000077a90     UefiShellDebug1CommandsLib:EditStatusBar.obj
 0002:00010f98       ??_C@_17NBLDNMBE@?$AAO?$AAV?$AAR@ 0000000000077ab8     UefiShellDebug1CommandsLib:EditStatusBar.obj
 0002:00010fa0       ??_C@_19KDMGDCHB@?$AA?$CF?$AA8?$AAX?$AA?5@ 0000000000077ac0     UefiShellDebug1CommandsLib:BufferImage.obj
 0002:00010fac       ??_C@_13COJANIEC@?$AA0@    0000000000077acc     UefiShellDebug1CommandsLib:BufferImage.obj
 0002:00010fb0       ??_C@_17GMAIGMDG@?$AA?$CF?$AAx?$AA?5@ 0000000000077ad0     UefiShellDebug1CommandsLib:BufferImage.obj
 0002:00010fb8       ??_C@_19GNCKHPDA@?$AA?$CF?$AAx?$AA?5?$AA?5@ 0000000000077ad8     UefiShellDebug1CommandsLib:BufferImage.obj
 0002:00010fc8       ??_C@_19NMAFMAH@?$AA?5?$AA?5?$AA?5?$AA?5@ 0000000000077ae8     UefiShellDebug1CommandsLib:BufferImage.obj
 0002:00010fd8       ??_C@_17MEDFOIMI@?$AA?5?$AA?5?$AA?5@ 0000000000077af8     UefiShellDebug1CommandsLib:BufferImage.obj
 0002:00010fe0       ??_C@_15LHNHECKK@?$AA?$CF?$AAx@ 0000000000077b00     UefiShellDebug1CommandsLib:BufferImage.obj
 0002:00010ff0       ??_C@_0GK@MHLLNPKG@D?3?2uefi_specs_personal_collecti@ 0000000000077b10     UefiShellDebug1CommandsLib:BufferImage.obj
 0002:00011060       ??_C@_0CC@BIMOOGMB@?$CILoopVar3?$CL2?$CJ?5?$DM?5?$CI2?5?$CK?5?$CI16?5?$CL?53?$CJ?5?9?5@ 0000000000077b80     UefiShellDebug1CommandsLib:Compress.obj
 0002:00011090       ??_C@_0FP@DJPJGLJK@D?3?2uefi_specs_personal_collecti@ 0000000000077bb0     UefiShellDebug1CommandsLib:Compress.obj
 0002:000110f0       ??_C@_0BI@DNEPNPFI@?$CILoopVar3?$CL2?$CJ?5?$DM?5?$CI16?5?$CL?53?$CJ@ 0000000000077c10     UefiShellDebug1CommandsLib:Compress.obj
 0002:00011108       ??_C@_1BI@HGBJBAKG@?$AAV?$AAe?$AAn?$AAd?$AAo?$AAr?$AA?3?$AA?5?$AA?$CF?$AAa?$AA?6@ 0000000000077c28     UefiShellDebug1CommandsLib:PrintInfo.obj
 0002:00011120       ??_C@_1CE@KJFHFJLB@?$AAB?$AAI?$AAO?$AAS?$AA?5?$AAV?$AAe?$AAr?$AAs?$AAi?$AAo?$AAn?$AA?3?$AA?5?$AA?$CF@ 0000000000077c40     UefiShellDebug1CommandsLib:PrintInfo.obj
 0002:00011150       ??_C@_1EK@DPFHFGHG@?$AAB?$AAI?$AAO?$AAS?$AA?5?$AAS?$AAt?$AAa?$AAr?$AAt?$AAi?$AAn?$AAg?$AA?5?$AAA@ 0000000000077c70     UefiShellDebug1CommandsLib:PrintInfo.obj
 0002:000111a0       ??_C@_1CO@BCGFMJKD@?$AAB?$AAI?$AAO?$AAS?$AA?5?$AAR?$AAe?$AAl?$AAe?$AAa?$AAs?$AAe?$AA?5?$AAD?$AAa@ 0000000000077cc0     UefiShellDebug1CommandsLib:PrintInfo.obj
 0002:000111d0       ??_C@_1DO@OEJOMCOI@?$AAS?$AAy?$AAs?$AAt?$AAe?$AAm?$AA?5?$AAB?$AAI?$AAO?$AAS?$AA?5?$AAM?$AAa?$AAj@ 0000000000077cf0     UefiShellDebug1CommandsLib:PrintInfo.obj
 0002:00011210       ??_C@_1DO@GDHDHBO@?$AAS?$AAy?$AAs?$AAt?$AAe?$AAm?$AA?5?$AAB?$AAI?$AAO?$AAS?$AA?5?$AAM?$AAi?$AAn@ 0000000000077d30     UefiShellDebug1CommandsLib:PrintInfo.obj
 0002:00011250       ??_C@_1GA@HGMJHCHH@?$AAE?$AAm?$AAb?$AAe?$AAd?$AAd?$AAe?$AAd?$AA?5?$AAC?$AAo?$AAn?$AAt?$AAr?$AAo@ 0000000000077d70     UefiShellDebug1CommandsLib:PrintInfo.obj
 0002:000112b0       ??_C@_1GA@JEGAIHIB@?$AAE?$AAm?$AAb?$AAe?$AAd?$AAd?$AAe?$AAd?$AA?5?$AAC?$AAo?$AAn?$AAt?$AAr?$AAo@ 0000000000077dd0     UefiShellDebug1CommandsLib:PrintInfo.obj
 0002:00011310       ??_C@_15MMOGNHFI@?$AAM?$AAB@ 0000000000077e30     UefiShellDebug1CommandsLib:PrintInfo.obj
 0002:00011318       ??_C@_15GNHNPEDO@?$AAG?$AAB@ 0000000000077e38     UefiShellDebug1CommandsLib:PrintInfo.obj
 0002:00011320       ??_C@_0N@BBNLMPJO@Manufacturer@ 0000000000077e40     UefiShellDebug1CommandsLib:PrintInfo.obj
 0002:00011330       ??_C@_15JKMGFKLP@?$AA?$CF?$AAa@ 0000000000077e50     UefiShellDebug1CommandsLib:PrintInfo.obj
 0002:00011338       ??_C@_1M@CIOKLEIM@?$AA?3?$AA?5?$AA?$CF?$AAa?$AA?6@ 0000000000077e58     UefiShellDebug1CommandsLib:PrintInfo.obj
 0002:00011348       ??_C@_0M@MNPNDAHP@ProductName@ 0000000000077e68     UefiShellDebug1CommandsLib:PrintInfo.obj
 0002:00011358       ??_C@_07NGFJPNPN@Version@  0000000000077e78     UefiShellDebug1CommandsLib:PrintInfo.obj
 0002:00011360       ??_C@_0N@FPJJBBNM@SerialNumber@ 0000000000077e80     UefiShellDebug1CommandsLib:PrintInfo.obj
 0002:00011370       ??_C@_04NDFIEGPL@Uuid@     0000000000077e90     UefiShellDebug1CommandsLib:PrintInfo.obj
 0002:00011378       ??_C@_09ODBEMGCH@SKUNumber@ 0000000000077e98     UefiShellDebug1CommandsLib:PrintInfo.obj
 0002:00011384       ??_C@_06BOFMEHLD@Family@   0000000000077ea4     UefiShellDebug1CommandsLib:PrintInfo.obj
 0002:00011390       ??_C@_08FMONLMLE@AssetTag@ 0000000000077eb0     UefiShellDebug1CommandsLib:PrintInfo.obj
 0002:000113a0       ??_C@_0BC@OMHLHKAK@LocationInChassis@ 0000000000077ec0     UefiShellDebug1CommandsLib:PrintInfo.obj
 0002:000113b8       ??_C@_0O@CDHHDFJM@ChassisHandle@ 0000000000077ed8     UefiShellDebug1CommandsLib:PrintInfo.obj
 0002:000113c8       ??_C@_1BA@BDGGMDCP@?$AA?3?$AA?5?$AA0?$AAx?$AA?$CF?$AAx?$AA?6@ 0000000000077ee8     UefiShellDebug1CommandsLib:PrintInfo.obj
 0002:000113d8       ??_C@_04KOACHJEN@Type@     0000000000077ef8     UefiShellDebug1CommandsLib:PrintInfo.obj
 0002:000113e0       ??_C@_1M@LAKNPEAB@?$AA?3?$AA?5?$AA?$CF?$AAu?$AA?6@ 0000000000077f00     UefiShellDebug1CommandsLib:PrintInfo.obj
 0002:000113f0       ??_C@_0L@OBIIHLIL@OemDefined@ 0000000000077f10     UefiShellDebug1CommandsLib:PrintInfo.obj
 0002:000113fc       ??_C@_06HCAKHJJK@Height@   0000000000077f1c     UefiShellDebug1CommandsLib:PrintInfo.obj
 0002:00011408       ??_C@_0BD@KNMGNFOC@NumberofPowerCords@ 0000000000077f28     UefiShellDebug1CommandsLib:PrintInfo.obj
 0002:00011420       ??_C@_0BG@EPMALLNM@ContainedElementCount@ 0000000000077f40     UefiShellDebug1CommandsLib:PrintInfo.obj
 0002:00011438       ??_C@_0BN@JOCNKJCF@ContainedElementRecordLength@ 0000000000077f58     UefiShellDebug1CommandsLib:PrintInfo.obj
 0002:00011458       ??_C@_1M@OLEMGGOE@?$AA?$CF?$AA0?$AA2?$AAX?$AA?5@ 0000000000077f78     UefiShellDebug1CommandsLib:PrintInfo.obj
 0002:00011468       ??_C@_1DA@KGGOAIBL@?$AAS?$AAo?$AAc?$AAk?$AAe?$AAt?$AA?5?$AAD?$AAe?$AAs?$AAi?$AAg?$AAn?$AAa?$AAt@ 0000000000077f88     UefiShellDebug1CommandsLib:PrintInfo.obj
 0002:00011498       ??_C@_1DI@ELBAAMBN@?$AAP?$AAr?$AAo?$AAc?$AAe?$AAs?$AAs?$AAo?$AAr?$AA?5?$AAM?$AAa?$AAn?$AAu?$AAf@ 0000000000077fb8     UefiShellDebug1CommandsLib:PrintInfo.obj
 0002:000114d0       ??_C@_1CO@GNIKGEEB@?$AAP?$AAr?$AAo?$AAc?$AAe?$AAs?$AAs?$AAo?$AAr?$AA?5?$AAV?$AAe?$AAr?$AAs?$AAi@ 0000000000077ff0     UefiShellDebug1CommandsLib:PrintInfo.obj
 0002:00011500       ??_C@_1CI@NGCBDILH@?$AAE?$AAx?$AAt?$AAe?$AAr?$AAn?$AAa?$AAl?$AA?5?$AAC?$AAl?$AAo?$AAc?$AAk?$AA?3@ 0000000000078020     UefiShellDebug1CommandsLib:PrintInfo.obj
 0002:00011528       ??_C@_1BO@HGKEKLIA@?$AAM?$AAa?$AAx?$AA?5?$AAS?$AAp?$AAe?$AAe?$AAd?$AA?3?$AA?5?$AA?$CF?$AAu?$AA?6@ 0000000000078048     UefiShellDebug1CommandsLib:PrintInfo.obj
 0002:00011548       ??_C@_1CG@KGEENJA@?$AAC?$AAu?$AAr?$AAr?$AAe?$AAn?$AAt?$AA?5?$AAS?$AAp?$AAe?$AAe?$AAd?$AA?3?$AA?5@ 0000000000078068     UefiShellDebug1CommandsLib:PrintInfo.obj
 0002:00011570       ??_C@_1CO@CCELLHEG@?$AAL?$AA1?$AA?5?$AAC?$AAa?$AAc?$AAh?$AAe?$AA?5?$AAH?$AAa?$AAn?$AAd?$AAl?$AAe@ 0000000000078090     UefiShellDebug1CommandsLib:PrintInfo.obj
 0002:000115a0       ??_C@_1CO@FMDDPPOA@?$AAL?$AA2?$AA?5?$AAC?$AAa?$AAc?$AAh?$AAe?$AA?5?$AAH?$AAa?$AAn?$AAd?$AAl?$AAe@ 00000000000780c0     UefiShellDebug1CommandsLib:PrintInfo.obj
 0002:000115d0       ??_C@_1CO@HGBLMHIC@?$AAL?$AA3?$AA?5?$AAC?$AAa?$AAc?$AAh?$AAe?$AA?5?$AAH?$AAa?$AAn?$AAd?$AAl?$AAe@ 00000000000780f0     UefiShellDebug1CommandsLib:PrintInfo.obj
 0002:00011600       ??_C@_1CG@COOLGAOF@?$AAS?$AAe?$AAr?$AAi?$AAa?$AAl?$AA?5?$AAN?$AAu?$AAm?$AAb?$AAe?$AAr?$AA?3?$AA?5@ 0000000000078120     UefiShellDebug1CommandsLib:PrintInfo.obj
 0002:00011628       ??_C@_1BO@FKDMAPGK@?$AAA?$AAs?$AAs?$AAe?$AAt?$AA?5?$AAT?$AAa?$AAg?$AA?3?$AA?5?$AA?$CF?$AAa?$AA?6@ 0000000000078148     UefiShellDebug1CommandsLib:PrintInfo.obj
 0002:00011648       ??_C@_1CC@PAJEONFE@?$AAP?$AAa?$AAr?$AAt?$AA?5?$AAN?$AAu?$AAm?$AAb?$AAe?$AAr?$AA?3?$AA?5?$AA?$CF?$AAa@ 0000000000078168     UefiShellDebug1CommandsLib:PrintInfo.obj
 0002:00011670       ??_C@_1CA@EGNOIHGB@?$AAC?$AAo?$AAr?$AAe?$AA?5?$AAC?$AAo?$AAu?$AAn?$AAt?$AA?3?$AA?5?$AA?$CF?$AAu?$AA?6@ 0000000000078190     UefiShellDebug1CommandsLib:PrintInfo.obj
 0002:00011690       ??_C@_1CE@GNJONLKG@?$AAC?$AAo?$AAr?$AAe?$AA?5?$AAE?$AAn?$AAa?$AAb?$AAl?$AAe?$AAd?$AA?3?$AA?5?$AA?$CF@ 00000000000781b0     UefiShellDebug1CommandsLib:PrintInfo.obj
 0002:000116b8       ??_C@_1CE@JFFJBLPL@?$AAT?$AAh?$AAr?$AAe?$AAa?$AAd?$AA?5?$AAC?$AAo?$AAu?$AAn?$AAt?$AA?3?$AA?5?$AA?$CF@ 00000000000781d8     UefiShellDebug1CommandsLib:PrintInfo.obj
 0002:000116e0       ??_C@_1CE@EHBJNOEJ@?$AAC?$AAo?$AAr?$AAe?$AA?5?$AAC?$AAo?$AAu?$AAn?$AAt?$AA?5?$AA2?$AA?3?$AA?5?$AA?$CF@ 0000000000078200     UefiShellDebug1CommandsLib:PrintInfo.obj
 0002:00011708       ??_C@_1CI@JFOAGJGH@?$AAC?$AAo?$AAr?$AAe?$AA?5?$AAE?$AAn?$AAa?$AAb?$AAl?$AAe?$AAd?$AA?5?$AA2?$AA?3@ 0000000000078228     UefiShellDebug1CommandsLib:PrintInfo.obj
 0002:00011730       ??_C@_1CI@KPFBDPP@?$AAT?$AAh?$AAr?$AAe?$AAa?$AAd?$AA?5?$AAC?$AAo?$AAu?$AAn?$AAt?$AA?5?$AA2?$AA?3@ 0000000000078250     UefiShellDebug1CommandsLib:PrintInfo.obj
 0002:00011758       ??_C@_1CI@CAHCBGBA@?$AAT?$AAh?$AAr?$AAe?$AAa?$AAd?$AA?5?$AAE?$AAn?$AAa?$AAb?$AAl?$AAe?$AAd?$AA?3@ 0000000000078278     UefiShellDebug1CommandsLib:PrintInfo.obj
 0002:00011780       ??_C@_0BI@HCBPJEAD@AssociatedMemorySlotNum@ 00000000000782a0     UefiShellDebug1CommandsLib:PrintInfo.obj
 0002:00011798       ??_C@_0BC@GCIFEBIL@SocketDesignation@ 00000000000782b8     UefiShellDebug1CommandsLib:PrintInfo.obj
 0002:000117b0       ??_C@_0N@ODNILEPO@CurrentSpeed@ 00000000000782d0     UefiShellDebug1CommandsLib:PrintInfo.obj
 0002:000117c0       ??_C@_0BB@JDAJEIIK@MaximumCacheSize@ 00000000000782e0     UefiShellDebug1CommandsLib:PrintInfo.obj
 0002:000117d8       ??_C@_0O@BJDNNDOA@InstalledSize@ 00000000000782f8     UefiShellDebug1CommandsLib:PrintInfo.obj
 0002:000117e8       ??_C@_0BC@OLPHMDNB@SupportedSRAMType@ 0000000000078308     UefiShellDebug1CommandsLib:PrintInfo.obj
 0002:00011800       ??_C@_0BA@CHMIDALO@CurrentSRAMType@ 0000000000078320     UefiShellDebug1CommandsLib:PrintInfo.obj
 0002:00011810       ??_C@_0L@GKCEABFB@CacheSpeed@ 0000000000078330     UefiShellDebug1CommandsLib:PrintInfo.obj
 0002:00011820       ??_C@_0BC@OAIODHAH@MaximumCacheSize2@ 0000000000078340     UefiShellDebug1CommandsLib:PrintInfo.obj
 0002:00011838       ??_C@_0P@ENGDILNK@InstalledSize2@ 0000000000078358     UefiShellDebug1CommandsLib:PrintInfo.obj
 0002:00011848       ??_C@_0BM@JBGCGAG@InternalReferenceDesignator@ 0000000000078368     UefiShellDebug1CommandsLib:PrintInfo.obj
 0002:00011868       ??_C@_1BE@ELLAGAB@?$AAI?$AAn?$AAt?$AAe?$AAr?$AAn?$AAa?$AAl?$AA?5@ 0000000000078388     UefiShellDebug1CommandsLib:PrintInfo.obj
 0002:00011880       ??_C@_0BM@OAEDMMAI@ExternalReferenceDesignator@ 00000000000783a0     UefiShellDebug1CommandsLib:PrintInfo.obj
 0002:000118a0       ??_C@_0BA@JKMEMADA@SlotDesignation@ 00000000000783c0     UefiShellDebug1CommandsLib:PrintInfo.obj
 0002:000118b0       ??_C@_0BA@BMLFAHJE@SegmentGroupNum@ 00000000000783d0     UefiShellDebug1CommandsLib:PrintInfo.obj
 0002:000118c0       ??_C@_06KNDINCOD@BusNum@   00000000000783e0     UefiShellDebug1CommandsLib:PrintInfo.obj
 0002:000118c8       ??_C@_0L@CPCJGBL@DevFuncNum@ 00000000000783e8     UefiShellDebug1CommandsLib:PrintInfo.obj
 0002:000118d8       ??_C@_0N@EIPDDONP@DataBusWidth@ 00000000000783f8     UefiShellDebug1CommandsLib:PrintInfo.obj
 0002:000118e8       ??_C@_0BC@HIAOFHP@PeerGroupingCount@ 0000000000078408     UefiShellDebug1CommandsLib:PrintInfo.obj
 0002:00011900       ??_C@_1CA@MEEPCHDM@?$AAD?$AAe?$AAv?$AAi?$AAc?$AAe?$AA?5?$AAE?$AAn?$AAa?$AAb?$AAl?$AAe?$AAd?$AA?6@ 0000000000078420     UefiShellDebug1CommandsLib:PrintInfo.obj
 0002:00011920       ??_C@_1CC@MLJLHBNL@?$AAD?$AAe?$AAv?$AAi?$AAc?$AAe?$AA?5?$AAD?$AAi?$AAs?$AAa?$AAb?$AAl?$AAe?$AAd@ 0000000000078440     UefiShellDebug1CommandsLib:PrintInfo.obj
 0002:00011948       ??_C@_17IHFOHADP@?$AA?$CF?$AAa?$AA?6@ 0000000000078468     UefiShellDebug1CommandsLib:PrintInfo.obj
 0002:00011950       ??_C@_0M@MPGNKAIN@StringCount@ 0000000000078470     UefiShellDebug1CommandsLib:PrintInfo.obj
 0002:00011960       ??_C@_0BF@JGHHIKJK@InstallableLanguages@ 0000000000078480     UefiShellDebug1CommandsLib:PrintInfo.obj
 0002:00011978       ??_C@_05BOOEKJH@Flags@     0000000000078498     UefiShellDebug1CommandsLib:PrintInfo.obj
 0002:00011980       ??_C@_08NKCLJDKG@Reserved@ 00000000000784a0     UefiShellDebug1CommandsLib:PrintInfo.obj
 0002:00011990       ??_C@_0BB@PDMACJCC@CurrentLanguages@ 00000000000784b0     UefiShellDebug1CommandsLib:PrintInfo.obj
 0002:000119a8       ??_C@_09DOCDJBIG@GroupName@ 00000000000784c8     UefiShellDebug1CommandsLib:PrintInfo.obj
 0002:000119b8       ??_C@_1CC@IANCIAGE@?$AAI?$AAt?$AAe?$AAm?$AAT?$AAy?$AAp?$AAe?$AA?5?$AA?$CF?$AAu?$AA?3?$AA?5?$AA?$CF?$AAu@ 00000000000784d8     UefiShellDebug1CommandsLib:PrintInfo.obj
 0002:000119e0       ??_C@_1CG@HBPOLCFH@?$AAI?$AAt?$AAe?$AAm?$AAH?$AAa?$AAn?$AAd?$AAl?$AAe?$AA?5?$AA?$CF?$AAu?$AA?3?$AA?5@ 0000000000078500     UefiShellDebug1CommandsLib:PrintInfo.obj
 0002:00011a08       ??_C@_0O@HKDDDLBN@LogAreaLength@ 0000000000078528     UefiShellDebug1CommandsLib:PrintInfo.obj
 0002:00011a18       ??_C@_0BF@GDDPPJHL@LogHeaderStartOffset@ 0000000000078538     UefiShellDebug1CommandsLib:PrintInfo.obj
 0002:00011a30       ??_C@_0BD@CAPEPFNK@LogDataStartOffset@ 0000000000078550     UefiShellDebug1CommandsLib:PrintInfo.obj
 0002:00011a48       ??_C@_0BE@NOKFPJBG@AccessMethodAddress@ 0000000000078568     UefiShellDebug1CommandsLib:PrintInfo.obj
 0002:00011a60       ??_C@_0P@NPBNLBCA@LogChangeToken@ 0000000000078580     UefiShellDebug1CommandsLib:PrintInfo.obj
 0002:00011a70       ??_C@_0CE@KLHOMLO@NumberOfSupportedLogTypeDescrip@ 0000000000078590     UefiShellDebug1CommandsLib:PrintInfo.obj
 0002:00011a98       ??_C@_0BK@HHOAKNBO@LengthOfLogTypeDescriptor@ 00000000000785b8     UefiShellDebug1CommandsLib:PrintInfo.obj
 0002:00011ab8       ??_C@_0BA@GDFDNLEE@MaximumCapacity@ 00000000000785d8     UefiShellDebug1CommandsLib:PrintInfo.obj
 0002:00011ac8       ??_C@_0BN@JFCNOMK@MemoryErrorInformationHandle@ 00000000000785e8     UefiShellDebug1CommandsLib:PrintInfo.obj
 0002:00011ae8       ??_C@_0BG@GGCPJPGF@NumberOfMemoryDevices@ 0000000000078608     UefiShellDebug1CommandsLib:PrintInfo.obj
 0002:00011b00       ??_C@_0BI@KHLPJKF@ExtendedMaximumCapacity@ 0000000000078620     UefiShellDebug1CommandsLib:PrintInfo.obj
 0002:00011b18       ??_C@_1BC@MBNHMLHO@?$AA?3?$AA?5?$AA0?$AAx?$AA?$CF?$AAl?$AAx?$AA?6@ 0000000000078638     UefiShellDebug1CommandsLib:PrintInfo.obj
 0002:00011b30       ??_C@_1EI@NABGLLKB@?$AAP?$AAh?$AAy?$AAs?$AAi?$AAc?$AAa?$AAl?$AA?5?$AAM?$AAe?$AAm?$AAo?$AAr?$AAy@ 0000000000078650     UefiShellDebug1CommandsLib:PrintInfo.obj
 0002:00011b80       ??_C@_1EO@FIGCECHL@?$AAM?$AAe?$AAm?$AAo?$AAr?$AAy?$AA?5?$AAE?$AAr?$AAr?$AAo?$AAr?$AA?5?$AAI?$AAn@ 00000000000786a0     UefiShellDebug1CommandsLib:PrintInfo.obj
 0002:00011bd0       ??_C@_1CG@LEIDDFGH@?$AAT?$AAo?$AAt?$AAa?$AAl?$AA?5?$AAW?$AAi?$AAd?$AAt?$AAh?$AA?3?$AA?5?$AA0?$AAx@ 00000000000786f0     UefiShellDebug1CommandsLib:PrintInfo.obj
 0002:00011bf8       ??_C@_1CE@OFIENBHE@?$AAD?$AAa?$AAt?$AAa?$AA?5?$AAW?$AAi?$AAd?$AAt?$AAh?$AA?3?$AA?5?$AA0?$AAx?$AA?$CF@ 0000000000078718     UefiShellDebug1CommandsLib:PrintInfo.obj
 0002:00011c1c       ??_C@_04EBKMHHBE@Size@     000000000007873c     UefiShellDebug1CommandsLib:PrintInfo.obj
 0002:00011c28       ??_C@_1CE@KOOMJGOG@?$AAD?$AAe?$AAv?$AAi?$AAc?$AAe?$AA?5?$AAS?$AAe?$AAt?$AA?3?$AA?5?$AA0?$AAx?$AA?$CF@ 0000000000078748     UefiShellDebug1CommandsLib:PrintInfo.obj
 0002:00011c50       ??_C@_1CI@JNMNIHFL@?$AAD?$AAe?$AAv?$AAi?$AAc?$AAe?$AA?5?$AAL?$AAo?$AAc?$AAa?$AAt?$AAo?$AAr?$AA?3@ 0000000000078770     UefiShellDebug1CommandsLib:PrintInfo.obj
 0002:00011c78       ??_C@_1CE@JLONGHPJ@?$AAB?$AAa?$AAn?$AAk?$AA?5?$AAL?$AAo?$AAc?$AAa?$AAt?$AAo?$AAr?$AA?3?$AA?5?$AA?$CF@ 0000000000078798     UefiShellDebug1CommandsLib:PrintInfo.obj
 0002:00011c9c       ??_C@_05HOIAGEJD@Speed@    00000000000787bc     UefiShellDebug1CommandsLib:PrintInfo.obj
 0002:00011ca8       ??_C@_0L@PLFFHFAH@Attributes@ 00000000000787c8     UefiShellDebug1CommandsLib:PrintInfo.obj
 0002:00011cb8       ??_C@_1CG@MMEDNAGI@?$AAE?$AAx?$AAt?$AAe?$AAn?$AAd?$AAe?$AAd?$AA?5?$AAS?$AAi?$AAz?$AAe?$AA?3?$AA?5@ 00000000000787d8     UefiShellDebug1CommandsLib:PrintInfo.obj
 0002:00011ce0       ??_C@_1DO@JMDAHFDH@?$AAC?$AAo?$AAn?$AAf?$AAi?$AAg?$AAu?$AAr?$AAe?$AAd?$AA?5?$AAM?$AAe?$AAm?$AAo@ 0000000000078800     UefiShellDebug1CommandsLib:PrintInfo.obj
 0002:00011d20       ??_C@_1CK@DDLIHMEF@?$AAM?$AAi?$AAn?$AAi?$AAm?$AAu?$AAm?$AA?5?$AAv?$AAo?$AAl?$AAt?$AAa?$AAg?$AAe@ 0000000000078840     UefiShellDebug1CommandsLib:PrintInfo.obj
 0002:00011d50       ??_C@_1CK@GHKJAOBJ@?$AAM?$AAa?$AAx?$AAi?$AAm?$AAu?$AAm?$AA?5?$AAv?$AAo?$AAl?$AAt?$AAa?$AAg?$AAe@ 0000000000078870     UefiShellDebug1CommandsLib:PrintInfo.obj
 0002:00011d80       ??_C@_1DA@DDDCCOLD@?$AAC?$AAo?$AAn?$AAf?$AAi?$AAg?$AAu?$AAr?$AAe?$AAd?$AA?5?$AAv?$AAo?$AAl?$AAt@ 00000000000788a0     UefiShellDebug1CommandsLib:PrintInfo.obj
 0002:00011db0       ??_C@_1CM@FANBMOL@?$AAF?$AAi?$AAr?$AAm?$AAw?$AAa?$AAr?$AAe?$AA?5?$AAV?$AAe?$AAr?$AAs?$AAi?$AAo@ 00000000000788d0     UefiShellDebug1CommandsLib:PrintInfo.obj
 0002:00011de0       ??_C@_1DM@PPCIDFBA@?$AAM?$AAo?$AAd?$AAu?$AAl?$AAe?$AA?5?$AAM?$AAa?$AAn?$AAu?$AAf?$AAa?$AAc?$AAt@ 0000000000078900     UefiShellDebug1CommandsLib:PrintInfo.obj
 0002:00011e20       ??_C@_1DC@LELLJMOD@?$AAM?$AAo?$AAd?$AAu?$AAl?$AAe?$AA?5?$AAP?$AAr?$AAo?$AAd?$AAu?$AAc?$AAt?$AA?5@ 0000000000078940     UefiShellDebug1CommandsLib:PrintInfo.obj
 0002:00011e60       ??_C@_1GG@IKIEGKKL@?$AAM?$AAe?$AAm?$AAo?$AAr?$AAy?$AA?5?$AAS?$AAu?$AAb?$AAs?$AAy?$AAs?$AAt?$AAe@ 0000000000078980     UefiShellDebug1CommandsLib:PrintInfo.obj
 0002:00011ed0       ??_C@_1FM@HLKFJINL@?$AAM?$AAe?$AAm?$AAo?$AAr?$AAy?$AA?5?$AAS?$AAu?$AAb?$AAs?$AAy?$AAs?$AAt?$AAe@ 00000000000789f0     UefiShellDebug1CommandsLib:PrintInfo.obj
 0002:00011f30       ??_C@_1DE@DGCEPNOI@?$AAN?$AAo?$AAn?$AA?9?$AAv?$AAo?$AAl?$AAa?$AAt?$AAi?$AAl?$AAe?$AA?5?$AAS?$AAi@ 0000000000078a50     UefiShellDebug1CommandsLib:PrintInfo.obj
 0002:00011f68       ??_C@_1CM@BACFMPIO@?$AAV?$AAo?$AAl?$AAa?$AAt?$AAi?$AAl?$AAe?$AA?5?$AAS?$AAi?$AAz?$AAe?$AA?3?$AA?5@ 0000000000078a88     UefiShellDebug1CommandsLib:PrintInfo.obj
 0002:00011f98       ??_C@_1CG@GBDMFEL@?$AAC?$AAa?$AAc?$AAh?$AAe?$AA?5?$AAS?$AAi?$AAz?$AAe?$AA?3?$AA?5?$AA0?$AAx?$AA?$CF@ 0000000000078ab8     UefiShellDebug1CommandsLib:PrintInfo.obj
 0002:00011fc0       ??_C@_1CK@IMOBOOBB@?$AAL?$AAo?$AAg?$AAi?$AAc?$AAa?$AAl?$AA?5?$AAS?$AAi?$AAz?$AAe?$AA?3?$AA?5?$AA0@ 0000000000078ae0     UefiShellDebug1CommandsLib:PrintInfo.obj
 0002:00011ff0       ??_C@_1CM@FNHKFMKN@?$AAE?$AAx?$AAt?$AAe?$AAn?$AAd?$AAe?$AAd?$AA?5?$AAS?$AAp?$AAe?$AAe?$AAd?$AA?3@ 0000000000078b10     UefiShellDebug1CommandsLib:PrintInfo.obj
 0002:00012020       ??_C@_1FA@BMOKCKKK@?$AAE?$AAx?$AAt?$AAe?$AAn?$AAd?$AAe?$AAd?$AA?5?$AAC?$AAo?$AAn?$AAf?$AAi?$AAg@ 0000000000078b40     UefiShellDebug1CommandsLib:PrintInfo.obj
 0002:00012070       ??_C@_1DK@LOPPDFGF@?$AAP?$AAM?$AAI?$AAC?$AA0?$AA?5?$AAM?$AAa?$AAn?$AAu?$AAf?$AAa?$AAc?$AAt?$AAu@ 0000000000078b90     UefiShellDebug1CommandsLib:PrintInfo.obj
 0002:000120b0       ??_C@_1DK@HCOGBJBO@?$AAP?$AAM?$AAI?$AAC?$AA0?$AA?5?$AAR?$AAe?$AAv?$AAi?$AAs?$AAi?$AAo?$AAn?$AA?5@ 0000000000078bd0     UefiShellDebug1CommandsLib:PrintInfo.obj
 0002:000120f0       ??_C@_1DG@BBBOBCMC@?$AAR?$AAC?$AAD?$AA?5?$AAM?$AAa?$AAn?$AAu?$AAf?$AAa?$AAc?$AAt?$AAu?$AAr?$AAe@ 0000000000078c10     UefiShellDebug1CommandsLib:PrintInfo.obj
 0002:00012128       ??_C@_1DG@NNAHDOLJ@?$AAR?$AAC?$AAD?$AA?5?$AAR?$AAe?$AAv?$AAi?$AAs?$AAi?$AAo?$AAn?$AA?5?$AAN?$AAu@ 0000000000078c48     UefiShellDebug1CommandsLib:PrintInfo.obj
 0002:00012160       ??_C@_0P@GKBOIFMJ@VendorSyndrome@ 0000000000078c80     UefiShellDebug1CommandsLib:PrintInfo.obj
 0002:00012170       ??_C@_0BI@GMHNBLK@MemoryArrayErrorAddress@ 0000000000078c90     UefiShellDebug1CommandsLib:PrintInfo.obj
 0002:00012188       ??_C@_0BD@BKOBIHDF@DeviceErrorAddress@ 0000000000078ca8     UefiShellDebug1CommandsLib:PrintInfo.obj
 0002:000121a0       ??_C@_0BA@DBMDPLBE@ErrorResolution@ 0000000000078cc0     UefiShellDebug1CommandsLib:PrintInfo.obj
 0002:000121b0       ??_C@_0BA@JKJCLFJA@StartingAddress@ 0000000000078cd0     UefiShellDebug1CommandsLib:PrintInfo.obj
 0002:000121c0       ??_C@_0O@DMEOEBEF@EndingAddress@ 0000000000078ce0     UefiShellDebug1CommandsLib:PrintInfo.obj
 0002:000121d0       ??_C@_0BC@DOCKMFPE@MemoryArrayHandle@ 0000000000078cf0     UefiShellDebug1CommandsLib:PrintInfo.obj
 0002:000121e8       ??_C@_0P@HDALFGDK@PartitionWidth@ 0000000000078d08     UefiShellDebug1CommandsLib:PrintInfo.obj
 0002:000121f8       ??_C@_0BI@PDLKJHHB@ExtendedStartingAddress@ 0000000000078d18     UefiShellDebug1CommandsLib:PrintInfo.obj
 0002:00012210       ??_C@_0BG@GIFMFDDI@ExtendedEndingAddress@ 0000000000078d30     UefiShellDebug1CommandsLib:PrintInfo.obj
 0002:00012228       ??_C@_0BD@BEPOHNAH@MemoryDeviceHandle@ 0000000000078d48     UefiShellDebug1CommandsLib:PrintInfo.obj
 0002:00012240       ??_C@_0BP@CAGAFDLF@MemoryArrayMappedAddressHandle@ 0000000000078d60     UefiShellDebug1CommandsLib:PrintInfo.obj
 0002:00012260       ??_C@_0BF@PKKBLCDA@PartitionRowPosition@ 0000000000078d80     UefiShellDebug1CommandsLib:PrintInfo.obj
 0002:00012278       ??_C@_0BD@OOBFBMPB@InterleavePosition@ 0000000000078d98     UefiShellDebug1CommandsLib:PrintInfo.obj
 0002:00012290       ??_C@_0BF@NJFOFALN@InterleavedDataDepth@ 0000000000078db0     UefiShellDebug1CommandsLib:PrintInfo.obj
 0002:000122a8       ??_C@_0BA@EHILAMBM@NumberOfButtons@ 0000000000078dc8     UefiShellDebug1CommandsLib:PrintInfo.obj
 0002:000122b8       ??_C@_08KDOEBHGA@Location@ 0000000000078dd8     UefiShellDebug1CommandsLib:PrintInfo.obj
 0002:000122c8       ??_C@_0BA@EMGHNHBI@ManufactureDate@ 0000000000078de8     UefiShellDebug1CommandsLib:PrintInfo.obj
 0002:000122d8       ??_C@_0L@FHIBJDML@DeviceName@ 0000000000078df8     UefiShellDebug1CommandsLib:PrintInfo.obj
 0002:000122e8       ??_C@_0P@NAOAONJL@DeviceCapacity@ 0000000000078e08     UefiShellDebug1CommandsLib:PrintInfo.obj
 0002:000122f8       ??_C@_0O@PBABLEFL@DesignVoltage@ 0000000000078e18     UefiShellDebug1CommandsLib:PrintInfo.obj
 0002:00012308       ??_C@_0BC@OODDBNIJ@SBDSVersionNumber@ 0000000000078e28     UefiShellDebug1CommandsLib:PrintInfo.obj
 0002:00012320       ??_C@_0BK@BLDMGBHN@MaximumErrorInBatteryData@ 0000000000078e40     UefiShellDebug1CommandsLib:PrintInfo.obj
 0002:00012340       ??_C@_0BB@DCLMCCCP@SBDSSerialNumber@ 0000000000078e60     UefiShellDebug1CommandsLib:PrintInfo.obj
 0002:00012358       ??_C@_0BE@EJNLLEMJ@SBDSDeviceChemistry@ 0000000000078e78     UefiShellDebug1CommandsLib:PrintInfo.obj
 0002:00012370       ??_C@_0BJ@KCIBCEGB@DesignCapacityMultiplier@ 0000000000078e90     UefiShellDebug1CommandsLib:PrintInfo.obj
 0002:00012390       ??_C@_0M@DJFOKPBB@OEMSpecific@ 0000000000078eb0     UefiShellDebug1CommandsLib:PrintInfo.obj
 0002:000123a0       ??_C@_0L@NDDNCBN@ResetCount@ 0000000000078ec0     UefiShellDebug1CommandsLib:PrintInfo.obj
 0002:000123b0       ??_C@_0L@ODMHPMJN@ResetLimit@ 0000000000078ed0     UefiShellDebug1CommandsLib:PrintInfo.obj
 0002:000123c0       ??_C@_0O@EGBCLEGG@TimerInterval@ 0000000000078ee0     UefiShellDebug1CommandsLib:PrintInfo.obj
 0002:000123d0       ??_C@_07MKALMBDJ@Timeout@  0000000000078ef0     UefiShellDebug1CommandsLib:PrintInfo.obj
 0002:000123d8       ??_C@_0BK@LAOADDEK@NextScheduledPowerOnMonth@ 0000000000078ef8     UefiShellDebug1CommandsLib:PrintInfo.obj
 0002:000123f8       ??_C@_0BP@BFMGCEHK@NextScheduledPowerOnDayOfMonth@ 0000000000078f18     UefiShellDebug1CommandsLib:PrintInfo.obj
 0002:00012418       ??_C@_0BJ@PNALOFHH@NextScheduledPowerOnHour@ 0000000000078f38     UefiShellDebug1CommandsLib:PrintInfo.obj
 0002:00012438       ??_C@_0BL@PFOKAJDD@NextScheduledPowerOnMinute@ 0000000000078f58     UefiShellDebug1CommandsLib:PrintInfo.obj
 0002:00012458       ??_C@_0BL@HKFHEKHG@NextScheduledPowerOnSecond@ 0000000000078f78     UefiShellDebug1CommandsLib:PrintInfo.obj
 0002:00012478       ??_C@_0M@OHKMKKDH@Description@ 0000000000078f98     UefiShellDebug1CommandsLib:PrintInfo.obj
 0002:00012488       ??_C@_0N@DGPGOIBE@MaximumValue@ 0000000000078fa8     UefiShellDebug1CommandsLib:PrintInfo.obj
 0002:00012498       ??_C@_0N@HGLJJAGC@MinimumValue@ 0000000000078fb8     UefiShellDebug1CommandsLib:PrintInfo.obj
 0002:000124a8       ??_C@_0L@KGPBCGJE@Resolution@ 0000000000078fc8     UefiShellDebug1CommandsLib:PrintInfo.obj
 0002:000124b8       ??_C@_09BKMALBOE@Tolerance@ 0000000000078fd8     UefiShellDebug1CommandsLib:PrintInfo.obj
 0002:000124c8       ??_C@_08NLCOAFEI@Accuracy@ 0000000000078fe8     UefiShellDebug1CommandsLib:PrintInfo.obj
 0002:000124d8       ??_C@_0L@CMCEPKPI@OEMDefined@ 0000000000078ff8     UefiShellDebug1CommandsLib:PrintInfo.obj
 0002:000124e8       ??_C@_0N@NKKHDHON@NominalValue@ 0000000000079008     UefiShellDebug1CommandsLib:PrintInfo.obj
 0002:000124f8       ??_C@_0BH@OAHLOFMP@TemperatureProbeHandle@ 0000000000079018     UefiShellDebug1CommandsLib:PrintInfo.obj
 0002:00012510       ??_C@_0BB@JNADELBP@CoolingUnitGroup@ 0000000000079030     UefiShellDebug1CommandsLib:PrintInfo.obj
 0002:00012528       ??_C@_0N@KPNPMFNH@NominalSpeed@ 0000000000079048     UefiShellDebug1CommandsLib:PrintInfo.obj
 0002:00012538       ??_C@_0BB@PDMMMKBD@ManufacturerName@ 0000000000079058     UefiShellDebug1CommandsLib:PrintInfo.obj
 0002:00012550       ??_C@_07EODJIPPN@Address@  0000000000079070     UefiShellDebug1CommandsLib:PrintInfo.obj
 0002:00012558       ??_C@_0BH@JEDJGKMH@ManagementDeviceHandle@ 0000000000079078     UefiShellDebug1CommandsLib:PrintInfo.obj
 0002:00012570       ??_C@_0BA@CPMLFEDK@ComponentHandle@ 0000000000079090     UefiShellDebug1CommandsLib:PrintInfo.obj
 0002:00012580       ??_C@_0BA@JCNCODMC@ThresholdHandle@ 00000000000790a0     UefiShellDebug1CommandsLib:PrintInfo.obj
 0002:00012590       ??_C@_0BK@LBKIMOJN@LowerThresholdNonCritical@ 00000000000790b0     UefiShellDebug1CommandsLib:PrintInfo.obj
 0002:000125b0       ??_C@_0BK@CCJKGBMI@UpperThresholdNonCritical@ 00000000000790d0     UefiShellDebug1CommandsLib:PrintInfo.obj
 0002:000125d0       ??_C@_0BH@NMAIJHFM@LowerThresholdCritical@ 00000000000790f0     UefiShellDebug1CommandsLib:PrintInfo.obj
 0002:000125e8       ??_C@_0BH@FKDKGMLL@UpperThresholdCritical@ 0000000000079108     UefiShellDebug1CommandsLib:PrintInfo.obj
 0002:00012600       ??_C@_0BN@CCIJPGKB@LowerThresholdNonRecoverable@ 0000000000079120     UefiShellDebug1CommandsLib:PrintInfo.obj
 0002:00012620       ??_C@_0BN@KJLGOLMP@UpperThresholdNonRecoverable@ 0000000000079140     UefiShellDebug1CommandsLib:PrintInfo.obj
 0002:00012640       ??_C@_0BD@HKIFACCD@MaximumChannelLoad@ 0000000000079160     UefiShellDebug1CommandsLib:PrintInfo.obj
 0002:00012658       ??_C@_0BC@BPJKFOHI@MemoryDeviceCount@ 0000000000079178     UefiShellDebug1CommandsLib:PrintInfo.obj
 0002:00012670       ??_C@_0BA@IILNCDHF@I2CSlaveAddress@ 0000000000079190     UefiShellDebug1CommandsLib:PrintInfo.obj
 0002:00012680       ??_C@_0BH@MHJAAFFN@NVStorageDeviceAddress@ 00000000000791a0     UefiShellDebug1CommandsLib:PrintInfo.obj
 0002:00012698       ??_C@_0M@BGEGAMBM@BaseAddress@ 00000000000791b8     UefiShellDebug1CommandsLib:PrintInfo.obj
 0002:000126a8       ??_C@_0P@DONEEMPC@PowerUnitGroup@ 00000000000791c8     UefiShellDebug1CommandsLib:PrintInfo.obj
 0002:000126b8       ??_C@_0P@PJJMPGNK@AssetTagNumber@ 00000000000791d8     UefiShellDebug1CommandsLib:PrintInfo.obj
 0002:000126c8       ??_C@_0BA@NFKEAEEP@ModelPartNumber@ 00000000000791e8     UefiShellDebug1CommandsLib:PrintInfo.obj
 0002:000126d8       ??_C@_0O@MEKHAACN@RevisionLevel@ 00000000000791f8     UefiShellDebug1CommandsLib:PrintInfo.obj
 0002:000126e8       ??_C@_0BB@ELFGCFNP@MaxPowerCapacity@ 0000000000079208     UefiShellDebug1CommandsLib:PrintInfo.obj
 0002:00012700       ??_C@_0BI@BNPKKMKF@InputVoltageProbeHandle@ 0000000000079220     UefiShellDebug1CommandsLib:PrintInfo.obj
 0002:00012718       ??_C@_0BE@GDEOIKLD@CoolingDeviceHandle@ 0000000000079238     UefiShellDebug1CommandsLib:PrintInfo.obj
 0002:00012730       ??_C@_0BI@EEELGOPB@InputCurrentProbeHandle@ 0000000000079250     UefiShellDebug1CommandsLib:PrintInfo.obj
 0002:00012748       ??_C@_0CF@LKIGLGMK@NumberOfAdditionalInformationEn@ 0000000000079268     UefiShellDebug1CommandsLib:PrintInfo.obj
 0002:00012770       ??_C@_06ENNEIMBA@String@   0000000000079290     UefiShellDebug1CommandsLib:PrintInfo.obj
 0002:00012778       ??_C@_05LPIJGKJ@Value@     0000000000079298     UefiShellDebug1CommandsLib:PrintInfo.obj
 0002:00012780       ??_C@_1DG@NDDCIEGL@?$AAR?$AAe?$AAf?$AAe?$AAr?$AAe?$AAn?$AAc?$AAe?$AA?5?$AAD?$AAe?$AAs?$AAi?$AAg@ 00000000000792a0     UefiShellDebug1CommandsLib:PrintInfo.obj
 0002:000127b8       ??_C@_1DI@JDFNBLFB@?$AAD?$AAe?$AAv?$AAi?$AAc?$AAe?$AA?5?$AAT?$AAy?$AAp?$AAe?$AA?5?$AAI?$AAn?$AAs@ 00000000000792d8     UefiShellDebug1CommandsLib:PrintInfo.obj
 0002:000127f0       ??_C@_1DI@CDIBPEJH@?$AAS?$AAe?$AAg?$AAm?$AAe?$AAn?$AAt?$AA?5?$AAG?$AAr?$AAo?$AAu?$AAp?$AA?5?$AAN@ 0000000000079310     UefiShellDebug1CommandsLib:PrintInfo.obj
 0002:00012828       ??_C@_1CE@GMPDEIJE@?$AAB?$AAu?$AAs?$AA?5?$AAN?$AAu?$AAm?$AAb?$AAe?$AAr?$AA?3?$AA?5?$AA0?$AAx?$AA?$CF@ 0000000000079348     UefiShellDebug1CommandsLib:PrintInfo.obj
 0002:00012850       ??_C@_1DM@KOBIEGBB@?$AAD?$AAe?$AAv?$AAi?$AAc?$AAe?$AA?1?$AAF?$AAu?$AAn?$AAc?$AAt?$AAi?$AAo?$AAn@ 0000000000079370     UefiShellDebug1CommandsLib:PrintInfo.obj
 0002:00012890       ??_C@_0CA@GDHLOGDP@InterfaceTypeSpecificDataLength@ 00000000000793b0     UefiShellDebug1CommandsLib:PrintInfo.obj
 0002:000128b0       ??_C@_0BK@CACHABEP@InterfaceTypeSpecificData@ 00000000000793d0     UefiShellDebug1CommandsLib:PrintInfo.obj
 0002:000128d0       ??_C@_08PJFDLDED@VendorID@ 00000000000793f0     UefiShellDebug1CommandsLib:PrintInfo.obj
 0002:000128e0       ??_C@_0BB@GAHCGLGG@MajorSpecVersion@ 0000000000079400     UefiShellDebug1CommandsLib:PrintInfo.obj
 0002:000128f8       ??_C@_0BB@JJBNJBEK@MinorSpecVersion@ 0000000000079418     UefiShellDebug1CommandsLib:PrintInfo.obj
 0002:00012910       ??_C@_0BB@EECEIOKK@FirmwareVersion1@ 0000000000079430     UefiShellDebug1CommandsLib:PrintInfo.obj
 0002:00012928       ??_C@_0BB@GPAJNNGJ@FirmwareVersion2@ 0000000000079448     UefiShellDebug1CommandsLib:PrintInfo.obj
 0002:00012940       ??_C@_0BG@JNJNBNKN@FirmwareComponentName@ 0000000000079460     UefiShellDebug1CommandsLib:PrintInfo.obj
 0002:00012958       ??_C@_0BA@HBHNNJFG@FirmwareVersion@ 0000000000079478     UefiShellDebug1CommandsLib:PrintInfo.obj
 0002:00012968       ??_C@_1CC@OEHHKNG@?$AAF?$AAr?$AAe?$AAe?$AA?9?$AAf?$AAo?$AAr?$AAm?$AA?5?$AAs?$AAt?$AAr?$AAi?$AAn@ 0000000000079488     UefiShellDebug1CommandsLib:PrintInfo.obj
 0002:00012990       ??_C@_1BI@JFMNGOOP@?$AAM?$AAA?$AAJ?$AAO?$AAR?$AA?4?$AAM?$AAI?$AAN?$AAO?$AAR@ 00000000000794b0     UefiShellDebug1CommandsLib:PrintInfo.obj
 0002:000129a8       ??_C@_1DE@HJBDNGKH@?$AA3?$AA2?$AA?9?$AAb?$AAi?$AAt?$AA?5?$AAh?$AAe?$AAx?$AAa?$AAd?$AAe?$AAc?$AAi@ 00000000000794c8     UefiShellDebug1CommandsLib:PrintInfo.obj
 0002:000129e0       ??_C@_1DC@KPBCCMGO@?$AAB?$AAI?$AAO?$AAS?$AA?5?$AAV?$AAe?$AAn?$AAd?$AAo?$AAr?$AA?1?$AAO?$AAE?$AAM@ 0000000000079500     UefiShellDebug1CommandsLib:PrintInfo.obj
 0002:00012a18       ??_C@_0L@JJLHCBE@FirmwareId@ 0000000000079538     UefiShellDebug1CommandsLib:PrintInfo.obj
 0002:00012a28       ??_C@_1CI@PNBLKJAO@?$AAR?$AAF?$AAC?$AA4?$AA1?$AA2?$AA2?$AA?5?$AAU?$AAU?$AAI?$AAD?$AA?5?$AAs?$AAt@ 0000000000079548     UefiShellDebug1CommandsLib:PrintInfo.obj
 0002:00012a50       ??_C@_0M@FEKFCCJH@ReleaseDate@ 0000000000079570     UefiShellDebug1CommandsLib:PrintInfo.obj
 0002:00012a60       ??_C@_0BH@MPIKGCFJ@LowestSupportedVersion@ 0000000000079580     UefiShellDebug1CommandsLib:PrintInfo.obj
 0002:00012a78       ??_C@_09KBOOOOEB@ImageSize@ 0000000000079598     UefiShellDebug1CommandsLib:PrintInfo.obj
 0002:00012a88       ??_C@_0BJ@KOLPKIAL@AssociatedComponentCount@ 00000000000795a8     UefiShellDebug1CommandsLib:PrintInfo.obj
 0002:00012aa8       ??_C@_1BI@OMOKAPDO@?$AA?5?$AA?5?$AA?5?$AA?5?$AA0?$AAx?$AA?$CF?$AA0?$AA4?$AAX?$AA?5@ 00000000000795c8     UefiShellDebug1CommandsLib:PrintInfo.obj
 0002:00012ac0       ??_C@_1CC@FJPPHPAG@?$AAU?$AAE?$AAF?$AAI?$AA?5?$AAd?$AAe?$AAv?$AAi?$AAc?$AAe?$AA?5?$AAp?$AAa?$AAt@ 00000000000795e0     UefiShellDebug1CommandsLib:PrintInfo.obj
 0002:00012ae8       ??_C@_1CI@KAOGHLPB@?$AAB?$AAI?$AAO?$AAS?$AA?5?$AAv?$AAe?$AAn?$AAd?$AAo?$AAr?$AA?5?$AAd?$AAe?$AAf@ 0000000000079608     UefiShellDebug1CommandsLib:PrintInfo.obj
 0002:00012b10       ??_C@_1BI@OAFAIEAN@?$AAO?$AAE?$AAM?$AA?5?$AAd?$AAe?$AAf?$AAi?$AAn?$AAe?$AAd@ 0000000000079630     UefiShellDebug1CommandsLib:PrintInfo.obj
 0002:00012b28       ??_C@_0BE@KBPLNGEK@StringPropertyValue@ 0000000000079648     UefiShellDebug1CommandsLib:PrintInfo.obj
 0002:00012b40       ??_C@_0N@BIIAKMAO@ParentHandle@ 0000000000079660     UefiShellDebug1CommandsLib:PrintInfo.obj
 0002:00012b50       ??_C@_1M@EMMHMJAC@?$AA0?$AAx?$AA?$CF?$AAx?$AA?6@ 0000000000079670     UefiShellDebug1CommandsLib:PrintInfo.obj
 0002:00012b60       ??_C@_1M@BFEKLHEO@?$AA8?$AA0?$AA8?$AA6?$AA?6@ 0000000000079680     UefiShellDebug1CommandsLib:PrintInfo.obj
 0002:00012b70       ??_C@_1O@CFFCPEKH@?$AA8?$AA0?$AA2?$AA8?$AA6?$AA?6@ 0000000000079690     UefiShellDebug1CommandsLib:PrintInfo.obj
 0002:00012b80       ??_C@_1M@NOBGGEOL@?$AA8?$AA0?$AA8?$AA7?$AA?6@ 00000000000796a0     UefiShellDebug1CommandsLib:PrintInfo.obj
 0002:00012b90       ??_C@_1O@OOAOCHAC@?$AA8?$AA0?$AA2?$AA8?$AA7?$AA?6@ 00000000000796b0     UefiShellDebug1CommandsLib:PrintInfo.obj
 0002:00012ba0       ??_C@_1O@BMMEMDM@?$AA8?$AA0?$AA3?$AA8?$AA7?$AA?6@ 00000000000796c0     UefiShellDebug1CommandsLib:PrintInfo.obj
 0002:00012bb0       ??_C@_1O@ODBAFHEF@?$AA8?$AA0?$AA4?$AA8?$AA7?$AA?6@ 00000000000796d0     UefiShellDebug1CommandsLib:PrintInfo.obj
 0002:00012bc0       ??_C@_1BG@DBAGDDAO@?$AAM?$AA2?$AA?5?$AAF?$AAa?$AAm?$AAi?$AAl?$AAy?$AA?6@ 00000000000796e0     UefiShellDebug1CommandsLib:PrintInfo.obj
 0002:00012bd8       ??_C@_1CC@MPNELHD@?$AAI?$AAn?$AAt?$AAe?$AAl?$AA?5?$AAC?$AAe?$AAl?$AAe?$AAr?$AAo?$AAn?$AA?5?$AAM@ 00000000000796f8     UefiShellDebug1CommandsLib:PrintInfo.obj
 0002:00012c00       ??_C@_1CI@IFPKFDMJ@?$AAI?$AAn?$AAt?$AAe?$AAl?$AA?5?$AAP?$AAe?$AAn?$AAt?$AAi?$AAu?$AAm?$AA?5?$AA4@ 0000000000079720     UefiShellDebug1CommandsLib:PrintInfo.obj
 0002:00012c28       ??_C@_1BG@ONMLJEEK@?$AAA?$AAM?$AAD?$AA?5?$AAD?$AAu?$AAr?$AAo?$AAn?$AA?6@ 0000000000079748     UefiShellDebug1CommandsLib:PrintInfo.obj
 0002:00012c40       ??_C@_1BG@NBKICNH@?$AAK?$AA6?$AA?5?$AAF?$AAa?$AAm?$AAi?$AAl?$AAy?$AA?6@ 0000000000079760     UefiShellDebug1CommandsLib:PrintInfo.obj
 0002:00012c58       ??_C@_1M@OEEKOJFE@?$AAK?$AA6?$AA?9?$AA2?$AA?6@ 0000000000079778     UefiShellDebug1CommandsLib:PrintInfo.obj
 0002:00012c68       ??_C@_1M@CPBGDKPB@?$AAK?$AA6?$AA?9?$AA3?$AA?6@ 0000000000079788     UefiShellDebug1CommandsLib:PrintInfo.obj
 0002:00012c78       ??_C@_1DK@FOMJPGAK@?$AAA?$AAM?$AAD?$AA?5?$AAA?$AAl?$AAt?$AAh?$AAo?$AAn?$AA?5?$AAP?$AAr?$AAo?$AAc@ 0000000000079798     UefiShellDebug1CommandsLib:PrintInfo.obj
 0002:00012cb8       ??_C@_1CE@IEKOHBKD@?$AAA?$AAM?$AAD?$AA?5?$AA2?$AA9?$AA0?$AA0?$AA0?$AA?5?$AAF?$AAa?$AAm?$AAi?$AAl@ 00000000000797d8     UefiShellDebug1CommandsLib:PrintInfo.obj
 0002:00012ce0       ??_C@_1O@KEEMBADB@?$AAK?$AA6?$AA?9?$AA2?$AA?$CL?$AA?6@ 0000000000079800     UefiShellDebug1CommandsLib:PrintInfo.obj
 0002:00012cf0       ??_C@_1BM@CMFDIAEL@?$AAP?$AAo?$AAw?$AAe?$AAr?$AA?5?$AAP?$AAC?$AA?5?$AA6?$AA2?$AA0?$AA?6@ 0000000000079810     UefiShellDebug1CommandsLib:PrintInfo.obj
 0002:00012d10       ??_C@_1BM@BKCFKOBO@?$AAP?$AAo?$AAw?$AAe?$AAr?$AA?5?$AAP?$AAC?$AA?5?$AA7?$AA0?$AA4?$AA?6@ 0000000000079830     UefiShellDebug1CommandsLib:PrintInfo.obj
 0002:00012d30       ??_C@_1BM@MJFEOCGM@?$AAP?$AAo?$AAw?$AAe?$AAr?$AA?5?$AAP?$AAC?$AA?5?$AA7?$AA5?$AA0?$AA?6@ 0000000000079850     UefiShellDebug1CommandsLib:PrintInfo.obj
 0002:00012d50       ??_C@_1DO@IMFJCMIO@?$AAI?$AAn?$AAt?$AAe?$AAl?$AA?$CI?$AAR?$AA?$CJ?$AA?5?$AAC?$AAo?$AAr?$AAe?$AA?$CI?$AAT@ 0000000000079870     UefiShellDebug1CommandsLib:PrintInfo.obj
 0002:00012d90       ??_C@_1EA@FLOKOMLP@?$AAI?$AAn?$AAt?$AAe?$AAl?$AA?$CI?$AAR?$AA?$CJ?$AA?5?$AAC?$AAo?$AAr?$AAe?$AA?$CI?$AAT@ 00000000000798b0     UefiShellDebug1CommandsLib:PrintInfo.obj
 0002:00012dd0       ??_C@_1EA@GEDEDBAO@?$AAI?$AAn?$AAt?$AAe?$AAl?$AA?$CI?$AAR?$AA?$CJ?$AA?5?$AAC?$AAo?$AAr?$AAe?$AA?$CI?$AAT@ 00000000000798f0     UefiShellDebug1CommandsLib:PrintInfo.obj
 0002:00012e10       ??_C@_1EA@HBHOHKGB@?$AAI?$AAn?$AAt?$AAe?$AAl?$AA?$CI?$AAR?$AA?$CJ?$AA?5?$AAC?$AAo?$AAr?$AAe?$AA?$CI?$AAT@ 0000000000079930     UefiShellDebug1CommandsLib:PrintInfo.obj
 0002:00012e50       ??_C@_1BK@EILJHJBO@?$AAA?$AAl?$AAp?$AAh?$AAa?$AA?5?$AA2?$AA1?$AA0?$AA6?$AA4?$AA?6@ 0000000000079970     UefiShellDebug1CommandsLib:PrintInfo.obj
 0002:00012e70       ??_C@_1BK@FHBNIBF@?$AAA?$AAl?$AAp?$AAh?$AAa?$AA?5?$AA2?$AA1?$AA0?$AA6?$AA6?$AA?6@ 0000000000079990     UefiShellDebug1CommandsLib:PrintInfo.obj
 0002:00012e90       ??_C@_1BK@KHHLBCCA@?$AAA?$AAl?$AAp?$AAh?$AAa?$AA?5?$AA2?$AA1?$AA1?$AA6?$AA4?$AA?6@ 00000000000799b0     UefiShellDebug1CommandsLib:PrintInfo.obj
 0002:00012eb0       ??_C@_1BO@BJHODJPO@?$AAA?$AAl?$AAp?$AAh?$AAa?$AA?5?$AA2?$AA1?$AA1?$AA6?$AA4?$AAP?$AAC?$AA?6@ 00000000000799d0     UefiShellDebug1CommandsLib:PrintInfo.obj
 0002:00012ed0       ??_C@_1BM@GLLDONGM@?$AAA?$AAl?$AAp?$AAh?$AAa?$AA?5?$AA2?$AA1?$AA1?$AA6?$AA4?$AAa?$AA?6@ 00000000000799f0     UefiShellDebug1CommandsLib:PrintInfo.obj
 0002:00012ef0       ??_C@_1BK@EMEMKJCD@?$AAA?$AAl?$AAp?$AAh?$AAa?$AA?5?$AA2?$AA1?$AA2?$AA6?$AA4?$AA?6@ 0000000000079a10     UefiShellDebug1CommandsLib:PrintInfo.obj
 0002:00012f10       ??_C@_1BK@KDIOMCBN@?$AAA?$AAl?$AAp?$AAh?$AAa?$AA?5?$AA2?$AA1?$AA3?$AA6?$AA4?$AA?6@ 0000000000079a30     UefiShellDebug1CommandsLib:PrintInfo.obj
 0002:00012f30       ??_C@_1HC@BGNAJMPG@?$AAA?$AAM?$AAD?$AA?5?$AAT?$AAu?$AAr?$AAi?$AAo?$AAn?$AA?5?$AAI?$AAI?$AA?5?$AAU@ 0000000000079a50     UefiShellDebug1CommandsLib:PrintInfo.obj
 0002:00012fb0       ??_C@_1GG@GHONLEP@?$AAA?$AAM?$AAD?$AA?5?$AAT?$AAu?$AAr?$AAi?$AAo?$AAn?$AA?5?$AAI?$AAI?$AA?5?$AAD@ 0000000000079ad0     UefiShellDebug1CommandsLib:PrintInfo.obj
 0002:00013020       ??_C@_1FI@EDMINKLJ@?$AAA?$AAM?$AAD?$AA?5?$AAA?$AAl?$AAt?$AAh?$AAo?$AAn?$AA?5?$AAI?$AAI?$AA?5?$AAD@ 0000000000079b40     UefiShellDebug1CommandsLib:PrintInfo.obj
 0002:00013080       ??_C@_1EG@KMMBGHAG@?$AAA?$AAM?$AAD?$AA?5?$AAO?$AAp?$AAt?$AAe?$AAr?$AAo?$AAn?$AA?5?$AA6?$AA1?$AA0@ 0000000000079ba0     UefiShellDebug1CommandsLib:PrintInfo.obj
 0002:000130d0       ??_C@_1EG@FDFCFACA@?$AAA?$AAM?$AAD?$AA?5?$AAO?$AAp?$AAt?$AAe?$AAr?$AAo?$AAn?$AA?5?$AA4?$AA1?$AA0@ 0000000000079bf0     UefiShellDebug1CommandsLib:PrintInfo.obj
 0002:00013120       ??_C@_1EG@NCLJCPKA@?$AAA?$AAM?$AAD?$AA?5?$AAO?$AAp?$AAt?$AAe?$AAr?$AAo?$AAn?$AA?5?$AA6?$AA2?$AA0@ 0000000000079c40     UefiShellDebug1CommandsLib:PrintInfo.obj
 0002:00013170       ??_C@_1EG@CNCKBIIG@?$AAA?$AAM?$AAD?$AA?5?$AAO?$AAp?$AAt?$AAe?$AAr?$AAo?$AAn?$AA?5?$AA4?$AA2?$AA0@ 0000000000079c90     UefiShellDebug1CommandsLib:PrintInfo.obj
 0002:000131b8       ??_C@_1BI@MPPDNMDI@?$AAM?$AAI?$AAP?$AAS?$AA?5?$AAR?$AA4?$AA0?$AA0?$AA0?$AA?6@ 0000000000079cd8     UefiShellDebug1CommandsLib:PrintInfo.obj
 0002:000131d0       ??_C@_1BI@MLAGAMAF@?$AAM?$AAI?$AAP?$AAS?$AA?5?$AAR?$AA4?$AA2?$AA0?$AA0?$AA?6@ 0000000000079cf0     UefiShellDebug1CommandsLib:PrintInfo.obj
 0002:000131e8       ??_C@_1BI@MGBIHMEC@?$AAM?$AAI?$AAP?$AAS?$AA?5?$AAR?$AA4?$AA4?$AA0?$AA0?$AA?6@ 0000000000079d08     UefiShellDebug1CommandsLib:PrintInfo.obj
 0002:00013200       ??_C@_1BI@MCONKMHP@?$AAM?$AAI?$AAP?$AAS?$AA?5?$AAR?$AA4?$AA6?$AA0?$AA0?$AA?6@ 0000000000079d20     UefiShellDebug1CommandsLib:PrintInfo.obj
 0002:00013218       ??_C@_1BK@NGAFEHDF@?$AAM?$AAI?$AAP?$AAS?$AA?5?$AAR?$AA1?$AA0?$AA0?$AA0?$AA0?$AA?6@ 0000000000079d38     UefiShellDebug1CommandsLib:PrintInfo.obj
 0002:00013238       ??_C@_1DA@HPBBECC@?$AAA?$AAM?$AAD?$AA?5?$AAC?$AA?9?$AAS?$AAe?$AAr?$AAi?$AAe?$AAs?$AA?5?$AAP?$AAr@ 0000000000079d58     UefiShellDebug1CommandsLib:PrintInfo.obj
 0002:00013268       ??_C@_1DA@FCIIHFDC@?$AAA?$AAM?$AAD?$AA?5?$AAE?$AA?9?$AAS?$AAe?$AAr?$AAi?$AAe?$AAs?$AA?5?$AAP?$AAr@ 0000000000079d88     UefiShellDebug1CommandsLib:PrintInfo.obj
 0002:00013298       ??_C@_1DA@ICAJDGON@?$AAA?$AAM?$AAD?$AA?5?$AAA?$AA?9?$AAS?$AAe?$AAr?$AAi?$AAe?$AAs?$AA?5?$AAP?$AAr@ 0000000000079db8     UefiShellDebug1CommandsLib:PrintInfo.obj
 0002:000132c8       ??_C@_1DA@NHHAFHPN@?$AAA?$AAM?$AAD?$AA?5?$AAG?$AA?9?$AAS?$AAe?$AAr?$AAi?$AAe?$AAs?$AA?5?$AAP?$AAr@ 0000000000079de8     UefiShellDebug1CommandsLib:PrintInfo.obj
 0002:000132f8       ??_C@_1BI@CHKAHKIO@?$AAS?$AAu?$AAp?$AAe?$AAr?$AAS?$AAp?$AAa?$AAr?$AAc?$AA?6@ 0000000000079e18     UefiShellDebug1CommandsLib:PrintInfo.obj
 0002:00013310       ??_C@_1BO@LDJKINIJ@?$AAm?$AAi?$AAc?$AAr?$AAo?$AAS?$AAp?$AAa?$AAr?$AAc?$AA?5?$AAI?$AAI?$AA?6@ 0000000000079e30     UefiShellDebug1CommandsLib:PrintInfo.obj
 0002:00013330       ??_C@_1CC@MNCOKOHG@?$AAm?$AAi?$AAc?$AAr?$AAo?$AAS?$AAp?$AAa?$AAr?$AAc?$AA?5?$AAI?$AAI?$AAe?$AAp@ 0000000000079e50     UefiShellDebug1CommandsLib:PrintInfo.obj
 0002:00013358       ??_C@_1BI@NOIOBHBG@?$AAU?$AAl?$AAt?$AAr?$AAa?$AAS?$AAp?$AAa?$AAr?$AAc?$AA?6@ 0000000000079e78     UefiShellDebug1CommandsLib:PrintInfo.obj
 0002:00013370       ??_C@_1BO@KEJJICDJ@?$AAU?$AAl?$AAt?$AAr?$AAa?$AAS?$AAp?$AAa?$AAr?$AAc?$AA?5?$AAI?$AAI?$AA?6@ 0000000000079e90     UefiShellDebug1CommandsLib:PrintInfo.obj
 0002:00013390       ??_C@_1BO@IOMHKILF@?$AAU?$AAl?$AAt?$AAr?$AAa?$AAS?$AAp?$AAa?$AAr?$AAc?$AAI?$AAI?$AAi?$AA?6@ 0000000000079eb0     UefiShellDebug1CommandsLib:PrintInfo.obj
 0002:000133b0       ??_C@_1BO@IJGLKNID@?$AAU?$AAl?$AAt?$AAr?$AAa?$AAS?$AAp?$AAa?$AAr?$AAc?$AAI?$AAI?$AAI?$AA?6@ 0000000000079ed0     UefiShellDebug1CommandsLib:PrintInfo.obj
 0002:000133d0       ??_C@_1CA@FJBEAACG@?$AAU?$AAl?$AAt?$AAr?$AAa?$AAS?$AAp?$AAa?$AAr?$AAc?$AAI?$AAI?$AAI?$AAi?$AA?6@ 0000000000079ef0     UefiShellDebug1CommandsLib:PrintInfo.obj
 0002:000133f0       ??_C@_1M@PDGDINFF@?$AA6?$AA8?$AAx?$AAx?$AA?6@ 0000000000079f10     UefiShellDebug1CommandsLib:PrintInfo.obj
 0002:00013400       ??_C@_1O@OJIMPPEM@?$AA6?$AA8?$AA0?$AA0?$AA0?$AA?6@ 0000000000079f20     UefiShellDebug1CommandsLib:PrintInfo.obj
 0002:00013410       ??_C@_1O@CFCGPPNC@?$AA6?$AA8?$AA0?$AA1?$AA0?$AA?6@ 0000000000079f30     UefiShellDebug1CommandsLib:PrintInfo.obj
 0002:00013420       ??_C@_1O@KLKJPIDB@?$AA6?$AA8?$AA0?$AA2?$AA0?$AA?6@ 0000000000079f40     UefiShellDebug1CommandsLib:PrintInfo.obj
 0002:00013430       ??_C@_1O@GHADPIKP@?$AA6?$AA8?$AA0?$AA3?$AA0?$AA?6@ 0000000000079f50     UefiShellDebug1CommandsLib:PrintInfo.obj
 0002:00013440       ??_C@_1FM@FOHMLCBI@?$AAA?$AAM?$AAD?$AA?5?$AAA?$AAt?$AAh?$AAl?$AAo?$AAn?$AA?$CI?$AAT?$AAM?$AA?$CJ?$AA?5@ 0000000000079f60     UefiShellDebug1CommandsLib:PrintInfo.obj
 0002:000134a0       ??_C@_1FA@FKKGBNEM@?$AAA?$AAM?$AAD?$AA?5?$AAO?$AAp?$AAt?$AAe?$AAr?$AAo?$AAn?$AA?$CI?$AAT?$AAM?$AA?$CJ@ 0000000000079fc0     UefiShellDebug1CommandsLib:PrintInfo.obj
 0002:000134f0       ??_C@_1EE@FCPDGCIF@?$AAA?$AAM?$AAD?$AA?5?$AAO?$AAp?$AAt?$AAe?$AAr?$AAo?$AAn?$AA?$CI?$AAT?$AAM?$AA?$CJ@ 000000000007a010     UefiShellDebug1CommandsLib:PrintInfo.obj
 0002:00013540       ??_C@_1EI@MKFEPIAG@?$AAA?$AAM?$AAD?$AA?5?$AAO?$AAp?$AAt?$AAe?$AAr?$AAo?$AAn?$AA?$CI?$AAT?$AAM?$AA?$CJ@ 000000000007a060     UefiShellDebug1CommandsLib:PrintInfo.obj
 0002:00013590       ??_C@_1EE@HGHBDDLD@?$AAA?$AAM?$AAD?$AA?5?$AAO?$AAp?$AAt?$AAe?$AAr?$AAo?$AAn?$AA?$CI?$AAT?$AAM?$AA?$CJ@ 000000000007a0b0     UefiShellDebug1CommandsLib:PrintInfo.obj
 0002:000135d8       ??_C@_1DE@NFIODHPM@?$AAA?$AAM?$AAD?$AA?5?$AAZ?$AAe?$AAn?$AA?5?$AAP?$AAr?$AAo?$AAc?$AAe?$AAs?$AAs@ 000000000007a0f8     UefiShellDebug1CommandsLib:PrintInfo.obj
 0002:00013610       ??_C@_1BO@BEBPPGMP@?$AAC?$AAr?$AAu?$AAs?$AAo?$AAe?$AA?5?$AAT?$AAM?$AA5?$AA0?$AA0?$AA0?$AA?6@ 000000000007a130     UefiShellDebug1CommandsLib:PrintInfo.obj
 0002:00013630       ??_C@_1BO@PLCCFDCP@?$AAC?$AAr?$AAu?$AAs?$AAo?$AAe?$AA?5?$AAT?$AAM?$AA3?$AA0?$AA0?$AA0?$AA?6@ 000000000007a150     UefiShellDebug1CommandsLib:PrintInfo.obj
 0002:00013650       ??_C@_1CC@LNLDLOHK@?$AAE?$AAf?$AAf?$AAi?$AAc?$AAe?$AAo?$AAn?$AA?5?$AAT?$AAM?$AA8?$AA0?$AA0?$AA0@ 000000000007a170     UefiShellDebug1CommandsLib:PrintInfo.obj
 0002:00013678       ??_C@_1BC@BDBJDKEG@?$AAI?$AAt?$AAa?$AAn?$AAi?$AAu?$AAm?$AA?6@ 000000000007a198     UefiShellDebug1CommandsLib:PrintInfo.obj
 0002:00013690       ??_C@_1BM@NAEDFCPJ@?$AAA?$AAM?$AAD?$AA?5?$AAA?$AAt?$AAh?$AAl?$AAo?$AAn?$AA6?$AA4?$AA?6@ 000000000007a1b0     UefiShellDebug1CommandsLib:PrintInfo.obj
 0002:000136b0       ??_C@_1BK@JFKHHEGN@?$AAA?$AAM?$AAD?$AA?5?$AAO?$AAp?$AAt?$AAe?$AAr?$AAo?$AAn?$AA?6@ 000000000007a1d0     UefiShellDebug1CommandsLib:PrintInfo.obj
 0002:000136d0       ??_C@_1BK@GHNMOLDH@?$AAA?$AAM?$AAD?$AA?5?$AAS?$AAe?$AAm?$AAp?$AAr?$AAo?$AAn?$AA?6@ 000000000007a1f0     UefiShellDebug1CommandsLib:PrintInfo.obj
 0002:000136f0       ??_C@_1CK@FIAFKMGM@?$AAA?$AAM?$AAD?$AA?5?$AAT?$AAu?$AAr?$AAi?$AAo?$AAn?$AA6?$AA4?$AA?5?$AAM?$AAo@ 000000000007a210     UefiShellDebug1CommandsLib:PrintInfo.obj
 0002:00013720       ??_C@_1CO@LCENKIBJ@?$AAD?$AAu?$AAa?$AAl?$AA?9?$AAC?$AAo?$AAr?$AAe?$AA?5?$AAA?$AAM?$AAD?$AA?5?$AAO@ 000000000007a240     UefiShellDebug1CommandsLib:PrintInfo.obj
 0002:00013750       ??_C@_1DE@BFKEFMLO@?$AAA?$AAM?$AAD?$AA?5?$AAA?$AAt?$AAh?$AAl?$AAo?$AAn?$AA?5?$AA6?$AA4?$AAX?$AA2@ 000000000007a270     UefiShellDebug1CommandsLib:PrintInfo.obj
 0002:00013788       ??_C@_1DA@PNPLGDEH@?$AAA?$AAM?$AAD?$AA?5?$AAT?$AAu?$AAr?$AAi?$AAo?$AAn?$AA?5?$AA6?$AA4?$AAX?$AA2@ 000000000007a2a8     UefiShellDebug1CommandsLib:PrintInfo.obj
 0002:000137b8       ??_C@_1BM@KILCHNJC@?$AAP?$AAA?$AA?9?$AAR?$AAI?$AAS?$AAC?$AA?5?$AA8?$AA5?$AA0?$AA0?$AA?6@ 000000000007a2d8     UefiShellDebug1CommandsLib:PrintInfo.obj
 0002:000137d8       ??_C@_1BM@EOJLLGNG@?$AAP?$AAA?$AA?9?$AAR?$AAI?$AAS?$AAC?$AA?5?$AA8?$AA0?$AA0?$AA0?$AA?6@ 000000000007a2f8     UefiShellDebug1CommandsLib:PrintInfo.obj
 0002:000137f8       ??_C@_1CA@DKDFEKIM@?$AAP?$AAA?$AA?9?$AAR?$AAI?$AAS?$AAC?$AA?5?$AA7?$AA3?$AA0?$AA0?$AAL?$AAC?$AA?6@ 000000000007a318     UefiShellDebug1CommandsLib:PrintInfo.obj
 0002:00013818       ??_C@_1BM@DIPKPJJK@?$AAP?$AAA?$AA?9?$AAR?$AAI?$AAS?$AAC?$AA?5?$AA7?$AA2?$AA0?$AA0?$AA?6@ 000000000007a338     UefiShellDebug1CommandsLib:PrintInfo.obj
 0002:00013838       ??_C@_1CA@NLFLIOCB@?$AAP?$AAA?$AA?9?$AAR?$AAI?$AAS?$AAC?$AA?5?$AA7?$AA1?$AA0?$AA0?$AAL?$AAC?$AA?6@ 000000000007a358     UefiShellDebug1CommandsLib:PrintInfo.obj
 0002:00013858       ??_C@_1BM@NDMNECJJ@?$AAP?$AAA?$AA?9?$AAR?$AAI?$AAS?$AAC?$AA?5?$AA7?$AA1?$AA0?$AA0?$AA?6@ 000000000007a378     UefiShellDebug1CommandsLib:PrintInfo.obj
 0002:00013880       ??_C@_1GM@LGNOEJOA@?$AAP?$AAe?$AAn?$AAt?$AAi?$AAu?$AAm?$AA?5?$AAI?$AAI?$AAI?$AA?5?$AAP?$AAr?$AAo@ 000000000007a3a0     UefiShellDebug1CommandsLib:PrintInfo.obj
 0002:000138f0       ??_C@_1CK@COKBNKJM@?$AAP?$AAe?$AAn?$AAt?$AAi?$AAu?$AAm?$AA?5?$AA4?$AA?5?$AAp?$AAr?$AAo?$AAc?$AAe@ 000000000007a410     UefiShellDebug1CommandsLib:PrintInfo.obj
 0002:00013920       ??_C@_1CM@PBDLLDGD@?$AAI?$AAn?$AAt?$AAe?$AAl?$AA?5?$AAX?$AAe?$AAo?$AAn?$AA?5?$AAP?$AAr?$AAo?$AAc@ 000000000007a440     UefiShellDebug1CommandsLib:PrintInfo.obj
 0002:00013950       ??_C@_1BM@NCNDNNOI@?$AAA?$AAS?$AA4?$AA0?$AA0?$AA?5?$AAF?$AAa?$AAm?$AAi?$AAl?$AAy?$AA?6@ 000000000007a470     UefiShellDebug1CommandsLib:PrintInfo.obj
 0002:00013970       ??_C@_1DC@PFEAGGGB@?$AAI?$AAn?$AAt?$AAe?$AAl?$AA?5?$AAX?$AAe?$AAo?$AAn?$AA?5?$AAp?$AAr?$AAo?$AAc@ 000000000007a490     UefiShellDebug1CommandsLib:PrintInfo.obj
 0002:000139b0       ??_C@_1EA@BINOHLN@?$AAA?$AAM?$AAD?$AA?5?$AAA?$AAl?$AAt?$AAh?$AAo?$AAn?$AA?5?$AAX?$AAP?$AA?5?$AAP@ 000000000007a4d0     UefiShellDebug1CommandsLib:PrintInfo.obj
 0002:000139f0       ??_C@_1EC@IFDBEIAC@?$AAA?$AAM?$AAD?$AA?5?$AAA?$AAl?$AAt?$AAh?$AAo?$AAn?$AA?5?$AAM?$AAP?$AA?5?$AAP@ 000000000007a510     UefiShellDebug1CommandsLib:PrintInfo.obj
 0002:00013a38       ??_C@_1DG@BNHFBMCE@?$AAI?$AAn?$AAt?$AAe?$AAl?$AA?5?$AAI?$AAt?$AAa?$AAn?$AAi?$AAu?$AAm?$AA?5?$AA2@ 000000000007a558     UefiShellDebug1CommandsLib:PrintInfo.obj
 0002:00013a70       ??_C@_1DE@MMFIDIPD@?$AAI?$AAn?$AAt?$AAe?$AAl?$AA?5?$AAP?$AAe?$AAn?$AAi?$AAu?$AAm?$AA?5?$AAM?$AA?5@ 000000000007a590     UefiShellDebug1CommandsLib:PrintInfo.obj
 0002:00013aa8       ??_C@_1DG@EIKPMALL@?$AAI?$AAn?$AAt?$AAe?$AAl?$AA?5?$AAC?$AAe?$AAl?$AAe?$AAr?$AAo?$AAn?$AA?5?$AAD@ 000000000007a5c8     UefiShellDebug1CommandsLib:PrintInfo.obj
 0002:00013ae0       ??_C@_1DG@OCIJHOFC@?$AAI?$AAn?$AAt?$AAe?$AAl?$AA?5?$AAP?$AAe?$AAn?$AAt?$AAi?$AAu?$AAm?$AA?5?$AAD@ 000000000007a600     UefiShellDebug1CommandsLib:PrintInfo.obj
 0002:00013b20       ??_C@_1FC@NAEIDNNM@?$AAI?$AAn?$AAt?$AAe?$AAl?$AA?5?$AAP?$AAe?$AAn?$AAt?$AAi?$AAu?$AAm?$AA?5?$AAP@ 000000000007a640     UefiShellDebug1CommandsLib:PrintInfo.obj
 0002:00013b78       ??_C@_1DG@JLGLHAFK@?$AAI?$AAn?$AAt?$AAe?$AAl?$AA?5?$AAC?$AAo?$AAr?$AAe?$AA?5?$AAS?$AAo?$AAl?$AAo@ 000000000007a698     UefiShellDebug1CommandsLib:PrintInfo.obj
 0002:00013bb0       ??_C@_1DI@JGEHJCPH@?$AAI?$AAn?$AAt?$AAe?$AAl?$AA?5?$AAC?$AAo?$AAr?$AAe?$AA?5?$AA2?$AA?5?$AAD?$AAu@ 000000000007a6d0     UefiShellDebug1CommandsLib:PrintInfo.obj
 0002:00013be8       ??_C@_1BC@OPEHEBFA@?$AAI?$AAB?$AAM?$AA?5?$AA3?$AA9?$AA0?$AA?6@ 000000000007a708     UefiShellDebug1CommandsLib:PrintInfo.obj
 0002:00013c00       ??_C@_17EJNDEOLN@?$AAG?$AA4?$AA?6@ 000000000007a720     UefiShellDebug1CommandsLib:PrintInfo.obj
 0002:00013c08       ??_C@_17ICIPJNBI@?$AAG?$AA5?$AA?6@ 000000000007a728     UefiShellDebug1CommandsLib:PrintInfo.obj
 0002:00013c10       ??_C@_17EBLOPLG@?$AAG?$AA6?$AA?6@ 000000000007a730     UefiShellDebug1CommandsLib:PrintInfo.obj
 0002:00013c18       ??_C@_1BO@JNODFENM@?$AAz?$AAA?$AAr?$AAc?$AAh?$AAi?$AAt?$AAe?$AAc?$AAt?$AAu?$AAr?$AAe?$AA?6@ 000000000007a738     UefiShellDebug1CommandsLib:PrintInfo.obj
 0002:00013c38       ??_C@_1DC@BMHNHMCB@?$AAI?$AAn?$AAt?$AAe?$AAl?$AA?5?$AAC?$AAo?$AAr?$AAe?$AA?5?$AAi?$AA5?$AA?5?$AAp@ 000000000007a758     UefiShellDebug1CommandsLib:PrintInfo.obj
 0002:00013c70       ??_C@_1DC@CDKDKBJA@?$AAI?$AAn?$AAt?$AAe?$AAl?$AA?5?$AAC?$AAo?$AAr?$AAe?$AA?5?$AAi?$AA3?$AA?5?$AAp@ 000000000007a790     UefiShellDebug1CommandsLib:PrintInfo.obj
 0002:00013ca8       ??_C@_1DC@GDMAMHED@?$AAI?$AAn?$AAt?$AAe?$AAl?$AA?5?$AAC?$AAo?$AAr?$AAe?$AA?5?$AAi?$AA9?$AA?5?$AAp@ 000000000007a7c8     UefiShellDebug1CommandsLib:PrintInfo.obj
 0002:00013ce0       ??_C@_1BA@DPAOFKDF@?$AAV?$AAi?$AAa?$AAC?$AA7?$AAM?$AA?6@ 000000000007a800     UefiShellDebug1CommandsLib:PrintInfo.obj
 0002:00013cf0       ??_C@_1BA@BIABALPN@?$AAV?$AAi?$AAa?$AAC?$AA7?$AAD?$AA?6@ 000000000007a810     UefiShellDebug1CommandsLib:PrintInfo.obj
 0002:00013d00       ??_C@_1O@KLIDCNLL@?$AAV?$AAi?$AAa?$AAC?$AA7?$AA?6@ 000000000007a820     UefiShellDebug1CommandsLib:PrintInfo.obj
 0002:00013d10       ??_C@_1M@DBKOHNOL@?$AAE?$AAd?$AAe?$AAn?$AA?6@ 000000000007a830     UefiShellDebug1CommandsLib:PrintInfo.obj
 0002:00013d20       ??_C@_1FK@HOMBONFK@?$AAM?$AAu?$AAl?$AAt?$AAi?$AA?9?$AAC?$AAo?$AAr?$AAe?$AA?5?$AAI?$AAn?$AAt?$AAe@ 000000000007a840     UefiShellDebug1CommandsLib:PrintInfo.obj
 0002:00013d80       ??_C@_1EA@OGNJEDMM@?$AAA?$AAM?$AAD?$AA?5?$AAP?$AAh?$AAe?$AAn?$AAo?$AAm?$AA?5?$AAI?$AAI?$AA?5?$AAP@ 000000000007a8a0     UefiShellDebug1CommandsLib:PrintInfo.obj
 0002:00013dc0       ??_C@_1EA@JCFCBKHL@?$AAA?$AAM?$AAD?$AA?5?$AAA?$AAl?$AAt?$AAh?$AAo?$AAn?$AA?5?$AAI?$AAI?$AA?5?$AAP@ 000000000007a8e0     UefiShellDebug1CommandsLib:PrintInfo.obj
 0002:00013e00       ??_C@_1EO@MPMLOLPM@?$AAS?$AAi?$AAx?$AA?9?$AAC?$AAo?$AAr?$AAe?$AA?5?$AAA?$AAM?$AAD?$AA?5?$AAO?$AAp@ 000000000007a920     UefiShellDebug1CommandsLib:PrintInfo.obj
 0002:00013e50       ??_C@_1EA@MJCKMPOO@?$AAA?$AAM?$AAD?$AA?5?$AAS?$AAe?$AAm?$AAp?$AAr?$AAo?$AAn?$AA?5?$AAM?$AA?5?$AAP@ 000000000007a970     UefiShellDebug1CommandsLib:PrintInfo.obj
 0002:00013e90       ??_C@_1M@GCJABAPG@?$AAi?$AA8?$AA6?$AA0?$AA?6@ 000000000007a9b0     UefiShellDebug1CommandsLib:PrintInfo.obj
 0002:00013ea0       ??_C@_1M@INFCHLMI@?$AAi?$AA9?$AA6?$AA0?$AA?6@ 000000000007a9c0     UefiShellDebug1CommandsLib:PrintInfo.obj
 0002:00013eb0       ??_C@_1JI@FMGLMFGO@?$AAI?$AAn?$AAd?$AAi?$AAc?$AAa?$AAt?$AAo?$AAr?$AA?5?$AAt?$AAo?$AA?5?$AAo?$AAb@ 000000000007a9d0     UefiShellDebug1CommandsLib:PrintInfo.obj
 0002:00013f48       ??_C@_1O@FFALJHFK@?$AAA?$AAR?$AAM?$AAv?$AA7?$AA?6@ 000000000007aa68     UefiShellDebug1CommandsLib:PrintInfo.obj
 0002:00013f58       ??_C@_1O@KEFNCFIP@?$AAA?$AAR?$AAM?$AAv?$AA8?$AA?6@ 000000000007aa78     UefiShellDebug1CommandsLib:PrintInfo.obj
 0002:00013f68       ??_C@_1M@MNICBENI@?$AAS?$AAH?$AA?9?$AA3?$AA?6@ 000000000007aa88     UefiShellDebug1CommandsLib:PrintInfo.obj
 0002:00013f78       ??_C@_1M@NAIHCEGA@?$AAS?$AAH?$AA?9?$AA4?$AA?6@ 000000000007aa98     UefiShellDebug1CommandsLib:PrintInfo.obj
 0002:00013f88       ??_C@_19KGHFPGHK@?$AAA?$AAR?$AAM?$AA?6@ 000000000007aaa8     UefiShellDebug1CommandsLib:PrintInfo.obj
 0002:00013f98       ??_C@_1BG@FGKDBBBD@?$AAS?$AAt?$AAr?$AAo?$AAn?$AAg?$AAA?$AAR?$AAM?$AA?6@ 000000000007aab8     UefiShellDebug1CommandsLib:PrintInfo.obj
 0002:00013fb0       ??_C@_1M@HBBGCDAE@?$AA6?$AAx?$AA8?$AA6?$AA?6@ 000000000007aad0     UefiShellDebug1CommandsLib:PrintInfo.obj
 0002:00013fc0       ??_C@_1BC@CAENEHEH@?$AAM?$AAe?$AAd?$AAi?$AAa?$AAG?$AAX?$AA?6@ 000000000007aae0     UefiShellDebug1CommandsLib:PrintInfo.obj
 0002:00013fd8       ??_C@_19GAJHJJP@?$AAM?$AAI?$AAI?$AA?6@ 000000000007aaf8     UefiShellDebug1CommandsLib:PrintInfo.obj
 0002:00013fe8       ??_C@_1BC@GAGODIOP@?$AAW?$AAi?$AAn?$AAC?$AAh?$AAi?$AAp?$AA?6@ 000000000007ab08     UefiShellDebug1CommandsLib:PrintInfo.obj
 0002:00014000       ??_C@_19DDLOCMOF@?$AAD?$AAS?$AAP?$AA?6@ 000000000007ab20     UefiShellDebug1CommandsLib:PrintInfo.obj
 0002:00014010       ??_C@_1CC@OGDPKOEN@?$AAV?$AAi?$AAd?$AAe?$AAo?$AA?5?$AAP?$AAr?$AAo?$AAc?$AAe?$AAs?$AAs?$AAo?$AAr@ 000000000007ab30     UefiShellDebug1CommandsLib:PrintInfo.obj
 0002:00014038       ??_C@_1BK@CPPDDCIM@?$AAR?$AAI?$AAS?$AAC?$AA?9?$AAV?$AA?5?$AAR?$AAV?$AA3?$AA2?$AA?6@ 000000000007ab58     UefiShellDebug1CommandsLib:PrintInfo.obj
 0002:00014058       ??_C@_1BK@LBEKNPPF@?$AAR?$AAI?$AAS?$AAC?$AA?9?$AAV?$AA?5?$AAR?$AAV?$AA6?$AA4?$AA?6@ 000000000007ab78     UefiShellDebug1CommandsLib:PrintInfo.obj
 0002:00014078       ??_C@_1BM@HNBLDPML@?$AAR?$AAI?$AAS?$AAC?$AA?9?$AAV?$AA?5?$AAR?$AAV?$AA1?$AA2?$AA8?$AA?6@ 000000000007ab98     UefiShellDebug1CommandsLib:PrintInfo.obj
 0002:00014098       ??_C@_1BG@EGICAOCI@?$AAL?$AAo?$AAo?$AAn?$AAg?$AAA?$AAr?$AAc?$AAh?$AA?6@ 000000000007abb8     UefiShellDebug1CommandsLib:PrintInfo.obj
 0002:000140b0       ??_C@_1BG@NMEEOAAF@?$AAL?$AAo?$AAo?$AAn?$AAg?$AAs?$AAo?$AAn?$AA1?$AA?6@ 000000000007abd0     UefiShellDebug1CommandsLib:PrintInfo.obj
 0002:000140c8       ??_C@_1BG@FKNAJCKL@?$AAL?$AAo?$AAo?$AAn?$AAg?$AAs?$AAo?$AAn?$AA2?$AA?6@ 000000000007abe8     UefiShellDebug1CommandsLib:PrintInfo.obj
 0002:000140e0       ??_C@_1BG@JBIMEBAO@?$AAL?$AAo?$AAo?$AAn?$AAg?$AAs?$AAo?$AAn?$AA3?$AA?6@ 000000000007ac00     UefiShellDebug1CommandsLib:PrintInfo.obj
 0002:000140f8       ??_C@_1BI@PIELPEDH@?$AAL?$AAo?$AAo?$AAn?$AAg?$AAs?$AAo?$AAn?$AA2?$AAK?$AA?6@ 000000000007ac18     UefiShellDebug1CommandsLib:PrintInfo.obj
 0002:00014110       ??_C@_1BI@JFHKNHMP@?$AAL?$AAo?$AAo?$AAn?$AAg?$AAs?$AAo?$AAn?$AA3?$AAA?$AA?6@ 000000000007ac30     UefiShellDebug1CommandsLib:PrintInfo.obj
 0002:00014128       ??_C@_1BI@BDOOKFGB@?$AAL?$AAo?$AAo?$AAn?$AAg?$AAs?$AAo?$AAn?$AA3?$AAB?$AA?6@ 000000000007ac48     UefiShellDebug1CommandsLib:PrintInfo.obj
 0002:00014140       ??_C@_1BI@NILCHGME@?$AAL?$AAo?$AAo?$AAn?$AAg?$AAs?$AAo?$AAn?$AA3?$AAC?$AA?6@ 000000000007ac60     UefiShellDebug1CommandsLib:PrintInfo.obj
 0002:00014158       ??_C@_1BI@MFLHEGHM@?$AAL?$AAo?$AAo?$AAn?$AAg?$AAs?$AAo?$AAn?$AA3?$AAD?$AA?6@ 000000000007ac78     UefiShellDebug1CommandsLib:PrintInfo.obj
 0002:00014170       ??_C@_1BI@OOLJFNJ@?$AAL?$AAo?$AAo?$AAn?$AAg?$AAs?$AAo?$AAn?$AA3?$AAE?$AA?6@ 000000000007ac90     UefiShellDebug1CommandsLib:PrintInfo.obj
 0002:00014188       ??_C@_1CI@GNKADIOI@?$AAD?$AAu?$AAa?$AAl?$AAC?$AAo?$AAr?$AAe?$AAL?$AAo?$AAo?$AAn?$AAg?$AAs?$AAo@ 000000000007aca8     UefiShellDebug1CommandsLib:PrintInfo.obj
 0002:000141b0       ??_C@_1CI@HENAEGIH@?$AAQ?$AAu?$AAa?$AAd?$AAC?$AAo?$AAr?$AAe?$AAL?$AAo?$AAo?$AAn?$AAg?$AAs?$AAo@ 000000000007acd0     UefiShellDebug1CommandsLib:PrintInfo.obj
 0002:000141d8       ??_C@_1CK@BMLBJNGN@?$AAM?$AAu?$AAl?$AAt?$AAi?$AAC?$AAo?$AAr?$AAe?$AAL?$AAo?$AAo?$AAn?$AAg?$AAs@ 000000000007acf8     UefiShellDebug1CommandsLib:PrintInfo.obj
 0002:00014208       ??_C@_1CI@PCEEDECJ@?$AAQ?$AAu?$AAa?$AAd?$AAC?$AAo?$AAr?$AAe?$AAL?$AAo?$AAo?$AAn?$AAg?$AAs?$AAo@ 000000000007ad28     UefiShellDebug1CommandsLib:PrintInfo.obj
 0002:00014230       ??_C@_1CK@JKCFOPMD@?$AAM?$AAu?$AAl?$AAt?$AAi?$AAC?$AAo?$AAr?$AAe?$AAL?$AAo?$AAo?$AAn?$AAg?$AAs@ 000000000007ad50     UefiShellDebug1CommandsLib:PrintInfo.obj
 0002:00014260       ??_C@_1CK@FBHJDMGG@?$AAM?$AAu?$AAl?$AAt?$AAi?$AAC?$AAo?$AAr?$AAe?$AAL?$AAo?$AAo?$AAn?$AAg?$AAs@ 000000000007ad80     UefiShellDebug1CommandsLib:PrintInfo.obj
 0002:00014290       ??_C@_1CK@EMHMAMNO@?$AAM?$AAu?$AAl?$AAt?$AAi?$AAC?$AAo?$AAr?$AAe?$AAL?$AAo?$AAo?$AAn?$AAg?$AAs@ 000000000007adb0     UefiShellDebug1CommandsLib:PrintInfo.obj
 0002:000142c0       ??_C@_1BI@FMCOFDKA@?$AAI?$AAn?$AAt?$AAe?$AAl?$AAC?$AAo?$AAr?$AAe?$AA3?$AA?6@ 000000000007ade0     UefiShellDebug1CommandsLib:PrintInfo.obj
 0002:000142d8       ??_C@_1BI@IKHHLALN@?$AAI?$AAn?$AAt?$AAe?$AAl?$AAC?$AAo?$AAr?$AAe?$AA5?$AA?6@ 000000000007adf8     UefiShellDebug1CommandsLib:PrintInfo.obj
 0002:000142f0       ??_C@_1BI@MHLPBBLG@?$AAI?$AAn?$AAt?$AAe?$AAl?$AAC?$AAo?$AAr?$AAe?$AA7?$AA?6@ 000000000007ae10     UefiShellDebug1CommandsLib:PrintInfo.obj
 0002:00014308       ??_C@_1BI@PNLFHAMG@?$AAI?$AAn?$AAt?$AAe?$AAl?$AAC?$AAo?$AAr?$AAe?$AA9?$AA?6@ 000000000007ae28     UefiShellDebug1CommandsLib:PrintInfo.obj
 0002:00014320       ??_C@_1CC@NACDHOFF@?$AAI?$AAn?$AAt?$AAe?$AAl?$AAC?$AAo?$AAr?$AAe?$AAU?$AAl?$AAt?$AAr?$AAa?$AA3@ 000000000007ae40     UefiShellDebug1CommandsLib:PrintInfo.obj
 0002:00014348       ??_C@_1CC@GHKJNEI@?$AAI?$AAn?$AAt?$AAe?$AAl?$AAC?$AAo?$AAr?$AAe?$AAU?$AAl?$AAt?$AAr?$AAa?$AA5@ 000000000007ae68     UefiShellDebug1CommandsLib:PrintInfo.obj
 0002:00014370       ??_C@_1CC@ELLCDMED@?$AAI?$AAn?$AAt?$AAe?$AAl?$AAC?$AAo?$AAr?$AAe?$AAU?$AAl?$AAt?$AAr?$AAa?$AA7@ 000000000007ae90     UefiShellDebug1CommandsLib:PrintInfo.obj
 0002:00014398       ??_C@_1CC@HBLIFNDD@?$AAI?$AAn?$AAt?$AAe?$AAl?$AAC?$AAo?$AAr?$AAe?$AAU?$AAl?$AAt?$AAr?$AAa?$AA9@ 000000000007aeb8     UefiShellDebug1CommandsLib:PrintInfo.obj
 0002:000143c0       ??_C@_1FC@GDKAJBMP@?$AAT?$AAh?$AAe?$AA?5?$AAs?$AAy?$AAs?$AAt?$AAe?$AAm?$AA?5?$AAr?$AAe?$AAs?$AAe@ 000000000007aee0     UefiShellDebug1CommandsLib:PrintInfo.obj
 0002:00014420       ??_C@_1FE@CMLGLDEE@?$AAT?$AAh?$AAe?$AA?5?$AAs?$AAy?$AAs?$AAt?$AAe?$AAm?$AA?5?$AAr?$AAe?$AAs?$AAe@ 000000000007af40     UefiShellDebug1CommandsLib:PrintInfo.obj
 0002:00014478       ??_C@_0BH@HOJGLDNJ@Smbios?5?$CB?$DN?5?$CI?$CIvoid?5?$CK?$CJ?50?$CJ@ 000000000007af98     UefiShellDebug1CommandsLib:LibSmbiosView.obj
 0002:00014490       ??_C@_0GP@DJEFLJN@D?3?2uefi_specs_personal_collecti@ 000000000007afb0     UefiShellDebug1CommandsLib:LibSmbiosView.obj
 0002:00014500       ??_C@_1EO@GOADCGFO@?$AAF?$AAi?$AAl?$AAe?$AA?5?$AAm?$AAo?$AAd?$AAi?$AAf?$AAi?$AAe?$AAd?$AA?4?$AA?5@ 000000000007b020     UefiShellDebug1CommandsLib:MainTextEditor.obj
 0002:00014550       ??_C@_1EG@GMIKLNFD@?$AAR?$AAe?$AAa?$AAd?$AA?5?$AAO?$AAn?$AAl?$AAy?$AA?5?$AAF?$AAi?$AAl?$AAe?$AA?5@ 000000000007b070     UefiShellDebug1CommandsLib:MainTextEditor.obj
 0002:00014598       ??_C@_1CC@MLNBOFNI@?$AAN?$AAo?$AA?5?$AAL?$AAi?$AAn?$AAe?$AA?5?$AAt?$AAo?$AA?5?$AAP?$AAa?$AAs?$AAt@ 000000000007b0b8     UefiShellDebug1CommandsLib:MainTextEditor.obj
 0002:000145c0       ??_C@_1CM@DJMHEHIN@?$AAE?$AAn?$AAt?$AAe?$AAr?$AA?5?$AAS?$AAe?$AAa?$AAr?$AAc?$AAh?$AA?5?$AAS?$AAt@ 000000000007b0e0     UefiShellDebug1CommandsLib:MainTextEditor.obj
 0002:000145f0       ??_C@_1CK@IKKEFLKO@?$AAF?$AAi?$AAn?$AAd?$AA?5?$AAN?$AAe?$AAx?$AAt?$AA?5?$AA?$CI?$AAY?$AAe?$AAs?$AA?1@ 000000000007b110     UefiShellDebug1CommandsLib:MainTextEditor.obj
 0002:00014620       ??_C@_1DA@GANIGBBH@?$AAS?$AAe?$AAa?$AAr?$AAc?$AAh?$AA?5?$AAS?$AAt?$AAr?$AAi?$AAn?$AAg?$AA?5?$AAN@ 000000000007b140     UefiShellDebug1CommandsLib:MainTextEditor.obj
 0002:00014650       ??_C@_1BO@POPBJCFI@?$AAR?$AAe?$AAp?$AAl?$AAa?$AAc?$AAe?$AA?5?$AAW?$AAi?$AAt?$AAh?$AA?3?$AA?5@ 000000000007b170     UefiShellDebug1CommandsLib:MainTextEditor.obj
 0002:00014670       ??_C@_1DM@FAGODAPI@?$AAR?$AAe?$AAp?$AAl?$AAa?$AAc?$AAe?$AA?5?$AA?$CI?$AAY?$AAe?$AAs?$AA?1?$AAN?$AAo@ 000000000007b190     UefiShellDebug1CommandsLib:MainTextEditor.obj
 0002:000146b0       ??_C@_1BK@OOJDBGIO@?$AAG?$AAo?$AA?5?$AAT?$AAo?$AA?5?$AAL?$AAi?$AAn?$AAe?$AA?3?$AA?5@ 000000000007b1d0     UefiShellDebug1CommandsLib:MainTextEditor.obj
 0002:000146d0       ??_C@_1BK@NIKDLOEH@?$AAN?$AAo?$AA?5?$AAS?$AAu?$AAc?$AAh?$AA?5?$AAL?$AAi?$AAn?$AAe@ 000000000007b1f0     UefiShellDebug1CommandsLib:MainTextEditor.obj
 0002:000146f0       ??_C@_1BI@NDMBEGJD@?$AAO?$AAp?$AAe?$AAn?$AA?5?$AAF?$AAa?$AAi?$AAl?$AAe?$AAd@ 000000000007b210     UefiShellDebug1CommandsLib:MainTextEditor.obj
 0002:00014708       ??_C@_1DE@JKIEKFMF@?$AAA?$AAc?$AAc?$AAe?$AAs?$AAs?$AA?5?$AAD?$AAe?$AAn?$AAi?$AAe?$AAd?$AA?5?$AA?9@ 000000000007b228     UefiShellDebug1CommandsLib:MainTextEditor.obj
 0002:00014740       ??_C@_1BE@GDKECBCM@?$AAU?$AAE?$AAF?$AAI?$AA?5?$AAE?$AAD?$AAI?$AAT@ 000000000007b260     UefiShellDebug1CommandsLib:MainTextEditor.obj
 0002:00014760       ??_C@_0GK@CPKNJGDA@D?3?2uefi_specs_personal_collecti@ 000000000007b280     UefiShellDebug1CommandsLib:MainTextEditor.obj
 0002:000147d0       MainMenuHelpInfo           000000000007b2f0     UefiShellDebug1CommandsLib:MainTextEditor.obj
 0002:00014800       ??_C@_17LBOLAHJL@?$AAt?$AAx?$AAt@ 000000000007b320     UefiShellDebug1CommandsLib:FileBuffer.obj
 0002:00014810       ??_C@_0GG@BKBBEOBL@D?3?2uefi_specs_personal_collecti@ 000000000007b330     UefiShellDebug1CommandsLib:FileBuffer.obj
 0002:00014878       ??_C@_1BG@BHAMKCMJ@?$AAD?$AAi?$AAs?$AAk?$AA?5?$AAE?$AAr?$AAr?$AAo?$AAr@ 000000000007b398     UefiShellDebug1CommandsLib:FileBuffer.obj
 0002:00014890       ??_C@_1DI@JJCDHCMP@?$AAD?$AAi?$AAr?$AAe?$AAc?$AAt?$AAo?$AAr?$AAy?$AA?5?$AAC?$AAa?$AAn?$AA?5?$AAN@ 000000000007b3b0     UefiShellDebug1CommandsLib:FileBuffer.obj
 0002:000148d0       ??_C@_1FO@MJPODDGD@?$AAI?$AAn?$AAv?$AAa?$AAl?$AAi?$AAd?$AA?5?$AAF?$AAi?$AAl?$AAe?$AA?5?$AAN?$AAa@ 000000000007b3f0     UefiShellDebug1CommandsLib:FileBuffer.obj
 0002:00014930       ??_C@_1CC@ECPIEGMO@?$AAR?$AAe?$AAa?$AAd?$AA?5?$AAF?$AAi?$AAl?$AAe?$AA?5?$AAF?$AAa?$AAi?$AAl?$AAe@ 000000000007b450     UefiShellDebug1CommandsLib:FileBuffer.obj
 0002:00014958       ??_C@_1CE@MDDOMDFD@?$AAF?$AAi?$AAl?$AAe?$AA?5?$AAF?$AAo?$AAr?$AAm?$AAa?$AAt?$AA?5?$AAW?$AAr?$AAo@ 000000000007b478     UefiShellDebug1CommandsLib:FileBuffer.obj
 0002:00014980       ??_C@_1BM@EIMMJFOI@?$AA?$CF?$AAd?$AA?5?$AAL?$AAi?$AAn?$AAe?$AAs?$AA?5?$AAR?$AAe?$AAa?$AAd@ 000000000007b4a0     UefiShellDebug1CommandsLib:FileBuffer.obj
 0002:000149a0       ??_C@_1EA@KMGLANCH@?$AAR?$AAe?$AAa?$AAd?$AA?5?$AAO?$AAn?$AAl?$AAy?$AA?5?$AAF?$AAi?$AAl?$AAe?$AA?5@ 000000000007b4c0     UefiShellDebug1CommandsLib:FileBuffer.obj
 0002:000149e0       ??_C@_1DG@JNGOCPNM@?$AAD?$AAi?$AAr?$AAe?$AAc?$AAt?$AAo?$AAr?$AAy?$AA?5?$AAC?$AAa?$AAn?$AA?5?$AAN@ 000000000007b500     UefiShellDebug1CommandsLib:FileBuffer.obj
 0002:00014a18       ??_C@_1CE@ICGBOPPJ@?$AAW?$AAr?$AAi?$AAt?$AAe?$AA?5?$AAF?$AAi?$AAl?$AAe?$AA?5?$AAF?$AAa?$AAi?$AAl@ 000000000007b538     UefiShellDebug1CommandsLib:FileBuffer.obj
 0002:00014a40       ??_C@_1CG@LGANFAB@?$AAC?$AAr?$AAe?$AAa?$AAt?$AAe?$AA?5?$AAF?$AAi?$AAl?$AAe?$AA?5?$AAF?$AAa?$AAi@ 000000000007b560     UefiShellDebug1CommandsLib:FileBuffer.obj
 0002:00014a68       ??_C@_1CC@FCLNIBFG@?$AA?$CF?$AAd?$AA?5?$AAL?$AAi?$AAn?$AAe?$AAs?$AA?5?$AAW?$AAr?$AAi?$AAt?$AAt?$AAe@ 000000000007b588     UefiShellDebug1CommandsLib:FileBuffer.obj
 0002:00014a90       ??_C@_1BO@PAMCONJL@?$AAN?$AAo?$AAt?$AAh?$AAi?$AAn?$AAg?$AA?5?$AAt?$AAo?$AA?5?$AAC?$AAu?$AAt@ 000000000007b5b0     UefiShellDebug1CommandsLib:FileBuffer.obj
 0002:00014ab0       ??_C@_0BI@LLPNPOOB@ReplaceLen?5?$DN?$DN?5SearchLen@ 000000000007b5d0     UefiShellDebug1CommandsLib:FileBuffer.obj
 0002:00014ad0       ??_C@_0GD@MNAKMIBC@D?3?2uefi_specs_personal_collecti@ 000000000007b5f0     UefiShellDebug1CommandsLib:Misc.obj
 0002:00014b38       ??_C@_1O@HMNHGLNF@?$AAY?$AAe?$AAs?$AA?1?$AAN?$AAo@ 000000000007b658     UefiShellDebug1CommandsLib:EditInputBar.obj
 0002:00014b48       ??_C@_17GMPJMPF@?$AA?$CF?$AAs?$AA?5@ 000000000007b668     UefiShellDebug1CommandsLib:EditInputBar.obj
 0002:00014b50       ??_C@_1M@EHCOGDLN@?$AA?$CF?$AAs?$AA?5?$AA?5?$AA?5@ 000000000007b670     UefiShellDebug1CommandsLib:EditTitleBar.obj
 0002:00014b60       ??_C@_1O@NGMHFILL@?$AA?4?$AA?4?$AA?4?$AA?5?$AA?5?$AA?5@ 000000000007b680     UefiShellDebug1CommandsLib:EditTitleBar.obj
 0002:00014b70       ??_C@_1CA@JILHKOPA@?$AA?5?$AA?5?$AA?5?$AA?5?$AA?5?$AAA?$AAS?$AAC?$AAI?$AAI?$AA?5?$AA?5?$AA?5?$AA?5?$AA?5@ 000000000007b690     UefiShellDebug1CommandsLib:EditTitleBar.obj
 0002:00014b90       ??_C@_1CA@DJBIHGGP@?$AA?5?$AA?5?$AA?5?$AA?5?$AA?5?$AAU?$AAN?$AAI?$AAC?$AAO?$AAD?$AAE?$AA?5?$AA?5?$AA?5@ 000000000007b6b0     UefiShellDebug1CommandsLib:EditTitleBar.obj
 0002:00014bb0       ??_C@_1BI@ONNEOCHN@?$AAR?$AAe?$AAa?$AAd?$AAO?$AAn?$AAl?$AAy?$AA?5?$AA?5?$AA?5@ 000000000007b6d0     UefiShellDebug1CommandsLib:EditTitleBar.obj
 0002:00014bc8       ??_C@_1BI@LOBCKCIO@?$AA?5?$AA?5?$AA?5?$AA?5?$AA?5?$AA?5?$AA?5?$AA?5?$AA?5?$AA?5?$AA?5@ 000000000007b6e8     UefiShellDebug1CommandsLib:EditTitleBar.obj
 0002:00014be0       ??_C@_1CI@OGNHBGN@?$AAO?$AAf?$AAf?$AAs?$AAe?$AAt?$AA?5?$AA?$CF?$AAX?$AA?5?$AA?$HM?$AA?5?$AAS?$AAi?$AAz@ 000000000007b700     UefiShellDebug1CommandsLib:EditTitleBar.obj
 0002:00014c08       ??_C@_1BC@LJMDACDF@?$AAM?$AAo?$AAd?$AAi?$AAf?$AAi?$AAe?$AAd@ 000000000007b728     UefiShellDebug1CommandsLib:EditTitleBar.obj
 0002:00014c20       ??_C@_1CG@PKEPGPJG@?$AAR?$AAe?$AAa?$AAd?$AA?5?$AAM?$AAe?$AAm?$AAo?$AAr?$AAy?$AA?5?$AAF?$AAa?$AAi@ 000000000007b740     UefiShellDebug1CommandsLib:MemImage.obj
 0002:00014c50       ??_C@_1EA@GENECJI@?$AAM?$AAe?$AAm?$AAo?$AAr?$AAy?$AA?5?$AAS?$AAp?$AAe?$AAc?$AAi?$AAf?$AAi?$AAe@ 000000000007b770     UefiShellDebug1CommandsLib:MemImage.obj
 0002:00014c90       ??_C@_0GH@PNMDIJF@D?3?2uefi_specs_personal_collecti@ 000000000007b7b0     UefiShellDebug1CommandsLib:MemImage.obj
 0002:00014cf8       ??_C@_1CG@GGCANCNJ@?$AAC?$AAa?$AAn?$AAn?$AAo?$AAt?$AA?5?$AAF?$AAi?$AAn?$AAd?$AA?5?$AAD?$AAe?$AAv@ 000000000007b818     UefiShellDebug1CommandsLib:DiskImage.obj
 0002:00014d20       ??_C@_1CC@BOLHEDEM@?$AAR?$AAe?$AAa?$AAd?$AA?5?$AAD?$AAi?$AAs?$AAk?$AA?5?$AAF?$AAa?$AAi?$AAl?$AAe@ 000000000007b840     UefiShellDebug1CommandsLib:DiskImage.obj
 0002:00014d48       ??_C@_1CM@FECOOMNI@?$AAI?$AAn?$AAv?$AAa?$AAl?$AAi?$AAd?$AA?5?$AAO?$AAf?$AAf?$AAs?$AAe?$AAt?$AA?5@ 000000000007b868     UefiShellDebug1CommandsLib:DiskImage.obj
 0002:00014d80       ??_C@_0GI@OODLEHLF@D?3?2uefi_specs_personal_collecti@ 000000000007b8a0     UefiShellDebug1CommandsLib:DiskImage.obj
 0002:00014de8       ??_C@_1DE@HNKDFIPF@?$AAR?$AAe?$AAa?$AAd?$AA?5?$AAe?$AAr?$AAr?$AAo?$AAr?$AA?5?$AAo?$AAn?$AA?5?$AAf@ 000000000007b908     UefiShellDebug1CommandsLib:FileImage.obj
 0002:00014e20       ??_C@_1CI@LDONJDG@?$AAE?$AAr?$AAr?$AAo?$AAr?$AA?5?$AAp?$AAa?$AAr?$AAs?$AAi?$AAn?$AAg?$AA?5?$AAf@ 000000000007b940     UefiShellDebug1CommandsLib:FileImage.obj
 0002:00014e50       ??_C@_0GI@BMGHNINN@D?3?2uefi_specs_personal_collecti@ 000000000007b970     UefiShellDebug1CommandsLib:FileImage.obj
 0002:00014eb8       ??_C@_1BE@GKDFJNJK@?$AA?5?$AAR?$AAe?$AAs?$AAe?$AAr?$AAv?$AAe?$AAd@ 000000000007b9d8     UefiShellDebug1CommandsLib:QueryTable.obj
 0002:00014ed0       ??_C@_1O@MEHELOHD@?$AA?5?$AAO?$AAt?$AAh?$AAe?$AAr@ 000000000007b9f0     UefiShellDebug1CommandsLib:QueryTable.obj
 0002:00014ee0       ??_C@_1BC@GCBPLEMC@?$AA?5?$AAU?$AAn?$AAk?$AAn?$AAo?$AAw?$AAn@ 000000000007ba00     UefiShellDebug1CommandsLib:QueryTable.obj
 0002:00014ef8       ??_C@_1BG@DBMGKKNC@?$AA?5?$AAA?$AAP?$AAM?$AA?5?$AAT?$AAi?$AAm?$AAe?$AAr@ 000000000007ba18     UefiShellDebug1CommandsLib:QueryTable.obj
 0002:00014f10       ??_C@_1BI@KDNAJOKG@?$AA?5?$AAM?$AAo?$AAd?$AAe?$AAm?$AA?5?$AAR?$AAi?$AAn?$AAg@ 000000000007ba30     UefiShellDebug1CommandsLib:QueryTable.obj
 0002:00014f28       ??_C@_1BI@KOEJLOLP@?$AA?5?$AAL?$AAA?$AAN?$AA?5?$AAR?$AAe?$AAm?$AAo?$AAt?$AAe@ 000000000007ba48     UefiShellDebug1CommandsLib:QueryTable.obj
 0002:00014f40       ??_C@_1BM@DDPHONKP@?$AA?5?$AAP?$AAo?$AAw?$AAe?$AAr?$AA?5?$AAS?$AAw?$AAi?$AAt?$AAc?$AAh@ 000000000007ba60     UefiShellDebug1CommandsLib:QueryTable.obj
 0002:00014f60       ??_C@_1CG@BNFLMOMD@?$AA?5?$AAA?$AAC?$AA?5?$AAP?$AAo?$AAw?$AAe?$AAr?$AA?5?$AAR?$AAe?$AAs?$AAt?$AAo@ 000000000007ba80     UefiShellDebug1CommandsLib:QueryTable.obj
 0002:00014f88       ??_C@_1BO@NKAGCGLK@?$AA?5?$AAH?$AAo?$AAs?$AAt?$AAi?$AAn?$AAg?$AA?5?$AAb?$AAo?$AAa?$AAr?$AAd@ 000000000007baa8     UefiShellDebug1CommandsLib:QueryTable.obj
 0002:00014fb0       ??_C@_1HA@PNHHHGEL@?$AA?5?$AAR?$AAe?$AAq?$AAu?$AAi?$AAr?$AAe?$AAs?$AA?5?$AAa?$AAt?$AA?5?$AAl?$AAe@ 000000000007bad0     UefiShellDebug1CommandsLib:QueryTable.obj
 0002:00015020       ??_C@_1BG@DNJINIFJ@?$AA?5?$AAR?$AAe?$AAm?$AAo?$AAv?$AAa?$AAb?$AAl?$AAe@ 000000000007bb40     UefiShellDebug1CommandsLib:QueryTable.obj
 0002:00015038       ??_C@_1BK@GKKDLJDJ@?$AA?5?$AAR?$AAe?$AAp?$AAl?$AAa?$AAc?$AAe?$AAa?$AAb?$AAl?$AAe@ 000000000007bb58     UefiShellDebug1CommandsLib:QueryTable.obj
 0002:00015058       ??_C@_1BO@DAOKEGGB@?$AA?5?$AAH?$AAo?$AAt?$AA?5?$AAs?$AAw?$AAa?$AAp?$AAp?$AAa?$AAb?$AAl?$AAe@ 000000000007bb78     UefiShellDebug1CommandsLib:QueryTable.obj
 0002:00015078       ??_C@_1BM@GJJNJBFG@?$AA?5?$AAS?$AAe?$AAr?$AAv?$AAe?$AAr?$AA?5?$AAB?$AAl?$AAa?$AAd?$AAe@ 000000000007bb98     UefiShellDebug1CommandsLib:QueryTable.obj
 0002:00015098       ??_C@_1CK@FNJGONFO@?$AA?5?$AAC?$AAo?$AAn?$AAn?$AAe?$AAc?$AAt?$AAi?$AAv?$AAi?$AAt?$AAy?$AA?5?$AAS@ 000000000007bbb8     UefiShellDebug1CommandsLib:QueryTable.obj
 0002:000150c8       ??_C@_1DE@NKMEOENE@?$AA?5?$AAS?$AAy?$AAs?$AAt?$AAe?$AAm?$AA?5?$AAM?$AAa?$AAn?$AAa?$AAg?$AAe?$AAm@ 000000000007bbe8     UefiShellDebug1CommandsLib:QueryTable.obj
 0002:00015100       ??_C@_1CE@LIIEMPHG@?$AA?5?$AAP?$AAr?$AAo?$AAc?$AAe?$AAs?$AAs?$AAo?$AAr?$AA?5?$AAM?$AAo?$AAd?$AAu@ 000000000007bc20     UefiShellDebug1CommandsLib:QueryTable.obj
 0002:00015128       ??_C@_1BI@BIJEKCMA@?$AA?5?$AAI?$AA?1?$AAO?$AA?5?$AAM?$AAo?$AAd?$AAu?$AAl?$AAe@ 000000000007bc48     UefiShellDebug1CommandsLib:QueryTable.obj
 0002:00015140       ??_C@_1BO@EDNHMPEI@?$AA?5?$AAM?$AAe?$AAm?$AAo?$AAr?$AAy?$AA?5?$AAM?$AAo?$AAd?$AAu?$AAl?$AAe@ 000000000007bc60     UefiShellDebug1CommandsLib:QueryTable.obj
 0002:00015160       ??_C@_1CA@EMPCDKKO@?$AA?5?$AAD?$AAa?$AAu?$AAg?$AAh?$AAt?$AAe?$AAr?$AA?5?$AAb?$AAo?$AAa?$AAr?$AAd@ 000000000007bc80     UefiShellDebug1CommandsLib:QueryTable.obj
 0002:00015180       ??_C@_1BK@GOLJFFNO@?$AA?5?$AAM?$AAo?$AAt?$AAh?$AAe?$AAr?$AAb?$AAo?$AAa?$AAr?$AAd@ 000000000007bca0     UefiShellDebug1CommandsLib:QueryTable.obj
 0002:000151a0       ??_C@_1DC@DBOEEGIB@?$AA?5?$AAP?$AAr?$AAo?$AAc?$AAe?$AAs?$AAs?$AAo?$AAr?$AA?1?$AAM?$AAe?$AAm?$AAo@ 000000000007bcc0     UefiShellDebug1CommandsLib:QueryTable.obj
 0002:000151d8       ??_C@_1CK@LNJLFKOO@?$AA?5?$AAP?$AAr?$AAo?$AAc?$AAe?$AAs?$AAs?$AAo?$AAr?$AA?1?$AAI?$AAO?$AA?5?$AAM@ 000000000007bcf8     UefiShellDebug1CommandsLib:QueryTable.obj
 0002:00015208       ??_C@_1CI@BDNIGKAE@?$AA?5?$AAI?$AAn?$AAt?$AAe?$AAr?$AAc?$AAo?$AAn?$AAn?$AAe?$AAc?$AAt?$AA?5?$AAB@ 000000000007bd28     UefiShellDebug1CommandsLib:QueryTable.obj
 0002:00015230       ??_C@_1BA@OOELPHJM@?$AA?5?$AA?5?$AAO?$AAt?$AAh?$AAe?$AAr@ 000000000007bd50     UefiShellDebug1CommandsLib:QueryTable.obj
 0002:00015240       ??_C@_1BE@BACNLAAJ@?$AA?5?$AA?5?$AAU?$AAn?$AAk?$AAn?$AAo?$AAw?$AAn@ 000000000007bd60     UefiShellDebug1CommandsLib:QueryTable.obj
 0002:00015258       ??_C@_1BE@IFPFPJIK@?$AA?5?$AA?5?$AAD?$AAe?$AAs?$AAk?$AAt?$AAo?$AAp@ 000000000007bd78     UefiShellDebug1CommandsLib:QueryTable.obj
 0002:00015270       ??_C@_1CM@FOJEGAAF@?$AA?5?$AA?5?$AAL?$AAo?$AAw?$AA?5?$AAP?$AAr?$AAo?$AAf?$AAi?$AAl?$AAe?$AA?5?$AAD@ 000000000007bd90     UefiShellDebug1CommandsLib:QueryTable.obj
 0002:000152a0       ??_C@_1BI@DDDHDBNI@?$AA?5?$AA?5?$AAP?$AAi?$AAz?$AAz?$AAa?$AA?5?$AAB?$AAo?$AAx@ 000000000007bdc0     UefiShellDebug1CommandsLib:QueryTable.obj
 0002:000152b8       ??_C@_1BK@DJJPJBEJ@?$AA?5?$AA?5?$AAM?$AAi?$AAn?$AAi?$AA?5?$AAT?$AAo?$AAw?$AAe?$AAr@ 000000000007bdd8     UefiShellDebug1CommandsLib:QueryTable.obj
 0002:000152d8       ??_C@_1BA@OJBEOHPG@?$AA?5?$AA?5?$AAT?$AAo?$AAw?$AAe?$AAr@ 000000000007bdf8     UefiShellDebug1CommandsLib:QueryTable.obj
 0002:000152e8       ??_C@_1BG@BFFIIHOJ@?$AA?5?$AA?5?$AAP?$AAo?$AAr?$AAt?$AAa?$AAb?$AAl?$AAe@ 000000000007be08     UefiShellDebug1CommandsLib:QueryTable.obj
 0002:00015300       ??_C@_1BC@EGOILCKF@?$AA?5?$AA?5?$AAL?$AAa?$AAp?$AAt?$AAo?$AAp@ 000000000007be20     UefiShellDebug1CommandsLib:QueryTable.obj
 0002:00015318       ??_C@_1BG@FLNAIIBC@?$AA?5?$AA?5?$AAN?$AAo?$AAt?$AAe?$AAb?$AAo?$AAo?$AAk@ 000000000007be38     UefiShellDebug1CommandsLib:QueryTable.obj
 0002:00015330       ??_C@_1BI@MAFKLHGL@?$AA?5?$AA?5?$AAH?$AAa?$AAn?$AAd?$AA?5?$AAH?$AAe?$AAl?$AAd@ 000000000007be50     UefiShellDebug1CommandsLib:QueryTable.obj
 0002:00015348       ??_C@_1CE@CAKEGNHA@?$AA?5?$AA?5?$AAD?$AAo?$AAc?$AAk?$AAi?$AAn?$AAg?$AA?5?$AAS?$AAt?$AAa?$AAt?$AAi@ 000000000007be68     UefiShellDebug1CommandsLib:QueryTable.obj
 0002:00015370       ??_C@_1BK@IOEHDKCF@?$AA?5?$AA?5?$AAA?$AAl?$AAl?$AA?5?$AAi?$AAn?$AA?5?$AAO?$AAn?$AAe@ 000000000007be90     UefiShellDebug1CommandsLib:QueryTable.obj
 0002:00015390       ??_C@_1BO@BDBJGHIN@?$AA?5?$AA?5?$AAS?$AAu?$AAb?$AA?5?$AAN?$AAo?$AAt?$AAe?$AAb?$AAo?$AAo?$AAk@ 000000000007beb0     UefiShellDebug1CommandsLib:QueryTable.obj
 0002:000153b0       ??_C@_1BO@FODHBBBJ@?$AA?5?$AA?5?$AAS?$AAp?$AAa?$AAc?$AAe?$AA?9?$AAs?$AAa?$AAv?$AAi?$AAn?$AAg@ 000000000007bed0     UefiShellDebug1CommandsLib:QueryTable.obj
 0002:000153d0       ??_C@_1BI@FFMGAJKA@?$AA?5?$AA?5?$AAL?$AAu?$AAn?$AAc?$AAh?$AA?5?$AAB?$AAo?$AAx@ 000000000007bef0     UefiShellDebug1CommandsLib:QueryTable.obj
 0002:000153e8       ??_C@_1CM@FFCFCLID@?$AA?5?$AA?5?$AAM?$AAa?$AAi?$AAn?$AA?5?$AAS?$AAe?$AAr?$AAv?$AAe?$AAr?$AA?5?$AAC@ 000000000007bf08     UefiShellDebug1CommandsLib:QueryTable.obj
 0002:00015418       ??_C@_1CI@MGPGBCKO@?$AA?5?$AA?5?$AAE?$AAx?$AAp?$AAa?$AAn?$AAs?$AAi?$AAo?$AAn?$AA?5?$AAC?$AAh?$AAa@ 000000000007bf38     UefiShellDebug1CommandsLib:QueryTable.obj
 0002:00015440       ??_C@_1BK@BPJDOJEM@?$AA?5?$AA?5?$AAS?$AAu?$AAb?$AAC?$AAh?$AAa?$AAs?$AAs?$AAi?$AAs@ 000000000007bf60     UefiShellDebug1CommandsLib:QueryTable.obj
 0002:00015460       ??_C@_1DA@KLLLCEHO@?$AA?5?$AA?5?$AAB?$AAu?$AAs?$AA?5?$AAE?$AAx?$AAp?$AAa?$AAn?$AAs?$AAi?$AAo?$AAn@ 000000000007bf80     UefiShellDebug1CommandsLib:QueryTable.obj
 0002:00015490       ??_C@_1CK@NLFMAGOA@?$AA?5?$AA?5?$AAP?$AAe?$AAr?$AAi?$AAp?$AAh?$AAe?$AAr?$AAa?$AAl?$AA?5?$AAC?$AAh@ 000000000007bfb0     UefiShellDebug1CommandsLib:QueryTable.obj
 0002:000154c0       ??_C@_1BO@NEMEGKEI@?$AA?5?$AA?5?$AAR?$AAA?$AAI?$AAD?$AA?5?$AAC?$AAh?$AAa?$AAs?$AAs?$AAi?$AAs@ 000000000007bfe0     UefiShellDebug1CommandsLib:QueryTable.obj
 0002:000154e0       ??_C@_1CK@JDJBLCID@?$AA?5?$AA?5?$AAR?$AAa?$AAc?$AAk?$AA?5?$AAM?$AAo?$AAu?$AAn?$AAt?$AA?5?$AAC?$AAh@ 000000000007c000     UefiShellDebug1CommandsLib:QueryTable.obj
 0002:00015510       ??_C@_1CC@KPCJNEID@?$AA?5?$AA?5?$AAS?$AAe?$AAa?$AAl?$AAe?$AAd?$AA?9?$AAc?$AAa?$AAs?$AAe?$AA?5?$AAP@ 000000000007c030     UefiShellDebug1CommandsLib:QueryTable.obj
 0002:00015538       ??_C@_1CO@CJCOGDGK@?$AA?5?$AA?5?$AAM?$AAu?$AAl?$AAt?$AAi?$AA?9?$AAs?$AAy?$AAs?$AAt?$AAe?$AAm?$AA?5@ 000000000007c058     UefiShellDebug1CommandsLib:QueryTable.obj
 0002:00015568       ??_C@_1BK@MBPBNMOJ@?$AA?5?$AA?5?$AAC?$AAo?$AAm?$AAp?$AAa?$AAc?$AAt?$AAP?$AAC?$AAI@ 000000000007c088     UefiShellDebug1CommandsLib:QueryTable.obj
 0002:00015588       ??_C@_1BM@MGJOEKKH@?$AA?5?$AA?5?$AAA?$AAd?$AAv?$AAa?$AAn?$AAc?$AAe?$AAd?$AAT?$AAC?$AAA@ 000000000007c0a8     UefiShellDebug1CommandsLib:QueryTable.obj
 0002:000155a8       ??_C@_1BA@FNEAJAMG@?$AA?5?$AA?5?$AAB?$AAl?$AAa?$AAd?$AAe@ 000000000007c0c8     UefiShellDebug1CommandsLib:QueryTable.obj
 0002:000155b8       ??_C@_1CE@IGONFHMB@?$AA?5?$AA?5?$AAB?$AAl?$AAa?$AAd?$AAe?$AA?5?$AAE?$AAn?$AAc?$AAl?$AAo?$AAs?$AAu@ 000000000007c0d8     UefiShellDebug1CommandsLib:QueryTable.obj
 0002:000155e0       ??_C@_1BC@LBPPFPIF@?$AA?5?$AA?5?$AAT?$AAa?$AAb?$AAl?$AAe?$AAt@ 000000000007c100     UefiShellDebug1CommandsLib:QueryTable.obj
 0002:000155f8       ??_C@_1BM@HECDCPPH@?$AA?5?$AA?5?$AAC?$AAo?$AAn?$AAv?$AAe?$AAr?$AAt?$AAi?$AAb?$AAl?$AAe@ 000000000007c118     UefiShellDebug1CommandsLib:QueryTable.obj
 0002:00015618       ??_C@_1BK@OHFPHAAH@?$AA?5?$AA?5?$AAD?$AAe?$AAt?$AAa?$AAc?$AAh?$AAa?$AAb?$AAl?$AAe@ 000000000007c138     UefiShellDebug1CommandsLib:QueryTable.obj
 0002:00015638       ??_C@_1BM@EKBCHHDK@?$AA?5?$AA?5?$AAI?$AAo?$AAT?$AA?5?$AAG?$AAa?$AAt?$AAe?$AAw?$AAa?$AAy@ 000000000007c158     UefiShellDebug1CommandsLib:QueryTable.obj
 0002:00015658       ??_C@_1BM@DCFPDGHK@?$AA?5?$AA?5?$AAE?$AAm?$AAb?$AAe?$AAd?$AAd?$AAe?$AAd?$AA?5?$AAP?$AAC@ 000000000007c178     UefiShellDebug1CommandsLib:QueryTable.obj
 0002:00015678       ??_C@_1BE@CCOHEFFN@?$AA?5?$AA?5?$AAM?$AAi?$AAn?$AAi?$AA?5?$AAP?$AAC@ 000000000007c198     UefiShellDebug1CommandsLib:QueryTable.obj
 0002:00015690       ??_C@_1BG@JIFDCODH@?$AA?5?$AA?5?$AAS?$AAt?$AAi?$AAc?$AAk?$AA?5?$AAP?$AAC@ 000000000007c1b0     UefiShellDebug1CommandsLib:QueryTable.obj
 0002:000156a8       ??_C@_1M@CMJEHA@?$AA?5?$AAS?$AAa?$AAf?$AAe@ 000000000007c1c8     UefiShellDebug1CommandsLib:QueryTable.obj
 0002:000156b8       ??_C@_1BC@LNCEOHGE@?$AA?5?$AAW?$AAa?$AAr?$AAn?$AAi?$AAn?$AAg@ 000000000007c1d8     UefiShellDebug1CommandsLib:QueryTable.obj
 0002:000156d0       ??_C@_1BE@CGBCNJEF@?$AA?5?$AAC?$AAr?$AAi?$AAt?$AAi?$AAc?$AAa?$AAl@ 000000000007c1f0     UefiShellDebug1CommandsLib:QueryTable.obj
 0002:000156e8       ??_C@_1CC@GPPBKKLG@?$AA?5?$AAN?$AAo?$AAn?$AA?9?$AAr?$AAe?$AAc?$AAo?$AAv?$AAe?$AAr?$AAa?$AAb?$AAl@ 000000000007c208     UefiShellDebug1CommandsLib:QueryTable.obj
 0002:00015710       ??_C@_1M@CLKFAOHH@?$AA?5?$AAN?$AAo?$AAn?$AAe@ 000000000007c230     UefiShellDebug1CommandsLib:QueryTable.obj
 0002:00015720       ??_C@_1DO@PNDEDNIL@?$AA?5?$AAE?$AAx?$AAt?$AAe?$AAr?$AAn?$AAa?$AAl?$AA?5?$AAi?$AAn?$AAt?$AAe?$AAr@ 000000000007c240     UefiShellDebug1CommandsLib:QueryTable.obj
 0002:00015760       ??_C@_1DI@EGCBBEIH@?$AA?5?$AAE?$AAx?$AAt?$AAe?$AAr?$AAn?$AAa?$AAl?$AA?5?$AAi?$AAn?$AAt?$AAe?$AAr@ 000000000007c280     UefiShellDebug1CommandsLib:QueryTable.obj
 0002:00015798       ??_C@_1CG@JLPJBJLA@?$AA?5?$AAC?$AAe?$AAn?$AAt?$AAr?$AAa?$AAl?$AA?5?$AAP?$AAr?$AAo?$AAc?$AAe?$AAs@ 000000000007c2b8     UefiShellDebug1CommandsLib:QueryTable.obj
 0002:000157c0       ??_C@_1CA@MLGGILEE@?$AA?5?$AAM?$AAa?$AAt?$AAh?$AA?5?$AAP?$AAr?$AAo?$AAc?$AAe?$AAs?$AAs?$AAo?$AAr@ 000000000007c2e0     UefiShellDebug1CommandsLib:QueryTable.obj
 0002:000157e0       ??_C@_1BO@NBCNBOEN@?$AA?5?$AAD?$AAS?$AAP?$AA?5?$AAP?$AAr?$AAo?$AAc?$AAe?$AAs?$AAs?$AAo?$AAr@ 000000000007c300     UefiShellDebug1CommandsLib:QueryTable.obj
 0002:00015800       ??_C@_1CE@BLIEPNBB@?$AA?5?$AAV?$AAi?$AAd?$AAe?$AAo?$AA?5?$AAP?$AAr?$AAo?$AAc?$AAe?$AAs?$AAs?$AAo@ 000000000007c320     UefiShellDebug1CommandsLib:QueryTable.obj
 0002:00015828       ??_C@_1M@KDHOHJAD@?$AAO?$AAt?$AAh?$AAe?$AAr@ 000000000007c348     UefiShellDebug1CommandsLib:QueryTable.obj
 0002:00015838       ??_C@_1BO@HHHPFHJM@?$AAD?$AAa?$AAu?$AAg?$AAh?$AAt?$AAe?$AAr?$AA?5?$AAB?$AAo?$AAa?$AAr?$AAd@ 000000000007c358     UefiShellDebug1CommandsLib:QueryTable.obj
 0002:00015858       ??_C@_1BG@MHGPIFOA@?$AAZ?$AAI?$AAF?$AA?5?$AAS?$AAo?$AAc?$AAk?$AAe?$AAt@ 000000000007c378     UefiShellDebug1CommandsLib:QueryTable.obj
 0002:00015870       ??_C@_1CO@JEMIPAC@?$AAR?$AAe?$AAp?$AAl?$AAa?$AAc?$AAe?$AAa?$AAb?$AAl?$AAe?$AA?5?$AAP?$AAi?$AAg@ 000000000007c390     UefiShellDebug1CommandsLib:QueryTable.obj
 0002:000158a0       ??_C@_1BG@BMGJJFCB@?$AAL?$AAI?$AAF?$AA?5?$AAS?$AAo?$AAc?$AAk?$AAe?$AAt@ 000000000007c3c0     UefiShellDebug1CommandsLib:QueryTable.obj
 0002:000158b8       ??_C@_1O@BPLLBDJC@?$AAS?$AAl?$AAo?$AAt?$AA?5?$AA1@ 000000000007c3d8     UefiShellDebug1CommandsLib:QueryTable.obj
 0002:000158c8       ??_C@_1O@NAOLMHM@?$AAS?$AAl?$AAo?$AAt?$AA?5?$AA2@ 000000000007c3e8     UefiShellDebug1CommandsLib:QueryTable.obj
 0002:000158d8       ??_C@_1BO@PAECHLFB@?$AA3?$AA7?$AA0?$AA?9?$AAp?$AAi?$AAn?$AA?5?$AAs?$AAo?$AAc?$AAk?$AAe?$AAt@ 000000000007c3f8     UefiShellDebug1CommandsLib:QueryTable.obj
 0002:000158f8       ??_C@_1O@HEIELDAO@?$AAS?$AAl?$AAo?$AAt?$AA?5?$AAA@ 000000000007c418     UefiShellDebug1CommandsLib:QueryTable.obj
 0002:00015908       ??_C@_1O@DOFCAMLG@?$AAS?$AAl?$AAo?$AAt?$AA?5?$AAM@ 000000000007c428     UefiShellDebug1CommandsLib:QueryTable.obj
 0002:00015918       ??_C@_1BG@PKJPENJM@?$AAS?$AAo?$AAc?$AAk?$AAe?$AAt?$AA?5?$AA4?$AA2?$AA3@ 000000000007c438     UefiShellDebug1CommandsLib:QueryTable.obj
 0002:00015930       ??_C@_1BC@MDELCDNB@?$AAS?$AAo?$AAc?$AAk?$AAe?$AAt?$AA?5?$AAA@ 000000000007c450     UefiShellDebug1CommandsLib:QueryTable.obj
 0002:00015948       ??_C@_1BG@HNFDFLCO@?$AAS?$AAo?$AAc?$AAk?$AAe?$AAt?$AA?5?$AA4?$AA7?$AA8@ 000000000007c468     UefiShellDebug1CommandsLib:QueryTable.obj
 0002:00015960       ??_C@_1BG@PEMCECHO@?$AAS?$AAo?$AAc?$AAk?$AAe?$AAt?$AA?5?$AA7?$AA5?$AA4@ 000000000007c480     UefiShellDebug1CommandsLib:QueryTable.obj
 0002:00015978       ??_C@_1BG@KFHGBELO@?$AAS?$AAo?$AAc?$AAk?$AAe?$AAt?$AA?5?$AA9?$AA4?$AA0@ 000000000007c498     UefiShellDebug1CommandsLib:QueryTable.obj
 0002:00015990       ??_C@_1BG@MFHLGLIM@?$AAS?$AAo?$AAc?$AAk?$AAe?$AAt?$AA?5?$AA9?$AA3?$AA9@ 000000000007c4b0     UefiShellDebug1CommandsLib:QueryTable.obj
 0002:000159a8       ??_C@_1BO@KFHDDAOH@?$AAS?$AAo?$AAc?$AAk?$AAe?$AAt?$AA?5?$AAm?$AAP?$AAG?$AAA?$AA6?$AA0?$AA4@ 000000000007c4c8     UefiShellDebug1CommandsLib:QueryTable.obj
 0002:000159c8       ??_C@_1BM@NODELBLD@?$AAS?$AAo?$AAc?$AAk?$AAe?$AAt?$AA?5?$AAL?$AAG?$AAA?$AA7?$AA7?$AA1@ 000000000007c4e8     UefiShellDebug1CommandsLib:QueryTable.obj
 0002:000159e8       ??_C@_1BM@FBFGCGOE@?$AAS?$AAo?$AAc?$AAk?$AAe?$AAt?$AA?5?$AAL?$AAG?$AAA?$AA7?$AA7?$AA5@ 000000000007c508     UefiShellDebug1CommandsLib:QueryTable.obj
 0002:00015a08       ??_C@_1BE@DMMNHKDD@?$AAS?$AAo?$AAc?$AAk?$AAe?$AAt?$AA?5?$AAS?$AA1@ 000000000007c528     UefiShellDebug1CommandsLib:QueryTable.obj
 0002:00015a20       ??_C@_1BG@FMOHAKBJ@?$AAS?$AAo?$AAc?$AAk?$AAe?$AAt?$AA?5?$AAA?$AAM?$AA2@ 000000000007c540     UefiShellDebug1CommandsLib:QueryTable.obj
 0002:00015a38       ??_C@_1BC@FOJMBLGI@?$AAS?$AAo?$AAc?$AAk?$AAe?$AAt?$AA?5?$AAF@ 000000000007c558     UefiShellDebug1CommandsLib:QueryTable.obj
 0002:00015a50       ??_C@_1BO@DCJPEJCN@?$AAS?$AAo?$AAc?$AAk?$AAe?$AAt?$AA?5?$AAL?$AAG?$AAA?$AA1?$AA3?$AA6?$AA6@ 000000000007c570     UefiShellDebug1CommandsLib:QueryTable.obj
 0002:00015a70       ??_C@_1BG@IOMLDAPD@?$AAS?$AAo?$AAc?$AAk?$AAe?$AAt?$AA?5?$AAG?$AA3?$AA4@ 000000000007c590     UefiShellDebug1CommandsLib:QueryTable.obj
 0002:00015a88       ??_C@_1BG@OEFLGNHM@?$AAS?$AAo?$AAc?$AAk?$AAe?$AAt?$AA?5?$AAA?$AAM?$AA3@ 000000000007c5a8     UefiShellDebug1CommandsLib:QueryTable.obj
 0002:00015aa0       ??_C@_1BG@CPOKGBNF@?$AAS?$AAo?$AAc?$AAk?$AAe?$AAt?$AA?5?$AAC?$AA3?$AA2@ 000000000007c5c0     UefiShellDebug1CommandsLib:QueryTable.obj
 0002:00015ab8       ??_C@_1BO@PGCODMPO@?$AAS?$AAo?$AAc?$AAk?$AAe?$AAt?$AA?5?$AAL?$AAG?$AAA?$AA1?$AA1?$AA5?$AA6@ 000000000007c5d8     UefiShellDebug1CommandsLib:QueryTable.obj
 0002:00015ad8       ??_C@_1BO@EMEMCHMP@?$AAS?$AAo?$AAc?$AAk?$AAe?$AAt?$AA?5?$AAL?$AAG?$AAA?$AA1?$AA5?$AA6?$AA7@ 000000000007c5f8     UefiShellDebug1CommandsLib:QueryTable.obj
 0002:00015af8       ??_C@_1BO@PBMFABIM@?$AAS?$AAo?$AAc?$AAk?$AAe?$AAt?$AA?5?$AAP?$AAG?$AAA?$AA9?$AA8?$AA8?$AAA@ 000000000007c618     UefiShellDebug1CommandsLib:QueryTable.obj
 0002:00015b18       ??_C@_1BO@EGCKJFL@?$AAS?$AAo?$AAc?$AAk?$AAe?$AAt?$AA?5?$AAB?$AAG?$AAA?$AA1?$AA2?$AA8?$AA8@ 000000000007c638     UefiShellDebug1CommandsLib:QueryTable.obj
 0002:00015b38       ??_C@_1CA@ILALBIHB@?$AAS?$AAo?$AAc?$AAk?$AAe?$AAt?$AA?5?$AAr?$AAP?$AAG?$AAA?$AA9?$AA8?$AA8?$AAB@ 000000000007c658     UefiShellDebug1CommandsLib:QueryTable.obj
 0002:00015b58       ??_C@_1BO@DANNAKEB@?$AAS?$AAo?$AAc?$AAk?$AAe?$AAt?$AA?5?$AAB?$AAG?$AAA?$AA1?$AA0?$AA2?$AA3@ 000000000007c678     UefiShellDebug1CommandsLib:QueryTable.obj
 0002:00015b78       ??_C@_1BO@OPCPDFIF@?$AAS?$AAo?$AAc?$AAk?$AAe?$AAt?$AA?5?$AAB?$AAG?$AAA?$AA1?$AA2?$AA2?$AA4@ 000000000007c698     UefiShellDebug1CommandsLib:QueryTable.obj
 0002:00015b98       ??_C@_1BO@OEJLJDBA@?$AAS?$AAo?$AAc?$AAk?$AAe?$AAt?$AA?5?$AAL?$AAG?$AAA?$AA1?$AA1?$AA5?$AA5@ 000000000007c6b8     UefiShellDebug1CommandsLib:QueryTable.obj
 0002:00015bb8       ??_C@_1BO@LEALDLID@?$AAS?$AAo?$AAc?$AAk?$AAe?$AAt?$AA?5?$AAL?$AAG?$AAA?$AA1?$AA3?$AA5?$AA6@ 000000000007c6d8     UefiShellDebug1CommandsLib:QueryTable.obj
 0002:00015bd8       ??_C@_1BO@NHPFPNMM@?$AAS?$AAo?$AAc?$AAk?$AAe?$AAt?$AA?5?$AAL?$AAG?$AAA?$AA2?$AA0?$AA1?$AA1@ 000000000007c6f8     UefiShellDebug1CommandsLib:QueryTable.obj
 0002:00015bf8       ??_C@_1BG@HNELMPAF@?$AAS?$AAo?$AAc?$AAk?$AAe?$AAt?$AA?5?$AAF?$AAS?$AA1@ 000000000007c718     UefiShellDebug1CommandsLib:QueryTable.obj
 0002:00015c10       ??_C@_1BG@GPPOGAOL@?$AAS?$AAo?$AAc?$AAk?$AAe?$AAt?$AA?5?$AAF?$AAS?$AA2@ 000000000007c730     UefiShellDebug1CommandsLib:QueryTable.obj
 0002:00015c28       ??_C@_1BG@EEJHKMOO@?$AAS?$AAo?$AAc?$AAk?$AAe?$AAt?$AA?5?$AAF?$AAM?$AA1@ 000000000007c748     UefiShellDebug1CommandsLib:QueryTable.obj
 0002:00015c40       ??_C@_1BG@FGCCADAA@?$AAS?$AAo?$AAc?$AAk?$AAe?$AAt?$AA?5?$AAF?$AAM?$AA2@ 000000000007c760     UefiShellDebug1CommandsLib:QueryTable.obj
 0002:00015c58       ??_C@_1CC@KJFHKCBF@?$AAS?$AAo?$AAc?$AAk?$AAe?$AAt?$AA?5?$AAL?$AAG?$AAA?$AA2?$AA0?$AA1?$AA1?$AA?9@ 000000000007c778     UefiShellDebug1CommandsLib:QueryTable.obj
 0002:00015c80       ??_C@_1CC@KBIGPMFN@?$AAS?$AAo?$AAc?$AAk?$AAe?$AAt?$AA?5?$AAL?$AAG?$AAA?$AA1?$AA3?$AA5?$AA6?$AA?9@ 000000000007c7a0     UefiShellDebug1CommandsLib:QueryTable.obj
 0002:00015ca8       ??_C@_1BO@NDEFGDCC@?$AAS?$AAo?$AAc?$AAk?$AAe?$AAt?$AA?5?$AAL?$AAG?$AAA?$AA1?$AA1?$AA5?$AA0@ 000000000007c7c8     UefiShellDebug1CommandsLib:QueryTable.obj
 0002:00015cc8       ??_C@_1BO@LAOHMPMI@?$AAS?$AAo?$AAc?$AAk?$AAe?$AAt?$AA?5?$AAB?$AAG?$AAA?$AA1?$AA1?$AA6?$AA8@ 000000000007c7e8     UefiShellDebug1CommandsLib:QueryTable.obj
 0002:00015ce8       ??_C@_1BO@CEHDOGCA@?$AAS?$AAo?$AAc?$AAk?$AAe?$AAt?$AA?5?$AAB?$AAG?$AAA?$AA1?$AA2?$AA3?$AA4@ 000000000007c808     UefiShellDebug1CommandsLib:QueryTable.obj
 0002:00015d08       ??_C@_1BO@LIBEHHAN@?$AAS?$AAo?$AAc?$AAk?$AAe?$AAt?$AA?5?$AAB?$AAG?$AAA?$AA1?$AA3?$AA6?$AA4@ 000000000007c828     UefiShellDebug1CommandsLib:QueryTable.obj
 0002:00015d28       ??_C@_1BG@HJIMFFMF@?$AAS?$AAo?$AAc?$AAk?$AAe?$AAt?$AA?5?$AAA?$AAM?$AA4@ 000000000007c848     UefiShellDebug1CommandsLib:QueryTable.obj
 0002:00015d40       ??_C@_1BO@GLPJAEEH@?$AAS?$AAo?$AAc?$AAk?$AAe?$AAt?$AA?5?$AAL?$AAG?$AAA?$AA1?$AA1?$AA5?$AA1@ 000000000007c860     UefiShellDebug1CommandsLib:QueryTable.obj
 0002:00015d60       ??_C@_1BO@JEIJMNCI@?$AAS?$AAo?$AAc?$AAk?$AAe?$AAt?$AA?5?$AAB?$AAG?$AAA?$AA1?$AA3?$AA5?$AA6@ 000000000007c880     UefiShellDebug1CommandsLib:QueryTable.obj
 0002:00015d80       ??_C@_1BO@HAHLEIEI@?$AAS?$AAo?$AAc?$AAk?$AAe?$AAt?$AA?5?$AAB?$AAG?$AAA?$AA1?$AA4?$AA4?$AA0@ 000000000007c8a0     UefiShellDebug1CommandsLib:QueryTable.obj
 0002:00015da0       ??_C@_1BO@NLMCCJFH@?$AAS?$AAo?$AAc?$AAk?$AAe?$AAt?$AA?5?$AAB?$AAG?$AAA?$AA1?$AA5?$AA1?$AA5@ 000000000007c8c0     UefiShellDebug1CommandsLib:QueryTable.obj
 0002:00015dc0       ??_C@_1CC@FBCKOMML@?$AAS?$AAo?$AAc?$AAk?$AAe?$AAt?$AA?5?$AAL?$AAG?$AAA?$AA3?$AA6?$AA4?$AA7?$AA?9@ 000000000007c8e0     UefiShellDebug1CommandsLib:QueryTable.obj
 0002:00015de8       ??_C@_1BG@GFINEKGP@?$AAS?$AAo?$AAc?$AAk?$AAe?$AAt?$AA?5?$AAS?$AAP?$AA3@ 000000000007c908     UefiShellDebug1CommandsLib:QueryTable.obj
 0002:00015e00       ??_C@_1BK@LBHFAAHC@?$AAS?$AAo?$AAc?$AAk?$AAe?$AAt?$AA?5?$AAS?$AAP?$AA3?$AAr?$AA2@ 000000000007c920     UefiShellDebug1CommandsLib:QueryTable.obj
 0002:00015e20       ??_C@_1BO@FHCHPFMN@?$AAS?$AAo?$AAc?$AAk?$AAe?$AAt?$AA?5?$AAL?$AAG?$AAA?$AA2?$AA0?$AA6?$AA6@ 000000000007c940     UefiShellDebug1CommandsLib:QueryTable.obj
 0002:00015e40       ??_C@_1BO@GMCJJKAE@?$AAS?$AAo?$AAc?$AAk?$AAe?$AAt?$AA?5?$AAB?$AAG?$AAA?$AA1?$AA3?$AA9?$AA2@ 000000000007c960     UefiShellDebug1CommandsLib:QueryTable.obj
 0002:00015e60       ??_C@_1BO@OMBMNJGF@?$AAS?$AAo?$AAc?$AAk?$AAe?$AAt?$AA?5?$AAB?$AAG?$AAA?$AA1?$AA5?$AA1?$AA0@ 000000000007c980     UefiShellDebug1CommandsLib:QueryTable.obj
 0002:00015e80       ??_C@_1BO@KPDMIDCE@?$AAS?$AAo?$AAc?$AAk?$AAe?$AAt?$AA?5?$AAB?$AAG?$AAA?$AA1?$AA5?$AA2?$AA8@ 000000000007c9a0     UefiShellDebug1CommandsLib:QueryTable.obj
 0002:00015ea0       ??_C@_1BO@PEPKPEDC@?$AAS?$AAo?$AAc?$AAk?$AAe?$AAt?$AA?5?$AAL?$AAG?$AAA?$AA4?$AA1?$AA8?$AA9@ 000000000007c9c0     UefiShellDebug1CommandsLib:QueryTable.obj
 0002:00015ec0       ??_C@_1BO@NAHPFHC@?$AAS?$AAo?$AAc?$AAk?$AAe?$AAt?$AA?5?$AAL?$AAG?$AAA?$AA1?$AA2?$AA0?$AA0@ 000000000007c9e0     UefiShellDebug1CommandsLib:QueryTable.obj
 0002:00015ee0       ??_C@_1BO@OPLGDIMN@?$AAS?$AAo?$AAc?$AAk?$AAe?$AAt?$AA?5?$AAL?$AAG?$AAA?$AA4?$AA6?$AA7?$AA7@ 000000000007ca00     UefiShellDebug1CommandsLib:QueryTable.obj
 0002:00015f00       ??_C@_1BO@EFOHPLBG@?$AAS?$AAo?$AAc?$AAk?$AAe?$AAt?$AA?5?$AAL?$AAG?$AAA?$AA1?$AA7?$AA0?$AA0@ 000000000007ca20     UefiShellDebug1CommandsLib:QueryTable.obj
 0002:00015f20       ??_C@_1BO@HBJGNIPM@?$AAS?$AAo?$AAc?$AAk?$AAe?$AAt?$AA?5?$AAB?$AAG?$AAA?$AA1?$AA7?$AA4?$AA4@ 000000000007ca40     UefiShellDebug1CommandsLib:QueryTable.obj
 0002:00015f40       ??_C@_1BO@DBIKOILF@?$AAS?$AAo?$AAc?$AAk?$AAe?$AAt?$AA?5?$AAB?$AAG?$AAA?$AA1?$AA7?$AA8?$AA1@ 000000000007ca60     UefiShellDebug1CommandsLib:QueryTable.obj
 0002:00015f60       ??_C@_1BO@FOGFLHBJ@?$AAS?$AAo?$AAc?$AAk?$AAe?$AAt?$AA?5?$AAB?$AAG?$AAA?$AA1?$AA2?$AA1?$AA1@ 000000000007ca80     UefiShellDebug1CommandsLib:QueryTable.obj
 0002:00015f80       ??_C@_1BO@OHBMNINN@?$AAS?$AAo?$AAc?$AAk?$AAe?$AAt?$AA?5?$AAB?$AAG?$AAA?$AA2?$AA4?$AA2?$AA2@ 000000000007caa0     UefiShellDebug1CommandsLib:QueryTable.obj
 0002:00015fa0       ??_C@_1BO@HOOHEBLC@?$AAS?$AAo?$AAc?$AAk?$AAe?$AAt?$AA?5?$AAL?$AAG?$AAA?$AA1?$AA2?$AA1?$AA1@ 000000000007cac0     UefiShellDebug1CommandsLib:QueryTable.obj
 0002:00015fc0       ??_C@_1BO@MHJOCOHG@?$AAS?$AAo?$AAc?$AAk?$AAe?$AAt?$AA?5?$AAL?$AAG?$AAA?$AA2?$AA4?$AA2?$AA2@ 000000000007cae0     UefiShellDebug1CommandsLib:QueryTable.obj
 0002:00015fe0       ??_C@_1BO@EDLMMEDK@?$AAS?$AAo?$AAc?$AAk?$AAe?$AAt?$AA?5?$AAL?$AAG?$AAA?$AA5?$AA7?$AA7?$AA3@ 000000000007cb00     UefiShellDebug1CommandsLib:QueryTable.obj
 0002:00016000       ??_C@_1BO@GDDODCJB@?$AAS?$AAo?$AAc?$AAk?$AAe?$AAt?$AA?5?$AAB?$AAG?$AAA?$AA5?$AA7?$AA7?$AA3@ 000000000007cb20     UefiShellDebug1CommandsLib:QueryTable.obj
 0002:00016020       ??_C@_1BG@MBDADCKA@?$AAS?$AAo?$AAc?$AAk?$AAe?$AAt?$AA?5?$AAA?$AAM?$AA5@ 000000000007cb40     UefiShellDebug1CommandsLib:QueryTable.obj
 0002:00016038       ??_C@_1BG@EAOGBFLD@?$AAS?$AAo?$AAc?$AAk?$AAe?$AAt?$AA?5?$AAS?$AAP?$AA5@ 000000000007cb58     UefiShellDebug1CommandsLib:QueryTable.obj
 0002:00016050       ??_C@_1BG@FCFDLKFN@?$AAS?$AAo?$AAc?$AAk?$AAe?$AAt?$AA?5?$AAS?$AAP?$AA6@ 000000000007cb70     UefiShellDebug1CommandsLib:QueryTable.obj
 0002:00016068       ??_C@_1BM@JHNAIMMB@?$AAS?$AAo?$AAc?$AAk?$AAe?$AAt?$AA?5?$AAB?$AAG?$AAA?$AA8?$AA8?$AA3@ 000000000007cb88     UefiShellDebug1CommandsLib:QueryTable.obj
 0002:00016088       ??_C@_1BO@IEAFFFPC@?$AAS?$AAo?$AAc?$AAk?$AAe?$AAt?$AA?5?$AAB?$AAG?$AAA?$AA1?$AA1?$AA9?$AA0@ 000000000007cba8     UefiShellDebug1CommandsLib:QueryTable.obj
 0002:000160a8       ??_C@_1BO@HFODCBPP@?$AAS?$AAo?$AAc?$AAk?$AAe?$AAt?$AA?5?$AAB?$AAG?$AAA?$AA4?$AA1?$AA2?$AA9@ 000000000007cbc8     UefiShellDebug1CommandsLib:QueryTable.obj
 0002:000160c8       ??_C@_1BO@GIJCODPH@?$AAS?$AAo?$AAc?$AAk?$AAe?$AAt?$AA?5?$AAL?$AAG?$AAA?$AA4?$AA7?$AA1?$AA0@ 000000000007cbe8     UefiShellDebug1CommandsLib:QueryTable.obj
 0002:000160e8       ??_C@_1BO@DKBMGCKN@?$AAS?$AAo?$AAc?$AAk?$AAe?$AAt?$AA?5?$AAL?$AAG?$AAA?$AA7?$AA5?$AA2?$AA9@ 000000000007cc08     UefiShellDebug1CommandsLib:QueryTable.obj
 0002:00016108       ??_C@_1BO@CJNEGLMF@?$AAS?$AAo?$AAc?$AAk?$AAe?$AAt?$AA?5?$AAB?$AAG?$AAA?$AA1?$AA9?$AA6?$AA4@ 000000000007cc28     UefiShellDebug1CommandsLib:QueryTable.obj
 0002:00016128       ??_C@_1BO@OIGDJEPO@?$AAS?$AAo?$AAc?$AAk?$AAe?$AAt?$AA?5?$AAB?$AAG?$AAA?$AA1?$AA7?$AA9?$AA2@ 000000000007cc48     UefiShellDebug1CommandsLib:QueryTable.obj
 0002:00016148       ??_C@_1BO@GCAOLCDL@?$AAS?$AAo?$AAc?$AAk?$AAe?$AAt?$AA?5?$AAB?$AAG?$AAA?$AA2?$AA0?$AA4?$AA9@ 000000000007cc68     UefiShellDebug1CommandsLib:QueryTable.obj
 0002:00016168       ??_C@_1BO@CEAGEHBF@?$AAS?$AAo?$AAc?$AAk?$AAe?$AAt?$AA?5?$AAB?$AAG?$AAA?$AA2?$AA5?$AA5?$AA1@ 000000000007cc88     UefiShellDebug1CommandsLib:QueryTable.obj
 0002:00016188       ??_C@_1BO@HELGBPGM@?$AAS?$AAo?$AAc?$AAk?$AAe?$AAt?$AA?5?$AAL?$AAG?$AAA?$AA1?$AA8?$AA5?$AA1@ 000000000007cca8     UefiShellDebug1CommandsLib:QueryTable.obj
 0002:000161a8       ??_C@_1BO@MADPLML@?$AAS?$AAo?$AAc?$AAk?$AAe?$AAt?$AA?5?$AAB?$AAG?$AAA?$AA2?$AA1?$AA1?$AA4@ 000000000007ccc8     UefiShellDebug1CommandsLib:QueryTable.obj
 0002:000161c8       ??_C@_1BO@MDFDHJFC@?$AAS?$AAo?$AAc?$AAk?$AAe?$AAt?$AA?5?$AAB?$AAG?$AAA?$AA2?$AA8?$AA3?$AA3@ 000000000007cce8     UefiShellDebug1CommandsLib:QueryTable.obj
 0002:000161e8       ??_C@_1CA@CEJKMMJI@?$AA?5?$AA6?$AA4?$AA?9?$AAb?$AAi?$AAt?$AA?5?$AAC?$AAa?$AAp?$AAa?$AAb?$AAl?$AAe@ 000000000007cd08     UefiShellDebug1CommandsLib:QueryTable.obj
 0002:00016208       ??_C@_1BI@BMAAPDHB@?$AA?5?$AAM?$AAu?$AAl?$AAt?$AAi?$AA?9?$AAC?$AAo?$AAr?$AAe@ 000000000007cd28     UefiShellDebug1CommandsLib:QueryTable.obj
 0002:00016220       ??_C@_1CC@FLKFLDPO@?$AA?5?$AAH?$AAa?$AAr?$AAd?$AAw?$AAa?$AAr?$AAe?$AA?5?$AAT?$AAh?$AAr?$AAe?$AAa@ 000000000007cd40     UefiShellDebug1CommandsLib:QueryTable.obj
 0002:00016248       ??_C@_1CI@FMHJJANO@?$AA?5?$AAE?$AAx?$AAe?$AAc?$AAu?$AAt?$AAe?$AA?5?$AAP?$AAr?$AAo?$AAt?$AAe?$AAc@ 000000000007cd68     UefiShellDebug1CommandsLib:QueryTable.obj
 0002:00016270       ??_C@_1DC@PLHLGAGC@?$AA?5?$AAE?$AAn?$AAh?$AAa?$AAn?$AAc?$AAe?$AAd?$AA?5?$AAV?$AAi?$AAr?$AAt?$AAu@ 000000000007cd90     UefiShellDebug1CommandsLib:QueryTable.obj
 0002:000162a8       ??_C@_1DG@HGMMFCMG@?$AA?5?$AAP?$AAo?$AAw?$AAe?$AAr?$AA?1?$AAP?$AAe?$AAr?$AAf?$AAo?$AAr?$AAm?$AAa@ 000000000007cdc8     UefiShellDebug1CommandsLib:QueryTable.obj
 0002:000162e0       ??_C@_1CC@CBPFDNKG@?$AA?5?$AA1?$AA2?$AA8?$AA?9?$AAb?$AAi?$AAt?$AA?5?$AAC?$AAa?$AAp?$AAa?$AAb?$AAl@ 000000000007ce00     UefiShellDebug1CommandsLib:QueryTable.obj
 0002:00016308       ??_C@_1BM@HCOCCICO@?$AA?5?$AAA?$AAR?$AAM?$AA6?$AA4?$AA?5?$AAS?$AAo?$AAC?$AA?5?$AAI?$AAD@ 000000000007ce28     UefiShellDebug1CommandsLib:QueryTable.obj
 0002:00016328       ??_C@_1BK@KFODEGFE@?$AA8?$AA?9?$AAb?$AAi?$AAt?$AA?5?$AAP?$AAa?$AAr?$AAi?$AAt?$AAy@ 000000000007ce48     UefiShellDebug1CommandsLib:QueryTable.obj
 0002:00016348       ??_C@_1BG@EELEODOK@?$AA3?$AA2?$AA?9?$AAb?$AAi?$AAt?$AA?5?$AAE?$AAC?$AAC@ 000000000007ce68     UefiShellDebug1CommandsLib:QueryTable.obj
 0002:00016360       ??_C@_1BG@ILBOIJPP@?$AA6?$AA4?$AA?9?$AAb?$AAi?$AAt?$AA?5?$AAE?$AAC?$AAC@ 000000000007ce80     UefiShellDebug1CommandsLib:QueryTable.obj
 0002:00016378       ??_C@_1BI@PPJLILE@?$AA1?$AA2?$AA8?$AA?9?$AAb?$AAi?$AAt?$AA?5?$AAE?$AAC?$AAC@ 000000000007ce98     UefiShellDebug1CommandsLib:QueryTable.obj
 0002:00016390       ??_C@_17PFCILLLH@?$AAC?$AAR?$AAC@ 000000000007ceb0     UefiShellDebug1CommandsLib:QueryTable.obj
 0002:00016398       ??_C@_1DI@CHFCIAN@?$AAS?$AAi?$AAn?$AAg?$AAl?$AAe?$AA?5?$AAB?$AAi?$AAt?$AA?5?$AAE?$AAr?$AAr?$AAo@ 000000000007ceb8     UefiShellDebug1CommandsLib:QueryTable.obj
 0002:000163d0       ??_C@_1DI@MEKPNODD@?$AAD?$AAo?$AAu?$AAb?$AAl?$AAe?$AA?5?$AAB?$AAi?$AAt?$AA?5?$AAE?$AAr?$AAr?$AAo@ 000000000007cef0     UefiShellDebug1CommandsLib:QueryTable.obj
 0002:00016408       ??_C@_1CA@JKCADFFG@?$AAE?$AAr?$AAr?$AAo?$AAr?$AA?5?$AAS?$AAc?$AAr?$AAu?$AAb?$AAb?$AAi?$AAn?$AAg@ 000000000007cf28     UefiShellDebug1CommandsLib:QueryTable.obj
 0002:00016428       ??_C@_1CG@JKAPKCKE@?$AAO?$AAn?$AAe?$AA?5?$AAW?$AAa?$AAy?$AA?5?$AAI?$AAn?$AAt?$AAe?$AAr?$AAl?$AAe@ 000000000007cf48     UefiShellDebug1CommandsLib:QueryTable.obj
 0002:00016450       ??_C@_1CG@GHMCIBEC@?$AAT?$AAw?$AAo?$AA?5?$AAW?$AAa?$AAy?$AA?5?$AAI?$AAn?$AAt?$AAe?$AAr?$AAl?$AAe@ 000000000007cf70     UefiShellDebug1CommandsLib:QueryTable.obj
 0002:00016478       ??_C@_1CI@EEDBIAPK@?$AAF?$AAo?$AAu?$AAr?$AA?5?$AAW?$AAa?$AAy?$AA?5?$AAI?$AAn?$AAt?$AAe?$AAr?$AAl@ 000000000007cf98     UefiShellDebug1CommandsLib:QueryTable.obj
 0002:000164a0       ??_C@_1CK@KPHLJNNK@?$AAE?$AAi?$AAg?$AAh?$AAt?$AA?5?$AAW?$AAa?$AAy?$AA?5?$AAI?$AAn?$AAt?$AAe?$AAr@ 000000000007cfc0     UefiShellDebug1CommandsLib:QueryTable.obj
 0002:000164d0       ??_C@_1CO@BFIMFDHM@?$AAS?$AAi?$AAx?$AAt?$AAe?$AAe?$AAn?$AA?5?$AAW?$AAa?$AAy?$AA?5?$AAI?$AAn?$AAt@ 000000000007cff0     UefiShellDebug1CommandsLib:QueryTable.obj
 0002:00016500       ??_C@_1M@NIINEJAM@?$AA?5?$AA7?$AA0?$AAn?$AAs@ 000000000007d020     UefiShellDebug1CommandsLib:QueryTable.obj
 0002:00016510       ??_C@_1M@DHEPCCDC@?$AA?5?$AA6?$AA0?$AAn?$AAs@ 000000000007d030     UefiShellDebug1CommandsLib:QueryTable.obj
 0002:00016520       ??_C@_1M@NMHIJJDB@?$AA?5?$AA5?$AA0?$AAn?$AAs@ 000000000007d040     UefiShellDebug1CommandsLib:QueryTable.obj
 0002:00016530       ??_C@_17NJHKIEKA@?$AA?5?$AA5?$AAV@ 000000000007d050     UefiShellDebug1CommandsLib:QueryTable.obj
 0002:00016538       ??_C@_1M@JPKLIOEK@?$AA?5?$AA3?$AA?4?$AA3?$AAV@ 000000000007d058     UefiShellDebug1CommandsLib:QueryTable.obj
 0002:00016548       ??_C@_1M@NBPCMGBC@?$AA?5?$AA2?$AA?4?$AA9?$AAV@ 000000000007d068     UefiShellDebug1CommandsLib:QueryTable.obj
 0002:00016558       ??_C@_1BE@HJHLCDAF@?$AA?5?$AAS?$AAt?$AAa?$AAn?$AAd?$AAa?$AAr?$AAd@ 000000000007d078     UefiShellDebug1CommandsLib:QueryTable.obj
 0002:00016570       ??_C@_1CA@LGABIKMO@?$AA?5?$AAF?$AAa?$AAs?$AAt?$AA?5?$AAP?$AAa?$AAg?$AAe?$AA?5?$AAM?$AAo?$AAd?$AAe@ 000000000007d090     UefiShellDebug1CommandsLib:QueryTable.obj
 0002:00016590       ??_C@_19GFOLFIMB@?$AA?5?$AAE?$AAD?$AAO@ 000000000007d0b0     UefiShellDebug1CommandsLib:QueryTable.obj
 0002:000165a0       ??_C@_1BA@CLBLGKNJ@?$AA?5?$AAP?$AAa?$AAr?$AAi?$AAt?$AAy@ 000000000007d0c0     UefiShellDebug1CommandsLib:QueryTable.obj
 0002:000165b0       ??_C@_1M@GKGEDMHO@?$AA?5?$AAE?$AAC?$AAC?$AA?5@ 000000000007d0d0     UefiShellDebug1CommandsLib:QueryTable.obj
 0002:000165c0       ??_C@_1M@CCFCJPLH@?$AA?5?$AAS?$AAI?$AAM?$AAM@ 000000000007d0e0     UefiShellDebug1CommandsLib:QueryTable.obj
 0002:000165d0       ??_C@_1M@OHCAAFCG@?$AA?5?$AAD?$AAI?$AAM?$AAM@ 000000000007d0f0     UefiShellDebug1CommandsLib:QueryTable.obj
 0002:000165e0       ??_C@_1BG@JNPHIKMO@?$AA?5?$AAB?$AAu?$AAr?$AAs?$AAt?$AA?5?$AAE?$AAD?$AAO@ 000000000007d100     UefiShellDebug1CommandsLib:QueryTable.obj
 0002:000165f8       ??_C@_1O@IFONHMFE@?$AA?5?$AAS?$AAD?$AAR?$AAA?$AAM@ 000000000007d118     UefiShellDebug1CommandsLib:QueryTable.obj
 0002:00016608       ??_C@_1DO@GGKDHCMG@?$AA?5?$AAU?$AAn?$AAc?$AAo?$AAr?$AAr?$AAe?$AAc?$AAt?$AAa?$AAb?$AAl?$AAe?$AA?5@ 000000000007d128     UefiShellDebug1CommandsLib:QueryTable.obj
 0002:00016648       ??_C@_1DK@GOFLEHAJ@?$AA?5?$AAC?$AAo?$AAr?$AAr?$AAe?$AAc?$AAt?$AAa?$AAb?$AAl?$AAe?$AA?5?$AAe?$AAr@ 000000000007d168     UefiShellDebug1CommandsLib:QueryTable.obj
 0002:00016690       ??_C@_1FE@GEHKOMJG@?$AA?5?$AAE?$AAr?$AAr?$AAo?$AAr?$AA?5?$AAS?$AAt?$AAa?$AAt?$AAu?$AAs?$AA?5?$AAo@ 000000000007d1b0     UefiShellDebug1CommandsLib:QueryTable.obj
 0002:000166e8       ??_C@_1BG@MKAGJBMA@?$AA?5?$AAN?$AAo?$AAn?$AA?9?$AAB?$AAu?$AAr?$AAs?$AAt@ 000000000007d208     UefiShellDebug1CommandsLib:QueryTable.obj
 0002:00016700       ??_C@_1O@KIIGEHBK@?$AA?5?$AAB?$AAu?$AAr?$AAs?$AAt@ 000000000007d220     UefiShellDebug1CommandsLib:QueryTable.obj
 0002:00016710       ??_C@_1CA@HJHDGNAE@?$AA?5?$AAP?$AAi?$AAp?$AAe?$AAl?$AAi?$AAn?$AAe?$AA?5?$AAB?$AAu?$AAr?$AAs?$AAt@ 000000000007d230     UefiShellDebug1CommandsLib:QueryTable.obj
 0002:00016730       ??_C@_1BK@FPIGEJJM@?$AA?5?$AAS?$AAy?$AAn?$AAc?$AAh?$AAr?$AAo?$AAn?$AAo?$AAu?$AAs@ 000000000007d250     UefiShellDebug1CommandsLib:QueryTable.obj
 0002:00016750       ??_C@_1BM@BEGBKMJI@?$AA?5?$AAA?$AAs?$AAy?$AAn?$AAc?$AAh?$AAr?$AAo?$AAn?$AAo?$AAu?$AAs@ 000000000007d270     UefiShellDebug1CommandsLib:QueryTable.obj
 0002:00016770       ??_C@_1O@BCECDDG@?$AAP?$AAa?$AAr?$AAi?$AAt?$AAy@ 000000000007d290     UefiShellDebug1CommandsLib:QueryTable.obj
 0002:00016780       ??_C@_1BO@NEHMLKLI@?$AAS?$AAi?$AAn?$AAg?$AAl?$AAe?$AA?9?$AAb?$AAi?$AAt?$AA?5?$AAE?$AAC?$AAC@ 000000000007d2a0     UefiShellDebug1CommandsLib:QueryTable.obj
 0002:000167a0       ??_C@_1BM@MFBBEGD@?$AAM?$AAu?$AAl?$AAt?$AAi?$AA?9?$AAb?$AAi?$AAt?$AA?5?$AAE?$AAC?$AAC@ 000000000007d2c0     UefiShellDebug1CommandsLib:QueryTable.obj
 0002:000167c0       ??_C@_1BI@HJJJFIKM@?$AAI?$AAn?$AAs?$AAt?$AAr?$AAu?$AAc?$AAt?$AAi?$AAo?$AAn@ 000000000007d2e0     UefiShellDebug1CommandsLib:QueryTable.obj
 0002:000167d8       ??_C@_1BA@KMNJBMPC@?$AAU?$AAn?$AAi?$AAf?$AAi?$AAe?$AAd@ 000000000007d2f8     UefiShellDebug1CommandsLib:QueryTable.obj
 0002:000167e8       ??_C@_1BM@DMJMFODO@?$AAD?$AAi?$AAr?$AAe?$AAc?$AAt?$AA?5?$AAM?$AAa?$AAp?$AAp?$AAe?$AAd@ 000000000007d308     UefiShellDebug1CommandsLib:QueryTable.obj
 0002:00016808       ??_C@_1CM@NPKKKHFJ@?$AA2?$AA?9?$AAw?$AAa?$AAy?$AA?5?$AAS?$AAe?$AAt?$AA?9?$AAA?$AAs?$AAs?$AAo?$AAc@ 000000000007d328     UefiShellDebug1CommandsLib:QueryTable.obj
 0002:00016838       ??_C@_1CM@CDFKDGBF@?$AA4?$AA?9?$AAw?$AAa?$AAy?$AA?5?$AAS?$AAe?$AAt?$AA?9?$AAA?$AAs?$AAs?$AAo?$AAc@ 000000000007d358     UefiShellDebug1CommandsLib:QueryTable.obj
 0002:00016868       ??_C@_1CE@GLBKAPAK@?$AAF?$AAu?$AAl?$AAl?$AAy?$AA?5?$AAA?$AAs?$AAs?$AAo?$AAc?$AAi?$AAa?$AAt?$AAi@ 000000000007d388     UefiShellDebug1CommandsLib:QueryTable.obj
 0002:00016890       ??_C@_1CM@BMKBCMM@?$AA8?$AA?9?$AAw?$AAa?$AAy?$AA?5?$AAS?$AAe?$AAt?$AA?9?$AAA?$AAs?$AAs?$AAo?$AAc@ 000000000007d3b0     UefiShellDebug1CommandsLib:QueryTable.obj
 0002:000168c0       ??_C@_1CO@OAAPFFKI@?$AA1?$AA6?$AA?9?$AAw?$AAa?$AAy?$AA?5?$AAS?$AAe?$AAt?$AA?9?$AAA?$AAs?$AAs?$AAo@ 000000000007d3e0     UefiShellDebug1CommandsLib:QueryTable.obj
 0002:000168f0       ??_C@_1CO@EIKPLECA@?$AA1?$AA2?$AA?9?$AAw?$AAa?$AAy?$AA?5?$AAS?$AAe?$AAt?$AA?9?$AAA?$AAs?$AAs?$AAo@ 000000000007d410     UefiShellDebug1CommandsLib:QueryTable.obj
 0002:00016920       ??_C@_1CO@DEAFIJNJ@?$AA2?$AA4?$AA?9?$AAw?$AAa?$AAy?$AA?5?$AAS?$AAe?$AAt?$AA?9?$AAA?$AAs?$AAs?$AAo@ 000000000007d440     UefiShellDebug1CommandsLib:QueryTable.obj
 0002:00016950       ??_C@_1CO@LHDMIDAG@?$AA3?$AA2?$AA?9?$AAw?$AAa?$AAy?$AA?5?$AAS?$AAe?$AAt?$AA?9?$AAA?$AAs?$AAs?$AAo@ 000000000007d470     UefiShellDebug1CommandsLib:QueryTable.obj
 0002:00016980       ??_C@_1CO@MNFBPCCL@?$AA4?$AA8?$AA?9?$AAw?$AAa?$AAy?$AA?5?$AAS?$AAe?$AAt?$AA?9?$AAA?$AAs?$AAs?$AAo@ 000000000007d4a0     UefiShellDebug1CommandsLib:QueryTable.obj
 0002:000169b0       ??_C@_1CO@BAFCOBNE@?$AA6?$AA4?$AA?9?$AAw?$AAa?$AAy?$AA?5?$AAS?$AAe?$AAt?$AA?9?$AAA?$AAs?$AAs?$AAo@ 000000000007d4d0     UefiShellDebug1CommandsLib:QueryTable.obj
 0002:000169e0       ??_C@_1CO@JMKFGIFB@?$AA2?$AA0?$AA?9?$AAw?$AAa?$AAy?$AA?5?$AAS?$AAe?$AAt?$AA?9?$AAA?$AAs?$AAs?$AAo@ 000000000007d500     UefiShellDebug1CommandsLib:QueryTable.obj
 0002:00016a10       ??_C@_1BG@PDHILMJJ@?$AAC?$AAe?$AAn?$AAt?$AAr?$AAo?$AAn?$AAi?$AAc?$AAs@ 000000000007d530     UefiShellDebug1CommandsLib:QueryTable.obj
 0002:00016a28       ??_C@_1CA@PNELBLGF@?$AAM?$AAi?$AAn?$AAi?$AA?5?$AAC?$AAe?$AAn?$AAt?$AAr?$AAo?$AAn?$AAi?$AAc?$AAs@ 000000000007d548     UefiShellDebug1CommandsLib:QueryTable.obj
 0002:00016a48       ??_C@_1BI@CDIOKNPG@?$AAP?$AAr?$AAo?$AAp?$AAr?$AAi?$AAe?$AAt?$AAa?$AAr?$AAy@ 000000000007d568     UefiShellDebug1CommandsLib:QueryTable.obj
 0002:00016a60       ??_C@_1BO@HOPAGIKJ@?$AAD?$AAB?$AA?9?$AA2?$AA5?$AA?5?$AAp?$AAi?$AAn?$AA?5?$AAm?$AAa?$AAl?$AAe@ 000000000007d580     UefiShellDebug1CommandsLib:QueryTable.obj
 0002:00016a80       ??_C@_1CC@IBNONMNH@?$AAD?$AAB?$AA?9?$AA2?$AA5?$AA?5?$AAp?$AAi?$AAn?$AA?5?$AAf?$AAe?$AAm?$AAa?$AAl@ 000000000007d5a0     UefiShellDebug1CommandsLib:QueryTable.obj
 0002:00016aa8       ??_C@_1BO@CGOOMBIB@?$AAD?$AAB?$AA?9?$AA1?$AA5?$AA?5?$AAp?$AAi?$AAn?$AA?5?$AAm?$AAa?$AAl?$AAe@ 000000000007d5c8     UefiShellDebug1CommandsLib:QueryTable.obj
 0002:00016ac8       ??_C@_1CC@IDAANLPA@?$AAD?$AAB?$AA?9?$AA1?$AA5?$AA?5?$AAp?$AAi?$AAn?$AA?5?$AAf?$AAe?$AAm?$AAa?$AAl@ 000000000007d5e8     UefiShellDebug1CommandsLib:QueryTable.obj
 0002:00016af0       ??_C@_1BM@KNADBFCO@?$AAD?$AAB?$AA?9?$AA9?$AA?5?$AAp?$AAi?$AAn?$AA?5?$AAm?$AAa?$AAl?$AAe@ 000000000007d610     UefiShellDebug1CommandsLib:QueryTable.obj
 0002:00016b10       ??_C@_1CA@INDCJIEG@?$AAD?$AAB?$AA?9?$AA9?$AA?5?$AAp?$AAi?$AAn?$AA?5?$AAf?$AAe?$AAm?$AAa?$AAl?$AAe@ 000000000007d630     UefiShellDebug1CommandsLib:QueryTable.obj
 0002:00016b30       ??_C@_1M@DIDAFGCB@?$AAR?$AAJ?$AA?9?$AA1?$AA1@ 000000000007d650     UefiShellDebug1CommandsLib:QueryTable.obj
 0002:00016b40       ??_C@_1M@OHJPFAMF@?$AAR?$AAJ?$AA?9?$AA4?$AA5@ 000000000007d660     UefiShellDebug1CommandsLib:QueryTable.obj
 0002:00016b50       ??_C@_1CA@FGGGDIIE@?$AA5?$AA0?$AA?5?$AAP?$AAi?$AAn?$AA?5?$AAM?$AAi?$AAn?$AAi?$AAS?$AAC?$AAS?$AAI@ 000000000007d670     UefiShellDebug1CommandsLib:QueryTable.obj
 0002:00016b70       ??_C@_1BC@IDKNLAIN@?$AAM?$AAi?$AAn?$AAi?$AA?9?$AAD?$AAI?$AAN@ 000000000007d690     UefiShellDebug1CommandsLib:QueryTable.obj
 0002:00016b88       ??_C@_1BE@GJONJPEN@?$AAM?$AAi?$AAc?$AAr?$AAo?$AA?9?$AAD?$AAI?$AAN@ 000000000007d6a8     UefiShellDebug1CommandsLib:QueryTable.obj
 0002:00016ba0       ??_C@_19NCBAGCCN@?$AAP?$AAS?$AA?1?$AA2@ 000000000007d6c0     UefiShellDebug1CommandsLib:QueryTable.obj
 0002:00016bb0       ??_C@_1BC@EDOKPPPJ@?$AAI?$AAn?$AAf?$AAr?$AAa?$AAr?$AAe?$AAd@ 000000000007d6d0     UefiShellDebug1CommandsLib:QueryTable.obj
 0002:00016bc8       ??_C@_1O@NJJBNIOK@?$AAH?$AAP?$AA?9?$AAH?$AAI?$AAL@ 000000000007d6e8     UefiShellDebug1CommandsLib:QueryTable.obj
 0002:00016bd8       ??_C@_1CC@ODIBKOIL@?$AAA?$AAc?$AAc?$AAe?$AAs?$AAs?$AA?5?$AAB?$AAu?$AAs?$AA?5?$AA?$CI?$AAU?$AAS?$AAB@ 000000000007d6f8     UefiShellDebug1CommandsLib:QueryTable.obj
 0002:00016c00       ??_C@_1BC@FKGNOFOK@?$AAS?$AAS?$AAA?$AA?5?$AAS?$AAC?$AAS?$AAI@ 000000000007d720     UefiShellDebug1CommandsLib:QueryTable.obj
 0002:00016c18       ??_C@_1CI@HNFDJGJO@?$AAC?$AAi?$AAr?$AAc?$AAu?$AAl?$AAa?$AAr?$AA?5?$AAD?$AAI?$AAN?$AA?9?$AA8?$AA?5@ 000000000007d738     UefiShellDebug1CommandsLib:QueryTable.obj
 0002:00016c40       ??_C@_1CM@EPFLPMIF@?$AAC?$AAi?$AAr?$AAc?$AAu?$AAl?$AAa?$AAr?$AA?5?$AAD?$AAI?$AAN?$AA?9?$AA8?$AA?5@ 000000000007d760     UefiShellDebug1CommandsLib:QueryTable.obj
 0002:00016c70       ??_C@_1BK@DDPEDENO@?$AAO?$AAn?$AA?5?$AAB?$AAo?$AAa?$AAr?$AAd?$AA?5?$AAI?$AAD?$AAE@ 000000000007d790     UefiShellDebug1CommandsLib:QueryTable.obj
 0002:00016c90       ??_C@_1CA@PCCPEAIO@?$AAO?$AAn?$AA?5?$AAB?$AAo?$AAa?$AAr?$AAd?$AA?5?$AAF?$AAl?$AAo?$AAp?$AAp?$AAy@ 000000000007d7b0     UefiShellDebug1CommandsLib:QueryTable.obj
 0002:00016cb0       ??_C@_1DO@GKBHHBII@?$AA9?$AA?5?$AAP?$AAi?$AAn?$AA?5?$AAD?$AAu?$AAa?$AAl?$AA?5?$AAI?$AAn?$AAl?$AAi@ 000000000007d7d0     UefiShellDebug1CommandsLib:QueryTable.obj
 0002:00016cf0       ??_C@_1EA@GKFKJGNC@?$AA2?$AA5?$AA?5?$AAP?$AAi?$AAn?$AA?5?$AAD?$AAu?$AAa?$AAl?$AA?5?$AAI?$AAn?$AAl@ 000000000007d810     UefiShellDebug1CommandsLib:QueryTable.obj
 0002:00016d30       ??_C@_1CG@BDJNBIMP@?$AA5?$AA0?$AA?5?$AAP?$AAi?$AAn?$AA?5?$AAD?$AAu?$AAa?$AAl?$AA?5?$AAI?$AAn?$AAl@ 000000000007d850     UefiShellDebug1CommandsLib:QueryTable.obj
 0002:00016d58       ??_C@_1CG@CONFKJIG@?$AA6?$AA8?$AA?5?$AAP?$AAi?$AAn?$AA?5?$AAD?$AAu?$AAa?$AAl?$AA?5?$AAI?$AAn?$AAl@ 000000000007d878     UefiShellDebug1CommandsLib:QueryTable.obj
 0002:00016d80       ??_C@_1EC@PDFIJLMB@?$AAO?$AAn?$AA?5?$AAB?$AAo?$AAa?$AAr?$AAd?$AA?5?$AAS?$AAo?$AAu?$AAn?$AAd?$AA?5@ 000000000007d8a0     UefiShellDebug1CommandsLib:QueryTable.obj
 0002:00016dc8       ??_C@_1DA@ELIEDONJ@?$AAM?$AAi?$AAn?$AAi?$AA?9?$AAC?$AAe?$AAn?$AAt?$AAr?$AAo?$AAn?$AAi?$AAc?$AAs@ 000000000007d8e8     UefiShellDebug1CommandsLib:QueryTable.obj
 0002:00016df8       ??_C@_1DA@GHBJIEPM@?$AAM?$AAi?$AAn?$AAi?$AA?9?$AAC?$AAe?$AAn?$AAt?$AAr?$AAo?$AAn?$AAi?$AAc?$AAs@ 000000000007d918     UefiShellDebug1CommandsLib:QueryTable.obj
 0002:00016e28       ??_C@_1CO@MNNKBLFF@?$AAM?$AAi?$AAn?$AAi?$AA?9?$AAj?$AAa?$AAc?$AAk?$AA?5?$AA?$CI?$AAh?$AAe?$AAa?$AAd@ 000000000007d948     UefiShellDebug1CommandsLib:QueryTable.obj
 0002:00016e58       ??_C@_17ENJGHJMJ@?$AAB?$AAN?$AAC@ 000000000007d978     UefiShellDebug1CommandsLib:QueryTable.obj
 0002:00016e60       ??_C@_19MMDKBDIC@?$AA1?$AA3?$AA9?$AA4@ 000000000007d980     UefiShellDebug1CommandsLib:QueryTable.obj
 0002:00016e70       ??_C@_1DC@OOELNIFE@?$AAS?$AAA?$AAS?$AA?1?$AAS?$AAA?$AAT?$AAA?$AA?5?$AAP?$AAl?$AAu?$AAg?$AA?5?$AAR@ 000000000007d990     UefiShellDebug1CommandsLib:QueryTable.obj
 0002:00016ea8       ??_C@_1CM@OHDELON@?$AAU?$AAS?$AAB?$AA?5?$AAT?$AAy?$AAp?$AAe?$AA?9?$AAC?$AA?5?$AAR?$AAe?$AAc?$AAe@ 000000000007d9c8     UefiShellDebug1CommandsLib:QueryTable.obj
 0002:00016ed8       ??_C@_1M@LJEFCOJD@?$AAP?$AAC?$AA?9?$AA9?$AA8@ 000000000007d9f8     UefiShellDebug1CommandsLib:QueryTable.obj
 0002:00016ee8       ??_C@_1BI@BAKAJCAB@?$AAP?$AAC?$AA?9?$AA9?$AA8?$AAH?$AAi?$AAr?$AAe?$AAs?$AAo@ 000000000007da08     UefiShellDebug1CommandsLib:QueryTable.obj
 0002:00016f00       ??_C@_1O@BIIDPPLG@?$AAP?$AAC?$AA?9?$AAH?$AA9?$AA8@ 000000000007da20     UefiShellDebug1CommandsLib:QueryTable.obj
 0002:00016f10       ??_C@_1BE@GJDMMNIL@?$AAP?$AAC?$AA?9?$AA9?$AA8?$AAN?$AAo?$AAt?$AAe@ 000000000007da30     UefiShellDebug1CommandsLib:QueryTable.obj
 0002:00016f28       ??_C@_1BE@FBNGPOA@?$AAP?$AAC?$AA?9?$AA9?$AA8?$AAF?$AAu?$AAl?$AAl@ 000000000007da48     UefiShellDebug1CommandsLib:QueryTable.obj
 0002:00016f40       ??_C@_1DO@LIAHKKBP@?$AAP?$AAa?$AAr?$AAa?$AAl?$AAl?$AAe?$AAl?$AA?5?$AAP?$AAo?$AAr?$AAt?$AA?5?$AAX@ 000000000007da60     UefiShellDebug1CommandsLib:QueryTable.obj
 0002:00016f80       ??_C@_1CG@GNBEJKEE@?$AAP?$AAa?$AAr?$AAa?$AAl?$AAl?$AAe?$AAl?$AA?5?$AAP?$AAo?$AAr?$AAt?$AA?5?$AAP@ 000000000007daa0     UefiShellDebug1CommandsLib:QueryTable.obj
 0002:00016fa8       ??_C@_1CE@JLCOEKBM@?$AAP?$AAa?$AAr?$AAa?$AAl?$AAl?$AAe?$AAl?$AA?5?$AAP?$AAo?$AAr?$AAt?$AA?5?$AAE@ 000000000007dac8     UefiShellDebug1CommandsLib:QueryTable.obj
 0002:00016fd0       ??_C@_1CE@BOGMDKCJ@?$AAP?$AAa?$AAr?$AAa?$AAl?$AAl?$AAe?$AAl?$AA?5?$AAP?$AAo?$AAr?$AAt?$AA?5?$AAE@ 000000000007daf0     UefiShellDebug1CommandsLib:QueryTable.obj
 0002:00016ff8       ??_C@_1CM@EILHOPJF@?$AAP?$AAa?$AAr?$AAa?$AAl?$AAl?$AAe?$AAl?$AA?5?$AAP?$AAo?$AAr?$AAt?$AA?5?$AAE@ 000000000007db18     UefiShellDebug1CommandsLib:QueryTable.obj
 0002:00017028       ??_C@_1DK@GFJNGLPP@?$AAS?$AAe?$AAr?$AAi?$AAa?$AAl?$AA?5?$AAP?$AAo?$AAr?$AAt?$AA?5?$AAX?$AAT?$AA?1@ 000000000007db48     UefiShellDebug1CommandsLib:QueryTable.obj
 0002:00017068       ??_C@_1DK@DPDCAMIC@?$AAS?$AAe?$AAr?$AAi?$AAa?$AAl?$AA?5?$AAP?$AAo?$AAr?$AAt?$AA?5?$AA1?$AA6?$AA4@ 000000000007db88     UefiShellDebug1CommandsLib:QueryTable.obj
 0002:000170a8       ??_C@_1DK@DFCOPIK@?$AAS?$AAe?$AAr?$AAi?$AAa?$AAl?$AA?5?$AAP?$AAo?$AAr?$AAt?$AA?5?$AA1?$AA6?$AA5@ 000000000007dbc8     UefiShellDebug1CommandsLib:QueryTable.obj
 0002:000170e8       ??_C@_1DM@FJBADMAE@?$AAS?$AAe?$AAr?$AAi?$AAa?$AAl?$AA?5?$AAP?$AAo?$AAr?$AAt?$AA?5?$AA1?$AA6?$AA5@ 000000000007dc08     UefiShellDebug1CommandsLib:QueryTable.obj
 0002:00017128       ??_C@_1BE@NOJBIPAI@?$AAS?$AAC?$AAS?$AAI?$AA?5?$AAP?$AAo?$AAr?$AAt@ 000000000007dc48     UefiShellDebug1CommandsLib:QueryTable.obj
 0002:00017140       ??_C@_1BE@COPEGMCO@?$AAM?$AAI?$AAD?$AAI?$AA?5?$AAP?$AAo?$AAr?$AAt@ 000000000007dc60     UefiShellDebug1CommandsLib:QueryTable.obj
 0002:00017158       ??_C@_1BO@EFEHLEPP@?$AAJ?$AAo?$AAy?$AA?5?$AAS?$AAt?$AAi?$AAc?$AAk?$AA?5?$AAP?$AAo?$AAr?$AAt@ 000000000007dc78     UefiShellDebug1CommandsLib:QueryTable.obj
 0002:00017178       ??_C@_1BM@JPCDIBMO@?$AAK?$AAe?$AAy?$AAb?$AAo?$AAa?$AAr?$AAd?$AA?5?$AAP?$AAo?$AAr?$AAt@ 000000000007dc98     UefiShellDebug1CommandsLib:QueryTable.obj
 0002:00017198       ??_C@_1BG@OFNCFLIC@?$AAM?$AAo?$AAu?$AAs?$AAe?$AA?5?$AAP?$AAo?$AAr?$AAt@ 000000000007dcb8     UefiShellDebug1CommandsLib:QueryTable.obj
 0002:000171b0       ??_C@_1CM@FJJOGJOL@?$AAF?$AAi?$AAr?$AAe?$AAW?$AAi?$AAr?$AAe?$AA?5?$AA?$CI?$AAI?$AAE?$AAE?$AAE?$AA?5@ 000000000007dcd0     UefiShellDebug1CommandsLib:QueryTable.obj
 0002:000171e0       ??_C@_1BO@MPNLIICJ@?$AAP?$AAC?$AAM?$AAC?$AAI?$AAA?$AA?5?$AAT?$AAy?$AAp?$AAe?$AA?5?$AAI?$AAI@ 000000000007dd00     UefiShellDebug1CommandsLib:QueryTable.obj
 0002:00017200       ??_C@_1CA@EBDJEMJF@?$AAP?$AAC?$AAM?$AAC?$AAI?$AAA?$AA?5?$AAT?$AAy?$AAp?$AAe?$AA?5?$AAI?$AAI?$AAI@ 000000000007dd20     UefiShellDebug1CommandsLib:QueryTable.obj
 0002:00017220       ??_C@_1BA@KFPGBHFK@?$AAC?$AAa?$AAr?$AAd?$AAb?$AAu?$AAs@ 000000000007dd40     UefiShellDebug1CommandsLib:QueryTable.obj
 0002:00017230       ??_C@_1CA@LBIGPIBF@?$AAA?$AAc?$AAc?$AAe?$AAs?$AAs?$AA?5?$AAB?$AAu?$AAs?$AA?5?$AAP?$AAo?$AAr?$AAt@ 000000000007dd50     UefiShellDebug1CommandsLib:QueryTable.obj
 0002:00017250       ??_C@_1BA@NBHKJAMF@?$AAS?$AAC?$AAS?$AAI?$AA?5?$AAI?$AAI@ 000000000007dd70     UefiShellDebug1CommandsLib:QueryTable.obj
 0002:00017260       ??_C@_1BE@MHAIEMIK@?$AAS?$AAC?$AAS?$AAI?$AA?5?$AAW?$AAi?$AAd?$AAe@ 000000000007dd80     UefiShellDebug1CommandsLib:QueryTable.obj
 0002:00017278       ??_C@_1BK@BBENEMM@?$AAP?$AAC?$AA?9?$AA9?$AA8?$AA?9?$AAH?$AAi?$AAr?$AAe?$AAs?$AAo@ 000000000007dd98     UefiShellDebug1CommandsLib:QueryTable.obj
 0002:00017298       ??_C@_1BG@OOENGAEO@?$AAV?$AAi?$AAd?$AAe?$AAo?$AA?5?$AAP?$AAo?$AAr?$AAt@ 000000000007ddb8     UefiShellDebug1CommandsLib:QueryTable.obj
 0002:000172b0       ??_C@_1BG@LGLBFBEJ@?$AAA?$AAu?$AAd?$AAi?$AAo?$AA?5?$AAP?$AAo?$AAr?$AAt@ 000000000007ddd0     UefiShellDebug1CommandsLib:QueryTable.obj
 0002:000172c8       ??_C@_1BG@KCMMPIDH@?$AAM?$AAo?$AAd?$AAe?$AAm?$AA?5?$AAP?$AAo?$AAr?$AAt@ 000000000007dde8     UefiShellDebug1CommandsLib:QueryTable.obj
 0002:000172e0       ??_C@_1BK@NHNIIGJK@?$AAN?$AAe?$AAt?$AAw?$AAo?$AAr?$AAk?$AA?5?$AAP?$AAo?$AAr?$AAt@ 000000000007de00     UefiShellDebug1CommandsLib:QueryTable.obj
 0002:00017300       ??_C@_1BE@BFOFACMI@?$AAS?$AAA?$AAT?$AAA?$AA?5?$AAP?$AAo?$AAr?$AAt@ 000000000007de20     UefiShellDebug1CommandsLib:QueryTable.obj
 0002:00017318       ??_C@_1BC@DHGJDMCD@?$AAS?$AAA?$AAS?$AA?5?$AAP?$AAo?$AAr?$AAt@ 000000000007de38     UefiShellDebug1CommandsLib:QueryTable.obj
 0002:00017330       ??_C@_1EG@JDPFECNO@?$AAM?$AAu?$AAl?$AAt?$AAi?$AA?9?$AAF?$AAu?$AAn?$AAc?$AAt?$AAi?$AAo?$AAn?$AA?5@ 000000000007de50     UefiShellDebug1CommandsLib:QueryTable.obj
 0002:00017378       ??_C@_1BI@OHHOEJGN@?$AAT?$AAh?$AAu?$AAn?$AAd?$AAe?$AAr?$AAb?$AAo?$AAl?$AAt@ 000000000007de98     UefiShellDebug1CommandsLib:QueryTable.obj
 0002:00017390       ??_C@_1CA@EMPGEJLH@?$AA8?$AA2?$AA5?$AA1?$AA?5?$AAC?$AAo?$AAm?$AAp?$AAa?$AAt?$AAi?$AAb?$AAl?$AAe@ 000000000007deb0     UefiShellDebug1CommandsLib:QueryTable.obj
 0002:000173b0       ??_C@_1CK@PPNOCDBD@?$AA8?$AA2?$AA5?$AA1?$AA?5?$AAF?$AAI?$AAF?$AAO?$AA?5?$AAC?$AAo?$AAm?$AAp?$AAa@ 000000000007ded0     UefiShellDebug1CommandsLib:QueryTable.obj
 0002:000173e0       ??_C@_1O@KCMGJGBL@?$AAO?$AAt?$AAh?$AAe?$AAr?$AA?5@ 000000000007df00     UefiShellDebug1CommandsLib:QueryTable.obj
 0002:000173f0       ??_C@_17ICCBLADA@?$AAM?$AAC?$AAA@ 000000000007df10     UefiShellDebug1CommandsLib:QueryTable.obj
 0002:000173f8       ??_C@_17KACLLMCF@?$AAP?$AAC?$AAI@ 000000000007df18     UefiShellDebug1CommandsLib:QueryTable.obj
 0002:00017400       ??_C@_1CC@KCBMDFAB@?$AAP?$AAC?$AA?5?$AAC?$AAa?$AAr?$AAd?$AA?5?$AA?$CI?$AAP?$AAC?$AAM?$AAC?$AAI?$AAA@ 000000000007df20     UefiShellDebug1CommandsLib:QueryTable.obj
 0002:00017428       ??_C@_1BA@BJJLNGGH@?$AAV?$AAL?$AA?9?$AAV?$AAE?$AAS?$AAA@ 000000000007df48     UefiShellDebug1CommandsLib:QueryTable.obj
 0002:00017438       ??_C@_1CI@LAEGDMLE@?$AAP?$AAr?$AAo?$AAc?$AAe?$AAs?$AAs?$AAo?$AAr?$AA?5?$AAC?$AAa?$AAr?$AAd?$AA?5@ 000000000007df58     UefiShellDebug1CommandsLib:QueryTable.obj
 0002:00017460       ??_C@_1DK@EAJEKNAL@?$AAP?$AAr?$AAo?$AAp?$AAr?$AAi?$AAe?$AAt?$AAa?$AAr?$AAy?$AA?5?$AAM?$AAe?$AAm@ 000000000007df80     UefiShellDebug1CommandsLib:QueryTable.obj
 0002:000174a0       ??_C@_1CI@PDMOJGJG@?$AAI?$AA?1?$AAO?$AA?5?$AAR?$AAi?$AAs?$AAe?$AAr?$AA?5?$AAC?$AAa?$AAr?$AAd?$AA?5@ 000000000007dfc0     UefiShellDebug1CommandsLib:QueryTable.obj
 0002:000174c8       ??_C@_1M@EMFEFDC@?$AAN?$AAu?$AAB?$AAu?$AAs@ 000000000007dfe8     UefiShellDebug1CommandsLib:QueryTable.obj
 0002:000174d8       ??_C@_1CI@CBCPMECI@?$AAP?$AAC?$AAI?$AA?5?$AA?9?$AA?5?$AA6?$AA6?$AAM?$AAH?$AAz?$AA?5?$AAC?$AAa?$AAp@ 000000000007dff8     UefiShellDebug1CommandsLib:QueryTable.obj
 0002:00017500       ??_C@_17KGLKNHJD@?$AAA?$AAG?$AAP@ 000000000007e020     UefiShellDebug1CommandsLib:QueryTable.obj
 0002:00017508       ??_C@_1O@LBGAKLDF@?$AAA?$AAG?$AAP?$AA?5?$AA2?$AAX@ 000000000007e028     UefiShellDebug1CommandsLib:QueryTable.obj
 0002:00017518       ??_C@_1O@GHDJEICI@?$AAA?$AAG?$AAP?$AA?5?$AA4?$AAX@ 000000000007e038     UefiShellDebug1CommandsLib:QueryTable.obj
 0002:00017528       ??_C@_1M@EOIFDHFM@?$AAP?$AAC?$AAI?$AA?9?$AAX@ 000000000007e048     UefiShellDebug1CommandsLib:QueryTable.obj
 0002:00017538       ??_C@_1O@BAPLIIFD@?$AAA?$AAG?$AAP?$AA?5?$AA8?$AAX@ 000000000007e058     UefiShellDebug1CommandsLib:QueryTable.obj
 0002:00017550       ??_C@_1EG@JIHKNADJ@?$AAM?$AA?4?$AA2?$AA?5?$AAS?$AAo?$AAc?$AAk?$AAe?$AAt?$AA?5?$AA1?$AA?9?$AAD?$AAP@ 000000000007e070     UefiShellDebug1CommandsLib:QueryTable.obj
 0002:000175a0       ??_C@_1EG@OAGAMHPH@?$AAM?$AA?4?$AA2?$AA?5?$AAS?$AAo?$AAc?$AAk?$AAe?$AAt?$AA?5?$AA1?$AA?9?$AAS?$AAD@ 000000000007e0c0     UefiShellDebug1CommandsLib:QueryTable.obj
 0002:000175f0       ??_C@_1EA@PNAJHPEJ@?$AAM?$AA?4?$AA2?$AA?5?$AAS?$AAo?$AAc?$AAk?$AAe?$AAt?$AA?5?$AA2?$AA?5?$AA?$CI?$AAM@ 000000000007e110     UefiShellDebug1CommandsLib:QueryTable.obj
 0002:00017630       ??_C@_1EA@KNGGEJHC@?$AAM?$AA?4?$AA2?$AA?5?$AAS?$AAo?$AAc?$AAk?$AAe?$AAt?$AA?5?$AA3?$AA?5?$AA?$CI?$AAM@ 000000000007e150     UefiShellDebug1CommandsLib:QueryTable.obj
 0002:00017670       ??_C@_1BG@HBBIGDEK@?$AAM?$AAX?$AAM?$AA?5?$AAT?$AAy?$AAp?$AAe?$AA?5?$AAI@ 000000000007e190     UefiShellDebug1CommandsLib:QueryTable.obj
 0002:00017688       ??_C@_1BI@DIDBPBMC@?$AAM?$AAX?$AAM?$AA?5?$AAT?$AAy?$AAp?$AAe?$AA?5?$AAI?$AAI@ 000000000007e1a8     UefiShellDebug1CommandsLib:QueryTable.obj
 0002:000176a0       ??_C@_1EE@DMCEFFOA@?$AAM?$AAX?$AAM?$AA?5?$AAT?$AAy?$AAp?$AAe?$AA?5?$AAI?$AAI?$AAI?$AA?5?$AA?$CI?$AAs@ 000000000007e1c0     UefiShellDebug1CommandsLib:QueryTable.obj
 0002:000176e8       ??_C@_1DI@MOJKLOGD@?$AAM?$AAX?$AAM?$AA?5?$AAT?$AAy?$AAp?$AAe?$AA?5?$AAI?$AAI?$AAI?$AA?5?$AA?$CI?$AAH@ 000000000007e208     UefiShellDebug1CommandsLib:QueryTable.obj
 0002:00017720       ??_C@_1BI@DAELLGAL@?$AAM?$AAX?$AAM?$AA?5?$AAT?$AAy?$AAp?$AAe?$AA?5?$AAI?$AAV@ 000000000007e240     UefiShellDebug1CommandsLib:QueryTable.obj
 0002:00017738       ??_C@_1BO@HJEAKDMP@?$AAM?$AAX?$AAM?$AA?5?$AA3?$AA?4?$AA0?$AA?5?$AAT?$AAy?$AAp?$AAe?$AA?5?$AAA@ 000000000007e258     UefiShellDebug1CommandsLib:QueryTable.obj
 0002:00017758       ??_C@_1BO@GLPFAMCB@?$AAM?$AAX?$AAM?$AA?5?$AA3?$AA?4?$AA0?$AA?5?$AAT?$AAy?$AAp?$AAe?$AA?5?$AAB@ 000000000007e278     UefiShellDebug1CommandsLib:QueryTable.obj
 0002:00017778       ??_C@_1DG@PMEFNILG@?$AAP?$AAC?$AAI?$AA?5?$AAE?$AAx?$AAp?$AAr?$AAe?$AAs?$AAs?$AA?5?$AAG?$AAe?$AAn@ 000000000007e298     UefiShellDebug1CommandsLib:QueryTable.obj
 0002:000177b0       ??_C@_1DG@OLGNLMHG@?$AAP?$AAC?$AAI?$AA?5?$AAE?$AAx?$AAp?$AAr?$AAe?$AAs?$AAs?$AA?5?$AAG?$AAe?$AAn@ 000000000007e2d0     UefiShellDebug1CommandsLib:QueryTable.obj
 0002:000177f0       ??_C@_1IG@GDFKECGO@?$AAP?$AAC?$AAI?$AA?5?$AAE?$AAx?$AAp?$AAr?$AAe?$AAs?$AAs?$AA?5?$AAM?$AAi?$AAn@ 000000000007e310     UefiShellDebug1CommandsLib:QueryTable.obj
 0002:00017880       ??_C@_1IM@JNIEIDOF@?$AAP?$AAC?$AAI?$AA?5?$AAE?$AAx?$AAp?$AAr?$AAe?$AAs?$AAs?$AA?5?$AAM?$AAi?$AAn@ 000000000007e3a0     UefiShellDebug1CommandsLib:QueryTable.obj
 0002:00017910       ??_C@_1JC@CLEKENNC@?$AAP?$AAC?$AAI?$AA?5?$AAE?$AAx?$AAp?$AAr?$AAe?$AAs?$AAs?$AA?5?$AAM?$AAi?$AAn@ 000000000007e430     UefiShellDebug1CommandsLib:QueryTable.obj
 0002:000179b0       ??_C@_1EC@JADEBIA@?$AAP?$AAC?$AAI?$AA?5?$AAE?$AAx?$AAp?$AAr?$AAe?$AAs?$AAs?$AA?5?$AAG?$AAe?$AAn@ 000000000007e4d0     UefiShellDebug1CommandsLib:QueryTable.obj
 0002:00017a00       ??_C@_1EC@CNIBBALG@?$AAP?$AAC?$AAI?$AA?5?$AAE?$AAx?$AAp?$AAr?$AAe?$AAs?$AAs?$AA?5?$AAG?$AAe?$AAn@ 000000000007e520     UefiShellDebug1CommandsLib:QueryTable.obj
 0002:00017a50       ??_C@_1EI@OKKODGAF@?$AAO?$AAC?$AAP?$AA?5?$AAN?$AAI?$AAC?$AA?5?$AA3?$AA?4?$AA0?$AA?5?$AAS?$AAm?$AAa@ 000000000007e570     UefiShellDebug1CommandsLib:QueryTable.obj
 0002:00017aa0       ??_C@_1EI@OOBKBLLJ@?$AAO?$AAC?$AAP?$AA?5?$AAN?$AAI?$AAC?$AA?5?$AA3?$AA?4?$AA0?$AA?5?$AAL?$AAa?$AAr@ 000000000007e5c0     UefiShellDebug1CommandsLib:QueryTable.obj
 0002:00017ae8       ??_C@_1CK@DMGCBMBG@?$AAO?$AAC?$AAP?$AA?5?$AAN?$AAI?$AAC?$AA?5?$AAP?$AAr?$AAi?$AAo?$AAr?$AA?5?$AAt@ 000000000007e608     UefiShellDebug1CommandsLib:QueryTable.obj
 0002:00017b18       ??_C@_1CA@EACNHKNF@?$AAC?$AAX?$AAL?$AA?5?$AAF?$AAl?$AAe?$AAx?$AAb?$AAu?$AAs?$AA?5?$AA1?$AA?4?$AA0@ 000000000007e638     UefiShellDebug1CommandsLib:QueryTable.obj
 0002:00017b38       ??_C@_1BG@MILHKIJI@?$AAP?$AAC?$AA?9?$AA9?$AA8?$AA?1?$AAC?$AA2?$AA0?$AA?5@ 000000000007e658     UefiShellDebug1CommandsLib:QueryTable.obj
 0002:00017b50       ??_C@_1BG@FDCGOKIO@?$AAP?$AAC?$AA?9?$AA9?$AA8?$AA?1?$AAC?$AA2?$AA4?$AA?5@ 000000000007e670     UefiShellDebug1CommandsLib:QueryTable.obj
 0002:00017b68       ??_C@_1BC@FMLHNMAD@?$AAP?$AAC?$AA?9?$AA9?$AA8?$AA?1?$AAE?$AA?5@ 000000000007e688     UefiShellDebug1CommandsLib:QueryTable.obj
 0002:00017b80       ??_C@_1CC@OCHBEAJE@?$AAP?$AAC?$AA?9?$AA9?$AA8?$AA?1?$AAL?$AAo?$AAc?$AAa?$AAl?$AA?5?$AAB?$AAu?$AAs@ 000000000007e6a0     UefiShellDebug1CommandsLib:QueryTable.obj
 0002:00017ba8       ??_C@_1BI@GMPFPMOA@?$AAP?$AAC?$AA?9?$AA9?$AA8?$AA?1?$AAC?$AAa?$AAr?$AAd?$AA?5@ 000000000007e6c8     UefiShellDebug1CommandsLib:QueryTable.obj
 0002:00017bc0       ??_C@_1BK@NGAJAHOO@?$AAP?$AAC?$AAI?$AA?5?$AAE?$AAx?$AAp?$AAr?$AAe?$AAs?$AAs?$AA?5@ 000000000007e6e0     UefiShellDebug1CommandsLib:QueryTable.obj
 0002:00017be0       ??_C@_1BO@CFNHPJHI@?$AAP?$AAC?$AAI?$AA?5?$AAE?$AAx?$AAp?$AAr?$AAe?$AAs?$AAs?$AA?5?$AAX?$AA1@ 000000000007e700     UefiShellDebug1CommandsLib:QueryTable.obj
 0002:00017c00       ??_C@_1BO@DHGCFGJG@?$AAP?$AAC?$AAI?$AA?5?$AAE?$AAx?$AAp?$AAr?$AAe?$AAs?$AAs?$AA?5?$AAX?$AA2@ 000000000007e720     UefiShellDebug1CommandsLib:QueryTable.obj
 0002:00017c20       ??_C@_1BO@BCAJAJEK@?$AAP?$AAC?$AAI?$AA?5?$AAE?$AAx?$AAp?$AAr?$AAe?$AAs?$AAs?$AA?5?$AAX?$AA4@ 000000000007e740     UefiShellDebug1CommandsLib:QueryTable.obj
 0002:00017c40       ??_C@_1BO@FINPLGPC@?$AAP?$AAC?$AAI?$AA?5?$AAE?$AAx?$AAp?$AAr?$AAe?$AAs?$AAs?$AA?5?$AAX?$AA8@ 000000000007e760     UefiShellDebug1CommandsLib:QueryTable.obj
 0002:00017c60       ??_C@_1CA@PGMHDLOM@?$AAP?$AAC?$AAI?$AA?5?$AAE?$AAx?$AAp?$AAr?$AAe?$AAs?$AAs?$AA?5?$AAX?$AA1?$AA6@ 000000000007e780     UefiShellDebug1CommandsLib:QueryTable.obj
 0002:00017c80       ??_C@_1CE@HBMMGLIB@?$AAP?$AAC?$AAI?$AA?5?$AAE?$AAx?$AAp?$AAr?$AAe?$AAs?$AAs?$AA?5?$AAG?$AAe?$AAn@ 000000000007e7a0     UefiShellDebug1CommandsLib:QueryTable.obj
 0002:00017ca8       ??_C@_1CK@DJKKFPA@?$AAP?$AAC?$AAI?$AA?5?$AAE?$AAx?$AAp?$AAr?$AAe?$AAs?$AAs?$AA?5?$AAG?$AAe?$AAn@ 000000000007e7c8     UefiShellDebug1CommandsLib:QueryTable.obj
 0002:00017cd8       ??_C@_1CK@BBCPAKBO@?$AAP?$AAC?$AAI?$AA?5?$AAE?$AAx?$AAp?$AAr?$AAe?$AAs?$AAs?$AA?5?$AAG?$AAe?$AAn@ 000000000007e7f8     UefiShellDebug1CommandsLib:QueryTable.obj
 0002:00017d08       ??_C@_1CK@DEEEFFMC@?$AAP?$AAC?$AAI?$AA?5?$AAE?$AAx?$AAp?$AAr?$AAe?$AAs?$AAs?$AA?5?$AAG?$AAe?$AAn@ 000000000007e828     UefiShellDebug1CommandsLib:QueryTable.obj
 0002:00017d38       ??_C@_1CK@HOJCOKHK@?$AAP?$AAC?$AAI?$AA?5?$AAE?$AAx?$AAp?$AAr?$AAe?$AAs?$AAs?$AA?5?$AAG?$AAe?$AAn@ 000000000007e858     UefiShellDebug1CommandsLib:QueryTable.obj
 0002:00017d68       ??_C@_1CM@GHEABCDN@?$AAP?$AAC?$AAI?$AA?5?$AAE?$AAx?$AAp?$AAr?$AAe?$AAs?$AAs?$AA?5?$AAG?$AAe?$AAn@ 000000000007e888     UefiShellDebug1CommandsLib:QueryTable.obj
 0002:00017d98       ??_C@_1CE@MJHAAMOE@?$AAP?$AAC?$AAI?$AA?5?$AAE?$AAx?$AAp?$AAr?$AAe?$AAs?$AAs?$AA?5?$AAG?$AAe?$AAn@ 000000000007e8b8     UefiShellDebug1CommandsLib:QueryTable.obj
 0002:00017dc0       ??_C@_1CK@OMFIMOMO@?$AAP?$AAC?$AAI?$AA?5?$AAE?$AAx?$AAp?$AAr?$AAe?$AAs?$AAs?$AA?5?$AAG?$AAe?$AAn@ 000000000007e8e0     UefiShellDebug1CommandsLib:QueryTable.obj
 0002:00017df0       ??_C@_1CK@POONGBCA@?$AAP?$AAC?$AAI?$AA?5?$AAE?$AAx?$AAp?$AAr?$AAe?$AAs?$AAs?$AA?5?$AAG?$AAe?$AAn@ 000000000007e910     UefiShellDebug1CommandsLib:QueryTable.obj
 0002:00017e20       ??_C@_1CK@NLIGDOPM@?$AAP?$AAC?$AAI?$AA?5?$AAE?$AAx?$AAp?$AAr?$AAe?$AAs?$AAs?$AA?5?$AAG?$AAe?$AAn@ 000000000007e940     UefiShellDebug1CommandsLib:QueryTable.obj
 0002:00017e50       ??_C@_1CK@JBFAIBEE@?$AAP?$AAC?$AAI?$AA?5?$AAE?$AAx?$AAp?$AAr?$AAe?$AAs?$AAs?$AA?5?$AAG?$AAe?$AAn@ 000000000007e970     UefiShellDebug1CommandsLib:QueryTable.obj
 0002:00017e80       ??_C@_1CM@PMOFFOFC@?$AAP?$AAC?$AAI?$AA?5?$AAE?$AAx?$AAp?$AAr?$AAe?$AAs?$AAs?$AA?5?$AAG?$AAe?$AAn@ 000000000007e9a0     UefiShellDebug1CommandsLib:QueryTable.obj
 0002:00017eb0       ??_C@_1CE@FEKHDEFN@?$AAP?$AAC?$AAI?$AA?5?$AAE?$AAx?$AAp?$AAr?$AAe?$AAs?$AAs?$AA?5?$AAG?$AAe?$AAn@ 000000000007e9d0     UefiShellDebug1CommandsLib:QueryTable.obj
 0002:00017ed8       ??_C@_1CK@OIENFLH@?$AAP?$AAC?$AAI?$AA?5?$AAE?$AAx?$AAp?$AAr?$AAe?$AAs?$AAs?$AA?5?$AAG?$AAe?$AAn@ 000000000007e9f8     UefiShellDebug1CommandsLib:QueryTable.obj
 0002:00017f08       ??_C@_1CK@BMDBHKFJ@?$AAP?$AAC?$AAI?$AA?5?$AAE?$AAx?$AAp?$AAr?$AAe?$AAs?$AAs?$AA?5?$AAG?$AAe?$AAn@ 000000000007ea28     UefiShellDebug1CommandsLib:QueryTable.obj
 0002:00017f38       ??_C@_1CK@DJFKCFIF@?$AAP?$AAC?$AAI?$AA?5?$AAE?$AAx?$AAp?$AAr?$AAe?$AAs?$AAs?$AA?5?$AAG?$AAe?$AAn@ 000000000007ea58     UefiShellDebug1CommandsLib:QueryTable.obj
 0002:00017f68       ??_C@_1CK@HDIMJKDN@?$AAP?$AAC?$AAI?$AA?5?$AAE?$AAx?$AAp?$AAr?$AAe?$AAs?$AAs?$AA?5?$AAG?$AAe?$AAn@ 000000000007ea88     UefiShellDebug1CommandsLib:QueryTable.obj
 0002:00017f98       ??_C@_1CM@IIHNLHNN@?$AAP?$AAC?$AAI?$AA?5?$AAE?$AAx?$AAp?$AAr?$AAe?$AAs?$AAs?$AA?5?$AAG?$AAe?$AAn@ 000000000007eab8     UefiShellDebug1CommandsLib:QueryTable.obj
 0002:00017fc8       ??_C@_1CE@OMBLFDDI@?$AAP?$AAC?$AAI?$AA?5?$AAE?$AAx?$AAp?$AAr?$AAe?$AAs?$AAs?$AA?5?$AAG?$AAe?$AAn@ 000000000007eae8     UefiShellDebug1CommandsLib:QueryTable.obj
 0002:00017ff0       ??_C@_1CK@OGOKLLLP@?$AAP?$AAC?$AAI?$AA?5?$AAE?$AAx?$AAp?$AAr?$AAe?$AAs?$AAs?$AA?5?$AAG?$AAe?$AAn@ 000000000007eb10     UefiShellDebug1CommandsLib:QueryTable.obj
 0002:00018020       ??_C@_1CK@PEFPBEFB@?$AAP?$AAC?$AAI?$AA?5?$AAE?$AAx?$AAp?$AAr?$AAe?$AAs?$AAs?$AA?5?$AAG?$AAe?$AAn@ 000000000007eb40     UefiShellDebug1CommandsLib:QueryTable.obj
 0002:00018050       ??_C@_1CK@NBDEELIN@?$AAP?$AAC?$AAI?$AA?5?$AAE?$AAx?$AAp?$AAr?$AAe?$AAs?$AAs?$AA?5?$AAG?$AAe?$AAn@ 000000000007eb70     UefiShellDebug1CommandsLib:QueryTable.obj
 0002:00018080       ??_C@_1CK@JLOCPEDF@?$AAP?$AAC?$AAI?$AA?5?$AAE?$AAx?$AAp?$AAr?$AAe?$AAs?$AAs?$AA?5?$AAG?$AAe?$AAn@ 000000000007eba0     UefiShellDebug1CommandsLib:QueryTable.obj
 0002:000180b0       ??_C@_1CM@OKKOJJOE@?$AAP?$AAC?$AAI?$AA?5?$AAE?$AAx?$AAp?$AAr?$AAe?$AAs?$AAs?$AA?5?$AAG?$AAe?$AAn@ 000000000007ebd0     UefiShellDebug1CommandsLib:QueryTable.obj
 0002:000180e0       ??_C@_1DK@JOADGCEC@?$AAP?$AAC?$AAI?$AA?5?$AAE?$AAx?$AAp?$AAr?$AAe?$AAs?$AAs?$AA?5?$AAG?$AAe?$AAn@ 000000000007ec00     UefiShellDebug1CommandsLib:QueryTable.obj
 0002:00018120       ??_C@_1GC@NDABHFIP@?$AAE?$AAn?$AAt?$AAe?$AAr?$AAp?$AAr?$AAi?$AAs?$AAe?$AA?5?$AAa?$AAn?$AAd?$AA?5@ 000000000007ec40     UefiShellDebug1CommandsLib:QueryTable.obj
 0002:00018190       ??_C@_1GA@JCNJNNEM@?$AAE?$AAn?$AAt?$AAe?$AAr?$AAp?$AAr?$AAi?$AAs?$AAe?$AA?5?$AAa?$AAn?$AAd?$AA?5@ 000000000007ecb0     UefiShellDebug1CommandsLib:QueryTable.obj
 0002:000181f0       ??_C@_1O@OHDAHDFF@?$AA?5?$AA8?$AA?5?$AAb?$AAi?$AAt@ 000000000007ed10     UefiShellDebug1CommandsLib:QueryTable.obj
 0002:00018200       ??_C@_1BA@NPIDDELO@?$AA?5?$AA1?$AA6?$AA?5?$AAb?$AAi?$AAt@ 000000000007ed20     UefiShellDebug1CommandsLib:QueryTable.obj
 0002:00018210       ??_C@_1BA@DNOLMLGM@?$AA?5?$AA3?$AA2?$AA?5?$AAb?$AAi?$AAt@ 000000000007ed30     UefiShellDebug1CommandsLib:QueryTable.obj
 0002:00018220       ??_C@_1BA@FGHFAAOB@?$AA?5?$AA6?$AA4?$AA?5?$AAb?$AAi?$AAt@ 000000000007ed40     UefiShellDebug1CommandsLib:QueryTable.obj
 0002:00018230       ??_C@_1BC@NEHKFBFM@?$AA?5?$AA1?$AA2?$AA8?$AA?5?$AAb?$AAi?$AAt@ 000000000007ed50     UefiShellDebug1CommandsLib:QueryTable.obj
 0002:00018248       ??_C@_1BE@OJJKOGNM@?$AA?5?$AA1?$AAx?$AA?5?$AAo?$AAr?$AA?5?$AAx?$AA1@ 000000000007ed68     UefiShellDebug1CommandsLib:QueryTable.obj
 0002:00018260       ??_C@_1BE@BBKJJEFA@?$AA?5?$AA2?$AAx?$AA?5?$AAo?$AAr?$AA?5?$AAx?$AA2@ 000000000007ed80     UefiShellDebug1CommandsLib:QueryTable.obj
 0002:00018278       ??_C@_1BE@DKLOHHAJ@?$AA?5?$AA4?$AAx?$AA?5?$AAo?$AAr?$AA?5?$AAx?$AA4@ 000000000007ed98     UefiShellDebug1CommandsLib:QueryTable.obj
 0002:00018290       ??_C@_1BE@GMJBLBLL@?$AA?5?$AA8?$AAx?$AA?5?$AAo?$AAr?$AA?5?$AAx?$AA8@ 000000000007edb0     UefiShellDebug1CommandsLib:QueryTable.obj
 0002:000182a8       ??_C@_1BI@NKIOPCBP@?$AA?5?$AA1?$AA2?$AAx?$AA?5?$AAo?$AAr?$AA?5?$AAx?$AA1?$AA2@ 000000000007edc8     UefiShellDebug1CommandsLib:QueryTable.obj
 0002:000182c0       ??_C@_1BI@BLABIOBB@?$AA?5?$AA1?$AA6?$AAx?$AA?5?$AAo?$AAr?$AA?5?$AAx?$AA1?$AA6@ 000000000007ede0     UefiShellDebug1CommandsLib:QueryTable.obj
 0002:000182d8       ??_C@_1BI@LJBGJKJE@?$AA?5?$AA3?$AA2?$AAx?$AA?5?$AAo?$AAr?$AA?5?$AAx?$AA3?$AA2@ 000000000007edf8     UefiShellDebug1CommandsLib:QueryTable.obj
 0002:000182f0       ??_C@_1BA@FBEBHPLI@?$AA?5?$AAO?$AAt?$AAh?$AAe?$AAr?$AAs@ 000000000007ee10     UefiShellDebug1CommandsLib:QueryTable.obj
 0002:00018300       ??_C@_1O@BKEPEHNA@?$AA?5?$AAG?$AAe?$AAn?$AA?5?$AA1@ 000000000007ee20     UefiShellDebug1CommandsLib:QueryTable.obj
 0002:00018310       ??_C@_1O@IPKOIDO@?$AA?5?$AAG?$AAe?$AAn?$AA?5?$AA2@ 000000000007ee30     UefiShellDebug1CommandsLib:QueryTable.obj
 0002:00018320       ??_C@_1O@LAEGIPFL@?$AA?5?$AAG?$AAe?$AAn?$AA?5?$AA3@ 000000000007ee40     UefiShellDebug1CommandsLib:QueryTable.obj
 0002:00018330       ??_C@_1O@CNJBLHOC@?$AA?5?$AAG?$AAe?$AAn?$AA?5?$AA4@ 000000000007ee50     UefiShellDebug1CommandsLib:QueryTable.obj
 0002:00018340       ??_C@_1O@JFCNNAIH@?$AA?5?$AAG?$AAe?$AAn?$AA?5?$AA5@ 000000000007ee60     UefiShellDebug1CommandsLib:QueryTable.obj
 0002:00018350       ??_C@_1O@IHJIHPGJ@?$AA?5?$AAG?$AAe?$AAn?$AA?5?$AA6@ 000000000007ee70     UefiShellDebug1CommandsLib:QueryTable.obj
 0002:00018360       ??_C@_1BG@PBNCCCP@?$AA?5?$AAA?$AAv?$AAa?$AAi?$AAl?$AAa?$AAb?$AAl?$AAe@ 000000000007ee80     UefiShellDebug1CommandsLib:QueryTable.obj
 0002:00018378       ??_C@_1BA@FEJMAK@?$AA?5?$AAI?$AAn?$AA?5?$AAu?$AAs?$AAe@ 000000000007ee98     UefiShellDebug1CommandsLib:QueryTable.obj
 0002:00018388       ??_C@_1BK@CNJJOMPA@?$AA?5?$AAU?$AAn?$AAa?$AAv?$AAa?$AAi?$AAl?$AAa?$AAb?$AAl?$AAe@ 000000000007eea8     UefiShellDebug1CommandsLib:QueryTable.obj
 0002:000183a8       ??_C@_1BM@PMKIHGOB@?$AA?5?$AAS?$AAh?$AAo?$AAr?$AAt?$AA?5?$AAl?$AAe?$AAn?$AAg?$AAt?$AAh@ 000000000007eec8     UefiShellDebug1CommandsLib:QueryTable.obj
 0002:000183c8       ??_C@_1BK@FLOAHCMB@?$AA?5?$AAL?$AAo?$AAn?$AAg?$AA?5?$AAL?$AAe?$AAn?$AAg?$AAt?$AAh@ 000000000007eee8     UefiShellDebug1CommandsLib:QueryTable.obj
 0002:000183e8       ??_C@_1CA@HNJJEEBP@?$AA?5?$AAN?$AAo?$AAt?$AA?5?$AAa?$AAp?$AAp?$AAl?$AAi?$AAc?$AAa?$AAb?$AAl?$AAe@ 000000000007ef08     UefiShellDebug1CommandsLib:QueryTable.obj
 0002:00018408       ??_C@_1BA@ILKCCFOI@?$AA?5?$AAU?$AAn?$AAk?$AAo?$AAw?$AAn@ 000000000007ef28     UefiShellDebug1CommandsLib:QueryTable.obj
 0002:00018418       ??_C@_1BK@BOEOECO@?$AA?5?$AAF?$AAu?$AAl?$AAl?$AA?5?$AAh?$AAe?$AAi?$AAg?$AAh?$AAt@ 000000000007ef38     UefiShellDebug1CommandsLib:QueryTable.obj
 0002:00018438       ??_C@_1BK@KFDMMBFO@?$AA?5?$AAL?$AAo?$AAw?$AA?9?$AAP?$AAr?$AAo?$AAf?$AAi?$AAl?$AAe@ 000000000007ef58     UefiShellDebug1CommandsLib:QueryTable.obj
 0002:00018458       ??_C@_1DC@FIGFMDLI@?$AA?5?$AAC?$AAh?$AAa?$AAr?$AAa?$AAc?$AAt?$AAe?$AAr?$AAi?$AAs?$AAt?$AAi?$AAc@ 000000000007ef78     UefiShellDebug1CommandsLib:QueryTable.obj
 0002:00018490       ??_C@_1CI@LDBECCCN@?$AA?5?$AAP?$AAr?$AAo?$AAv?$AAi?$AAd?$AAe?$AAs?$AA?5?$AA5?$AA?4?$AA0?$AA?5?$AAV@ 000000000007efb0     UefiShellDebug1CommandsLib:QueryTable.obj
 0002:000184b8       ??_C@_1CI@BOPPALAK@?$AA?5?$AAP?$AAr?$AAo?$AAv?$AAi?$AAd?$AAe?$AAs?$AA?5?$AA3?$AA?4?$AA3?$AA?5?$AAV@ 000000000007efd8     UefiShellDebug1CommandsLib:QueryTable.obj
 0002:000184e0       ??_C@_1JA@EIHGPDKL@?$AA?5?$AAS?$AAl?$AAo?$AAt?$AA?8?$AAs?$AA?5?$AAo?$AAp?$AAe?$AAn?$AAi?$AAn?$AAg@ 000000000007f000     UefiShellDebug1CommandsLib:QueryTable.obj
 0002:00018570       ??_C@_1EE@OIOLADMH@?$AA?5?$AAP?$AAC?$AA?5?$AAC?$AAa?$AAr?$AAd?$AA?5?$AAs?$AAl?$AAo?$AAt?$AA?5?$AAs@ 000000000007f090     UefiShellDebug1CommandsLib:QueryTable.obj
 0002:000185b8       ??_C@_1DO@JFEDJOOK@?$AA?5?$AAP?$AAC?$AA?5?$AAC?$AAa?$AAr?$AAd?$AA?5?$AAs?$AAl?$AAo?$AAt?$AA?5?$AAs@ 000000000007f0d8     UefiShellDebug1CommandsLib:QueryTable.obj
 0002:00018600       ??_C@_1EG@IEPEODDF@?$AA?5?$AAP?$AAC?$AA?5?$AAC?$AAa?$AAr?$AAd?$AA?5?$AAs?$AAl?$AAo?$AAt?$AA?5?$AAs@ 000000000007f120     UefiShellDebug1CommandsLib:QueryTable.obj
 0002:00018650       ??_C@_1FE@NEBIPEBH@?$AA?5?$AAP?$AAC?$AA?5?$AAC?$AAa?$AAr?$AAd?$AA?5?$AAs?$AAl?$AAo?$AAt?$AA?5?$AAs@ 000000000007f170     UefiShellDebug1CommandsLib:QueryTable.obj
 0002:000186b0       ??_C@_1HC@HOEBBJJH@?$AA?5?$AAP?$AAC?$AAI?$AA?5?$AAs?$AAl?$AAo?$AAt?$AA?5?$AAs?$AAu?$AAp?$AAp?$AAo@ 000000000007f1d0     UefiShellDebug1CommandsLib:QueryTable.obj
 0002:00018730       ??_C@_1EA@FECBNCMD@?$AA?5?$AAS?$AAl?$AAo?$AAt?$AA?5?$AAs?$AAu?$AAp?$AAp?$AAo?$AAr?$AAt?$AAs?$AA?5@ 000000000007f250     UefiShellDebug1CommandsLib:QueryTable.obj
 0002:00018770       ??_C@_1EA@PLBBCABB@?$AA?5?$AAP?$AAC?$AAI?$AA?5?$AAs?$AAl?$AAo?$AAt?$AA?5?$AAs?$AAu?$AAp?$AAp?$AAo@ 000000000007f290     UefiShellDebug1CommandsLib:QueryTable.obj
 0002:000187b0       ??_C@_1EA@JPLCNHA@?$AA?5?$AAP?$AAC?$AAI?$AAe?$AA?5?$AAs?$AAl?$AAo?$AAt?$AA?5?$AAs?$AAu?$AAp?$AAp@ 000000000007f2d0     UefiShellDebug1CommandsLib:QueryTable.obj
 0002:000187f0       ??_C@_1EM@JFENEIHI@?$AA?5?$AAS?$AAl?$AAo?$AAt?$AA?5?$AAs?$AAu?$AAp?$AAp?$AAo?$AAr?$AAt?$AAs?$AA?5@ 000000000007f310     UefiShellDebug1CommandsLib:QueryTable.obj
 0002:00018840       ??_C@_1DO@EDOPJLBB@?$AA?5?$AAF?$AAl?$AAe?$AAx?$AAb?$AAu?$AAs?$AA?5?$AAs?$AAl?$AAo?$AAt?$AA?0?$AA?5@ 000000000007f360     UefiShellDebug1CommandsLib:QueryTable.obj
 0002:00018880       ??_C@_1DO@BLPBDCDJ@?$AA?5?$AAF?$AAl?$AAe?$AAx?$AAb?$AAu?$AAs?$AA?5?$AAs?$AAl?$AAo?$AAt?$AA?0?$AA?5@ 000000000007f3a0     UefiShellDebug1CommandsLib:QueryTable.obj
 0002:000188c0       ??_C@_1BA@FIHGLAKE@?$AA?5?$AA?5?$AAV?$AAi?$AAd?$AAe?$AAo@ 000000000007f3e0     UefiShellDebug1CommandsLib:QueryTable.obj
 0002:000188d0       ??_C@_1CE@BHBIDJGK@?$AA?5?$AA?5?$AAS?$AAC?$AAS?$AAI?$AA?5?$AAC?$AAo?$AAn?$AAt?$AAr?$AAo?$AAl?$AAl@ 000000000007f3f0     UefiShellDebug1CommandsLib:QueryTable.obj
 0002:000188f8       ??_C@_1BG@BEFJKGMH@?$AA?5?$AA?5?$AAE?$AAt?$AAh?$AAe?$AAr?$AAn?$AAe?$AAt@ 000000000007f418     UefiShellDebug1CommandsLib:QueryTable.obj
 0002:00018910       ??_C@_1BK@KNKKNDDH@?$AA?5?$AA?5?$AAT?$AAo?$AAk?$AAe?$AAn?$AA?5?$AAR?$AAi?$AAn?$AAg@ 000000000007f430     UefiShellDebug1CommandsLib:QueryTable.obj
 0002:00018930       ??_C@_1BA@MABMPBIE@?$AA?5?$AA?5?$AAS?$AAo?$AAu?$AAn?$AAd@ 000000000007f450     UefiShellDebug1CommandsLib:QueryTable.obj
 0002:00018940       ??_C@_1CE@KPFEECDP@?$AA?5?$AA?5?$AAP?$AAa?$AAt?$AAa?$AA?5?$AAC?$AAo?$AAn?$AAt?$AAr?$AAo?$AAl?$AAl@ 000000000007f460     UefiShellDebug1CommandsLib:QueryTable.obj
 0002:00018968       ??_C@_1CE@GGELEKIA@?$AA?5?$AA?5?$AAS?$AAa?$AAt?$AAa?$AA?5?$AAC?$AAo?$AAn?$AAt?$AAr?$AAo?$AAl?$AAl@ 000000000007f488     UefiShellDebug1CommandsLib:QueryTable.obj
 0002:00018990       ??_C@_1CC@IFDOBMBO@?$AA?5?$AA?5?$AAS?$AAa?$AAs?$AA?5?$AAC?$AAo?$AAn?$AAt?$AAr?$AAo?$AAl?$AAl?$AAe@ 000000000007f4b0     UefiShellDebug1CommandsLib:QueryTable.obj
 0002:000189b8       ??_C@_1BO@CHFNBEOG@?$AA?5?$AA?5?$AAW?$AAi?$AAr?$AAe?$AAl?$AAe?$AAs?$AAs?$AA?5?$AAL?$AAA?$AAN@ 000000000007f4d8     UefiShellDebug1CommandsLib:QueryTable.obj
 0002:000189d8       ??_C@_1BI@ODHIHGLH@?$AA?5?$AA?5?$AAB?$AAl?$AAu?$AAe?$AAt?$AAo?$AAo?$AAt?$AAh@ 000000000007f4f8     UefiShellDebug1CommandsLib:QueryTable.obj
 0002:000189f0       ??_C@_1O@EAPFLEDB@?$AA?5?$AA?5?$AAW?$AAW?$AAA?$AAN@ 000000000007f510     UefiShellDebug1CommandsLib:QueryTable.obj
 0002:00018a00       ??_C@_1EE@HEBGMLIH@?$AA?5?$AA?5?$AAe?$AAm?$AAb?$AAe?$AAd?$AAd?$AAe?$AAd?$AA?5?$AAM?$AAu?$AAl?$AAt@ 000000000007f520     UefiShellDebug1CommandsLib:QueryTable.obj
 0002:00018a48       ??_C@_1CE@DHCOBDNI@?$AA?5?$AA?5?$AAN?$AAV?$AAM?$AAe?$AA?5?$AAC?$AAo?$AAn?$AAt?$AAr?$AAo?$AAl?$AAl@ 000000000007f568     UefiShellDebug1CommandsLib:QueryTable.obj
 0002:00018a70       ??_C@_1CC@LBBPLGGM@?$AA?5?$AA?5?$AAU?$AAF?$AAS?$AA?5?$AAC?$AAo?$AAn?$AAt?$AAr?$AAo?$AAl?$AAl?$AAe@ 000000000007f590     UefiShellDebug1CommandsLib:QueryTable.obj
 0002:00018a98       ??_C@_1BG@EFPNDPFB@?$AA?5?$AAR?$AAe?$AAs?$AAe?$AAr?$AAv?$AAe?$AAd?$AA?4@ 000000000007f5b8     UefiShellDebug1CommandsLib:QueryTable.obj
 0002:00018ab0       ??_C@_1DK@JCGEGJKI@?$AA?5?$AAS?$AAi?$AAn?$AAg?$AAl?$AAe?$AA?9?$AAb?$AAi?$AAt?$AA?5?$AAE?$AAC?$AAC@ 000000000007f5d0     UefiShellDebug1CommandsLib:QueryTable.obj
 0002:00018af0       ??_C@_1DI@IBHOKKKH@?$AA?5?$AAM?$AAu?$AAl?$AAt?$AAi?$AA?9?$AAb?$AAi?$AAt?$AA?5?$AAE?$AAC?$AAC?$AA?5@ 000000000007f610     UefiShellDebug1CommandsLib:QueryTable.obj
 0002:00018b28       ??_C@_1CK@BJAGMCAE@?$AA?5?$AAP?$AAa?$AAr?$AAi?$AAt?$AAy?$AA?5?$AAm?$AAe?$AAm?$AAo?$AAr?$AAy?$AA?5@ 000000000007f648     UefiShellDebug1CommandsLib:QueryTable.obj
 0002:00018b58       ??_C@_1BM@LOLGDEMN@?$AA?5?$AAB?$AAu?$AAs?$AA?5?$AAt?$AAi?$AAm?$AAe?$AA?9?$AAo?$AAu?$AAt@ 000000000007f678     UefiShellDebug1CommandsLib:QueryTable.obj
 0002:00018b78       ??_C@_1CG@DNBJCKBI@?$AA?5?$AAI?$AA?1?$AAO?$AA?5?$AAC?$AAh?$AAa?$AAn?$AAn?$AAe?$AAl?$AA?5?$AAC?$AAh@ 000000000007f698     UefiShellDebug1CommandsLib:QueryTable.obj
 0002:00018ba0       ??_C@_1BM@HNPAJNDG@?$AA?5?$AAS?$AAo?$AAf?$AAt?$AAw?$AAa?$AAr?$AAe?$AA?5?$AAN?$AAM?$AAI@ 000000000007f6c0     UefiShellDebug1CommandsLib:QueryTable.obj
 0002:00018bc0       ??_C@_1CI@KPDLJCME@?$AA?5?$AAP?$AAO?$AAS?$AAT?$AA?5?$AAM?$AAe?$AAm?$AAo?$AAr?$AAy?$AA?5?$AAR?$AAe@ 000000000007f6e0     UefiShellDebug1CommandsLib:QueryTable.obj
 0002:00018be8       ??_C@_1BI@KLAPKJAF@?$AA?5?$AAP?$AAO?$AAS?$AAT?$AA?5?$AAE?$AAr?$AAr?$AAo?$AAr@ 000000000007f708     UefiShellDebug1CommandsLib:QueryTable.obj
 0002:00018c00       ??_C@_1CE@NILMJPJ@?$AA?5?$AAP?$AAC?$AAI?$AA?5?$AAP?$AAa?$AAr?$AAi?$AAt?$AAy?$AA?5?$AAE?$AAr?$AAr@ 000000000007f720     UefiShellDebug1CommandsLib:QueryTable.obj
 0002:00018c28       ??_C@_1CE@OAOCDGCK@?$AA?5?$AAP?$AAC?$AAI?$AA?5?$AAS?$AAy?$AAs?$AAt?$AAe?$AAm?$AA?5?$AAE?$AAr?$AAr@ 000000000007f748     UefiShellDebug1CommandsLib:QueryTable.obj
 0002:00018c50       ??_C@_1BK@NNPANPFC@?$AA?5?$AAC?$AAP?$AAU?$AA?5?$AAF?$AAa?$AAi?$AAl?$AAu?$AAr?$AAe@ 000000000007f770     UefiShellDebug1CommandsLib:QueryTable.obj
 0002:00018c70       ??_C@_1DM@BDHCHFBO@?$AA?5?$AAE?$AAI?$AAS?$AAA?$AA?5?$AAF?$AAa?$AAi?$AAl?$AAS?$AAa?$AAf?$AAe?$AA?5@ 000000000007f790     UefiShellDebug1CommandsLib:QueryTable.obj
 0002:00018cb0       ??_C@_1EC@CAAJHHDM@?$AA?5?$AAC?$AAo?$AAr?$AAr?$AAe?$AAc?$AAt?$AAa?$AAb?$AAl?$AAe?$AA?5?$AAm?$AAe@ 000000000007f7d0     UefiShellDebug1CommandsLib:QueryTable.obj
 0002:00018d00       ??_C@_1FI@GNDLBGGM@?$AA?5?$AAL?$AAo?$AAg?$AAg?$AAi?$AAn?$AAg?$AA?5?$AAd?$AAi?$AAs?$AAa?$AAb?$AAl@ 000000000007f820     UefiShellDebug1CommandsLib:QueryTable.obj
 0002:00018d58       ??_C@_1CO@OEOIIMKB@?$AA?5?$AAS?$AAy?$AAs?$AAt?$AAe?$AAm?$AA?5?$AAL?$AAi?$AAm?$AAi?$AAt?$AA?5?$AAE@ 000000000007f878     UefiShellDebug1CommandsLib:QueryTable.obj
 0002:00018d90       ??_C@_1HO@IMHBEFG@?$AA?5?$AAA?$AAs?$AAy?$AAn?$AAc?$AAh?$AAr?$AAo?$AAn?$AAo?$AAu?$AAs?$AA?5?$AAh@ 000000000007f8b0     UefiShellDebug1CommandsLib:QueryTable.obj
 0002:00018e10       ??_C@_1EE@BEEGODPM@?$AA?5?$AAS?$AAy?$AAs?$AAt?$AAe?$AAm?$AA?5?$AAc?$AAo?$AAn?$AAf?$AAi?$AAg?$AAu@ 000000000007f930     UefiShellDebug1CommandsLib:QueryTable.obj
 0002:00018e58       ??_C@_1CO@CAKKPLP@?$AA?5?$AAH?$AAa?$AAr?$AAd?$AA?9?$AAd?$AAi?$AAs?$AAk?$AA?5?$AAi?$AAn?$AAf?$AAo@ 000000000007f978     UefiShellDebug1CommandsLib:QueryTable.obj
 0002:00018e88       ??_C@_1CK@CGNHFMJJ@?$AA?5?$AAS?$AAy?$AAs?$AAt?$AAe?$AAm?$AA?5?$AAr?$AAe?$AAc?$AAo?$AAn?$AAf?$AAi@ 000000000007f9a8     UefiShellDebug1CommandsLib:QueryTable.obj
 0002:00018ec0       ??_C@_1EC@CCIFCIBI@?$AA?5?$AAU?$AAn?$AAc?$AAo?$AAr?$AAr?$AAe?$AAc?$AAt?$AAa?$AAb?$AAl?$AAe?$AA?5@ 000000000007f9e0     UefiShellDebug1CommandsLib:QueryTable.obj
 0002:00018f08       ??_C@_1DA@LCIPEMME@?$AA?5?$AAL?$AAo?$AAg?$AA?5?$AAA?$AAr?$AAe?$AAa?$AA?5?$AAR?$AAe?$AAs?$AAe?$AAt@ 000000000007fa28     UefiShellDebug1CommandsLib:QueryTable.obj
 0002:00018f38       ??_C@_1BK@JIKBKJOA@?$AA?5?$AAS?$AAy?$AAs?$AAt?$AAe?$AAm?$AA?5?$AAb?$AAo?$AAo?$AAt@ 000000000007fa58     UefiShellDebug1CommandsLib:QueryTable.obj
 0002:00018f60       ??_C@_1EA@FCCFOHFH@?$AA?5?$AAU?$AAn?$AAu?$AAs?$AAe?$AAd?$AA?5?$AAb?$AAy?$AA?5?$AAS?$AAM?$AAB?$AAI@ 000000000007fa80     UefiShellDebug1CommandsLib:QueryTable.obj
 0002:00018fa0       ??_C@_1DE@OPAHBBEN@?$AA?5?$AAS?$AAy?$AAs?$AAt?$AAe?$AAm?$AA?5?$AAa?$AAn?$AAd?$AA?5?$AAO?$AAE?$AAM@ 000000000007fac0     UefiShellDebug1CommandsLib:QueryTable.obj
 0002:00018fd8       ??_C@_1BI@JIFHDPDM@?$AA?5?$AAE?$AAn?$AAd?$AA?9?$AAo?$AAf?$AA?9?$AAl?$AAo?$AAg@ 000000000007faf8     UefiShellDebug1CommandsLib:QueryTable.obj
 0002:00018ff0       ??_C@_1O@CHPEEGKN@?$AA?5?$AAN?$AAo?$AAn?$AAe?$AA?5@ 000000000007fb10     UefiShellDebug1CommandsLib:QueryTable.obj
 0002:00019000       ??_C@_1BC@OPDNBAFH@?$AA?5?$AAH?$AAa?$AAn?$AAd?$AAl?$AAe?$AA?5@ 000000000007fb20     UefiShellDebug1CommandsLib:QueryTable.obj
 0002:00019018       ??_C@_1CC@HBJFNEGG@?$AA?5?$AAM?$AAu?$AAl?$AAt?$AAi?$AAp?$AAl?$AAe?$AA?9?$AAE?$AAv?$AAe?$AAn?$AAt@ 000000000007fb38     UefiShellDebug1CommandsLib:QueryTable.obj
 0002:00019040       ??_C@_1DA@PMAJFMIF@?$AA?5?$AAM?$AAu?$AAl?$AAt?$AAi?$AAp?$AAl?$AAe?$AA?9?$AAE?$AAv?$AAe?$AAn?$AAt@ 000000000007fb60     UefiShellDebug1CommandsLib:QueryTable.obj
 0002:00019070       ??_C@_1CM@LNKAMACD@?$AA?5?$AAP?$AAO?$AAS?$AAT?$AA?5?$AAR?$AAe?$AAs?$AAu?$AAl?$AAt?$AAs?$AA?5?$AAB@ 000000000007fb90     UefiShellDebug1CommandsLib:QueryTable.obj
 0002:000190a0       ??_C@_1DA@LMLLDOGA@?$AA?5?$AAS?$AAy?$AAs?$AAt?$AAe?$AAm?$AA?5?$AAM?$AAa?$AAn?$AAa?$AAg?$AAe?$AAm@ 000000000007fbc0     UefiShellDebug1CommandsLib:QueryTable.obj
 0002:000190d0       ??_C@_1FA@LOFDDJNI@?$AA?5?$AAM?$AAu?$AAl?$AAt?$AAi?$AAp?$AAl?$AAe?$AA?9?$AAE?$AAv?$AAe?$AAn?$AAt@ 000000000007fbf0     UefiShellDebug1CommandsLib:QueryTable.obj
 0002:00019120       ??_C@_1BC@DKCPMDIL@?$AA?5?$AAU?$AAn?$AAu?$AAs?$AAe?$AAd?$AA?5@ 000000000007fc40     UefiShellDebug1CommandsLib:QueryTable.obj
 0002:00019138       ??_C@_1BO@GCNEBFHF@?$AA?5?$AAO?$AAE?$AAM?$AA?5?$AAa?$AAs?$AAs?$AAi?$AAg?$AAn?$AAe?$AAd?$AA?5@ 000000000007fc58     UefiShellDebug1CommandsLib:QueryTable.obj
 0002:00019158       ??_C@_1DA@NBEBMC@?$AA?5?$AAC?$AAh?$AAa?$AAn?$AAn?$AAe?$AAl?$AA?5?$AA2?$AA?5?$AAT?$AAi?$AAm?$AAe@ 000000000007fc78     UefiShellDebug1CommandsLib:QueryTable.obj
 0002:00019188       ??_C@_1DK@MDGFNBLI@?$AA?5?$AAM?$AAa?$AAs?$AAt?$AAe?$AAr?$AA?5?$AAP?$AAI?$AAC?$AA?5?$AA?$CI?$AA8?$AA2@ 000000000007fca8     UefiShellDebug1CommandsLib:QueryTable.obj
 0002:000191c8       ??_C@_1DI@OMKGLDAO@?$AA?5?$AAS?$AAl?$AAa?$AAv?$AAe?$AA?5?$AAP?$AAI?$AAC?$AA?5?$AA?$CI?$AA8?$AA2?$AA5@ 000000000007fce8     UefiShellDebug1CommandsLib:QueryTable.obj
 0002:00019200       ??_C@_1CO@JBMKMEBD@?$AA?5?$AAC?$AAM?$AAO?$AAS?$AA?5?$AAB?$AAa?$AAt?$AAt?$AAe?$AAr?$AAy?$AA?5?$AAF@ 000000000007fd20     UefiShellDebug1CommandsLib:QueryTable.obj
 0002:00019230       ??_C@_1DM@EBIMHGJG@?$AA?5?$AAC?$AAM?$AAO?$AAS?$AA?5?$AAS?$AAy?$AAs?$AAt?$AAe?$AAm?$AA?5?$AAO?$AAp@ 000000000007fd50     UefiShellDebug1CommandsLib:QueryTable.obj
 0002:00019270       ??_C@_1CM@CFJBDCNB@?$AA?5?$AAC?$AAM?$AAO?$AAS?$AA?5?$AAC?$AAh?$AAe?$AAc?$AAk?$AAs?$AAu?$AAm?$AA?5@ 000000000007fd90     UefiShellDebug1CommandsLib:QueryTable.obj
 0002:000192a0       ??_C@_1DG@HFAODPMF@?$AA?5?$AAC?$AAM?$AAO?$AAS?$AA?5?$AAC?$AAo?$AAn?$AAf?$AAi?$AAg?$AAu?$AAr?$AAa@ 000000000007fdc0     UefiShellDebug1CommandsLib:QueryTable.obj
 0002:000192d8       ??_C@_1DK@CKOKNKLD@?$AA?5?$AAM?$AAo?$AAu?$AAs?$AAe?$AA?5?$AAa?$AAn?$AAd?$AA?5?$AAK?$AAe?$AAy?$AAb@ 000000000007fdf8     UefiShellDebug1CommandsLib:QueryTable.obj
 0002:00019318       ??_C@_1CE@HKNJNPPA@?$AA?5?$AAK?$AAe?$AAy?$AAb?$AAo?$AAa?$AAr?$AAd?$AA?5?$AAL?$AAo?$AAc?$AAk?$AAe@ 000000000007fe38     UefiShellDebug1CommandsLib:QueryTable.obj
 0002:00019340       ??_C@_1DE@JPJEMPHC@?$AA?5?$AAK?$AAe?$AAy?$AAb?$AAo?$AAa?$AAr?$AAd?$AA?5?$AAN?$AAo?$AAt?$AA?5?$AAF@ 000000000007fe60     UefiShellDebug1CommandsLib:QueryTable.obj
 0002:00019380       ??_C@_1EK@EKBKHGAD@?$AA?5?$AAK?$AAe?$AAy?$AAb?$AAo?$AAa?$AAr?$AAd?$AA?5?$AAC?$AAo?$AAn?$AAt?$AAr@ 000000000007fea0     UefiShellDebug1CommandsLib:QueryTable.obj
 0002:000193d0       ??_C@_1DK@CMPKGMCK@?$AA?5?$AAC?$AAM?$AAO?$AAS?$AA?5?$AAM?$AAe?$AAm?$AAo?$AAr?$AAy?$AA?5?$AAS?$AAi@ 000000000007fef0     UefiShellDebug1CommandsLib:QueryTable.obj
 0002:00019410       ??_C@_1DG@PLLDHOLJ@?$AA?5?$AAM?$AAe?$AAm?$AAo?$AAr?$AAy?$AA?5?$AAD?$AAe?$AAc?$AAr?$AAe?$AAa?$AAs@ 000000000007ff30     UefiShellDebug1CommandsLib:QueryTable.obj
 0002:00019448       ??_C@_1CK@BIEBBIJC@?$AA?5?$AAC?$AAa?$AAc?$AAh?$AAe?$AA?5?$AAM?$AAe?$AAm?$AAo?$AAr?$AAy?$AA?5?$AAE@ 000000000007ff68     UefiShellDebug1CommandsLib:QueryTable.obj
 0002:00019478       ??_C@_1CO@GBFPKAEB@?$AA?5?$AAF?$AAl?$AAo?$AAp?$AAp?$AAy?$AA?5?$AAD?$AAr?$AAi?$AAv?$AAe?$AA?5?$AA0@ 000000000007ff98     UefiShellDebug1CommandsLib:QueryTable.obj
 0002:000194a8       ??_C@_1CO@IOANBGKA@?$AA?5?$AAF?$AAl?$AAo?$AAp?$AAp?$AAy?$AA?5?$AAD?$AAr?$AAi?$AAv?$AAe?$AA?5?$AA1@ 000000000007ffc8     UefiShellDebug1CommandsLib:QueryTable.obj
 0002:000194d8       ??_C@_1DI@LGDKDBKC@?$AA?5?$AAF?$AAl?$AAo?$AAp?$AAp?$AAy?$AA?5?$AAC?$AAo?$AAn?$AAt?$AAr?$AAo?$AAl@ 000000000007fff8     UefiShellDebug1CommandsLib:QueryTable.obj
 0002:00019510       ??_C@_1EK@JGAKCFFG@?$AA?5?$AAN?$AAu?$AAm?$AAb?$AAe?$AAr?$AA?5?$AAo?$AAf?$AA?5?$AAA?$AAT?$AAA?$AA?5@ 0000000000080030     UefiShellDebug1CommandsLib:QueryTable.obj
 0002:00019560       ??_C@_1CI@JHKILACA@?$AA?5?$AAC?$AAM?$AAO?$AAS?$AA?5?$AAT?$AAi?$AAm?$AAe?$AA?5?$AAN?$AAo?$AAt?$AA?5@ 0000000000080080     UefiShellDebug1CommandsLib:QueryTable.obj
 0002:00019590       ??_C@_1EG@CBFNBNLB@?$AA?5?$AAD?$AAD?$AAC?$AA?5?$AAM?$AAo?$AAn?$AAi?$AAt?$AAo?$AAr?$AA?5?$AAC?$AAo@ 00000000000800b0     UefiShellDebug1CommandsLib:QueryTable.obj
 0002:000195d8       ??_C@_1CK@FFBDJGID@?$AA?5?$AAR?$AAe?$AAs?$AAe?$AAr?$AAv?$AAe?$AAd?$AA?0?$AA?5?$AAs?$AAe?$AAt?$AA?5@ 00000000000800f8     UefiShellDebug1CommandsLib:QueryTable.obj
 0002:00019608       ??_C@_1DM@CMAAJKDK@?$AA?5?$AAS?$AAe?$AAc?$AAo?$AAn?$AAd?$AA?5?$AAD?$AAW?$AAO?$AAR?$AAD?$AA?5?$AAh@ 0000000000080128     UefiShellDebug1CommandsLib:QueryTable.obj
 0002:00019650       ??_C@_1FG@DJMHBPCE@?$AA?5?$AAN?$AAo?$AAr?$AAm?$AAa?$AAl?$AAl?$AAy?$AA?5?$AA0?$AA?$DL?$AA?5?$AAa?$AAv@ 0000000000080170     UefiShellDebug1CommandsLib:QueryTable.obj
 0002:000196a8       ??_C@_1CM@PPAOHOBI@?$AA?5?$AAP?$AAC?$AAI?$AA?5?$AAM?$AAe?$AAm?$AAo?$AAr?$AAy?$AA?5?$AAC?$AAo?$AAn@ 00000000000801c8     UefiShellDebug1CommandsLib:QueryTable.obj
 0002:000196d8       ??_C@_1CG@NOODKEAF@?$AA?5?$AAP?$AAC?$AAI?$AA?5?$AAI?$AA?1?$AAO?$AA?5?$AAC?$AAo?$AAn?$AAf?$AAl?$AAi@ 00000000000801f8     UefiShellDebug1CommandsLib:QueryTable.obj
 0002:00019700       ??_C@_1CG@LKEFCEMJ@?$AA?5?$AAP?$AAC?$AAI?$AA?5?$AAI?$AAR?$AAQ?$AA?5?$AAC?$AAo?$AAn?$AAf?$AAl?$AAi@ 0000000000080220     UefiShellDebug1CommandsLib:QueryTable.obj
 0002:00019728       ??_C@_1CM@HFODNKGG@?$AA?5?$AAP?$AAN?$AAP?$AA?5?$AAM?$AAe?$AAm?$AAo?$AAr?$AAy?$AA?5?$AAC?$AAo?$AAn@ 0000000000080248     UefiShellDebug1CommandsLib:QueryTable.obj
 0002:00019758       ??_C@_1DK@ICOLDMIM@?$AA?5?$AAP?$AAN?$AAP?$AA?5?$AA3?$AA2?$AA?5?$AAb?$AAi?$AAt?$AA?5?$AAM?$AAe?$AAm@ 0000000000080278     UefiShellDebug1CommandsLib:QueryTable.obj
 0002:00019798       ??_C@_1CG@JIJMGBAN@?$AA?5?$AAP?$AAN?$AAP?$AA?5?$AAI?$AA?1?$AAO?$AA?5?$AAC?$AAo?$AAn?$AAf?$AAl?$AAi@ 00000000000802b8     UefiShellDebug1CommandsLib:QueryTable.obj
 0002:000197c0       ??_C@_1CG@PMDKOBMB@?$AA?5?$AAP?$AAN?$AAP?$AA?5?$AAI?$AAR?$AAQ?$AA?5?$AAC?$AAo?$AAn?$AAf?$AAl?$AAi@ 00000000000802e0     UefiShellDebug1CommandsLib:QueryTable.obj
 0002:000197e8       ??_C@_1CG@KOCEHCJP@?$AA?5?$AAP?$AAN?$AAP?$AA?5?$AAD?$AAM?$AAA?$AA?5?$AAC?$AAo?$AAn?$AAf?$AAl?$AAi@ 0000000000080308     UefiShellDebug1CommandsLib:QueryTable.obj
 0002:00019810       ??_C@_1DK@ICHJHDMD@?$AA?5?$AAB?$AAa?$AAd?$AA?5?$AAP?$AAN?$AAP?$AA?5?$AAS?$AAe?$AAr?$AAi?$AAa?$AAl@ 0000000000080330     UefiShellDebug1CommandsLib:QueryTable.obj
 0002:00019850       ??_C@_1EC@PMGMKMCF@?$AA?5?$AAB?$AAa?$AAd?$AA?5?$AAP?$AAN?$AAP?$AA?5?$AAR?$AAe?$AAs?$AAo?$AAu?$AAr@ 0000000000080370     UefiShellDebug1CommandsLib:QueryTable.obj
 0002:00019898       ??_C@_1DG@NHJNPFDG@?$AA?5?$AAS?$AAt?$AAa?$AAt?$AAi?$AAc?$AA?5?$AAR?$AAe?$AAs?$AAo?$AAu?$AAr?$AAc@ 00000000000803b8     UefiShellDebug1CommandsLib:QueryTable.obj
 0002:000198d0       ??_C@_1EM@LDBJBBDL@?$AA?5?$AAN?$AAV?$AAR?$AAA?$AAM?$AA?5?$AAC?$AAh?$AAe?$AAc?$AAk?$AAs?$AAu?$AAm@ 00000000000803f0     UefiShellDebug1CommandsLib:QueryTable.obj
 0002:00019920       ??_C@_1FA@DKGFJHHI@?$AA?5?$AAS?$AAy?$AAs?$AAt?$AAe?$AAm?$AA?5?$AAB?$AAo?$AAa?$AAr?$AAd?$AA?5?$AAD@ 0000000000080440     UefiShellDebug1CommandsLib:QueryTable.obj
 0002:00019970       ??_C@_1EE@FMMJPMEL@?$AA?5?$AAP?$AAr?$AAi?$AAm?$AAa?$AAr?$AAy?$AA?5?$AAO?$AAu?$AAt?$AAp?$AAu?$AAt@ 0000000000080490     UefiShellDebug1CommandsLib:QueryTable.obj
 0002:000199c0       ??_C@_1EC@GAAMAAKE@?$AA?5?$AAP?$AAr?$AAi?$AAm?$AAa?$AAr?$AAy?$AA?5?$AAI?$AAn?$AAp?$AAu?$AAt?$AA?5@ 00000000000804e0     UefiShellDebug1CommandsLib:QueryTable.obj
 0002:00019a10       ??_C@_1EA@GJDFNHMM@?$AA?5?$AAP?$AAr?$AAi?$AAm?$AAa?$AAr?$AAy?$AA?5?$AAB?$AAo?$AAo?$AAt?$AA?5?$AAD@ 0000000000080530     UefiShellDebug1CommandsLib:QueryTable.obj
 0002:00019a50       ??_C@_1DE@KJEMOHJI@?$AA?5?$AAN?$AAV?$AAR?$AAA?$AAM?$AA?5?$AAC?$AAl?$AAe?$AAa?$AAr?$AAe?$AAd?$AA?5@ 0000000000080570     UefiShellDebug1CommandsLib:QueryTable.obj
 0002:00019a90       ??_C@_1EI@GEEBAM@?$AA?5?$AAN?$AAV?$AAR?$AAA?$AAM?$AA?5?$AAD?$AAa?$AAt?$AAa?$AA?5?$AAI?$AAn?$AAv@ 00000000000805b0     UefiShellDebug1CommandsLib:QueryTable.obj
 0002:00019ad8       ??_C@_1DA@HOECFJC@?$AA?5?$AAF?$AAD?$AAC?$AA?5?$AAR?$AAe?$AAs?$AAo?$AAu?$AAr?$AAc?$AAe?$AA?5?$AAC@ 00000000000805f8     UefiShellDebug1CommandsLib:QueryTable.obj
 0002:00019b10       ??_C@_1FG@KFIMMFIG@?$AA?5?$AAP?$AAr?$AAi?$AAm?$AAa?$AAr?$AAy?$AA?5?$AAA?$AAT?$AAA?$AA?5?$AAC?$AAo@ 0000000000080630     UefiShellDebug1CommandsLib:QueryTable.obj
 0002:00019b70       ??_C@_1FK@INNONJPP@?$AA?5?$AAS?$AAe?$AAc?$AAo?$AAn?$AAd?$AAa?$AAr?$AAy?$AA?5?$AAA?$AAT?$AAA?$AA?5@ 0000000000080690     UefiShellDebug1CommandsLib:QueryTable.obj
 0002:00019bd0       ??_C@_1EE@PKJNLPOF@?$AA?5?$AAP?$AAa?$AAr?$AAa?$AAl?$AAl?$AAe?$AAl?$AA?5?$AAP?$AAo?$AAr?$AAt?$AA?5@ 00000000000806f0     UefiShellDebug1CommandsLib:QueryTable.obj
 0002:00019c20       ??_C@_1EE@PGOIOJ@?$AA?5?$AAS?$AAe?$AAr?$AAi?$AAa?$AAl?$AA?5?$AAP?$AAo?$AAr?$AAt?$AA?5?$AA1?$AA?5@ 0000000000080740     UefiShellDebug1CommandsLib:QueryTable.obj
 0002:00019c70       ??_C@_1EE@DIMNGDJK@?$AA?5?$AAS?$AAe?$AAr?$AAi?$AAa?$AAl?$AA?5?$AAP?$AAo?$AAr?$AAt?$AA?5?$AA2?$AA?5@ 0000000000080790     UefiShellDebug1CommandsLib:QueryTable.obj
 0002:00019cb8       ??_C@_1DE@BGAKOGJM@?$AA?5?$AAA?$AAu?$AAd?$AAi?$AAo?$AA?5?$AAR?$AAe?$AAs?$AAo?$AAu?$AAr?$AAc?$AAe@ 00000000000807d8     UefiShellDebug1CommandsLib:QueryTable.obj
 0002:00019cf0       ??_C@_1DC@IAGLGMGH@?$AA?5?$AA?$CL?$AA2?$AA?4?$AA5?$AAV?$AA?5?$AAO?$AAu?$AAt?$AA?5?$AAo?$AAf?$AA?5?$AAr@ 0000000000080810     UefiShellDebug1CommandsLib:QueryTable.obj
 0002:00019d28       ??_C@_1CK@ICLNCCPK@?$AA?5?$AA?$CL?$AA3?$AA?4?$AA3?$AAV?$AA?5?$AAO?$AAu?$AAt?$AA?5?$AAo?$AAf?$AA?5?$AAr@ 0000000000080848     UefiShellDebug1CommandsLib:QueryTable.obj
 0002:00019d58       ??_C@_1CG@DEEAOKBI@?$AA?5?$AA?$CL?$AA5?$AAV?$AA?5?$AAO?$AAu?$AAt?$AA?5?$AAo?$AAf?$AA?5?$AAr?$AAa?$AAn@ 0000000000080878     UefiShellDebug1CommandsLib:QueryTable.obj
 0002:00019d80       ??_C@_1CG@PNIABNOE@?$AA?5?$AA?9?$AA5?$AAV?$AA?5?$AAO?$AAu?$AAt?$AA?5?$AAo?$AAf?$AA?5?$AAr?$AAa?$AAn@ 00000000000808a0     UefiShellDebug1CommandsLib:QueryTable.obj
 0002:00019da8       ??_C@_1CI@BCJNHMMN@?$AA?5?$AA?$CL?$AA1?$AA2?$AAV?$AA?5?$AAO?$AAu?$AAt?$AA?5?$AAo?$AAf?$AA?5?$AAr?$AAa@ 00000000000808c8     UefiShellDebug1CommandsLib:QueryTable.obj
 0002:00019dd0       ??_C@_1CI@IJENHMAD@?$AA?5?$AA?9?$AA1?$AA2?$AAV?$AA?5?$AAO?$AAu?$AAt?$AA?5?$AAo?$AAf?$AA?5?$AAr?$AAa@ 00000000000808f0     UefiShellDebug1CommandsLib:QueryTable.obj
 0002:00019e00       ??_C@_1GE@JBKBBPKI@?$AA?5?$AAR?$AAe?$AAs?$AAe?$AAr?$AAv?$AAe?$AAd?$AA?5?$AAf?$AAo?$AAr?$AA?5?$AAf@ 0000000000080920     UefiShellDebug1CommandsLib:QueryTable.obj
 0002:00019e70       ??_C@_1FA@HGMMHNHG@?$AA?5?$AAS?$AAy?$AAs?$AAt?$AAe?$AAm?$AA?5?$AAb?$AAo?$AAa?$AAr?$AAd?$AA?5?$AAt@ 0000000000080990     UefiShellDebug1CommandsLib:QueryTable.obj
 0002:00019ec0       ??_C@_1FA@KAOLJIMF@?$AA?5?$AAP?$AAr?$AAo?$AAc?$AAe?$AAs?$AAs?$AAo?$AAr?$AA?5?$AA?$CD?$AA1?$AA?5?$AAt@ 00000000000809e0     UefiShellDebug1CommandsLib:QueryTable.obj
 0002:00019f10       ??_C@_1FA@IGFEKMLM@?$AA?5?$AAP?$AAr?$AAo?$AAc?$AAe?$AAs?$AAs?$AAo?$AAr?$AA?5?$AA?$CD?$AA2?$AA?5?$AAt@ 0000000000080a30     UefiShellDebug1CommandsLib:QueryTable.obj
 0002:00019f60       ??_C@_1FA@JLMBLPGL@?$AA?5?$AAP?$AAr?$AAo?$AAc?$AAe?$AAs?$AAs?$AAo?$AAr?$AA?5?$AA?$CD?$AA3?$AA?5?$AAt@ 0000000000080a80     UefiShellDebug1CommandsLib:QueryTable.obj
 0002:00019fb0       ??_C@_1FA@MLCKMEEO@?$AA?5?$AAP?$AAr?$AAo?$AAc?$AAe?$AAs?$AAs?$AAo?$AAr?$AA?5?$AA?$CD?$AA4?$AA?5?$AAt@ 0000000000080ad0     UefiShellDebug1CommandsLib:QueryTable.obj
 0002:0001a000       ??_C@_1FO@MFGCMAGN@?$AA?5?$AAR?$AAe?$AAs?$AAe?$AAr?$AAv?$AAe?$AAd?$AA?5?$AAf?$AAo?$AAr?$AA?5?$AAf@ 0000000000080b20     UefiShellDebug1CommandsLib:QueryTable.obj
 0002:0001a060       ??_C@_1EE@ICMOCLLI@?$AA?5?$AAF?$AAa?$AAn?$AA?5?$AAn?$AA?5?$AA?$CI?$AAn?$AA?5?$AA?$DN?$AA?5?$AA0?$AA?5?$AAt@ 0000000000080b80     UefiShellDebug1CommandsLib:QueryTable.obj
 0002:0001a0b0       ??_C@_1HA@PEJDPOEJ@?$AA?5?$AAR?$AAe?$AAs?$AAe?$AAr?$AAv?$AAe?$AAd?$AA?5?$AAf?$AAo?$AAr?$AA?5?$AAf@ 0000000000080bd0     UefiShellDebug1CommandsLib:QueryTable.obj
 0002:0001a120       ??_C@_1EE@DEEIHEFI@?$AA?5?$AAC?$AAh?$AAa?$AAs?$AAs?$AAi?$AAs?$AA?5?$AAs?$AAe?$AAc?$AAu?$AAr?$AAe@ 0000000000080c40     UefiShellDebug1CommandsLib:QueryTable.obj
 0002:0001a168       ??_C@_1DM@HPAFAGAE@?$AA?5?$AA?5?$AAS?$AAy?$AAs?$AAt?$AAe?$AAm?$AA?5?$AAb?$AAo?$AAa?$AAr?$AAd?$AA?5@ 0000000000080c88     UefiShellDebug1CommandsLib:QueryTable.obj
 0002:0001a1a8       ??_C@_1CE@NLFGMECH@?$AA?5?$AA?5?$AAI?$AAS?$AAA?$AA?5?$AAa?$AAd?$AAd?$AA?9?$AAo?$AAn?$AA?5?$AAc?$AAa@ 0000000000080cc8     UefiShellDebug1CommandsLib:QueryTable.obj
 0002:0001a1d0       ??_C@_1CG@PCDCENPO@?$AA?5?$AA?5?$AAE?$AAI?$AAS?$AAA?$AA?5?$AAa?$AAd?$AAd?$AA?9?$AAo?$AAn?$AA?5?$AAc@ 0000000000080cf0     UefiShellDebug1CommandsLib:QueryTable.obj
 0002:0001a1f8       ??_C@_1CE@KJICEPNK@?$AA?5?$AA?5?$AAP?$AAC?$AAI?$AA?5?$AAa?$AAd?$AAd?$AA?9?$AAo?$AAn?$AA?5?$AAc?$AAa@ 0000000000080d18     UefiShellDebug1CommandsLib:QueryTable.obj
 0002:0001a220       ??_C@_1CE@NKDAOCAP@?$AA?5?$AA?5?$AAM?$AAC?$AAA?$AA?5?$AAa?$AAd?$AAd?$AA?9?$AAo?$AAn?$AA?5?$AAc?$AAa@ 0000000000080d40     UefiShellDebug1CommandsLib:QueryTable.obj
 0002:0001a248       ??_C@_1CK@HOJEJHAA@?$AA?5?$AA?5?$AAP?$AAC?$AAM?$AAC?$AAI?$AAA?$AA?5?$AAa?$AAd?$AAd?$AA?9?$AAo?$AAn@ 0000000000080d68     UefiShellDebug1CommandsLib:QueryTable.obj
 0002:0001a278       ??_C@_1DE@KNOJLAHG@?$AA?5?$AA?5?$AAP?$AAr?$AAo?$AAp?$AAr?$AAi?$AAe?$AAt?$AAa?$AAr?$AAy?$AA?5?$AAa@ 0000000000080d98     UefiShellDebug1CommandsLib:QueryTable.obj
 0002:0001a2b0       ??_C@_1BA@EJPAMLKN@?$AA?5?$AA?5?$AAN?$AAu?$AAB?$AAu?$AAs@ 0000000000080dd0     UefiShellDebug1CommandsLib:QueryTable.obj
 0002:0001a2c0       ??_C@_1DA@JGMAKOJM@?$AA?5?$AA?5?$AAP?$AAC?$AA?9?$AA9?$AA8?$AA?1?$AAC?$AA2?$AA0?$AA?5?$AAa?$AAd?$AAd@ 0000000000080de0     UefiShellDebug1CommandsLib:QueryTable.obj
 0002:0001a2f0       ??_C@_1DA@JABHFKOI@?$AA?5?$AA?5?$AAP?$AAC?$AA?9?$AA9?$AA8?$AA?1?$AAC?$AA2?$AA4?$AA?5?$AAa?$AAd?$AAd@ 0000000000080e10     UefiShellDebug1CommandsLib:QueryTable.obj
 0002:0001a320       ??_C@_1CM@PAIFDJEG@?$AA?5?$AA?5?$AAP?$AAC?$AA?9?$AA9?$AA8?$AA?1?$AAE?$AA?5?$AAa?$AAd?$AAd?$AA?9?$AAo@ 0000000000080e40     UefiShellDebug1CommandsLib:QueryTable.obj
 0002:0001a350       ??_C@_1DM@OAOMGOEC@?$AA?5?$AA?5?$AAP?$AAC?$AA?9?$AA9?$AA8?$AA?1?$AAL?$AAo?$AAc?$AAa?$AAl?$AA?5?$AAb@ 0000000000080e70     UefiShellDebug1CommandsLib:QueryTable.obj
 0002:0001a390       ??_C@_1CE@HGJNCHPO@?$AA?5?$AA?5?$AAC?$AAX?$AAL?$AA?5?$AAa?$AAd?$AAd?$AA?9?$AAo?$AAn?$AA?5?$AAc?$AAa@ 0000000000080eb0     UefiShellDebug1CommandsLib:QueryTable.obj
 0002:0001a3b8       ??_C@_1BO@IAEEFDAC@?$AA?5?$AAS?$AAy?$AAs?$AAt?$AAe?$AAm?$AA?5?$AAm?$AAe?$AAm?$AAo?$AAr?$AAy@ 0000000000080ed8     UefiShellDebug1CommandsLib:QueryTable.obj
 0002:0001a3d8       ??_C@_1BM@HJOIBICI@?$AA?5?$AAV?$AAi?$AAd?$AAe?$AAo?$AA?5?$AAm?$AAe?$AAm?$AAo?$AAr?$AAy@ 0000000000080ef8     UefiShellDebug1CommandsLib:QueryTable.obj
 0002:0001a3f8       ??_C@_1BM@PFNLHDHM@?$AA?5?$AAF?$AAl?$AAa?$AAs?$AAh?$AA?5?$AAm?$AAe?$AAm?$AAo?$AAr?$AAy@ 0000000000080f18     UefiShellDebug1CommandsLib:QueryTable.obj
 0002:0001a418       ??_C@_1CE@JDMOKCLL@?$AA?5?$AAN?$AAo?$AAn?$AA?9?$AAv?$AAo?$AAl?$AAa?$AAt?$AAi?$AAl?$AAe?$AA?5?$AAR@ 0000000000080f38     UefiShellDebug1CommandsLib:QueryTable.obj
 0002:0001a440       ??_C@_1BM@NDDLCMF@?$AA?5?$AAC?$AAa?$AAc?$AAh?$AAe?$AA?5?$AAm?$AAe?$AAm?$AAo?$AAr?$AAy@ 0000000000080f60     UefiShellDebug1CommandsLib:QueryTable.obj
 0002:0001a460       ??_C@_1O@EMKPMJAH@?$AA?5?$AA?5?$AAN?$AAo?$AAn?$AAe@ 0000000000080f80     UefiShellDebug1CommandsLib:QueryTable.obj
 0002:0001a470       ??_C@_1BC@PNPNFGPB@?$AA?5?$AA?5?$AAP?$AAa?$AAr?$AAi?$AAt?$AAy@ 0000000000080f90     UefiShellDebug1CommandsLib:QueryTable.obj
 0002:0001a488       ??_C@_1CC@OENHAGLD@?$AA?5?$AA?5?$AAS?$AAi?$AAn?$AAg?$AAl?$AAe?$AA?9?$AAb?$AAi?$AAt?$AA?5?$AAE?$AAC@ 0000000000080fa8     UefiShellDebug1CommandsLib:QueryTable.obj
 0002:0001a4b0       ??_C@_1CA@EOEBJDPB@?$AA?5?$AA?5?$AAM?$AAu?$AAl?$AAt?$AAi?$AA?9?$AAb?$AAi?$AAt?$AA?5?$AAE?$AAC?$AAC@ 0000000000080fd0     UefiShellDebug1CommandsLib:QueryTable.obj
 0002:0001a4d0       ??_C@_1M@LMLDHKJJ@?$AA?5?$AA?5?$AAC?$AAR?$AAC@ 0000000000080ff0     UefiShellDebug1CommandsLib:QueryTable.obj
 0002:0001a4e0       ??_C@_1O@EFFIFIMH@?$AA?5?$AA?5?$AAS?$AAI?$AAM?$AAM@ 0000000000081000     UefiShellDebug1CommandsLib:QueryTable.obj
 0002:0001a4f0       ??_C@_1M@OLLFEBJL@?$AA?5?$AA?5?$AAS?$AAI?$AAP@ 0000000000081010     UefiShellDebug1CommandsLib:QueryTable.obj
 0002:0001a500       ??_C@_1O@MJFGNMLL@?$AA?5?$AA?5?$AAC?$AAh?$AAi?$AAp@ 0000000000081020     UefiShellDebug1CommandsLib:QueryTable.obj
 0002:0001a510       ??_C@_1M@JNMLHJKJ@?$AA?5?$AA?5?$AAD?$AAI?$AAP@ 0000000000081030     UefiShellDebug1CommandsLib:QueryTable.obj
 0002:0001a520       ??_C@_1M@PEPKFKLA@?$AA?5?$AA?5?$AAZ?$AAI?$AAP@ 0000000000081040     UefiShellDebug1CommandsLib:QueryTable.obj
 0002:0001a530       ??_C@_1CG@EDGBPDJH@?$AA?5?$AA?5?$AAP?$AAr?$AAo?$AAp?$AAr?$AAi?$AAe?$AAt?$AAa?$AAr?$AAy?$AA?5?$AAC@ 0000000000081050     UefiShellDebug1CommandsLib:QueryTable.obj
 0002:0001a558       ??_C@_1O@IACKMCFG@?$AA?5?$AA?5?$AAD?$AAI?$AAM?$AAM@ 0000000000081078     UefiShellDebug1CommandsLib:QueryTable.obj
 0002:0001a568       ??_C@_1O@KFEEEABE@?$AA?5?$AA?5?$AAT?$AAS?$AAO?$AAP@ 0000000000081088     UefiShellDebug1CommandsLib:QueryTable.obj
 0002:0001a578       ??_C@_1BO@GKLCEEAO@?$AA?5?$AA?5?$AAR?$AAo?$AAw?$AA?5?$AAo?$AAf?$AA?5?$AAc?$AAh?$AAi?$AAp?$AAs@ 0000000000081098     UefiShellDebug1CommandsLib:QueryTable.obj
 0002:0001a598       ??_C@_1O@KKJKDDPJ@?$AA?5?$AA?5?$AAR?$AAI?$AAM?$AAM@ 00000000000810b8     UefiShellDebug1CommandsLib:QueryTable.obj
 0002:0001a5a8       ??_C@_1BC@LADLNCHG@?$AA?5?$AA?5?$AAS?$AAO?$AAD?$AAI?$AAM?$AAM@ 00000000000810c8     UefiShellDebug1CommandsLib:QueryTable.obj
 0002:0001a5c0       ??_C@_1BA@NDHBCJBC@?$AA?5?$AA?5?$AAS?$AAR?$AAI?$AAM?$AAM@ 00000000000810e0     UefiShellDebug1CommandsLib:QueryTable.obj
 0002:0001a5d0       ??_C@_1BE@JHANBNFD@?$AA?5?$AA?5?$AAF?$AAB?$AA?9?$AAD?$AAI?$AAM?$AAM@ 00000000000810f0     UefiShellDebug1CommandsLib:QueryTable.obj
 0002:0001a5e8       ??_C@_1M@FNJCHEAM@?$AA?5?$AA?5?$AAD?$AAi?$AAe@ 0000000000081108     UefiShellDebug1CommandsLib:QueryTable.obj
 0002:0001a5f8       ??_C@_1O@NGDJCPFA@?$AA?5?$AA?5?$AAD?$AAR?$AAA?$AAM@ 0000000000081118     UefiShellDebug1CommandsLib:QueryTable.obj
 0002:0001a608       ??_C@_1BA@EMPHHNKH@?$AA?5?$AA?5?$AAE?$AAD?$AAR?$AAA?$AAM@ 0000000000081128     UefiShellDebug1CommandsLib:QueryTable.obj
 0002:0001a618       ??_C@_1O@PFGCHOIF@?$AA?5?$AA?5?$AAV?$AAR?$AAA?$AAM@ 0000000000081138     UefiShellDebug1CommandsLib:QueryTable.obj
 0002:0001a628       ??_C@_1O@BDELLFMB@?$AA?5?$AA?5?$AAS?$AAR?$AAA?$AAM@ 0000000000081148     UefiShellDebug1CommandsLib:QueryTable.obj
 0002:0001a638       ??_C@_1M@GJDPEMCK@?$AA?5?$AA?5?$AAR?$AAA?$AAM@ 0000000000081158     UefiShellDebug1CommandsLib:QueryTable.obj
 0002:0001a648       ??_C@_1M@FDDFCNFK@?$AA?5?$AA?5?$AAR?$AAO?$AAM@ 0000000000081168     UefiShellDebug1CommandsLib:QueryTable.obj
 0002:0001a658       ??_C@_1BA@KDEKIKMJ@?$AA?5?$AA?5?$AAF?$AAL?$AAA?$AAS?$AAH@ 0000000000081178     UefiShellDebug1CommandsLib:QueryTable.obj
 0002:0001a668       ??_C@_1BC@IGCAOACJ@?$AA?5?$AA?5?$AAE?$AAE?$AAP?$AAR?$AAO?$AAM@ 0000000000081188     UefiShellDebug1CommandsLib:QueryTable.obj
 0002:0001a680       ??_C@_1BC@PKEBMFPC@?$AA?5?$AA?5?$AAF?$AAE?$AAP?$AAR?$AAO?$AAM@ 00000000000811a0     UefiShellDebug1CommandsLib:QueryTable.obj
 0002:0001a698       ??_C@_1BA@FILIDNEF@?$AA?5?$AA?5?$AAE?$AAP?$AAR?$AAO?$AAM@ 00000000000811b8     UefiShellDebug1CommandsLib:QueryTable.obj
 0002:0001a6a8       ??_C@_1BA@KDMKNIEH@?$AA?5?$AA?5?$AAC?$AAD?$AAR?$AAA?$AAM@ 00000000000811c8     UefiShellDebug1CommandsLib:QueryTable.obj
 0002:0001a6b8       ??_C@_1BA@IHIAFJLD@?$AA?5?$AA?5?$AA3?$AAD?$AAR?$AAA?$AAM@ 00000000000811d8     UefiShellDebug1CommandsLib:QueryTable.obj
 0002:0001a6c8       ??_C@_1BA@KPNCDFLL@?$AA?5?$AA?5?$AAS?$AAD?$AAR?$AAA?$AAM@ 00000000000811e8     UefiShellDebug1CommandsLib:QueryTable.obj
 0002:0001a6d8       ??_C@_1BA@EEOFIOLI@?$AA?5?$AA?5?$AAS?$AAG?$AAR?$AAA?$AAM@ 00000000000811f8     UefiShellDebug1CommandsLib:QueryTable.obj
 0002:0001a6e8       ??_C@_1BA@DEHHHJNE@?$AA?5?$AA?5?$AAR?$AAD?$AAR?$AAA?$AAM@ 0000000000081208     UefiShellDebug1CommandsLib:QueryTable.obj
 0002:0001a6f8       ??_C@_1M@ILFMKCPM@?$AA?5?$AA?5?$AAD?$AAD?$AAR@ 0000000000081218     UefiShellDebug1CommandsLib:QueryTable.obj
 0002:0001a708       ??_C@_1O@NKPDNHAD@?$AA?5?$AA?5?$AAD?$AAD?$AAR?$AA2@ 0000000000081228     UefiShellDebug1CommandsLib:QueryTable.obj
 0002:0001a718       ??_C@_1BO@IJMOILHH@?$AA?5?$AA?5?$AAD?$AAD?$AAR?$AA2?$AA?5?$AAF?$AAB?$AA?9?$AAD?$AAI?$AAM?$AAM@ 0000000000081238     UefiShellDebug1CommandsLib:QueryTable.obj
 0002:0001a738       ??_C@_1O@GCEPLAGG@?$AA?5?$AA?5?$AAD?$AAD?$AAR?$AA3@ 0000000000081258     UefiShellDebug1CommandsLib:QueryTable.obj
 0002:0001a748       ??_C@_1O@MNOGOPDP@?$AA?5?$AA?5?$AAF?$AAB?$AAD?$AA2@ 0000000000081268     UefiShellDebug1CommandsLib:QueryTable.obj
 0002:0001a758       ??_C@_1O@PPJIIINP@?$AA?5?$AA?5?$AAD?$AAD?$AAR?$AA4@ 0000000000081278     UefiShellDebug1CommandsLib:QueryTable.obj
 0002:0001a768       ??_C@_1BA@BNHIIIHC@?$AA?5?$AA?5?$AAL?$AAP?$AAD?$AAD?$AAR@ 0000000000081288     UefiShellDebug1CommandsLib:QueryTable.obj
 0002:0001a778       ??_C@_1BC@KEEIDNDE@?$AA?5?$AA?5?$AAL?$AAP?$AAD?$AAD?$AAR?$AA2@ 0000000000081298     UefiShellDebug1CommandsLib:QueryTable.obj
 0002:0001a790       ??_C@_1BC@BMPEFKFB@?$AA?5?$AA?5?$AAL?$AAP?$AAD?$AAD?$AAR?$AA3@ 00000000000812b0     UefiShellDebug1CommandsLib:QueryTable.obj
 0002:0001a7a8       ??_C@_1BC@IBCDGCOI@?$AA?5?$AA?5?$AAL?$AAP?$AAD?$AAD?$AAR?$AA4@ 00000000000812c8     UefiShellDebug1CommandsLib:QueryTable.obj
 0002:0001a7c0       ??_C@_1DM@FJKNPDDI@?$AA?5?$AA?5?$AAL?$AAo?$AAg?$AAi?$AAc?$AAa?$AAl?$AA?5?$AAn?$AAo?$AAn?$AA?9?$AAv@ 00000000000812e0     UefiShellDebug1CommandsLib:QueryTable.obj
 0002:0001a800       ??_C@_1DM@FFJPIOHB@?$AA?5?$AA?5?$AAH?$AAB?$AAM?$AA?5?$AA?$CI?$AAH?$AAi?$AAg?$AAh?$AA?5?$AAB?$AAa?$AAn@ 0000000000081320     UefiShellDebug1CommandsLib:QueryTable.obj
 0002:0001a840       ??_C@_1FI@OCBLDAOC@?$AA?5?$AA?5?$AAH?$AAB?$AAM?$AA2?$AA?5?$AA?$CI?$AAH?$AAi?$AAg?$AAh?$AA?5?$AAB?$AAa@ 0000000000081360     UefiShellDebug1CommandsLib:QueryTable.obj
 0002:0001a898       ??_C@_1O@EHCEOPLK@?$AA?5?$AA?5?$AAD?$AAD?$AAR?$AA5@ 00000000000813b8     UefiShellDebug1CommandsLib:QueryTable.obj
 0002:0001a8a8       ??_C@_1BC@DJJPAFIN@?$AA?5?$AA?5?$AAL?$AAP?$AAD?$AAD?$AAR?$AA5@ 00000000000813c8     UefiShellDebug1CommandsLib:QueryTable.obj
 0002:0001a8c0       ??_C@_1BI@COCPHOCL@?$AA?5?$AAF?$AAa?$AAs?$AAt?$AA?9?$AAp?$AAa?$AAg?$AAe?$AAd@ 00000000000813e0     UefiShellDebug1CommandsLib:QueryTable.obj
 0002:0001a8d8       ??_C@_1BO@GIPEPGPD@?$AA?5?$AAS?$AAt?$AAa?$AAt?$AAi?$AAc?$AA?5?$AAc?$AAo?$AAl?$AAu?$AAm?$AAn@ 00000000000813f8     UefiShellDebug1CommandsLib:QueryTable.obj
 0002:0001a8f8       ??_C@_1BO@OAFCEBEG@?$AA?5?$AAP?$AAs?$AAe?$AAu?$AAd?$AAo?$AA?9?$AAS?$AAT?$AAA?$AAT?$AAI?$AAC@ 0000000000081418     UefiShellDebug1CommandsLib:QueryTable.obj
 0002:0001a918       ??_C@_1BC@FFIADKEE@?$AA?5?$AAR?$AAA?$AAM?$AAB?$AAU?$AAS?$AA?5@ 0000000000081438     UefiShellDebug1CommandsLib:QueryTable.obj
 0002:0001a930       ??_C@_1M@HMLIJBAC@?$AA?5?$AAC?$AAM?$AAO?$AAS@ 0000000000081450     UefiShellDebug1CommandsLib:QueryTable.obj
 0002:0001a940       ??_C@_1BK@IMFMDGOD@?$AA?5?$AAW?$AAi?$AAn?$AAd?$AAo?$AAw?$AA?5?$AAD?$AAR?$AAA?$AAM@ 0000000000081460     UefiShellDebug1CommandsLib:QueryTable.obj
 0002:0001a960       ??_C@_1BI@GBMFLJHH@?$AA?5?$AAC?$AAa?$AAc?$AAh?$AAe?$AA?5?$AAD?$AAR?$AAA?$AAM@ 0000000000081480     UefiShellDebug1CommandsLib:QueryTable.obj
 0002:0001a978       ??_C@_1BM@NPGEICMN@?$AA?5?$AAN?$AAo?$AAn?$AA?9?$AAv?$AAo?$AAl?$AAa?$AAt?$AAi?$AAl?$AAe@ 0000000000081498     UefiShellDebug1CommandsLib:QueryTable.obj
 0002:0001a998       ??_C@_1CM@JKBIGKDC@?$AA?5?$AAR?$AAe?$AAg?$AAi?$AAs?$AAt?$AAe?$AAr?$AAe?$AAd?$AA?$CI?$AAB?$AAu?$AAf@ 00000000000814b8     UefiShellDebug1CommandsLib:QueryTable.obj
 0002:0001a9c8       ??_C@_1DE@LMGPAJJA@?$AA?5?$AAU?$AAn?$AAb?$AAu?$AAf?$AAf?$AAe?$AAr?$AAe?$AAd?$AA?$CI?$AAU?$AAn?$AAr@ 00000000000814e8     UefiShellDebug1CommandsLib:QueryTable.obj
 0002:0001aa00       ??_C@_1M@LBDDOICA@?$AA?5?$AAD?$AAR?$AAA?$AAM@ 0000000000081520     UefiShellDebug1CommandsLib:QueryTable.obj
 0002:0001aa10       ??_C@_1BE@DOEEGAFB@?$AA?5?$AAN?$AAV?$AAD?$AAI?$AAM?$AAM?$AA?9?$AAN@ 0000000000081530     UefiShellDebug1CommandsLib:QueryTable.obj
 0002:0001aa28       ??_C@_1BE@PLPAEILO@?$AA?5?$AAN?$AAV?$AAD?$AAI?$AAM?$AAM?$AA?9?$AAF@ 0000000000081548     UefiShellDebug1CommandsLib:QueryTable.obj
 0002:0001aa40       ??_C@_1BE@IOICEAPN@?$AA?5?$AAN?$AAV?$AAD?$AAI?$AAM?$AAM?$AA?9?$AAP@ 0000000000081560     UefiShellDebug1CommandsLib:QueryTable.obj
 0002:0001aa60       ??_C@_1EA@HBGCMKCN@?$AA?5?$AAI?$AAn?$AAt?$AAe?$AAl?$AA?5?$AAO?$AAp?$AAt?$AAa?$AAn?$AAe?$AA?5?$AAP@ 0000000000081580     UefiShellDebug1CommandsLib:QueryTable.obj
 0002:0001aaa0       ??_C@_1CC@GAEOEBNI@?$AA?5?$AAV?$AAo?$AAl?$AAa?$AAt?$AAi?$AAl?$AAe?$AA?5?$AAm?$AAe?$AAm?$AAo?$AAr@ 00000000000815c0     UefiShellDebug1CommandsLib:QueryTable.obj
 0002:0001aad0       ??_C@_1EG@CMPDLPOM@?$AA?5?$AAB?$AAy?$AAt?$AAe?$AA?9?$AAa?$AAc?$AAc?$AAe?$AAs?$AAs?$AAi?$AAb?$AAl@ 00000000000815f0     UefiShellDebug1CommandsLib:QueryTable.obj
 0002:0001ab20       ??_C@_1EI@KOEPFOKG@?$AA?5?$AAB?$AAl?$AAo?$AAc?$AAk?$AA?9?$AAa?$AAc?$AAc?$AAe?$AAs?$AAs?$AAi?$AAb@ 0000000000081640     UefiShellDebug1CommandsLib:QueryTable.obj
 0002:0001ab68       ??_C@_19BIEFJBIK@?$AA?5?$AA?5?$AAO?$AAK@ 0000000000081688     UefiShellDebug1CommandsLib:QueryTable.obj
 0002:0001ab78       ??_C@_1BG@HNNOBHDJ@?$AA?5?$AA?5?$AAB?$AAa?$AAd?$AA?5?$AAr?$AAe?$AAa?$AAd@ 0000000000081698     UefiShellDebug1CommandsLib:QueryTable.obj
 0002:0001ab90       ??_C@_1BO@JEOAODOI@?$AA?5?$AA?5?$AAP?$AAa?$AAr?$AAi?$AAt?$AAy?$AA?5?$AAe?$AAr?$AAr?$AAo?$AAr@ 00000000000816b0     UefiShellDebug1CommandsLib:QueryTable.obj
 0002:0001abb0       ??_C@_1CG@IMKHFMPK@?$AA?5?$AA?5?$AAS?$AAi?$AAn?$AAg?$AAl?$AAe?$AA?9?$AAb?$AAi?$AAt?$AA?5?$AAe?$AAr@ 00000000000816d0     UefiShellDebug1CommandsLib:QueryTable.obj
 0002:0001abd8       ??_C@_1CG@BEIIOLJG@?$AA?5?$AA?5?$AAD?$AAo?$AAu?$AAb?$AAl?$AAe?$AA?9?$AAb?$AAi?$AAt?$AA?5?$AAe?$AAr@ 00000000000816f8     UefiShellDebug1CommandsLib:QueryTable.obj
 0002:0001ac00       ??_C@_1CE@FHHKNBDN@?$AA?5?$AA?5?$AAM?$AAu?$AAl?$AAt?$AAi?$AA?9?$AAb?$AAi?$AAt?$AA?5?$AAe?$AAr?$AAr@ 0000000000081720     UefiShellDebug1CommandsLib:QueryTable.obj
 0002:0001ac28       ??_C@_1BO@GFDKLKFI@?$AA?5?$AA?5?$AAN?$AAi?$AAb?$AAb?$AAl?$AAe?$AA?5?$AAe?$AAr?$AAr?$AAo?$AAr@ 0000000000081748     UefiShellDebug1CommandsLib:QueryTable.obj
 0002:0001ac48       ??_C@_1CC@CFBNILPD@?$AA?5?$AA?5?$AAC?$AAh?$AAe?$AAc?$AAk?$AAs?$AAu?$AAm?$AA?5?$AAe?$AAr?$AAr?$AAo@ 0000000000081768     UefiShellDebug1CommandsLib:QueryTable.obj
 0002:0001ac70       ??_C@_1BI@HPKCMEFJ@?$AA?5?$AA?5?$AAC?$AAR?$AAC?$AA?5?$AAe?$AAr?$AAr?$AAo?$AAr@ 0000000000081790     UefiShellDebug1CommandsLib:QueryTable.obj
 0002:0001ac88       ??_C@_1DK@BKHLCP@?$AA?5?$AA?5?$AAC?$AAo?$AAr?$AAr?$AAe?$AAc?$AAt?$AAe?$AAd?$AA?5?$AAs?$AAi?$AAn@ 00000000000817a8     UefiShellDebug1CommandsLib:QueryTable.obj
 0002:0001acc8       ??_C@_1CE@MFCEHAEA@?$AA?5?$AA?5?$AAC?$AAo?$AAr?$AAr?$AAe?$AAc?$AAt?$AAe?$AAd?$AA?5?$AAe?$AAr?$AAr@ 00000000000817e8     UefiShellDebug1CommandsLib:QueryTable.obj
 0002:0001acf0       ??_C@_1CM@KENJINEJ@?$AA?5?$AA?5?$AAU?$AAn?$AAc?$AAo?$AAr?$AAr?$AAe?$AAc?$AAt?$AAa?$AAb?$AAl?$AAe@ 0000000000081810     UefiShellDebug1CommandsLib:QueryTable.obj
 0002:0001ad20       ??_C@_1BO@GCMFDFAL@?$AA?5?$AA?5?$AAD?$AAe?$AAv?$AAi?$AAc?$AAe?$AA?5?$AAl?$AAe?$AAv?$AAe?$AAl@ 0000000000081840     UefiShellDebug1CommandsLib:QueryTable.obj
 0002:0001ad40       ??_C@_1DC@JOELJGIG@?$AA?5?$AA?5?$AAM?$AAe?$AAm?$AAo?$AAr?$AAy?$AA?5?$AAp?$AAa?$AAr?$AAt?$AAi?$AAt@ 0000000000081860     UefiShellDebug1CommandsLib:QueryTable.obj
 0002:0001ad78       ??_C@_1O@KJBHGBBJ@?$AA?5?$AA?5?$AAR?$AAe?$AAa?$AAd@ 0000000000081898     UefiShellDebug1CommandsLib:QueryTable.obj
 0002:0001ad88       ??_C@_1BA@CAKPKCFP@?$AA?5?$AA?5?$AAW?$AAr?$AAi?$AAt?$AAe@ 00000000000818a8     UefiShellDebug1CommandsLib:QueryTable.obj
 0002:0001ad98       ??_C@_1CA@ELOGGHDG@?$AA?5?$AA?5?$AAP?$AAa?$AAr?$AAt?$AAi?$AAa?$AAl?$AA?5?$AAW?$AAr?$AAi?$AAt?$AAe@ 00000000000818b8     UefiShellDebug1CommandsLib:QueryTable.obj
 0002:0001adb8       ??_C@_1BA@CCMBLJEG@?$AA?5?$AA?5?$AAM?$AAo?$AAu?$AAs?$AAe@ 00000000000818d8     UefiShellDebug1CommandsLib:QueryTable.obj
 0002:0001adc8       ??_C@_1BK@FAAIAAOO@?$AA?5?$AA?5?$AAT?$AAr?$AAa?$AAc?$AAk?$AA?5?$AAB?$AAa?$AAl?$AAl@ 00000000000818e8     UefiShellDebug1CommandsLib:QueryTable.obj
 0002:0001ade8       ??_C@_1BM@NPGCFFBO@?$AA?5?$AA?5?$AAT?$AAr?$AAa?$AAc?$AAk?$AA?5?$AAP?$AAo?$AAi?$AAn?$AAt@ 0000000000081908     UefiShellDebug1CommandsLib:QueryTable.obj
 0002:0001ae08       ??_C@_1BM@MGCFJPLH@?$AA?5?$AA?5?$AAG?$AAl?$AAi?$AAd?$AAe?$AA?5?$AAP?$AAo?$AAi?$AAn?$AAt@ 0000000000081928     UefiShellDebug1CommandsLib:QueryTable.obj
 0002:0001ae28       ??_C@_1BI@LGFKEHIC@?$AA?5?$AA?5?$AAT?$AAo?$AAu?$AAc?$AAh?$AA?5?$AAP?$AAa?$AAd@ 0000000000081948     UefiShellDebug1CommandsLib:QueryTable.obj
 0002:0001ae40       ??_C@_1BA@GAKAEAPI@?$AA?5?$AAS?$AAe?$AAr?$AAi?$AAa?$AAl@ 0000000000081960     UefiShellDebug1CommandsLib:QueryTable.obj
 0002:0001ae50       ??_C@_1M@FCHOBHMM@?$AA?5?$AAP?$AAS?$AA?1?$AA2@ 0000000000081970     UefiShellDebug1CommandsLib:QueryTable.obj
 0002:0001ae60       ??_C@_1BE@DBNIPLDC@?$AA?5?$AAI?$AAn?$AAf?$AAr?$AAa?$AAr?$AAe?$AAd@ 0000000000081980     UefiShellDebug1CommandsLib:QueryTable.obj
 0002:0001ae78       ??_C@_1BA@PDKOJBAF@?$AA?5?$AAH?$AAP?$AA?9?$AAH?$AAI?$AAL@ 0000000000081998     UefiShellDebug1CommandsLib:QueryTable.obj
 0002:0001ae88       ??_C@_1BG@MFMIFFGL@?$AA?5?$AAB?$AAu?$AAs?$AA?5?$AAm?$AAo?$AAu?$AAs?$AAe@ 00000000000819a8     UefiShellDebug1CommandsLib:QueryTable.obj
 0002:0001aea0       ??_C@_1CO@MHDMPKPI@?$AA?5?$AAA?$AAD?$AAB?$AA?$CI?$AAA?$AAp?$AAp?$AAl?$AAe?$AA?5?$AAD?$AAe?$AAs?$AAk@ 00000000000819c0     UefiShellDebug1CommandsLib:QueryTable.obj
 0002:0001aed0       ??_C@_1CA@PEGNAPGB@?$AA?5?$AAB?$AAu?$AAs?$AA?5?$AAm?$AAo?$AAu?$AAs?$AAe?$AA?5?$AAD?$AAB?$AA?9?$AA9@ 00000000000819f0     UefiShellDebug1CommandsLib:QueryTable.obj
 0002:0001aef0       ??_C@_1CK@NFDDAAGC@?$AA?5?$AAB?$AAu?$AAs?$AA?5?$AAm?$AAo?$AAu?$AAs?$AAe?$AA?5?$AAm?$AAi?$AAr?$AAc@ 0000000000081a10     UefiShellDebug1CommandsLib:QueryTable.obj
 0002:0001af20       ??_C@_19PFOJIDBE@?$AA?5?$AAU?$AAS?$AAB@ 0000000000081a40     UefiShellDebug1CommandsLib:QueryTable.obj
 0002:0001af30       ??_C@_1BA@IIPJNPPE@?$AA?5?$AAO?$AAt?$AAh?$AAe?$AAr?$AA?5@ 0000000000081a50     UefiShellDebug1CommandsLib:QueryTable.obj
 0002:0001af40       ??_C@_1BE@JFPCAPHI@?$AA?5?$AAU?$AAn?$AAk?$AAn?$AAo?$AAw?$AAn?$AA?5@ 0000000000081a60     UefiShellDebug1CommandsLib:QueryTable.obj
 0002:0001af58       ??_C@_1BI@MMKCKHAH@?$AA?5?$AAL?$AAe?$AAa?$AAd?$AA?5?$AAA?$AAc?$AAi?$AAd?$AA?5@ 0000000000081a78     UefiShellDebug1CommandsLib:QueryTable.obj
 0002:0001af70       ??_C@_1CC@NGOOMLIF@?$AA?5?$AAN?$AAi?$AAc?$AAk?$AAe?$AAl?$AA?5?$AAC?$AAa?$AAd?$AAm?$AAi?$AAu?$AAm@ 0000000000081a90     UefiShellDebug1CommandsLib:QueryTable.obj
 0002:0001af98       ??_C@_1CO@OLAFLDKJ@?$AA?5?$AAN?$AAi?$AAc?$AAk?$AAe?$AAl?$AA?5?$AAm?$AAe?$AAt?$AAa?$AAl?$AA?5?$AAh@ 0000000000081ab8     UefiShellDebug1CommandsLib:QueryTable.obj
 0002:0001afc8       ??_C@_1BM@MNJGCDCE@?$AA?5?$AAL?$AAi?$AAt?$AAh?$AAi?$AAu?$AAm?$AA?9?$AAi?$AAo?$AAn?$AA?5@ 0000000000081ae8     UefiShellDebug1CommandsLib:QueryTable.obj
 0002:0001afe8       ??_C@_1BG@KELNHKGA@?$AA?5?$AAZ?$AAi?$AAn?$AAc?$AA?5?$AAa?$AAi?$AAr?$AA?5@ 0000000000081b08     UefiShellDebug1CommandsLib:QueryTable.obj
 0002:0001b000       ??_C@_1CE@HOBCOKCK@?$AA?5?$AAL?$AAi?$AAt?$AAh?$AAi?$AAu?$AAm?$AA?5?$AAP?$AAo?$AAl?$AAy?$AAm?$AAe@ 0000000000081b20     UefiShellDebug1CommandsLib:QueryTable.obj
 0002:0001b028       ??_C@_19GGDIBBIJ@?$AA?5?$AAO?$AAK?$AA?5@ 0000000000081b48     UefiShellDebug1CommandsLib:QueryTable.obj
 0002:0001b038       ??_C@_1BO@GKEDGEEJ@?$AA?5?$AAN?$AAo?$AAn?$AA?9?$AAc?$AAr?$AAi?$AAt?$AAi?$AAc?$AAa?$AAl?$AA?5@ 0000000000081b58     UefiShellDebug1CommandsLib:QueryTable.obj
 0002:0001b058       ??_C@_1BG@NCDDFIBM@?$AA?5?$AAC?$AAr?$AAi?$AAt?$AAi?$AAc?$AAa?$AAl?$AA?5@ 0000000000081b78     UefiShellDebug1CommandsLib:QueryTable.obj
 0002:0001b070       ??_C@_1CE@CEKOIDAH@?$AA?5?$AAN?$AAo?$AAn?$AA?9?$AAr?$AAe?$AAc?$AAo?$AAv?$AAe?$AAr?$AAa?$AAb?$AAl@ 0000000000081b90     UefiShellDebug1CommandsLib:QueryTable.obj
 0002:0001b098       ??_C@_1BI@GMKHOHOC@?$AA?5?$AAP?$AAr?$AAo?$AAc?$AAe?$AAs?$AAs?$AAo?$AAr?$AA?5@ 0000000000081bb8     UefiShellDebug1CommandsLib:QueryTable.obj
 0002:0001b0b0       ??_C@_1O@BNGJJLAB@?$AA?5?$AAD?$AAi?$AAs?$AAk?$AA?5@ 0000000000081bd0     UefiShellDebug1CommandsLib:QueryTable.obj
 0002:0001b0c0       ??_C@_1CC@KEALGJFC@?$AA?5?$AAP?$AAe?$AAr?$AAi?$AAp?$AAh?$AAe?$AAr?$AAa?$AAl?$AA?5?$AAB?$AAa?$AAy@ 0000000000081be0     UefiShellDebug1CommandsLib:QueryTable.obj
 0002:0001b0e8       ??_C@_1DG@OCABFDIA@?$AA?5?$AAS?$AAy?$AAs?$AAt?$AAe?$AAm?$AA?5?$AAM?$AAa?$AAn?$AAa?$AAg?$AAe?$AAm@ 0000000000081c08     UefiShellDebug1CommandsLib:QueryTable.obj
 0002:0001b120       ??_C@_1BM@KEIIIMGN@?$AA?5?$AAM?$AAo?$AAt?$AAh?$AAe?$AAr?$AAb?$AAo?$AAa?$AAr?$AAd?$AA?5@ 0000000000081c40     UefiShellDebug1CommandsLib:QueryTable.obj
 0002:0001b140       ??_C@_1CA@JDEJPGMF@?$AA?5?$AAM?$AAe?$AAm?$AAo?$AAr?$AAy?$AA?5?$AAM?$AAo?$AAd?$AAu?$AAl?$AAe?$AA?5@ 0000000000081c60     UefiShellDebug1CommandsLib:QueryTable.obj
 0002:0001b160       ??_C@_1CG@NCIMBGOL@?$AA?5?$AAP?$AAr?$AAo?$AAc?$AAe?$AAs?$AAs?$AAo?$AAr?$AA?5?$AAM?$AAo?$AAd?$AAu@ 0000000000081c80     UefiShellDebug1CommandsLib:QueryTable.obj
 0002:0001b188       ??_C@_1BK@DEPMCFKI@?$AA?5?$AAP?$AAo?$AAw?$AAe?$AAr?$AA?5?$AAU?$AAn?$AAi?$AAt?$AA?5@ 0000000000081ca8     UefiShellDebug1CommandsLib:QueryTable.obj
 0002:0001b1a8       ??_C@_1BM@GLDKJKI@?$AA?5?$AAA?$AAd?$AAd?$AA?9?$AAi?$AAn?$AA?5?$AAC?$AAa?$AAr?$AAd?$AA?5@ 0000000000081cc8     UefiShellDebug1CommandsLib:QueryTable.obj
 0002:0001b1c8       ??_C@_1M@IBDCPELO@?$AA?5?$AAF?$AAa?$AAn?$AA?5@ 0000000000081ce8     UefiShellDebug1CommandsLib:QueryTable.obj
 0002:0001b1d8       ??_C@_1CK@JBDACGFA@?$AA?5?$AAC?$AAe?$AAn?$AAt?$AAr?$AAi?$AAf?$AAu?$AAg?$AAa?$AAl?$AA?5?$AAB?$AAl@ 0000000000081cf8     UefiShellDebug1CommandsLib:QueryTable.obj
 0002:0001b208       ??_C@_1BG@LOMPKKGO@?$AA?5?$AAC?$AAh?$AAi?$AAp?$AA?5?$AAF?$AAa?$AAn?$AA?5@ 0000000000081d28     UefiShellDebug1CommandsLib:QueryTable.obj
 0002:0001b220       ??_C@_1BM@NGIONONA@?$AA?5?$AAC?$AAa?$AAb?$AAi?$AAn?$AAe?$AAt?$AA?5?$AAF?$AAa?$AAn?$AA?5@ 0000000000081d40     UefiShellDebug1CommandsLib:QueryTable.obj
 0002:0001b240       ??_C@_1CG@LCMCLKCF@?$AA?5?$AAP?$AAo?$AAw?$AAe?$AAr?$AA?5?$AAS?$AAu?$AAp?$AAp?$AAl?$AAy?$AA?5?$AAF@ 0000000000081d60     UefiShellDebug1CommandsLib:QueryTable.obj
 0002:0001b268       ??_C@_1BI@FOBDMCGG@?$AA?5?$AAH?$AAe?$AAa?$AAt?$AA?5?$AAP?$AAi?$AAp?$AAe?$AA?5@ 0000000000081d88     UefiShellDebug1CommandsLib:QueryTable.obj
 0002:0001b280       ??_C@_1DG@HJEBEBBL@?$AA?5?$AAI?$AAn?$AAt?$AAe?$AAg?$AAr?$AAa?$AAt?$AAe?$AAd?$AA?5?$AAR?$AAe?$AAf@ 0000000000081da0     UefiShellDebug1CommandsLib:QueryTable.obj
 0002:0001b2b8       ??_C@_1CC@DKIPEHFO@?$AA?5?$AAA?$AAc?$AAt?$AAi?$AAv?$AAe?$AA?5?$AAC?$AAo?$AAo?$AAl?$AAi?$AAn?$AAg@ 0000000000081dd8     UefiShellDebug1CommandsLib:QueryTable.obj
 0002:0001b2e0       ??_C@_1CE@LOOOAFLC@?$AA?5?$AAP?$AAa?$AAs?$AAs?$AAi?$AAv?$AAe?$AA?5?$AAC?$AAo?$AAo?$AAl?$AAi?$AAn@ 0000000000081e00     UefiShellDebug1CommandsLib:QueryTable.obj
 0002:0001b308       ??_C@_1DM@LHANPIKI@?$AA?5?$AAN?$AAa?$AAt?$AAi?$AAo?$AAn?$AAa?$AAl?$AA?5?$AAS?$AAe?$AAm?$AAi?$AAc@ 0000000000081e28     UefiShellDebug1CommandsLib:QueryTable.obj
 0002:0001b348       ??_C@_1DM@LJDOLHG@?$AA?5?$AAN?$AAa?$AAt?$AAi?$AAo?$AAn?$AAa?$AAl?$AA?5?$AAS?$AAe?$AAm?$AAi?$AAc@ 0000000000081e68     UefiShellDebug1CommandsLib:QueryTable.obj
 0002:0001b388       ??_C@_1DM@MAMPDIND@?$AA?5?$AAN?$AAa?$AAt?$AAi?$AAo?$AAn?$AAa?$AAl?$AA?5?$AAS?$AAe?$AAm?$AAi?$AAc@ 0000000000081ea8     UefiShellDebug1CommandsLib:QueryTable.obj
 0002:0001b3c8       ??_C@_1DM@DOOAHLLH@?$AA?5?$AAN?$AAa?$AAt?$AAi?$AAo?$AAn?$AAa?$AAl?$AA?5?$AAS?$AAe?$AAm?$AAi?$AAc@ 0000000000081ee8     UefiShellDebug1CommandsLib:QueryTable.obj
 0002:0001b408       ??_C@_1DM@PFLMKIBC@?$AA?5?$AAN?$AAa?$AAt?$AAi?$AAo?$AAn?$AAa?$AAl?$AA?5?$AAS?$AAe?$AAm?$AAi?$AAc@ 0000000000081f28     UefiShellDebug1CommandsLib:QueryTable.obj
 0002:0001b448       ??_C@_1DC@NHMOKABJ@?$AA?5?$AAA?$AAn?$AAa?$AAl?$AAo?$AAg?$AA?5?$AAD?$AAe?$AAv?$AAi?$AAc?$AAe?$AAs@ 0000000000081f68     UefiShellDebug1CommandsLib:QueryTable.obj
 0002:0001b480       ??_C@_1DM@KEDMMCPK@?$AA?5?$AAD?$AAa?$AAl?$AAl?$AAa?$AAs?$AA?5?$AAS?$AAe?$AAm?$AAi?$AAc?$AAo?$AAn@ 0000000000081fa0     UefiShellDebug1CommandsLib:QueryTable.obj
 0002:0001b4c0       ??_C@_1BK@DMDILACG@?$AA?5?$AAM?$AAa?$AAx?$AAi?$AAm?$AA?5?$AA1?$AA6?$AA1?$AA7?$AA?5@ 0000000000081fe0     UefiShellDebug1CommandsLib:QueryTable.obj
 0002:0001b4e0       ??_C@_1CE@NAHLNKEI@?$AA?5?$AAG?$AAe?$AAn?$AAe?$AAs?$AAy?$AAs?$AA?5?$AAG?$AAL?$AA5?$AA1?$AA8?$AAS@ 0000000000082000     UefiShellDebug1CommandsLib:QueryTable.obj
 0002:0001b508       ??_C@_1CE@LDCCHJEJ@?$AA?5?$AAW?$AAi?$AAn?$AAb?$AAo?$AAn?$AAd?$AA?5?$AAW?$AA8?$AA3?$AA7?$AA8?$AA1@ 0000000000082028     UefiShellDebug1CommandsLib:QueryTable.obj
 0002:0001b530       ??_C@_1CE@GNDDKDDA@?$AA?5?$AAH?$AAo?$AAl?$AAt?$AAe?$AAk?$AA?5?$AAH?$AAT?$AA8?$AA2?$AAH?$AA7?$AA9@ 0000000000082050     UefiShellDebug1CommandsLib:QueryTable.obj
 0002:0001b558       ??_C@_1BG@BGKHBHIL@?$AA?5?$AAI?$AA?1?$AAO?$AA?5?$AAP?$AAo?$AAr?$AAt?$AA?5@ 0000000000082078     UefiShellDebug1CommandsLib:QueryTable.obj
 0002:0001b570       ??_C@_1BC@BOJDIKKE@?$AA?5?$AAM?$AAe?$AAm?$AAo?$AAr?$AAy?$AA?5@ 0000000000082090     UefiShellDebug1CommandsLib:QueryTable.obj
 0002:0001b588       ??_C@_1BC@JJDKDAHO@?$AA?5?$AAS?$AAM?$AA?5?$AAB?$AAu?$AAs?$AA?5@ 00000000000820a8     UefiShellDebug1CommandsLib:QueryTable.obj
 0002:0001b5a0       ??_C@_1BC@HOAPPOAE@?$AA?5?$AAR?$AAa?$AAm?$AAB?$AAu?$AAs?$AA?5@ 00000000000820c0     UefiShellDebug1CommandsLib:QueryTable.obj
 0002:0001b5b8       ??_C@_1BG@GCDBPALL@?$AA?5?$AAS?$AAy?$AAn?$AAc?$AAL?$AAi?$AAn?$AAk?$AA?5@ 00000000000820d8     UefiShellDebug1CommandsLib:QueryTable.obj
 0002:0001b5d0       ??_C@_1EC@KIEOMBAI@?$AA?5?$AAK?$AAC?$AAS?$AA?3?$AA?5?$AAK?$AAe?$AAy?$AAb?$AAo?$AAa?$AAr?$AAd?$AA?5@ 00000000000820f0     UefiShellDebug1CommandsLib:QueryTable.obj
 0002:0001b620       ??_C@_1FC@KJMILLDI@?$AA?5?$AAS?$AAM?$AAI?$AAC?$AA?3?$AA?5?$AAS?$AAe?$AAr?$AAv?$AAe?$AAr?$AA?5?$AAM@ 0000000000082140     UefiShellDebug1CommandsLib:QueryTable.obj
 0002:0001b678       ??_C@_1CK@IAMEFPOK@?$AA?5?$AAB?$AAT?$AA?3?$AA?5?$AAB?$AAl?$AAo?$AAc?$AAk?$AA?5?$AAT?$AAr?$AAa?$AAn@ 0000000000082198     UefiShellDebug1CommandsLib:QueryTable.obj
 0002:0001b6a8       ??_C@_1DO@KGAABDHH@?$AA?5?$AAS?$AAS?$AAI?$AAF?$AA?3?$AA?5?$AAS?$AAM?$AAB?$AAu?$AAs?$AA?5?$AAS?$AAy@ 00000000000821c8     UefiShellDebug1CommandsLib:QueryTable.obj
 0002:0001b6f0       ??_C@_1GO@IFNJFDLH@?$AA?5?$AAR?$AAe?$AAs?$AAe?$AAr?$AAv?$AAe?$AAd?$AA?5?$AAf?$AAo?$AAr?$AA?5?$AAf@ 0000000000082210     UefiShellDebug1CommandsLib:QueryTable.obj
 0002:0001b760       ??_C@_1CM@KFJAMKAL@?$AA?5?$AAM?$AAC?$AAT?$AAP?$AA?5?$AAH?$AAo?$AAs?$AAt?$AA?5?$AAI?$AAn?$AAt?$AAe@ 0000000000082280     UefiShellDebug1CommandsLib:QueryTable.obj
 0002:0001b790       ??_C@_1DC@CPKLBJHH@?$AA?5?$AAN?$AAe?$AAt?$AAw?$AAo?$AAr?$AAk?$AA?5?$AAH?$AAo?$AAs?$AAt?$AA?5?$AAI@ 00000000000822b0     UefiShellDebug1CommandsLib:QueryTable.obj
 0002:0001b7c8       ??_C@_1BM@OGGKBMGB@?$AA?5?$AAO?$AAE?$AAM?$AA?5?$AAd?$AAe?$AAf?$AAi?$AAn?$AAe?$AAd?$AA?5@ 00000000000822e8     UefiShellDebug1CommandsLib:QueryTable.obj
 0002:0001b7e8       ??_C@_1BG@KFCCEIGC@?$AA?5?$AAR?$AAe?$AAs?$AAe?$AAr?$AAv?$AAe?$AAd?$AA?5@ 0000000000082308     UefiShellDebug1CommandsLib:QueryTable.obj
 0002:0001b800       ??_C@_1BK@CHKFKFHH@?$AA?5?$AAI?$AAA?$AA3?$AA2?$AA?5?$AA?$CI?$AAx?$AA8?$AA6?$AA?$CJ?$AA?5@ 0000000000082320     UefiShellDebug1CommandsLib:QueryTable.obj
 0002:0001b820       ??_C@_1EM@HGJOJJCM@?$AA?5?$AAx?$AA6?$AA4?$AA?5?$AA?$CI?$AAx?$AA8?$AA6?$AA?9?$AA6?$AA4?$AA?0?$AA?5?$AAi@ 0000000000082340     UefiShellDebug1CommandsLib:QueryTable.obj
 0002:0001b870       ??_C@_1DK@DIGHDGCI@?$AA?5?$AAI?$AAn?$AAt?$AAe?$AAl?$AA?5?$AAI?$AAt?$AAa?$AAn?$AAi?$AAu?$AAm?$AA?5@ 0000000000082390     UefiShellDebug1CommandsLib:QueryTable.obj
 0002:0001b8b0       ??_C@_1CO@OGHHLOFA@?$AA?5?$AA3?$AA2?$AA?9?$AAb?$AAi?$AAt?$AA?5?$AAA?$AAR?$AAM?$AA?5?$AA?$CI?$AAA?$AAa@ 00000000000823d0     UefiShellDebug1CommandsLib:QueryTable.obj
 0002:0001b8e0       ??_C@_1CO@DEMOLDJP@?$AA?5?$AA6?$AA4?$AA?9?$AAb?$AAi?$AAt?$AA?5?$AAA?$AAR?$AAM?$AA?5?$AA?$CI?$AAA?$AAa@ 0000000000082400     UefiShellDebug1CommandsLib:QueryTable.obj
 0002:0001b910       ??_C@_1CO@GOFKJBKA@?$AA?5?$AA3?$AA2?$AA?9?$AAb?$AAi?$AAt?$AA?5?$AAR?$AAI?$AAS?$AAC?$AA?9?$AAV?$AA?5@ 0000000000082430     UefiShellDebug1CommandsLib:QueryTable.obj
 0002:0001b940       ??_C@_1CO@LMODJMGP@?$AA?5?$AA6?$AA4?$AA?9?$AAb?$AAi?$AAt?$AA?5?$AAR?$AAI?$AAS?$AAC?$AA?9?$AAV?$AA?5@ 0000000000082460     UefiShellDebug1CommandsLib:QueryTable.obj
 0002:0001b970       ??_C@_1DC@LCKKIIBE@?$AA?5?$AA1?$AA2?$AA8?$AA?9?$AAb?$AAi?$AAt?$AA?5?$AAR?$AAI?$AAS?$AAC?$AA?9?$AAV@ 0000000000082490     UefiShellDebug1CommandsLib:QueryTable.obj
 0002:0001b9b0       ??_C@_1EC@CMBPDCPE@?$AA?5?$AA3?$AA2?$AA?9?$AAb?$AAi?$AAt?$AA?5?$AAL?$AAo?$AAo?$AAn?$AAg?$AAA?$AAr@ 00000000000824d0     UefiShellDebug1CommandsLib:QueryTable.obj
 0002:0001ba00       ??_C@_1EC@NAJBCMJH@?$AA?5?$AA6?$AA4?$AA?9?$AAb?$AAi?$AAt?$AA?5?$AAL?$AAo?$AAo?$AAn?$AAg?$AAA?$AAr@ 0000000000082520     UefiShellDebug1CommandsLib:QueryTable.obj
 0002:0001ba48       ??_C@_1BE@MDDNDOFK@?$AAU?$AAp?$AAd?$AAa?$AAt?$AAa?$AAb?$AAl?$AAe@ 0000000000082568     UefiShellDebug1CommandsLib:QueryTable.obj
 0002:0001ba60       ??_C@_1BM@PLHNMFGN@?$AAW?$AAr?$AAi?$AAt?$AAe?$AA?9?$AAP?$AAr?$AAo?$AAt?$AAe?$AAc?$AAt@ 0000000000082580     UefiShellDebug1CommandsLib:QueryTable.obj
 0002:0001ba80       ??_C@_1BG@LKJBLHNG@?$AA?5?$AA?5?$AAU?$AAn?$AAk?$AAn?$AAo?$AAw?$AAn?$AA?5@ 00000000000825a0     UefiShellDebug1CommandsLib:QueryTable.obj
 0002:0001baa0       ??_C@_1GE@GMBAPGHA@?$AA?5?$AA?5?$AAD?$AAi?$AAs?$AAa?$AAb?$AAl?$AAe?$AAd?$AA?3?$AA?5?$AAT?$AAh?$AAi@ 00000000000825c0     UefiShellDebug1CommandsLib:QueryTable.obj
 0002:0001bb10       ??_C@_1GA@KGLDIAGL@?$AA?5?$AA?5?$AAE?$AAn?$AAa?$AAb?$AAl?$AAe?$AAd?$AA?3?$AA?5?$AAT?$AAh?$AAi?$AAs@ 0000000000082630     UefiShellDebug1CommandsLib:QueryTable.obj
 0002:0001bb70       ??_C@_1JC@NDJCCJHH@?$AA?5?$AA?5?$AAA?$AAb?$AAs?$AAe?$AAn?$AAt?$AA?3?$AA?5?$AAT?$AAh?$AAi?$AAs?$AA?5@ 0000000000082690     UefiShellDebug1CommandsLib:QueryTable.obj
 0002:0001bc10       ??_C@_1LE@FHEJOMCB@?$AA?5?$AA?5?$AAS?$AAt?$AAa?$AAn?$AAd?$AAb?$AAy?$AAO?$AAf?$AAf?$AAl?$AAi?$AAn@ 0000000000082730     UefiShellDebug1CommandsLib:QueryTable.obj
 0002:0001bcd0       ??_C@_1PE@EJADFNPH@?$AA?5?$AA?5?$AAS?$AAt?$AAa?$AAn?$AAd?$AAb?$AAy?$AAS?$AAp?$AAa?$AAr?$AAe?$AA?3@ 00000000000827f0     UefiShellDebug1CommandsLib:QueryTable.obj
 0002:0001bdd0       ??_C@_1JM@LHAJIAHN@?$AA?5?$AA?5?$AAU?$AAn?$AAa?$AAv?$AAa?$AAi?$AAl?$AAa?$AAb?$AAl?$AAe?$AAO?$AAf@ 00000000000828f0     UefiShellDebug1CommandsLib:QueryTable.obj
 0002:0001be70       ??_C@_1CE@NODMCEOF@?$AA?5?$AAB?$AAI?$AAO?$AAS?$AA?5?$AAI?$AAn?$AAf?$AAo?$AAr?$AAm?$AAa?$AAt?$AAi@ 0000000000082990     UefiShellDebug1CommandsLib:QueryTable.obj
 0002:0001be98       ??_C@_1CI@JBMGMLKL@?$AA?5?$AAS?$AAy?$AAs?$AAt?$AAe?$AAm?$AA?5?$AAI?$AAn?$AAf?$AAo?$AAr?$AAm?$AAa@ 00000000000829b8     UefiShellDebug1CommandsLib:QueryTable.obj
 0002:0001bec0       ??_C@_1DA@DLBDLIPB@?$AA?5?$AAB?$AAa?$AAs?$AAe?$AA?5?$AAB?$AAo?$AAa?$AAr?$AAd?$AA?5?$AAI?$AAn?$AAf@ 00000000000829e0     UefiShellDebug1CommandsLib:QueryTable.obj
 0002:0001bef0       ??_C@_1CE@MKBMKOIJ@?$AA?5?$AAS?$AAy?$AAs?$AAt?$AAe?$AAm?$AA?5?$AAE?$AAn?$AAc?$AAl?$AAo?$AAs?$AAu@ 0000000000082a10     UefiShellDebug1CommandsLib:QueryTable.obj
 0002:0001bf18       ??_C@_1CO@IEFCPDIM@?$AA?5?$AAP?$AAr?$AAo?$AAc?$AAe?$AAs?$AAs?$AAo?$AAr?$AA?5?$AAI?$AAn?$AAf?$AAo@ 0000000000082a38     UefiShellDebug1CommandsLib:QueryTable.obj
 0002:0001bf50       ??_C@_1EA@GLJIDPGC@?$AA?5?$AAM?$AAe?$AAm?$AAo?$AAr?$AAy?$AA?5?$AAC?$AAo?$AAn?$AAt?$AAr?$AAo?$AAl@ 0000000000082a70     UefiShellDebug1CommandsLib:QueryTable.obj
 0002:0001bf90       ??_C@_1DI@NGJKBOBL@?$AA?5?$AAM?$AAe?$AAm?$AAo?$AAr?$AAy?$AA?5?$AAM?$AAo?$AAd?$AAu?$AAl?$AAe?$AA?5@ 0000000000082ab0     UefiShellDebug1CommandsLib:QueryTable.obj
 0002:0001bfc8       ??_C@_1CI@KAHPHEOD@?$AA?5?$AAC?$AAa?$AAc?$AAh?$AAe?$AA?5?$AAI?$AAn?$AAf?$AAo?$AAr?$AAm?$AAa?$AAt@ 0000000000082ae8     UefiShellDebug1CommandsLib:QueryTable.obj
 0002:0001bff0       ??_C@_1DK@EIOCMDIE@?$AA?5?$AAP?$AAo?$AAr?$AAt?$AA?5?$AAC?$AAo?$AAn?$AAn?$AAe?$AAc?$AAt?$AAo?$AAr@ 0000000000082b10     UefiShellDebug1CommandsLib:QueryTable.obj
 0002:0001c030       ??_C@_1BO@CFNNBGGK@?$AA?5?$AAS?$AAy?$AAs?$AAt?$AAe?$AAm?$AA?5?$AAS?$AAl?$AAo?$AAt?$AAs?$AA?5@ 0000000000082b50     UefiShellDebug1CommandsLib:QueryTable.obj
 0002:0001c050       ??_C@_1EA@JEIKCCNN@?$AA?5?$AAO?$AAn?$AA?5?$AAB?$AAo?$AAa?$AAr?$AAd?$AA?5?$AAD?$AAe?$AAv?$AAi?$AAc@ 0000000000082b70     UefiShellDebug1CommandsLib:QueryTable.obj
 0002:0001c090       ??_C@_1BK@BLOMDIIM@?$AA?5?$AAO?$AAE?$AAM?$AA?5?$AAS?$AAt?$AAr?$AAi?$AAn?$AAg?$AAs@ 0000000000082bb0     UefiShellDebug1CommandsLib:QueryTable.obj
 0002:0001c0b0       ??_C@_1DO@GLJAEBOI@?$AA?5?$AAS?$AAy?$AAs?$AAt?$AAe?$AAm?$AA?5?$AAC?$AAo?$AAn?$AAf?$AAi?$AAg?$AAu@ 0000000000082bd0     UefiShellDebug1CommandsLib:QueryTable.obj
 0002:0001c0f0       ??_C@_1DK@PMNAAIFF@?$AA?5?$AAB?$AAI?$AAO?$AAS?$AA?5?$AAL?$AAa?$AAn?$AAg?$AAu?$AAa?$AAg?$AAe?$AA?5@ 0000000000082c10     UefiShellDebug1CommandsLib:QueryTable.obj
 0002:0001c130       ??_C@_1CK@LPHDKGOO@?$AA?5?$AAG?$AAr?$AAo?$AAu?$AAp?$AA?5?$AAA?$AAs?$AAs?$AAo?$AAc?$AAi?$AAa?$AAt@ 0000000000082c50     UefiShellDebug1CommandsLib:QueryTable.obj
 0002:0001c160       ??_C@_1CG@NDCDIPMA@?$AA?5?$AAS?$AAy?$AAs?$AAt?$AAe?$AAm?$AA?5?$AAE?$AAv?$AAe?$AAn?$AAt?$AA?5?$AAL@ 0000000000082c80     UefiShellDebug1CommandsLib:QueryTable.obj
 0002:0001c188       ??_C@_1DA@JNMIAO@?$AA?5?$AAP?$AAh?$AAy?$AAs?$AAi?$AAc?$AAa?$AAl?$AA?5?$AAM?$AAe?$AAm?$AAo?$AAr@ 0000000000082ca8     UefiShellDebug1CommandsLib:QueryTable.obj
 0002:0001c1b8       ??_C@_1CA@JIJECCCJ@?$AA?5?$AAM?$AAe?$AAm?$AAo?$AAr?$AAy?$AA?5?$AAD?$AAe?$AAv?$AAi?$AAc?$AAe?$AA?5@ 0000000000082cd8     UefiShellDebug1CommandsLib:QueryTable.obj
 0002:0001c1e0       ??_C@_1EE@PEHMGDNH@?$AA?5?$AA3?$AA2?$AA?9?$AAb?$AAi?$AAt?$AA?5?$AAM?$AAe?$AAm?$AAo?$AAr?$AAy?$AA?5@ 0000000000082d00     UefiShellDebug1CommandsLib:QueryTable.obj
 0002:0001c228       ??_C@_1DM@JGOEEHED@?$AA?5?$AAM?$AAe?$AAm?$AAo?$AAr?$AAy?$AA?5?$AAA?$AAr?$AAr?$AAa?$AAy?$AA?5?$AAM@ 0000000000082d48     UefiShellDebug1CommandsLib:QueryTable.obj
 0002:0001c270       ??_C@_1EA@CCKEJEPI@?$AA?5?$AAM?$AAe?$AAm?$AAo?$AAr?$AAy?$AA?5?$AAD?$AAe?$AAv?$AAi?$AAc?$AAe?$AA?5@ 0000000000082d90     UefiShellDebug1CommandsLib:QueryTable.obj
 0002:0001c2b0       ??_C@_1DG@CEGKOEIA@?$AA?5?$AAB?$AAu?$AAi?$AAl?$AAt?$AA?9?$AAi?$AAn?$AA?5?$AAP?$AAo?$AAi?$AAn?$AAt@ 0000000000082dd0     UefiShellDebug1CommandsLib:QueryTable.obj
 0002:0001c2e8       ??_C@_1CG@BHBPCLAK@?$AA?5?$AAP?$AAo?$AAr?$AAt?$AAa?$AAb?$AAl?$AAe?$AA?5?$AAB?$AAa?$AAt?$AAt?$AAe@ 0000000000082e08     UefiShellDebug1CommandsLib:QueryTable.obj
 0002:0001c310       ??_C@_1BO@LFPNKNOG@?$AA?5?$AAS?$AAy?$AAs?$AAt?$AAe?$AAm?$AA?5?$AAR?$AAe?$AAs?$AAe?$AAt?$AA?5@ 0000000000082e30     UefiShellDebug1CommandsLib:QueryTable.obj
 0002:0001c330       ??_C@_1CI@HEMMAADB@?$AA?5?$AAH?$AAa?$AAr?$AAd?$AAw?$AAa?$AAr?$AAe?$AA?5?$AAS?$AAe?$AAc?$AAu?$AAr@ 0000000000082e50     UefiShellDebug1CommandsLib:QueryTable.obj
 0002:0001c358       ??_C@_1DA@BHBLKLIE@?$AA?5?$AAS?$AAy?$AAs?$AAt?$AAe?$AAm?$AA?5?$AAP?$AAo?$AAw?$AAe?$AAr?$AA?5?$AAC@ 0000000000082e78     UefiShellDebug1CommandsLib:QueryTable.obj
 0002:0001c388       ??_C@_1CA@LPHPMNGH@?$AA?5?$AAV?$AAo?$AAl?$AAt?$AAa?$AAg?$AAe?$AA?5?$AAP?$AAr?$AAo?$AAb?$AAe?$AA?5@ 0000000000082ea8     UefiShellDebug1CommandsLib:QueryTable.obj
 0002:0001c3a8       ??_C@_1CC@HIJNABCD@?$AA?5?$AAC?$AAo?$AAo?$AAl?$AAi?$AAn?$AAg?$AA?5?$AAD?$AAe?$AAv?$AAi?$AAc?$AAe@ 0000000000082ec8     UefiShellDebug1CommandsLib:QueryTable.obj
 0002:0001c3d0       ??_C@_1CI@DBJFFCMH@?$AA?5?$AAT?$AAe?$AAm?$AAp?$AAe?$AAr?$AAa?$AAt?$AAu?$AAr?$AAe?$AA?5?$AAP?$AAr@ 0000000000082ef0     UefiShellDebug1CommandsLib:QueryTable.obj
 0002:0001c3f8       ??_C@_1DG@GLKFIJAO@?$AA?5?$AAE?$AAl?$AAe?$AAc?$AAt?$AAr?$AAi?$AAc?$AAa?$AAl?$AA?5?$AAC?$AAu?$AAr@ 0000000000082f18     UefiShellDebug1CommandsLib:QueryTable.obj
 0002:0001c430       ??_C@_1DK@EBFKJOBC@?$AA?5?$AAO?$AAu?$AAt?$AA?9?$AAo?$AAf?$AA?9?$AAB?$AAa?$AAn?$AAd?$AA?5?$AAR?$AAe@ 0000000000082f50     UefiShellDebug1CommandsLib:QueryTable.obj
 0002:0001c470       ??_C@_1FG@JFKJFGJC@?$AA?5?$AAB?$AAo?$AAo?$AAt?$AA?5?$AAI?$AAn?$AAt?$AAe?$AAg?$AAr?$AAi?$AAt?$AAy@ 0000000000082f90     UefiShellDebug1CommandsLib:QueryTable.obj
 0002:0001c4c8       ??_C@_1DE@EJKEMOMO@?$AA?5?$AAS?$AAy?$AAs?$AAt?$AAe?$AAm?$AA?5?$AAB?$AAo?$AAo?$AAt?$AA?5?$AAI?$AAn@ 0000000000082fe8     UefiShellDebug1CommandsLib:QueryTable.obj
 0002:0001c500       ??_C@_1EE@NFBOJNAJ@?$AA?5?$AA6?$AA4?$AA?9?$AAb?$AAi?$AAt?$AA?5?$AAM?$AAe?$AAm?$AAo?$AAr?$AAy?$AA?5@ 0000000000083020     UefiShellDebug1CommandsLib:QueryTable.obj
 0002:0001c548       ??_C@_1CI@BCNAMOJH@?$AA?5?$AAM?$AAa?$AAn?$AAa?$AAg?$AAe?$AAm?$AAe?$AAn?$AAt?$AA?5?$AAD?$AAe?$AAv@ 0000000000083068     UefiShellDebug1CommandsLib:QueryTable.obj
 0002:0001c570       ??_C@_1DM@GCJAAPLD@?$AA?5?$AAM?$AAa?$AAn?$AAa?$AAg?$AAe?$AAm?$AAe?$AAn?$AAt?$AA?5?$AAD?$AAe?$AAv@ 0000000000083090     UefiShellDebug1CommandsLib:QueryTable.obj
 0002:0001c5b0       ??_C@_1EG@KIKKBPNN@?$AA?5?$AAM?$AAa?$AAn?$AAa?$AAg?$AAe?$AAm?$AAe?$AAn?$AAt?$AA?5?$AAD?$AAe?$AAv@ 00000000000830d0     UefiShellDebug1CommandsLib:QueryTable.obj
 0002:0001c5f8       ??_C@_1CC@CDPDJPBM@?$AA?5?$AAM?$AAe?$AAm?$AAo?$AAr?$AAy?$AA?5?$AAC?$AAh?$AAa?$AAn?$AAn?$AAe?$AAl@ 0000000000083118     UefiShellDebug1CommandsLib:QueryTable.obj
 0002:0001c620       ??_C@_1DE@KMAGHJDA@?$AA?5?$AAI?$AAP?$AAM?$AAI?$AA?5?$AAD?$AAe?$AAv?$AAi?$AAc?$AAe?$AA?5?$AAI?$AAn@ 0000000000083140     UefiShellDebug1CommandsLib:QueryTable.obj
 0002:0001c658       ??_C@_1CK@OCDKGLHK@?$AA?5?$AAS?$AAy?$AAs?$AAt?$AAe?$AAm?$AA?5?$AAP?$AAo?$AAw?$AAe?$AAr?$AA?5?$AAS@ 0000000000083178     UefiShellDebug1CommandsLib:QueryTable.obj
 0002:0001c688       ??_C@_1DA@GLMBOCKD@?$AA?5?$AAA?$AAd?$AAd?$AAi?$AAt?$AAi?$AAo?$AAn?$AAa?$AAl?$AA?5?$AAI?$AAn?$AAf@ 00000000000831a8     UefiShellDebug1CommandsLib:QueryTable.obj
 0002:0001c6c0       ??_C@_1EM@FKONMDEN@?$AA?5?$AAO?$AAn?$AAb?$AAo?$AAa?$AAr?$AAd?$AA?5?$AAD?$AAe?$AAv?$AAi?$AAc?$AAe@ 00000000000831e0     UefiShellDebug1CommandsLib:QueryTable.obj
 0002:0001c710       ??_C@_1EM@CBPIKIMD@?$AA?5?$AAM?$AAa?$AAn?$AAa?$AAg?$AAe?$AAm?$AAe?$AAn?$AAt?$AA?5?$AAC?$AAo?$AAn@ 0000000000083230     UefiShellDebug1CommandsLib:QueryTable.obj
 0002:0001c760       ??_C@_1BI@EIFIKJJO@?$AA?5?$AAT?$AAP?$AAM?$AA?5?$AAD?$AAe?$AAv?$AAi?$AAc?$AAe@ 0000000000083280     UefiShellDebug1CommandsLib:QueryTable.obj
 0002:0001c780       ??_C@_1EE@KMPPFPAD@?$AA?5?$AAP?$AAr?$AAo?$AAc?$AAe?$AAs?$AAs?$AAo?$AAr?$AA?5?$AAA?$AAd?$AAd?$AAi@ 00000000000832a0     UefiShellDebug1CommandsLib:QueryTable.obj
 0002:0001c7c8       ??_C@_1BE@BOAAIAOA@?$AA?5?$AAI?$AAn?$AAa?$AAc?$AAt?$AAi?$AAv?$AAe@ 00000000000832e8     UefiShellDebug1CommandsLib:QueryTable.obj
 0002:0001c7e0       ??_C@_1BO@BNMLPACJ@?$AA?5?$AAE?$AAn?$AAd?$AA?9?$AAo?$AAf?$AA?9?$AAT?$AAa?$AAb?$AAl?$AAe?$AA?5@ 0000000000083300     UefiShellDebug1CommandsLib:QueryTable.obj
 0002:0001c800       ??_C@_1CC@PHEMCIPO@?$AAU?$AAn?$AAd?$AAe?$AAf?$AAi?$AAn?$AAe?$AAd?$AA?5?$AAV?$AAa?$AAl?$AAu?$AAe@ 0000000000083320     UefiShellDebug1CommandsLib:QueryTable.obj
 0002:0001c828       ??_C@_17LPHJCAEE@?$AA?5?$AA?$HM?$AA?5@ 0000000000083348     UefiShellDebug1CommandsLib:QueryTable.obj
 0002:0001c830       ??_C@_15MDIDNHP@?$AA1?$AA9@ 0000000000083350     UefiShellDebug1CommandsLib:EventLogInfo.obj
 0002:0001c838       ??_C@_15PHKEAAFL@?$AA2?$AA0@ 0000000000083358     UefiShellDebug1CommandsLib:EventLogInfo.obj
 0002:0001c840       ??_C@_1BC@PMCLIFFJ@?$AAI?$AAn?$AAs?$AAt?$AAa?$AAl?$AAl?$AA1@ 0000000000083360     UefiShellInstall1CommandsLib:UefiShellInstall1CommandsLib.obj
 0002:0001c858       ??_C@_1BC@GCDGEHJC@?$AAn?$AAe?$AAt?$AAw?$AAo?$AAr?$AAk?$AA1@ 0000000000083378     UefiShellNetwork1CommandsLib:UefiShellNetwork1CommandsLib.obj
 0002:0001c870       ??_C@_19LBJHAIBB@?$AAp?$AAi?$AAn?$AAg@ 0000000000083390     UefiShellNetwork1CommandsLib:UefiShellNetwork1CommandsLib.obj
 0002:0001c880       ??_C@_1BC@BHCGFBDA@?$AAi?$AAf?$AAc?$AAo?$AAn?$AAf?$AAi?$AAg@ 00000000000833a0     UefiShellNetwork1CommandsLib:UefiShellNetwork1CommandsLib.obj
 0002:0001c898       gShellNetwork1FileName     00000000000833b8     UefiShellNetwork1CommandsLib:UefiShellNetwork1CommandsLib.obj
 0002:0001c8b8       ??_C@_17HMPMOCEB@?$AA?9?$AA_?$AAs@ 00000000000833d8     UefiShellNetwork1CommandsLib:Ping.obj
 0002:0001c8c0       ??_C@_1M@FLGNCPGP@?$AA?9?$AA_?$AAi?$AAp?$AA6@ 00000000000833e0     UefiShellNetwork1CommandsLib:Ping.obj
 0002:0001c8d0       ??_C@_0DD@HLEHBLHL@Private?9?$DOProtocolPointers?4Trans@ 00000000000833f0     UefiShellNetwork1CommandsLib:Ping.obj
 0002:0001c910       ??_C@_0FN@JNOHFGJF@D?3?2uefi_specs_personal_collecti@ 0000000000083430     UefiShellNetwork1CommandsLib:Ping.obj
 0002:0001c970       ??_C@_0BH@BFEOOCHJ@Private?9?$DOIpChoice?5?$DN?$DN?51@ 0000000000083490     UefiShellNetwork1CommandsLib:Ping.obj
 0002:0001c988       ??_C@_0BG@OBJJIHME@EfiSb?5?$CB?$DN?5?$CI?$CIvoid?5?$CK?$CJ?50?$CJ@ 00000000000834a8     UefiShellNetwork1CommandsLib:Ping.obj
 0002:0001ca00       ??_C@_1O@IPFBFMHG@?$AAs?$AAt?$AAa?$AAt?$AAi?$AAc@ 0000000000083520     UefiShellNetwork1CommandsLib:Ifconfig.obj
 0002:0001ca10       ??_C@_19CCCIFFOF@?$AAd?$AAh?$AAc?$AAp@ 0000000000083530     UefiShellNetwork1CommandsLib:Ifconfig.obj
 0002:0001ca20       ??_C@_17IFAIOPIP@?$AAd?$AAn?$AAs@ 0000000000083540     UefiShellNetwork1CommandsLib:Ifconfig.obj
 0002:0001ca28       ??_C@_0L@CLILBPOD@Size?5?$DM?$DN?532@ 0000000000083548     UefiShellNetwork1CommandsLib:Ifconfig.obj
 0002:0001ca40       ??_C@_0GB@CBCCPJKF@D?3?2uefi_specs_personal_collecti@ 0000000000083560     UefiShellNetwork1CommandsLib:Ifconfig.obj
 0002:0001caa8       ??_C@_1CG@GCGMOFLL@?$AAM?$AAe?$AAd?$AAi?$AAa?$AA?5?$AAd?$AAi?$AAs?$AAc?$AAo?$AAn?$AAn?$AAe?$AAc@ 00000000000835c8     UefiShellNetwork1CommandsLib:Ifconfig.obj
 0002:0001cad0       ??_C@_1BM@ODGIMFHP@?$AAM?$AAe?$AAd?$AAi?$AAa?$AA?5?$AAp?$AAr?$AAe?$AAs?$AAe?$AAn?$AAt@ 00000000000835f0     UefiShellNetwork1CommandsLib:Ifconfig.obj
 0002:0001caf0       ??_C@_1CI@GOABMHNO@?$AAM?$AAe?$AAd?$AAi?$AAa?$AA?5?$AAs?$AAt?$AAa?$AAt?$AAe?$AA?5?$AAu?$AAn?$AAk@ 0000000000083610     UefiShellNetwork1CommandsLib:Ifconfig.obj
 0002:0001cb18       ??_C@_1BA@DPNEJNHG@?$AAS?$AAu?$AAb?$AAn?$AAe?$AAt?$AA?5@ 0000000000083638     UefiShellNetwork1CommandsLib:Ifconfig.obj
 0002:0001cb28       ??_C@_1BA@GLEDMPLM@?$AAN?$AAe?$AAt?$AAm?$AAa?$AAs?$AAk@ 0000000000083648     UefiShellNetwork1CommandsLib:Ifconfig.obj
 0002:0001cb38       ??_C@_1BA@LCJJAKKF@?$AAG?$AAa?$AAt?$AAe?$AAw?$AAa?$AAy@ 0000000000083658     UefiShellNetwork1CommandsLib:Ifconfig.obj
 0002:0001cb60       ??_C@_0FP@MJKEJMKF@D?3?2uefi_specs_personal_collecti@ 0000000000083680     BaseMemoryLibRepStr:CompareMemWrapper.obj
 0002:0001cbc0       ??_C@_0BN@MDMCNBCC@SourceBuffer?5?$CB?$DN?5?$CI?$CIvoid?5?$CK?$CJ?50?$CJ@ 00000000000836e0     BaseMemoryLibRepStr:CompareMemWrapper.obj
 0002:0001cbe0       ??_C@_0FE@LIGPAOFO@D?3?2uefi_specs_personal_collecti@ 0000000000083700     BaseLib:DivU64x32Remainder.obj
 0002:0001cc40       ??_C@_0EL@HOOJOJMJ@D?3?2uefi_specs_personal_collecti@ 0000000000083760     BaseLib:QuickSort.obj
 0002:0001cc90       ??_C@_0CB@PMBBAAMG@BufferOneElement?5?$CB?$DN?5?$CI?$CIvoid?5?$CK?$CJ?50@ 00000000000837b0     BaseLib:QuickSort.obj
 0002:0001ccc0       ??_C@_0FE@JMCJLPOO@D?3?2uefi_specs_personal_collecti@ 00000000000837e0     BaseLib:DivU64x64Remainder.obj
 0002:0001cd18       ??_C@_0BA@DAGHIEBA@?$CIPort?5?$CG?51?$CJ?5?$DN?$DN?50@ 0000000000083838     BaseIoLibIntrinsicSev:IoLibMsc.obj
 0002:0001cd30       ??_C@_0FF@GCKLFLDF@D?3?2uefi_specs_personal_collecti@ 0000000000083850     BaseIoLibIntrinsicSev:IoLibMsc.obj
 0002:0001cd88       ??_C@_0BA@HCECIDGN@?$CIPort?5?$CG?53?$CJ?5?$DN?$DN?50@ 00000000000838a8     BaseIoLibIntrinsicSev:IoLibMsc.obj
 0002:0001cda0       ??_C@_0FC@MAJHMCGF@D?3?2uefi_specs_personal_collecti@ 00000000000838c0     BaseIoLibIntrinsicSev:IoLib.obj
 0002:0001cdf8       ??_C@_0BD@KOOFJLFH@?$CIAddress?5?$CG?51?$CJ?5?$DN?$DN?50@ 0000000000083918     BaseIoLibIntrinsicSev:IoLib.obj
 0002:0001ce10       ??_C@_0BD@OMMAJMCK@?$CIAddress?5?$CG?53?$CJ?5?$DN?$DN?50@ 0000000000083930     BaseIoLibIntrinsicSev:IoLib.obj
 0002:0001ce28       ??_C@_0BD@GIIKJCNA@?$CIAddress?5?$CG?57?$CJ?5?$DN?$DN?50@ 0000000000083948     BaseIoLibIntrinsicSev:IoLib.obj
 0002:0001ce40       ??_C@_0FN@DOAHIAPG@D?3?2uefi_specs_personal_collecti@ 0000000000083960     BaseIoLibIntrinsicSev:IoLibInternalTdx.obj
 0002:0001cea0       ??_C@_0EO@FMCPFLJA@D?3?2uefi_specs_personal_collecti@ 00000000000839c0     UefiLib:UefiLibPrint.obj
 0002:0001cef0       ??_C@_0CC@KPMNJIIF@?$CI?$CIUINTN?$CJFormat?5?$CG?50x00000001?$CJ?5?$DN?$DN@ 0000000000083a10     UefiLib:UefiLibPrint.obj
 0002:0001cf18       ??_C@_0BI@DIKLKBJC@Console?5?$CB?$DN?5?$CI?$CIvoid?5?$CK?$CJ?50?$CJ@ 0000000000083a38     UefiLib:UefiLibPrint.obj
 0002:0001cf30       ??_C@_0CJ@HBMCGOOM@StrSize?5?$CIBufferToReturn?$CJ?5?$DN?$DN?5Siz@ 0000000000083a50     UefiLib:UefiLibPrint.obj
 0002:0001cf60       ??_C@_0EO@FMFPDNNA@D?3?2uefi_specs_personal_collecti@ 0000000000083a80     UefiLib:UefiNotTiano.obj
 0002:0001cfb0       ??_C@_0CB@OKGFGBHJ@FvDevicePathNode?5?$CB?$DN?5?$CI?$CIvoid?5?$CK?$CJ?50@ 0000000000083ad0     UefiLib:UefiNotTiano.obj
 0002:0001cfd8       ??_C@_0BJ@OAAKNPEN@Pe32Data?5?$CB?$DN?5?$CI?$CIvoid?5?$CK?$CJ?50?$CJ@ 0000000000083af8     BasePeCoffGetEntryPointLib:PeCoffGetEntryPoint.obj
 0002:0001d000       ??_C@_0GI@BGLOKNAK@D?3?2uefi_specs_personal_collecti@ 0000000000083b20     BasePeCoffGetEntryPointLib:PeCoffGetEntryPoint.obj
 0002:0001d068       ??_C@_0CA@LDOGPNJA@OrderedCollectionIsEmpty?5?$CITree?$CJ@ 0000000000083b88     BaseOrderedCollectionRedBlackTreeLib:BaseOrderedCollectionRedBlackTreeLib.obj
 0002:0001d090       ??_C@_0ID@EMMHBEAG@D?3?2uefi_specs_personal_collecti@ 0000000000083bb0     BaseOrderedCollectionRedBlackTreeLib:BaseOrderedCollectionRedBlackTreeLib.obj
 0002:0001d118       ??_C@_0BO@JHGBLDAL@GrandParent?5?$DN?$DN?5Parent?9?$DOParent@ 0000000000083c38     BaseOrderedCollectionRedBlackTreeLib:BaseOrderedCollectionRedBlackTreeLib.obj
 0002:0001d138       ??_C@_0BI@LNFKHELA@Sibling?5?$CB?$DN?5?$CI?$CIvoid?5?$CK?$CJ?50?$CJ@ 0000000000083c58     BaseOrderedCollectionRedBlackTreeLib:BaseOrderedCollectionRedBlackTreeLib.obj
 0002:0001d150       ??_C@_0CE@BFPIJPIP@Sibling?9?$DOColor?5?$DN?$DN?5RedBlackTreeB@ 0000000000083c70     BaseOrderedCollectionRedBlackTreeLib:BaseOrderedCollectionRedBlackTreeLib.obj
 0002:0001d178       ??_C@_0BM@KOLHPPKJ@RightNephew?5?$CB?$DN?5?$CI?$CIvoid?5?$CK?$CJ?50?$CJ@ 0000000000083c98     BaseOrderedCollectionRedBlackTreeLib:BaseOrderedCollectionRedBlackTreeLib.obj
 0002:0001d198       ??_C@_0CG@DHIMMODJ@RightNephew?9?$DOColor?5?$DN?$DN?5RedBlackT@ 0000000000083cb8     BaseOrderedCollectionRedBlackTreeLib:BaseOrderedCollectionRedBlackTreeLib.obj
 0002:0001d1c0       ??_C@_0BL@KAEICEIJ@LeftNephew?5?$CB?$DN?5?$CI?$CIvoid?5?$CK?$CJ?50?$CJ@ 0000000000083ce0     BaseOrderedCollectionRedBlackTreeLib:BaseOrderedCollectionRedBlackTreeLib.obj
 0002:0001d1e0       ??_C@_0CF@JIPHGPLG@LeftNephew?9?$DOColor?5?$DN?$DN?5RedBlackTr@ 0000000000083d00     BaseOrderedCollectionRedBlackTreeLib:BaseOrderedCollectionRedBlackTreeLib.obj
 0002:0001d208       ??_C@_19JCAOHIEH@?$AAB?$AAo?$AAo?$AAt@ 0000000000083d28     UefiShellBcfgCommandLib:UefiShellBcfgCommandLib.obj
 0002:0001d218       ??_C@_1O@GAOCKAOK@?$AAD?$AAr?$AAi?$AAv?$AAe?$AAr@ 0000000000083d38     UefiShellBcfgCommandLib:UefiShellBcfgCommandLib.obj
 0002:0001d228       ??_C@_1O@CJIOJFKI@?$AA?$CF?$AAs?$AA?$CF?$AA0?$AA4?$AAx@ 0000000000083d48     UefiShellBcfgCommandLib:UefiShellBcfgCommandLib.obj
 0002:0001d238       ??_C@_0BN@OAGJBDOI@OriginalData?5?$CB?$DN?5?$CI?$CIvoid?5?$CK?$CJ?50?$CJ@ 0000000000083d58     UefiShellBcfgCommandLib:UefiShellBcfgCommandLib.obj
 0002:0001d260       ??_C@_0GL@HKMNILB@D?3?2uefi_specs_personal_collecti@ 0000000000083d80     UefiShellBcfgCommandLib:UefiShellBcfgCommandLib.obj
 0002:0001d2d0       ??_C@_1BE@CJHCMCEN@?$AA?$CF?$AAB?$AAo?$AAo?$AAt?$AA?$CF?$AA0?$AA4?$AAx@ 0000000000083df0     UefiShellBcfgCommandLib:UefiShellBcfgCommandLib.obj
 0002:0001d2e8       ??_C@_1BM@OGCIILMP@?$AAH?$AAa?$AAn?$AAd?$AAl?$AAe?$AA?5?$AAN?$AAu?$AAm?$AAb?$AAe?$AAr@ 0000000000083e08     UefiShellBcfgCommandLib:UefiShellBcfgCommandLib.obj
 0002:0001d308       ??_C@_19OPFPMHGB@?$AAb?$AAc?$AAf?$AAg@ 0000000000083e28     UefiShellBcfgCommandLib:UefiShellBcfgCommandLib.obj
 0002:0001d320       ??_C@_1EK@LKIONLFB@?$AAH?$AAa?$AAn?$AAd?$AAl?$AAe?$AA?5?$AAs?$AAh?$AAo?$AAu?$AAl?$AAd?$AA?5?$AAp@ 0000000000083e40     UefiShellBcfgCommandLib:UefiShellBcfgCommandLib.obj
 0002:0001d370       ??_C@_1EG@JKFBOBM@?$AAH?$AAa?$AAn?$AAd?$AAl?$AAe?$AA?5?$AAs?$AAh?$AAo?$AAu?$AAl?$AAd?$AA?5?$AAp@ 0000000000083e90     UefiShellBcfgCommandLib:UefiShellBcfgCommandLib.obj
 0002:0001d3b8       ??_C@_1BC@HAMKBGJJ@?$AAB?$AAo?$AAo?$AAt?$AA?$CF?$AA0?$AA4?$AAx@ 0000000000083ed8     UefiShellBcfgCommandLib:UefiShellBcfgCommandLib.obj
 0002:0001d3d0       ??_C@_1BG@IKNMHBCC@?$AAD?$AAr?$AAi?$AAv?$AAe?$AAr?$AA?$CF?$AA0?$AA4?$AAx@ 0000000000083ef0     UefiShellBcfgCommandLib:UefiShellBcfgCommandLib.obj
 0002:0001d3e8       ??_C@_1BE@CHCFCNKI@?$AAB?$AAo?$AAo?$AAt?$AAO?$AAr?$AAd?$AAe?$AAr@ 0000000000083f08     UefiShellBcfgCommandLib:UefiShellBcfgCommandLib.obj
 0002:0001d400       ??_C@_1BI@PDMCFEDG@?$AAD?$AAr?$AAi?$AAv?$AAe?$AAr?$AAO?$AAr?$AAd?$AAe?$AAr@ 0000000000083f20     UefiShellBcfgCommandLib:UefiShellBcfgCommandLib.obj
 0002:0001d418       ??_C@_1CI@FLOHBJHM@?$AAb?$AAc?$AAf?$AAg?$AA?3?$AA?5?$AAA?$AAd?$AAd?$AA?5?$AA?$CF?$AAs?$AA?5?$AAa?$AAs@ 0000000000083f38     UefiShellBcfgCommandLib:UefiShellBcfgCommandLib.obj
 0002:0001d440       ??_C@_1BK@NLJJBAJP@?$AAO?$AAp?$AAt?$AAi?$AAo?$AAn?$AA?5?$AAI?$AAn?$AAd?$AAe?$AAx@ 0000000000083f60     UefiShellBcfgCommandLib:UefiShellBcfgCommandLib.obj
 0002:0001d460       ??_C@_0BG@HLEJBMDK@Temp2?5?$CB?$DN?5?$CI?$CIvoid?5?$CK?$CJ?50?$CJ@ 0000000000083f80     UefiShellBcfgCommandLib:UefiShellBcfgCommandLib.obj
 0002:0001d478       ??_C@_0BK@FIHHKA@OptionIndex?5?$DM?$DN?5OrderCount@ 0000000000083f98     UefiShellBcfgCommandLib:UefiShellBcfgCommandLib.obj
 0002:0001d498       ??_C@_1BA@MLKFGFON@?$AAK?$AAe?$AAy?$AA?$CF?$AA0?$AA4?$AAx@ 0000000000083fb8     UefiShellBcfgCommandLib:UefiShellBcfgCommandLib.obj
 0002:0001d4a8       ??_C@_19EAGCJHPE@?$AA?9?$AAo?$AAp?$AAt@ 0000000000083fc8     UefiShellBcfgCommandLib:UefiShellBcfgCommandLib.obj
 0002:0001d4b8       ??_C@_1O@KNIGNIDC@?$AAd?$AAr?$AAi?$AAv?$AAe?$AAr@ 0000000000083fd8     UefiShellBcfgCommandLib:UefiShellBcfgCommandLib.obj
 0002:0001d4c8       ??_C@_19NNFDHLJH@?$AAb?$AAo?$AAo?$AAt@ 0000000000083fe8     UefiShellBcfgCommandLib:UefiShellBcfgCommandLib.obj
 0002:0001d4d8       ??_C@_19PPJMBAGP@?$AAd?$AAu?$AAm?$AAp@ 0000000000083ff8     UefiShellBcfgCommandLib:UefiShellBcfgCommandLib.obj
 0002:0001d4e8       ??_C@_1CE@HIJPIOH@?$AA?9?$AAv?$AA?5?$AA?$CI?$AAw?$AAi?$AAt?$AAh?$AAo?$AAu?$AAt?$AA?5?$AAd?$AAu?$AAm@ 0000000000084008     UefiShellBcfgCommandLib:UefiShellBcfgCommandLib.obj
 0002:0001d510       ??_C@_17KBLNKNKL@?$AAa?$AAd?$AAd@ 0000000000084030     UefiShellBcfgCommandLib:UefiShellBcfgCommandLib.obj
 0002:0001d518       ??_C@_0CK@FNHGLDIL@CurrentOperation?4FileName?5?$DN?$DN?5?$CI?$CI@ 0000000000084038     UefiShellBcfgCommandLib:UefiShellBcfgCommandLib.obj
 0002:0001d548       ??_C@_0CN@KKKPOPMN@CurrentOperation?4Description?5?$DN?$DN@ 0000000000084068     UefiShellBcfgCommandLib:UefiShellBcfgCommandLib.obj
 0002:0001d578       ??_C@_19IOKLLLFG@?$AAa?$AAd?$AAd?$AAp@ 0000000000084098     UefiShellBcfgCommandLib:UefiShellBcfgCommandLib.obj
 0002:0001d588       ??_C@_19BLAGMECG@?$AAa?$AAd?$AAd?$AAh@ 00000000000840a8     UefiShellBcfgCommandLib:UefiShellBcfgCommandLib.obj
 0002:0001d598       ??_C@_17JMNFEICH@?$AAm?$AAo?$AAd@ 00000000000840b8     UefiShellBcfgCommandLib:UefiShellBcfgCommandLib.obj
 0002:0001d5a0       ??_C@_19LMIPEPMN@?$AAm?$AAo?$AAd?$AAf@ 00000000000840c0     UefiShellBcfgCommandLib:UefiShellBcfgCommandLib.obj
 0002:0001d5b0       ??_C@_19MJPNEHIO@?$AAm?$AAo?$AAd?$AAp@ 00000000000840d0     UefiShellBcfgCommandLib:UefiShellBcfgCommandLib.obj
 0002:0001d5c0       ??_C@_19FMFADIPO@?$AAm?$AAo?$AAd?$AAh@ 00000000000840e0     UefiShellBcfgCommandLib:UefiShellBcfgCommandLib.obj
 0002:0001d620       ??_C@_0FB@OIFABBKD@D?3?2uefi_specs_personal_collecti@ 0000000000084140     DxeNetLib:DxeNetLib.obj
 0002:0001d678       ??_C@_0CI@KOOBFNBF@?$CIMaskLength?5?$DO?$DN?50?$CJ?5?$CG?$CG?5?$CIMaskLengt@ 0000000000084198     DxeNetLib:DxeNetLib.obj
 0002:0001d6a0       ??_C@_0BE@FCBOEPIJ@Ip6?5?$CB?$DN?5?$CI?$CIvoid?5?$CK?$CJ?50?$CJ@ 00000000000841c0     DxeNetLib:DxeNetLib.obj
 0002:0001d6b8       ??_C@_0BN@NHNKBDLL@MediaPresent?5?$CB?$DN?5?$CI?$CIvoid?5?$CK?$CJ?50?$CJ@ 00000000000841d8     DxeNetLib:DxeNetLib.obj
 0002:0001d6d8       ??_C@_0BM@CPKMECHF@MCastFilter?5?$CB?$DN?5?$CI?$CIvoid?5?$CK?$CJ?50?$CJ@ 00000000000841f8     DxeNetLib:DxeNetLib.obj
 0002:0001d700       gIp4AllMasks               0000000000084220     DxeNetLib:DxeNetLib.obj
 0002:0001d788       ??_C@_0CB@GEABOFIF@Failed?5call?5TDCALL_TDINFO?4?5?$CFllx@ 00000000000842a8     TdxLib:TdInfo.obj
 0002:0001d7b0       ??_C@_1BA@IBFPPJON@?$AAS?$AAy?$AAs?$AAP?$AAr?$AAe?$AAp@ 00000000000842d0     UefiBootManagerLib:BmLoadOption.obj
 0002:0001d7c0       ??_C@_1CC@LGMJPJO@?$AAP?$AAl?$AAa?$AAt?$AAf?$AAo?$AAr?$AAm?$AAR?$AAe?$AAc?$AAo?$AAv?$AAe?$AAr@ 00000000000842e0     UefiBootManagerLib:BmLoadOption.obj
 0002:0001d7f0       ??_C@_0FP@JDCHHJEA@D?3?2uefi_specs_personal_collecti@ 0000000000084310     UefiBootManagerLib:BmLoadOption.obj
 0002:0001d850       ??_C@_0BJ@DLOFCCCI@Variable?5?$CB?$DN?5?$CI?$CIvoid?5?$CK?$CJ?50?$CJ@ 0000000000084370     UefiBootManagerLib:BmLoadOption.obj
 0002:0001d870       ??_C@_0CM@MAOCOHA@String?5?$CB?$DN?5?$CI?$CIvoid?5?$CK?$CJ?50?$CJ?5?$CG?$CG?5MaxSt@ 0000000000084390     UefiBootManagerLib:BmLoadOption.obj
 0002:0001d8a0       mBmLoadOptionName          00000000000843c0     UefiBootManagerLib:BmLoadOption.obj
 0002:0001d8c0       ??_C@_0BO@DIMHDDCF@TotalSize?5?$DM?$DN?5?$CI?$CIUINT16?$CJ0xFFFF?$CJ@ 00000000000843e0     VariablePolicyHelperLib:VariablePolicyHelperLib.obj
 0002:0001d8e0       ??_C@_0GP@BKHIFNBC@D?3?2uefi_specs_personal_collecti@ 0000000000084400     VariablePolicyHelperLib:VariablePolicyHelperLib.obj
 0002:0001d9a4       __volatile_metadata        00000000000844c4     <linker-defined>
 0003:00000000       gEfiDriverDiagnostics2ProtocolGuid 0000000000084660     Shell:AutoGen.obj
 0003:00000010       gEfiResetArchProtocolGuid  0000000000084670     Shell:AutoGen.obj
 0003:00000020       gEfiAdapterInfoUndiIpv6SupportGuid 0000000000084680     Shell:AutoGen.obj
 0003:00000030       gEfiMmAccessProtocolGuid   0000000000084690     Shell:AutoGen.obj
 0003:00000040       gEfiMmStatusCodeProtocolGuid 00000000000846a0     Shell:AutoGen.obj
 0003:00000050       gEfiI2cMasterProtocolGuid  00000000000846b0     Shell:AutoGen.obj
 0003:00000060       gEfiAuthenticationInfoProtocolGuid 00000000000846c0     Shell:AutoGen.obj
 0003:00000070       gEfiMpServiceProtocolGuid  00000000000846d0     Shell:AutoGen.obj
 0003:00000080       gEfiSecurityPolicyProtocolGuid 00000000000846e0     Shell:AutoGen.obj
 0003:00000090       gEfiDriverHealthProtocolGuid 00000000000846f0     Shell:AutoGen.obj
 0003:000000a0       gEfiDns4ServiceBindingProtocolGuid 0000000000084700     Shell:AutoGen.obj
 0003:000000b0       gEfiBluetoothIoProtocolGuid 0000000000084710     Shell:AutoGen.obj
 0003:000000c0       gEfiUserCredentialProtocolGuid 0000000000084720     Shell:AutoGen.obj
 0003:000000d0       gEfiDhcp6ServiceBindingProtocolGuid 0000000000084730     Shell:AutoGen.obj
 0003:000000e0       gEfiPciRootBridgeIoProtocolGuid 0000000000084740     Shell:AutoGen.obj
 0003:000000f0       gEfiGlobalVariableGuid     0000000000084750     Shell:AutoGen.obj
 0003:00000100       gEfiMmRscHandlerProtocolGuid 0000000000084760     Shell:AutoGen.obj
 0003:00000110       gEfiAdapterInfoSanMacAddressGuid 0000000000084770     Shell:AutoGen.obj
 0003:00000120       gEfiJsonConfigDataTableGuid 0000000000084780     Shell:AutoGen.obj
 0003:00000130       gEfiRestProtocolGuid       0000000000084790     Shell:AutoGen.obj
 0003:00000140       gEfiSmmCommunicationProtocolGuid 00000000000847a0     Shell:AutoGen.obj
 0003:00000150       gEfiStatusCodeRuntimeProtocolGuid 00000000000847b0     Shell:AutoGen.obj
 0003:00000160       gEfiSmartCardReaderProtocolGuid 00000000000847c0     Shell:AutoGen.obj
 0003:00000170       gEfiPkcs7VerifyProtocolGuid 00000000000847d0     Shell:AutoGen.obj
 0003:00000180       gEfiSecurityArchProtocolGuid 00000000000847e0     Shell:AutoGen.obj
 0003:00000190       gEfiBluetoothHcProtocolGuid 00000000000847f0     Shell:AutoGen.obj
 0003:000001a0       gEfiDiskInfoProtocolGuid   0000000000084800     Shell:AutoGen.obj
 0003:000001b0       gEfiFirmwareVolumeBlockProtocolGuid 0000000000084810     Shell:AutoGen.obj
 0003:000001c0       gEfiEraseBlockProtocolGuid 0000000000084820     Shell:AutoGen.obj
 0003:000001d0       gEfiIpSecProtocolGuid      0000000000084830     Shell:AutoGen.obj
 0003:000001e0       gEfiDriverDiagnosticsProtocolGuid 0000000000084840     Shell:AutoGen.obj
 0003:000001f0       gEfiConsoleOutDeviceGuid   0000000000084850     Shell:AutoGen.obj
 0003:00000200       gEfiRamDiskProtocolGuid    0000000000084860     Shell:AutoGen.obj
 0003:00000210       gEfiI2cHostProtocolGuid    0000000000084870     Shell:AutoGen.obj
 0003:00000220       gEfiI2cIoProtocolGuid      0000000000084880     Shell:AutoGen.obj
 0003:00000230       gEfiPxeBaseCodeProtocolGuid 0000000000084890     Shell:AutoGen.obj
 0003:00000240       gShellLevel2HiiGuid        00000000000848a0     Shell:AutoGen.obj
 0003:00000250       gEfiEdidDiscoveredProtocolGuid 00000000000848b0     Shell:AutoGen.obj
 0003:00000260       ShellStrings               00000000000848c0     Shell:AutoGen.obj
 0003:00000818       gEfiEapProtocolGuid        0000000000084e78     Shell:AutoGen.obj
 0003:00000828       gEfiWatchdogTimerArchProtocolGuid 0000000000084e88     Shell:AutoGen.obj
 0003:00000838       gEfiExtScsiPassThruProtocolGuid 0000000000084e98     Shell:AutoGen.obj
 0003:00000848       gEfiMmSxDispatchProtocolGuid 0000000000084ea8     Shell:AutoGen.obj
 0003:00000858       gEfiMmGpiDispatchProtocolGuid 0000000000084eb8     Shell:AutoGen.obj
 0003:00000868       gEfiSmmUsbDispatch2ProtocolGuid 0000000000084ec8     Shell:AutoGen.obj
 0003:00000878       gEfiUsbHcProtocolGuid      0000000000084ed8     Shell:AutoGen.obj
 0003:00000888       gEfiDns4ProtocolGuid       0000000000084ee8     Shell:AutoGen.obj
 0003:00000898       gEfiLoadedImageDevicePathProtocolGuid 0000000000084ef8     Shell:AutoGen.obj
 0003:000008a8       gEfiIScsiInitiatorNameProtocolGuid 0000000000084f08     Shell:AutoGen.obj
 0003:000008b8       gShellBcfgHiiGuid          0000000000084f18     Shell:AutoGen.obj
 0003:000008c8       gEfiUnicodeCollation2ProtocolGuid 0000000000084f28     Shell:AutoGen.obj
 0003:000008d8       gEfiDriverSupportedEfiVersionProtocolGuid 0000000000084f38     Shell:AutoGen.obj
 0003:000008e8       gEfiKmsProtocolGuid        0000000000084f48     Shell:AutoGen.obj
 0003:000008f8       gEfiMpsTableGuid           0000000000084f58     Shell:AutoGen.obj
 0003:00000908       gEfiSmmStatusCodeProtocolGuid 0000000000084f68     Shell:AutoGen.obj
 0003:00000918       gEfiTlsProtocolGuid        0000000000084f78     Shell:AutoGen.obj
 0003:00000928       gEfiAtaPassThruProtocolGuid 0000000000084f88     Shell:AutoGen.obj
 0003:00000938       gEfiJsonCapsuleResultTableGuid 0000000000084f98     Shell:AutoGen.obj
 0003:00000948       gEfiRngProtocolGuid        0000000000084fa8     Shell:AutoGen.obj
 0003:00000958       gEfiBdsArchProtocolGuid    0000000000084fb8     Shell:AutoGen.obj
 0003:00000968       gEfiDxeMmReadyToLockProtocolGuid 0000000000084fc8     Shell:AutoGen.obj
 0003:00000978       gEfiSupplicantProtocolGuid 0000000000084fd8     Shell:AutoGen.obj
 0003:00000988       gEfiMtftp4ProtocolGuid     0000000000084fe8     Shell:AutoGen.obj
 0003:00000998       gEfiHiiPackageListProtocolGuid 0000000000084ff8     Shell:AutoGen.obj
 0003:000009a8       gEfiComponentName2ProtocolGuid 0000000000085008     Shell:AutoGen.obj
 0003:000009b8       gEfiIncompatiblePciDeviceSupportProtocolGuid 0000000000085018     Shell:AutoGen.obj
 0003:000009c8       gEfiPartTypeLegacyMbrGuid  0000000000085028     Shell:AutoGen.obj
 0003:000009d8       gEfiBlockIo2ProtocolGuid   0000000000085038     Shell:AutoGen.obj
 0003:000009e8       gEfiHash2ServiceBindingProtocolGuid 0000000000085048     Shell:AutoGen.obj
 0003:000009f8       gEfiSupplicantServiceBindingProtocolGuid 0000000000085058     Shell:AutoGen.obj
 0003:00000a08       gEfiImageSecurityDatabaseGuid 0000000000085068     Shell:AutoGen.obj
 0003:00000a18       gEfiVariableWriteArchProtocolGuid 0000000000085078     Shell:AutoGen.obj
 0003:00000a28       gEfiSdMmcPassThruProtocolGuid 0000000000085088     Shell:AutoGen.obj
 0003:00000a38       gEfiEapManagementProtocolGuid 0000000000085098     Shell:AutoGen.obj
 0003:00000a48       gEfiRegularExpressionProtocolGuid 00000000000850a8     Shell:AutoGen.obj
 0003:00000a58       gEfiTlsServiceBindingProtocolGuid 00000000000850b8     Shell:AutoGen.obj
 0003:00000a68       gEfiHttpProtocolGuid       00000000000850c8     Shell:AutoGen.obj
 0003:00000a78       gPcdProtocolGuid           00000000000850d8     Shell:AutoGen.obj
 0003:00000a88       gEfiDxeSmmReadyToLockProtocolGuid 00000000000850e8     Shell:AutoGen.obj
 0003:00000a98       gEfiSmmCpuProtocolGuid     00000000000850f8     Shell:AutoGen.obj
 0003:00000aa8       gEfiAdapterInformationProtocolGuid 0000000000085108     Shell:AutoGen.obj
 0003:00000ab8       gEfiSimpleTextOutProtocolGuid 0000000000085118     Shell:AutoGen.obj
 0003:00000ac8       gEfiVTUTF8Guid             0000000000085128     Shell:AutoGen.obj
 0003:00000ad8       gEfiLoadFileProtocolGuid   0000000000085138     Shell:AutoGen.obj
 0003:00000ae8       gEfiConfigKeywordHandlerProtocolGuid 0000000000085148     Shell:AutoGen.obj
 0003:00000af8       gEfiCapsuleArchProtocolGuid 0000000000085158     Shell:AutoGen.obj
 0003:00000b08       gEfiSmbusHcProtocolGuid    0000000000085168     Shell:AutoGen.obj
 0003:00000b18       gEfiDeferredImageLoadProtocolGuid 0000000000085178     Shell:AutoGen.obj
 0003:00000b28       gEfiUsb2HcProtocolGuid     0000000000085188     Shell:AutoGen.obj
 0003:00000b38       gEfiShellDynamicCommandProtocolGuid 0000000000085198     Shell:AutoGen.obj
 0003:00000b48       gEfiMtftp6ServiceBindingProtocolGuid 00000000000851a8     Shell:AutoGen.obj
 0003:00000b58       gEfiDhcp6ProtocolGuid      00000000000851b8     Shell:AutoGen.obj
 0003:00000b68       gEfiFileSystemInfoGuid     00000000000851c8     Shell:AutoGen.obj
 0003:00000b78       gEfiSimplePointerProtocolGuid 00000000000851d8     Shell:AutoGen.obj
 0003:00000b88       gEfiSmmCpuIo2ProtocolGuid  00000000000851e8     Shell:AutoGen.obj
 0003:00000b98       gEfiMmCpuIoProtocolGuid    00000000000851f8     Shell:AutoGen.obj
 0003:00000ba8       gEfiMmBaseProtocolGuid     0000000000085208     Shell:AutoGen.obj
 0003:00000bb8       gEfiRestExProtocolGuid     0000000000085218     Shell:AutoGen.obj
 0003:00000bc8       gEfiUserCredential2ProtocolGuid 0000000000085228     Shell:AutoGen.obj
 0003:00000bd8       gEfiDriverConfiguration2ProtocolGuid 0000000000085238     Shell:AutoGen.obj
 0003:00000be8       gShellLevel1HiiGuid        0000000000085248     Shell:AutoGen.obj
 0003:00000bf8       gEfiHiiImageExProtocolGuid 0000000000085258     Shell:AutoGen.obj
 0003:00000c08       gEfiSerialIoProtocolGuid   0000000000085268     Shell:AutoGen.obj
 0003:00000c18       gEfiDiskIoProtocolGuid     0000000000085278     Shell:AutoGen.obj
 0003:00000c28       gEfiVlanConfigProtocolGuid 0000000000085288     Shell:AutoGen.obj
 0003:00000c38       gEfiShellEnvironment2ExtGuid 0000000000085298     Shell:AutoGen.obj
 0003:00000c48       gEfiPciHotPlugRequestProtocolGuid 00000000000852a8     Shell:AutoGen.obj
 0003:00000c58       gEfiNetworkInterfaceIdentifierProtocolGuid_31 00000000000852b8     Shell:AutoGen.obj
 0003:00000c68       gEfiMmReadyToLockProtocolGuid 00000000000852c8     Shell:AutoGen.obj
 0003:00000c78       gEfiFirmwareVolumeBlock2ProtocolGuid 00000000000852d8     Shell:AutoGen.obj
 0003:00000c88       gEfiGetPcdInfoProtocolGuid 00000000000852e8     Shell:AutoGen.obj
 0003:00000c98       gEfiFileInfoGuid           00000000000852f8     Shell:AutoGen.obj
 0003:00000ca8       gEfiHashServiceBindingProtocolGuid 0000000000085308     Shell:AutoGen.obj
 0003:00000cb8       gEfiSioControlProtocolGuid 0000000000085318     Shell:AutoGen.obj
 0003:00000cc8       gEfiEbcProtocolGuid        0000000000085328     Shell:AutoGen.obj
 0003:00000cd8       gEfiSmmRscHandlerProtocolGuid 0000000000085338     Shell:AutoGen.obj
 0003:00000ce8       gEfiConfProfilesEbbrSpec22Guid 0000000000085348     Shell:AutoGen.obj
 0003:00000cf8       gEfiDhcp4ServiceBindingProtocolGuid 0000000000085358     Shell:AutoGen.obj
 0003:00000d08       gEfiNvmExpressPassThruProtocolGuid 0000000000085368     Shell:AutoGen.obj
 0003:00000d18       gEfiJsonCapsuleDataTableGuid 0000000000085378     Shell:AutoGen.obj
 0003:00000d28       gEfiRtPropertiesTableGuid  0000000000085388     Shell:AutoGen.obj
 0003:00000d38       gEfiVT100Guid              0000000000085398     Shell:AutoGen.obj
 0003:00000d48       gEfiDevicePathProtocolGuid 00000000000853a8     Shell:AutoGen.obj
 0003:00000d58       gEfiDriverFamilyOverrideProtocolGuid 00000000000853b8     Shell:AutoGen.obj
 0003:00000d68       gEfiPciIoProtocolGuid      00000000000853c8     Shell:AutoGen.obj
 0003:00000d78       gEfiLoadedImageProtocolGuid 00000000000853d8     Shell:AutoGen.obj
 0003:00000d88       gEfiPciHostBridgeResourceAllocationProtocolGuid 00000000000853e8     Shell:AutoGen.obj
 0003:00000d98       gEfiSmmGpiDispatch2ProtocolGuid 00000000000853f8     Shell:AutoGen.obj
 0003:00000da8       gEfiStandardErrorDeviceGuid 0000000000085408     Shell:AutoGen.obj
 0003:00000db8       gShellDebug1HiiGuid        0000000000085418     Shell:AutoGen.obj
 0003:00000dc8       gEfiFirmwareVolume2ProtocolGuid 0000000000085428     Shell:AutoGen.obj
 0003:00000dd8       gEfiMemoryAttributesTableGuid 0000000000085438     Shell:AutoGen.obj
 0003:00000de8       gEfiWiFi2ProtocolGuid      0000000000085448     Shell:AutoGen.obj
 0003:00000df8       gEfiIp6ConfigProtocolGuid  0000000000085458     Shell:AutoGen.obj
 0003:00000e08       gEfiBootManagerPolicyProtocolGuid 0000000000085468     Shell:AutoGen.obj
 0003:00000e18       gEfiMmPowerButtonDispatchProtocolGuid 0000000000085478     Shell:AutoGen.obj
 0003:00000e28       gEfiSmbiosProtocolGuid     0000000000085488     Shell:AutoGen.obj
 0003:00000e38       gEfiSimpleNetworkProtocolGuid 0000000000085498     Shell:AutoGen.obj
 0003:00000e48       gEfiSmmIoTrapDispatch2ProtocolGuid 00000000000854a8     Shell:AutoGen.obj
 0003:00000e58       gEfiBusSpecificDriverOverrideProtocolGuid 00000000000854b8     Shell:AutoGen.obj
 0003:00000e68       gEfiIpSec2ProtocolGuid     00000000000854c8     Shell:AutoGen.obj
 0003:00000e78       gEfiDevicePathToTextProtocolGuid 00000000000854d8     Shell:AutoGen.obj
 0003:00000e88       gEfiIsaHcProtocolGuid      00000000000854e8     Shell:AutoGen.obj
 0003:00000e98       gEfiLegacyRegion2ProtocolGuid 00000000000854f8     Shell:AutoGen.obj
 0003:00000ea8       gEfiUsbFunctionIoProtocolGuid 0000000000085508     Shell:AutoGen.obj
 0003:00000eb8       gEfiHiiConfigRoutingProtocolGuid 0000000000085518     Shell:AutoGen.obj
 0003:00000ec8       gEfiI2cBusConfigurationManagementProtocolGuid 0000000000085528     Shell:AutoGen.obj
 0003:00000ed8       gEfiAcpi10TableGuid        0000000000085538     Shell:AutoGen.obj
 0003:00000ee8       gEfiEapConfigurationProtocolGuid 0000000000085548     Shell:AutoGen.obj
 0003:00000ef8       gEfiWiFiProtocolGuid       0000000000085558     Shell:AutoGen.obj
 0003:00000f08       gEfiMmSwDispatchProtocolGuid 0000000000085568     Shell:AutoGen.obj
 0003:00000f18       gEfiS3SmmSaveStateProtocolGuid 0000000000085578     Shell:AutoGen.obj
 0003:00000f28       gEfiPciOverrideProtocolGuid 0000000000085588     Shell:AutoGen.obj
 0003:00000f38       gEfiPcdProtocolGuid        0000000000085598     Shell:AutoGen.obj
 0003:00000f48       gEfiSimpleTextInputExProtocolGuid 00000000000855a8     Shell:AutoGen.obj
 0003:00000f58       gShellDriver1HiiGuid       00000000000855b8     Shell:AutoGen.obj
 0003:00000f68       gEfiHiiPopupProtocolGuid   00000000000855c8     Shell:AutoGen.obj
 0003:00000f78       gEfiHttpUtilitiesProtocolGuid 00000000000855d8     Shell:AutoGen.obj
 0003:00000f88       gEfiFirmwareManagementProtocolGuid 00000000000855e8     Shell:AutoGen.obj
 0003:00000f98       gEfiSmmPowerButtonDispatch2ProtocolGuid 00000000000855f8     Shell:AutoGen.obj
 0003:00000fa8       gShellNetwork1HiiGuid      0000000000085608     Shell:AutoGen.obj
 0003:00000fb8       gEfiDns6ServiceBindingProtocolGuid 0000000000085618     Shell:AutoGen.obj
 0003:00000fc8       gEfiSimpleTextInProtocolGuid 0000000000085628     Shell:AutoGen.obj
 0003:00000fd8       gEfiFtp4ServiceBindingProtocolGuid 0000000000085638     Shell:AutoGen.obj
 0003:00000fe8       gEfiPxeBaseCodeCallbackProtocolGuid 0000000000085648     Shell:AutoGen.obj
 0003:00000ff8       gEfiUdp4ServiceBindingProtocolGuid 0000000000085658     Shell:AutoGen.obj
 0003:00001008       gEfiUsbIoProtocolGuid      0000000000085668     Shell:AutoGen.obj
 0003:00001018       gEfiResetNotificationProtocolGuid 0000000000085678     Shell:AutoGen.obj
 0003:00001028       gEfiAdapterInfoNetworkBootGuid 0000000000085688     Shell:AutoGen.obj
 0003:00001038       gEfiIp4Config2ProtocolGuid 0000000000085698     Shell:AutoGen.obj
 0003:00001048       gEfiCpuArchProtocolGuid    00000000000856a8     Shell:AutoGen.obj
 0003:00001058       gEfiPartitionInfoProtocolGuid 00000000000856b8     Shell:AutoGen.obj
 0003:00001068       gEfiSmmControl2ProtocolGuid 00000000000856c8     Shell:AutoGen.obj
 0003:00001078       gEfiBlockIoCryptoProtocolGuid 00000000000856d8     Shell:AutoGen.obj
 0003:00001088       gEfiPlatformToDriverConfigurationProtocolGuid 00000000000856e8     Shell:AutoGen.obj
 0003:00001098       gEfiHiiImageProtocolGuid   00000000000856f8     Shell:AutoGen.obj
 0003:000010a8       gEfiBisProtocolGuid        0000000000085708     Shell:AutoGen.obj
 0003:000010b8       gEfiMtftp6ProtocolGuid     0000000000085718     Shell:AutoGen.obj
 0003:000010c8       gEfiS3SaveStateProtocolGuid 0000000000085728     Shell:AutoGen.obj
 0003:000010d8       gEfiSioProtocolGuid        0000000000085738     Shell:AutoGen.obj
 0003:000010e8       gEfiDevicePathUtilitiesProtocolGuid 0000000000085748     Shell:AutoGen.obj
 0003:000010f8       gEfiIp4ServiceBindingProtocolGuid 0000000000085758     Shell:AutoGen.obj
 0003:00001108       gEfiI2cEnumerateProtocolGuid 0000000000085768     Shell:AutoGen.obj
 0003:00001118       gEfiDebugImageInfoTableGuid 0000000000085778     Shell:AutoGen.obj
 0003:00001128       gEfiPciEnumerationCompleteProtocolGuid 0000000000085788     Shell:AutoGen.obj
 0003:00001138       gEfiDevicePathFromTextProtocolGuid 0000000000085798     Shell:AutoGen.obj
 0003:00001148       gEfiGraphicsOutputProtocolGuid 00000000000857a8     Shell:AutoGen.obj
 0003:00001158       gEfiTapeIoProtocolGuid     00000000000857b8     Shell:AutoGen.obj
 0003:00001168       gEfiUdp6ProtocolGuid       00000000000857c8     Shell:AutoGen.obj
 0003:00001178       gEfiShellParametersProtocolGuid 00000000000857d8     Shell:AutoGen.obj
 0003:00001188       gEfiHiiDatabaseProtocolGuid 00000000000857e8     Shell:AutoGen.obj
 0003:00001198       gEfiRedfishDiscoverProtocolGuid 00000000000857f8     Shell:AutoGen.obj
 0003:000011a8       gEfiRscHandlerProtocolGuid 0000000000085808     Shell:AutoGen.obj
 0003:000011b8       gEfiSimpleFileSystemProtocolGuid 0000000000085818     Shell:AutoGen.obj
 0003:000011c8       gEfiSmbios3TableGuid       0000000000085828     Shell:AutoGen.obj
 0003:000011d8       gEfiMmCommunicationProtocolGuid 0000000000085838     Shell:AutoGen.obj
 0003:000011e8       gEfiMmStandbyButtonDispatchProtocolGuid 0000000000085848     Shell:AutoGen.obj
 0003:000011f8       gEfiHiiStringProtocolGuid  0000000000085858     Shell:AutoGen.obj
 0003:00001208       gEfiPciHotPlugInitProtocolGuid 0000000000085868     Shell:AutoGen.obj
 0003:00001218       gEfiUdp6ServiceBindingProtocolGuid 0000000000085878     Shell:AutoGen.obj
 0003:00001228       gEfiIp6ServiceBindingProtocolGuid 0000000000085888     Shell:AutoGen.obj
 0003:00001238       gEfiUgaDrawProtocolGuid    0000000000085898     Shell:AutoGen.obj
 0003:00001248       gEfiBluetoothConfigProtocolGuid 00000000000858a8     Shell:AutoGen.obj
 0003:00001258       gEfiSmartCardEdgeProtocolGuid 00000000000858b8     Shell:AutoGen.obj
 0003:00001268       gEfiTimestampProtocolGuid  00000000000858c8     Shell:AutoGen.obj
 0003:00001278       gEfiTcg2ProtocolGuid       00000000000858d8     Shell:AutoGen.obj
 0003:00001288       gEfiNetworkInterfaceIdentifierProtocolGuid 00000000000858e8     Shell:AutoGen.obj
 0003:00001298       gEfiVT100PlusGuid          00000000000858f8     Shell:AutoGen.obj
 0003:000012a8       gEfiRuntimeArchProtocolGuid 0000000000085908     Shell:AutoGen.obj
 0003:000012b8       gEfiEapManagement2ProtocolGuid 0000000000085918     Shell:AutoGen.obj
 0003:000012c8       gEfiAcpiTableProtocolGuid  0000000000085928     Shell:AutoGen.obj
 0003:000012d8       gEfiBluetoothLeConfigProtocolGuid 0000000000085938     Shell:AutoGen.obj
 0003:000012e8       gEfiAcpiSdtProtocolGuid    0000000000085948     Shell:AutoGen.obj
 0003:000012f8       gEfiSmbiosTableGuid        0000000000085958     Shell:AutoGen.obj
 0003:00001308       gEfiMetronomeArchProtocolGuid 0000000000085968     Shell:AutoGen.obj
 0003:00001318       gEfiShellEnvironment2Guid  0000000000085978     Shell:AutoGen.obj
 0003:00001328       gEfiUnicodeCollationProtocolGuid 0000000000085988     Shell:AutoGen.obj
 0003:00001338       gEfiSmmReadyToLockProtocolGuid 0000000000085998     Shell:AutoGen.obj
 0003:00001348       gEfiPartTypeSystemPartGuid 00000000000859a8     Shell:AutoGen.obj
 0003:00001358       gEfiDns6ProtocolGuid       00000000000859b8     Shell:AutoGen.obj
 0003:00001368       gEfiScsiPassThruProtocolGuid 00000000000859c8     Shell:AutoGen.obj
 0003:00001378       gEfiEdidActiveProtocolGuid 00000000000859d8     Shell:AutoGen.obj
 0003:00001388       gEfiHiiConfigAccessProtocolGuid 00000000000859e8     Shell:AutoGen.obj
 0003:00001398       gEfiTimerArchProtocolGuid  00000000000859f8     Shell:AutoGen.obj
 0003:000013a8       gEfiHttpServiceBindingProtocolGuid 0000000000085a08     Shell:AutoGen.obj
 0003:000013b8       gEfiHobListGuid            0000000000085a18     Shell:AutoGen.obj
 0003:000013c8       gEfiUserManagerProtocolGuid 0000000000085a28     Shell:AutoGen.obj
 0003:000013d8       gEfiHiiImageDecoderProtocolGuid 0000000000085a38     Shell:AutoGen.obj
 0003:000013e8       gEfiIp4ProtocolGuid        0000000000085a48     Shell:AutoGen.obj
 0003:000013f8       gEfiDebugPortProtocolGuid  0000000000085a58     Shell:AutoGen.obj
 0003:00001408       gEfiBluetoothAttributeProtocolGuid 0000000000085a68     Shell:AutoGen.obj
 0003:00001418       gEfiMmPciRootBridgeIoProtocolGuid 0000000000085a78     Shell:AutoGen.obj
 0003:00001428       gEfiPciPlatformProtocolGuid 0000000000085a88     Shell:AutoGen.obj
 0003:00001438       gEfiAdapterInfoMediaStateGuid 0000000000085a98     Shell:AutoGen.obj
 0003:00001448       gEfiDriverConfigurationProtocolGuid 0000000000085aa8     Shell:AutoGen.obj
 0003:00001458       gEfiConsoleInDeviceGuid    0000000000085ab8     Shell:AutoGen.obj
 0003:00001468       gEfiSmmPeriodicTimerDispatch2ProtocolGuid 0000000000085ac8     Shell:AutoGen.obj
 0003:00001478       gEfiTcgProtocolGuid        0000000000085ad8     Shell:AutoGen.obj
 0003:00001488       gEfiHash2ProtocolGuid      0000000000085ae8     Shell:AutoGen.obj
 0003:00001498       gShellVariableGuid         0000000000085af8     Shell:AutoGen.obj
 0003:000014a8       gEfiIp4ConfigProtocolGuid  0000000000085b08     Shell:AutoGen.obj
 0003:000014b8       gEfiDiskIo2ProtocolGuid    0000000000085b18     Shell:AutoGen.obj
 0003:000014c8       gEfiManagedNetworkServiceBindingProtocolGuid 0000000000085b28     Shell:AutoGen.obj
 0003:000014d8       gEfiHashProtocolGuid       0000000000085b38     Shell:AutoGen.obj
 0003:000014e8       gEfiDebugSupportProtocolGuid 0000000000085b48     Shell:AutoGen.obj
 0003:000014f8       gEfiFormBrowser2ProtocolGuid 0000000000085b58     Shell:AutoGen.obj
 0003:00001508       gEfiSystemResourceTableGuid 0000000000085b68     Shell:AutoGen.obj
 0003:00001518       gEfiBluetoothAttributeServiceBindingProtocolGuid 0000000000085b78     Shell:AutoGen.obj
 0003:00001528       gEfiMtftp4ServiceBindingProtocolGuid 0000000000085b88     Shell:AutoGen.obj
 0003:00001538       gEfiDriverBindingProtocolGuid 0000000000085b98     Shell:AutoGen.obj
 0003:00001548       gShellAliasGuid            0000000000085ba8     Shell:AutoGen.obj
 0003:00001558       gEfiMmConfigurationProtocolGuid 0000000000085bb8     Shell:AutoGen.obj
 0003:00001568       gEfiShellProtocolGuid      0000000000085bc8     Shell:AutoGen.obj
 0003:00001578       gEfiArpServiceBindingProtocolGuid 0000000000085bd8     Shell:AutoGen.obj
 0003:00001588       gEfiRealTimeClockArchProtocolGuid 0000000000085be8     Shell:AutoGen.obj
 0003:00001598       gEfiUdp4ProtocolGuid       0000000000085bf8     Shell:AutoGen.obj
 0003:000015a8       gEfiConfProfilesUefiSpecGuid 0000000000085c08     Shell:AutoGen.obj
 0003:000015b8       gEfiIp6ProtocolGuid        0000000000085c18     Shell:AutoGen.obj
 0003:000015c8       gEfiHttpBootCallbackProtocolGuid 0000000000085c28     Shell:AutoGen.obj
 0003:000015d8       gEfiCpuIo2ProtocolGuid     0000000000085c38     Shell:AutoGen.obj
 0003:000015e8       gEfiSecurity2ArchProtocolGuid 0000000000085c48     Shell:AutoGen.obj
 0003:000015f8       gEfiAcpi20TableGuid        0000000000085c58     Shell:AutoGen.obj
 0003:00001608       gEfiSmmEndOfDxeProtocolGuid 0000000000085c68     Shell:AutoGen.obj
 0003:00001618       gEfiFtp4ProtocolGuid       0000000000085c78     Shell:AutoGen.obj
 0003:00001628       gEfiTcp4ServiceBindingProtocolGuid 0000000000085c88     Shell:AutoGen.obj
 0003:00001638       gEfiMmUsbDispatchProtocolGuid 0000000000085c98     Shell:AutoGen.obj
 0003:00001648       gEfiMmCpuProtocolGuid      0000000000085ca8     Shell:AutoGen.obj
 0003:00001658       gEfiIdeControllerInitProtocolGuid 0000000000085cb8     Shell:AutoGen.obj
 0003:00001668       gEfiStorageSecurityCommandProtocolGuid 0000000000085cc8     Shell:AutoGen.obj
 0003:00001678       gEfiMonotonicCounterArchProtocolGuid 0000000000085cd8     Shell:AutoGen.obj
 0003:00001688       gEfiComponentNameProtocolGuid 0000000000085ce8     Shell:AutoGen.obj
 0003:00001698       gEfiMmControlProtocolGuid  0000000000085cf8     Shell:AutoGen.obj
 0003:000016a8       gEfiBlockIoProtocolGuid    0000000000085d08     Shell:AutoGen.obj
 0003:000016b8       gEfiSmmBase2ProtocolGuid   0000000000085d18     Shell:AutoGen.obj
 0003:000016c8       gEfiPlatformDriverOverrideProtocolGuid 0000000000085d28     Shell:AutoGen.obj
 0003:000016d8       gEfiDxeServicesTableGuid   0000000000085d38     Shell:AutoGen.obj
 0003:000016e8       gEfiScsiIoProtocolGuid     0000000000085d48     Shell:AutoGen.obj
 0003:000016f8       gEfiSasDevicePathGuid      0000000000085d58     Shell:AutoGen.obj
 0003:00001708       gEfiDecompressProtocolGuid 0000000000085d68     Shell:AutoGen.obj
 0003:00001718       gEfiDeviceIoProtocolGuid   0000000000085d78     Shell:AutoGen.obj
 0003:00001728       gEfiSmmSxDispatch2ProtocolGuid 0000000000085d88     Shell:AutoGen.obj
 0003:00001738       gEfiSmmStandbyButtonDispatch2ProtocolGuid 0000000000085d98     Shell:AutoGen.obj
 0003:00001748       gEfiTlsConfigurationProtocolGuid 0000000000085da8     Shell:AutoGen.obj
 0003:00001758       gEfiCallerIdGuid           0000000000085db8     Shell:AutoGen.obj
 0003:00001768       gEfiIsaHcServiceBindingProtocolGuid 0000000000085dc8     Shell:AutoGen.obj
 0003:00001778       gEfiUgaIoProtocolGuid      0000000000085dd8     Shell:AutoGen.obj
 0003:00001788       gEfiDhcp4ProtocolGuid      0000000000085de8     Shell:AutoGen.obj
 0003:00001798       gEfiConfProfilesTableGuid  0000000000085df8     Shell:AutoGen.obj
 0003:000017a8       gEfiMmEndOfDxeProtocolGuid 0000000000085e08     Shell:AutoGen.obj
 0003:000017b8       gEfiSmmAccess2ProtocolGuid 0000000000085e18     Shell:AutoGen.obj
 0003:000017c8       gEfiUfsDeviceConfigProtocolGuid 0000000000085e28     Shell:AutoGen.obj
 0003:000017d8       gGetPcdInfoProtocolGuid    0000000000085e38     Shell:AutoGen.obj
 0003:000017e8       gEfiSmmSwDispatch2ProtocolGuid 0000000000085e48     Shell:AutoGen.obj
 0003:000017f8       gEfiTcp6ServiceBindingProtocolGuid 0000000000085e58     Shell:AutoGen.obj
 0003:00001808       gEfiSmmPciRootBridgeIoProtocolGuid 0000000000085e68     Shell:AutoGen.obj
 0003:00001818       gEfiSmmConfigurationProtocolGuid 0000000000085e78     Shell:AutoGen.obj
 0003:00001828       gEfiManagedNetworkProtocolGuid 0000000000085e88     Shell:AutoGen.obj
 0003:00001838       gEfiPcAnsiGuid             0000000000085e98     Shell:AutoGen.obj
 0003:00001848       gEfiEdidOverrideProtocolGuid 0000000000085ea8     Shell:AutoGen.obj
 0003:00001858       gEfiIpSecConfigProtocolGuid 0000000000085eb8     Shell:AutoGen.obj
 0003:00001868       gEfiMmPeriodicTimerDispatchProtocolGuid 0000000000085ec8     Shell:AutoGen.obj
 0003:00001878       gEfiArpProtocolGuid        0000000000085ed8     Shell:AutoGen.obj
 0003:00001888       gEfiTcp6ProtocolGuid       0000000000085ee8     Shell:AutoGen.obj
 0003:00001898       gEfiShellInterfaceGuid     0000000000085ef8     Shell:AutoGen.obj
 0003:000018a8       gEfiConfProfilesEbbrSpec21Guid 0000000000085f08     Shell:AutoGen.obj
 0003:000018b8       gEdkiiVariablePolicyProtocolGuid 0000000000085f18     Shell:AutoGen.obj
 0003:000018c8       gEfiAbsolutePointerProtocolGuid 0000000000085f28     Shell:AutoGen.obj
 0003:000018d8       gEfiTcp4ProtocolGuid       0000000000085f38     Shell:AutoGen.obj
 0003:000018e8       gEfiVariableArchProtocolGuid 0000000000085f48     Shell:AutoGen.obj
 0003:000018f8       gEfiHiiFontProtocolGuid    0000000000085f58     Shell:AutoGen.obj
 0003:00001908       gEfiMmIoTrapDispatchProtocolGuid 0000000000085f68     Shell:AutoGen.obj
 0003:00001918       gEfiLoadFile2ProtocolGuid  0000000000085f78     Shell:AutoGen.obj
 0003:00001928       gEfiBluetoothIoServiceBindingProtocolGuid 0000000000085f88     Shell:AutoGen.obj
 0003:00001938       gShellLevel3HiiGuid        0000000000085f98     Shell:AutoGen.obj
 0003:00001948       gHandleParsingHiiGuid      0000000000085fa8     Shell:AutoGen.obj
 0003:00001960       ShellInfoObject            0000000000085fc0     Shell:Shell.obj
 0003:00001aa0       mShellProtocol             0000000000086100     Shell:ShellProtocol.obj
 0003:00001c10       FileInterfaceNulFile       0000000000086270     Shell:FileHandleWrappers.obj
 0003:00001c90       FileInterfaceStdOut        00000000000862f0     Shell:FileHandleWrappers.obj
 0003:00001d10       FileInterfaceStdErr        0000000000086370     Shell:FileHandleWrappers.obj
 0003:00001d90       FileInterfaceStdIn         00000000000863f0     Shell:FileHandleWrappers.obj
 0003:00001e08       mShellManHiiDevicePath     0000000000086468     Shell:ShellManParser.obj
 0003:00001e20       EmptyParamList             0000000000086480     UefiShellLib:UefiShellLib.obj
 0003:00001e30       SfoParamList               0000000000086490     UefiShellLib:UefiShellLib.obj
 0003:00001e50       UefiHandleParsingLibStrings 00000000000864b0     UefiHandleParsingLib:AutoGen.obj
 0003:00006450       mMTDName                   000000000008aab0     UefiShellCommandLib:ConsistMapping.obj
 0003:000064a0       DevPathConsistMappingTable 000000000008ab00     UefiShellCommandLib:ConsistMapping.obj
 0003:000066a0       UefiShellLevel2CommandsLibStrings 000000000008ad00     UefiShellLevel2CommandsLib:AutoGen.obj
 0003:00019fa0       mDayOfMonth                000000000009e600     UefiShellLevel2CommandsLib:Ls.obj
 0003:0001a000       UefiShellLevel1CommandsLibStrings 000000000009e660     UefiShellLevel1CommandsLib:AutoGen.obj
 0003:00022670       UefiShellLevel3CommandsLibStrings 00000000000a6cd0     UefiShellLevel3CommandsLib:AutoGen.obj
 0003:0002aa20       UefiShellDriver1CommandsLibStrings 00000000000af080     UefiShellDriver1CommandsLib:AutoGen.obj
 0003:00037548       PCIBlankEntry              00000000000bbba8     UefiShellDebug1CommandsLib:Pci.obj
 0003:00037580       PcieExplainList            00000000000bbbe0     UefiShellDebug1CommandsLib:Pci.obj
 0003:00037800       PCIPIFClass_0801           00000000000bbe60     UefiShellDebug1CommandsLib:Pci.obj
 0003:00037860       PCIPIFClass_0701           00000000000bbec0     UefiShellDebug1CommandsLib:Pci.obj
 0003:000378f0       PCISubClass_0a             00000000000bbf50     UefiShellDebug1CommandsLib:Pci.obj
 0003:00037940       PCIPIFClass_0101           00000000000bbfa0     UefiShellDebug1CommandsLib:Pci.obj
 0003:00037c60       gClassStringList           00000000000bc2c0     UefiShellDebug1CommandsLib:Pci.obj
 0003:00037e70       PCISubClass_01             00000000000bc4d0     UefiShellDebug1CommandsLib:Pci.obj
 0003:00037f90       PCIPIFClass_0800           00000000000bc5f0     UefiShellDebug1CommandsLib:Pci.obj
 0003:00038020       PCIPIFClass_0100           00000000000bc680     UefiShellDebug1CommandsLib:Pci.obj
 0003:000380b0       PCISubClass_07             00000000000bc710     UefiShellDebug1CommandsLib:Pci.obj
 0003:00038170       PCISubClass_06             00000000000bc7d0     UefiShellDebug1CommandsLib:Pci.obj
 0003:000382c0       PCIPIFClass_060b           00000000000bc920     UefiShellDebug1CommandsLib:Pci.obj
 0003:00038310       PCIPIFClass_0c03           00000000000bc970     UefiShellDebug1CommandsLib:Pci.obj
 0003:000383c0       PCISubClass_05             00000000000bca20     UefiShellDebug1CommandsLib:Pci.obj
 0003:00038420       PCIPIFClass_0703           00000000000bca80     UefiShellDebug1CommandsLib:Pci.obj
 0003:000384b0       PCISubClass_0e             00000000000bcb10     UefiShellDebug1CommandsLib:Pci.obj
 0003:000384e0       PCIPIFClass_0108           00000000000bcb40     UefiShellDebug1CommandsLib:Pci.obj
 0003:00038540       PCIPIFClass_0d01           00000000000bcba0     UefiShellDebug1CommandsLib:Pci.obj
 0003:00038590       PCIPIFClass_0107           00000000000bcbf0     UefiShellDebug1CommandsLib:Pci.obj
 0003:000385e0       PCIPIFClass_0106           00000000000bcc40     UefiShellDebug1CommandsLib:Pci.obj
 0003:00038640       PCISubClass_11             00000000000bcca0     UefiShellDebug1CommandsLib:Pci.obj
 0003:000386d0       PCISubClass_02             00000000000bcd30     UefiShellDebug1CommandsLib:Pci.obj
 0003:000387c0       PCIPIFClass_0803           00000000000bce20     UefiShellDebug1CommandsLib:Pci.obj
 0003:00038820       PCISubClass_0c             00000000000bce80     UefiShellDebug1CommandsLib:Pci.obj
 0003:00038940       PCISubClass_09             00000000000bcfa0     UefiShellDebug1CommandsLib:Pci.obj
 0003:000389f0       PCIPIFClass_0802           00000000000bd050     UefiShellDebug1CommandsLib:Pci.obj
 0003:00038a50       PCISubClass_03             00000000000bd0b0     UefiShellDebug1CommandsLib:Pci.obj
 0003:00038ad0       PCIPIFClass_0604           00000000000bd130     UefiShellDebug1CommandsLib:Pci.obj
 0003:00038b18       PCISubClass_12             00000000000bd178     UefiShellDebug1CommandsLib:Pci.obj
 0003:00038b50       PCISubClass_0f             00000000000bd1b0     UefiShellDebug1CommandsLib:Pci.obj
 0003:00038be0       PCIPIFClass_0c00           00000000000bd240     UefiShellDebug1CommandsLib:Pci.obj
 0003:00038c28       PCISubClass_13             00000000000bd288     UefiShellDebug1CommandsLib:Pci.obj
 0003:00038c60       PCIPIFClass_0c07           00000000000bd2c0     UefiShellDebug1CommandsLib:Pci.obj
 0003:00038cc0       PCIPIFClass_0904           00000000000bd320     UefiShellDebug1CommandsLib:Pci.obj
 0003:00038d10       PCIPIFClass_0609           00000000000bd370     UefiShellDebug1CommandsLib:Pci.obj
 0003:00038d60       PCIPIFClass_0109           00000000000bd3c0     UefiShellDebug1CommandsLib:Pci.obj
 0003:00038db0       PCIPIFClass_0700           00000000000bd410     UefiShellDebug1CommandsLib:Pci.obj
 0003:00038e70       PCISubClass_04             00000000000bd4d0     UefiShellDebug1CommandsLib:Pci.obj
 0003:00038f00       PCISubClass_00             00000000000bd560     UefiShellDebug1CommandsLib:Pci.obj
 0003:00038f50       PCIPIFClass_0e00           00000000000bd5b0     UefiShellDebug1CommandsLib:Pci.obj
 0003:00038fa0       PCIPIFClass_0300           00000000000bd600     UefiShellDebug1CommandsLib:Pci.obj
 0003:00038ff0       PCISubClass_08             00000000000bd650     UefiShellDebug1CommandsLib:Pci.obj
 0003:000390e0       PCISubClass_10             00000000000bd740     UefiShellDebug1CommandsLib:Pci.obj
 0003:00039140       PCISubClass_0b             00000000000bd7a0     UefiShellDebug1CommandsLib:Pci.obj
 0003:00039220       PCISubClass_0d             00000000000bd880     UefiShellDebug1CommandsLib:Pci.obj
 0003:00039300       PCIPIFClass_0105           00000000000bd960     UefiShellDebug1CommandsLib:Pci.obj
 0003:00039350       UefiShellDebug1CommandsLibStrings 00000000000bd9b0     UefiShellDebug1CommandsLib:AutoGen.obj
 0003:00057660       gShowType                  00000000000dbcc0     UefiShellDebug1CommandsLib:SmbiosView.obj
 0003:00057670       HMainEditorConst           00000000000dbcd0     UefiShellDebug1CommandsLib:MainHexEditor.obj
 0003:000576c0       HexMainControlBasedMenuFunctions 00000000000dbd20     UefiShellDebug1CommandsLib:MainHexEditor.obj
 0003:000577a0       HBufferImageConst          00000000000dbe00     UefiShellDebug1CommandsLib:BufferImage.obj
 0003:00057830       MainControlBasedMenuFunctions 00000000000dbe90     UefiShellDebug1CommandsLib:MainTextEditor.obj
 0003:00057910       MainMenuItems              00000000000dbf70     UefiShellDebug1CommandsLib:MainTextEditor.obj
 0003:000579c0       MainEditorConst            00000000000dc020     UefiShellDebug1CommandsLib:MainTextEditor.obj
 0003:00057a10       FileBufferConst            00000000000dc070     UefiShellDebug1CommandsLib:FileBuffer.obj
 0003:00057a90       SESecurityStatusTable      00000000000dc0f0     UefiShellDebug1CommandsLib:QueryTable.obj
 0003:00057ae0       MemoryDeviceFormFactorTable 00000000000dc140     UefiShellDebug1CommandsLib:QueryTable.obj
 0003:00057be0       MDAddressTypeTable         00000000000dc240     UefiShellDebug1CommandsLib:QueryTable.obj
 0003:00057c30       FirmwareInventoryStateTable 00000000000dc290     UefiShellDebug1CommandsLib:QueryTable.obj
 0003:00057cb0       McErrorCorrectCapabilityTable 00000000000dc310     UefiShellDebug1CommandsLib:QueryTable.obj
 0003:00057d10       CacheAssociativityTable    00000000000dc370     UefiShellDebug1CommandsLib:QueryTable.obj
 0003:00057df0       TemperatureProbeLocTable   00000000000dc450     UefiShellDebug1CommandsLib:QueryTable.obj
 0003:00057ea0       ProcessorUpgradeTable      00000000000dc500     UefiShellDebug1CommandsLib:QueryTable.obj
 0003:00058410       MDTypeTable                00000000000dca70     UefiShellDebug1CommandsLib:QueryTable.obj
 0003:000584e0       MemoryDeviceTypeTable      00000000000dcb40     UefiShellDebug1CommandsLib:QueryTable.obj
 0003:000586e0       TemperatureProbeStatusTable 00000000000dcd40     UefiShellDebug1CommandsLib:QueryTable.obj
 0003:00058740       MemoryModuleVoltageTable   00000000000dcda0     UefiShellDebug1CommandsLib:QueryTable.obj
 0003:00058770       SystemSlotLengthTable      00000000000dcdd0     UefiShellDebug1CommandsLib:QueryTable.obj
 0003:000587b0       StructureTypeInfoTable     00000000000dce10     UefiShellDebug1CommandsLib:QueryTable.obj
 0003:00058aa0       BaseBoardFeatureFlagsTable 00000000000dd100     UefiShellDebug1CommandsLib:QueryTable.obj
 0003:00058af0       PMAErrorCorrectionTypesTable 00000000000dd150     UefiShellDebug1CommandsLib:QueryTable.obj
 0003:00058b60       MemoryDeviceTypeDetailTable 00000000000dd1c0     UefiShellDebug1CommandsLib:QueryTable.obj
 0003:00058c40       MemoryErrorOperationTable  00000000000dd2a0     UefiShellDebug1CommandsLib:QueryTable.obj
 0003:00058c90       SystemEnclosureTypeTable   00000000000dd2f0     UefiShellDebug1CommandsLib:QueryTable.obj
 0003:00058ed0       PointingDeviceTypeTable    00000000000dd530     UefiShellDebug1CommandsLib:QueryTable.obj
 0003:00058f40       SELVarDataFormatTypeTable  00000000000dd5a0     UefiShellDebug1CommandsLib:QueryTable.obj
 0003:00058fd0       PMAUseTable                00000000000dd630     UefiShellDebug1CommandsLib:QueryTable.obj
 0003:00059040       VPStatusTable              00000000000dd6a0     UefiShellDebug1CommandsLib:QueryTable.obj
 0003:000590f0       ECPStatusTable             00000000000dd750     UefiShellDebug1CommandsLib:QueryTable.obj
 0003:00059150       CacheSRAMTypeTable         00000000000dd7b0     UefiShellDebug1CommandsLib:QueryTable.obj
 0003:000591c0       SlotCharacteristics2Table  00000000000dd820     UefiShellDebug1CommandsLib:QueryTable.obj
 0003:00059240       ProcessorArchitectureTypesTable 00000000000dd8a0     UefiShellDebug1CommandsLib:QueryTable.obj
 0003:000592f0       MemoryErrorTypeTable       00000000000dd950     UefiShellDebug1CommandsLib:QueryTable.obj
 0003:000593d0       ECPLocTable                00000000000dda30     UefiShellDebug1CommandsLib:QueryTable.obj
 0003:00059480       SystemEnclosureStatusTable 00000000000ddae0     UefiShellDebug1CommandsLib:QueryTable.obj
 0003:000594e0       MemoryDeviceMemoryTechnologyTable 00000000000ddb40     UefiShellDebug1CommandsLib:QueryTable.obj
 0003:00059550       ProcessorCharacteristicsTable 00000000000ddbb0     UefiShellDebug1CommandsLib:QueryTable.obj
 0003:000595e0       PMALocationTable           00000000000ddc40     UefiShellDebug1CommandsLib:QueryTable.obj
 0003:000596d0       MemoryErrorGranularityTable 00000000000ddd30     UefiShellDebug1CommandsLib:QueryTable.obj
 0003:00059710       PostResultsBitmapDw2Table  00000000000ddd70     UefiShellDebug1CommandsLib:QueryTable.obj
 0003:00059910       McErrorDetectMethodTable   00000000000ddf70     UefiShellDebug1CommandsLib:QueryTable.obj
 0003:00059990       SELTypesTable              00000000000ddff0     UefiShellDebug1CommandsLib:QueryTable.obj
 0003:00059b40       SystemWakeupTypeTable      00000000000de1a0     UefiShellDebug1CommandsLib:QueryTable.obj
 0003:00059bc0       SystemSlotPhysicalWidthTable 00000000000de220     UefiShellDebug1CommandsLib:QueryTable.obj
 0003:00059ca0       McInterleaveSupportTable   00000000000de300     UefiShellDebug1CommandsLib:QueryTable.obj
 0003:00059d10       PostResultsBitmapDw1Table  00000000000de370     UefiShellDebug1CommandsLib:QueryTable.obj
 0003:00059f10       SystemSlotTypeTable        00000000000de570     UefiShellDebug1CommandsLib:QueryTable.obj
 0003:0005a400       PortTypeTable              00000000000dea60     UefiShellDebug1CommandsLib:QueryTable.obj
 0003:0005a670       MemoryChannelTypeTable     00000000000decd0     UefiShellDebug1CommandsLib:QueryTable.obj
 0003:0005a6b0       SlotCharacteristics1Table  00000000000ded10     UefiShellDebug1CommandsLib:QueryTable.obj
 0003:0005a730       CacheSystemCacheTypeTable  00000000000ded90     UefiShellDebug1CommandsLib:QueryTable.obj
 0003:0005a780       SystemSlotHeightTable      00000000000dede0     UefiShellDebug1CommandsLib:QueryTable.obj
 0003:0005a7d0       PortConnectorTypeTable     00000000000dee30     UefiShellDebug1CommandsLib:QueryTable.obj
 0003:0005aa70       CoolingDeviceTypeTable     00000000000df0d0     UefiShellDebug1CommandsLib:QueryTable.obj
 0003:0005ab20       SystemSlotInformationTable 00000000000df180     UefiShellDebug1CommandsLib:QueryTable.obj
 0003:0005ab90       OnboardDeviceTypesTable    00000000000df1f0     UefiShellDebug1CommandsLib:QueryTable.obj
 0003:0005ac90       IPMIDIBMCInterfaceTypeTable 00000000000df2f0     UefiShellDebug1CommandsLib:QueryTable.obj
 0003:0005acf0       McMemorySpeedsTable        00000000000df350     UefiShellDebug1CommandsLib:QueryTable.obj
 0003:0005ad40       PointingDeviceInterfaceTable 00000000000df3a0     UefiShellDebug1CommandsLib:QueryTable.obj
 0003:0005adf0       BaseBoardBoardTypeTable    00000000000df450     UefiShellDebug1CommandsLib:QueryTable.obj
 0003:0005aec0       CacheErrCorrectingTypeTable 00000000000df520     UefiShellDebug1CommandsLib:QueryTable.obj
 0003:0005af20       SELSysManagementTypesTable 00000000000df580     UefiShellDebug1CommandsLib:QueryTable.obj
 0003:0005b020       SystemSlotDataBusWidthTable 00000000000df680     UefiShellDebug1CommandsLib:QueryTable.obj
 0003:0005b100       SystemSlotCurrentUsageTable 00000000000df760     UefiShellDebug1CommandsLib:QueryTable.obj
 0003:0005b150       MemoryDeviceMemoryOperatingModeCapabilityTable 00000000000df7b0     UefiShellDebug1CommandsLib:QueryTable.obj
 0003:0005b1a0       MmErrorStatusTable         00000000000df800     UefiShellDebug1CommandsLib:QueryTable.obj
 0003:0005b1d0       PBDeviceChemistryTable     00000000000df830     UefiShellDebug1CommandsLib:QueryTable.obj
 0003:0005b250       MCHostInterfaceTypeTable   00000000000df8b0     UefiShellDebug1CommandsLib:QueryTable.obj
 0003:0005b280       VPLocationTable            00000000000df8e0     UefiShellDebug1CommandsLib:QueryTable.obj
 0003:0005b2e0       MmMemoryTypeTable          00000000000df940     UefiShellDebug1CommandsLib:QueryTable.obj
 0003:0005b390       FirmwareInventoryCharTable 00000000000df9f0     UefiShellDebug1CommandsLib:QueryTable.obj
 0003:0005b3b0       CoolingDeviceStatusTable   00000000000dfa10     UefiShellDebug1CommandsLib:QueryTable.obj
 0003:0005b410       ProcessorTypeTable         00000000000dfa70     UefiShellDebug1CommandsLib:QueryTable.obj
 0003:0005b470       mIfConfigCheckList         00000000000dfad0     UefiShellNetwork1CommandsLib:Ifconfig.obj
 0003:0005b4d0       mSetCheckList              00000000000dfb30     UefiShellNetwork1CommandsLib:Ifconfig.obj
 0003:0005b530       UefiShellNetwork1CommandsLibStrings 00000000000dfb90     UefiShellNetwork1CommandsLib:AutoGen.obj
 0003:0005dbe0       UefiShellBcfgCommandLibStrings 00000000000e2240     UefiShellBcfgCommandLib:AutoGen.obj
 0003:00060c20       AsciiRedirection           00000000000e5280     Shell:ShellParametersProtocol.obj
 0003:00060c28       mShellManHiiHandle         00000000000e5288     Shell:ShellManParser.obj
 0003:00060c30       mShellManDriverHandle      00000000000e5290     Shell:ShellManParser.obj
 0003:00060c40       gST                        00000000000e52a0     UefiBootServicesTableLib:UefiBootServicesTableLib.obj
 0003:00060c48       gImageHandle               00000000000e52a8     UefiBootServicesTableLib:UefiBootServicesTableLib.obj
 0003:00060c50       gBS                        00000000000e52b0     UefiBootServicesTableLib:UefiBootServicesTableLib.obj
 0003:00060c58       mDevicePathLibDevicePathFromText 00000000000e52b8     UefiDevicePathLibDevicePathProtocol:UefiDevicePathLib.obj
 0003:00060c60       mDevicePathLibDevicePathToText 00000000000e52c0     UefiDevicePathLibDevicePathProtocol:UefiDevicePathLib.obj
 0003:00060c68       mDevicePathLibDevicePathUtilities 00000000000e52c8     UefiDevicePathLibDevicePathProtocol:UefiDevicePathLib.obj
 0003:00060c70       gRT                        00000000000e52d0     UefiRuntimeServicesTableLib:UefiRuntimeServicesTableLib.obj
 0003:00060c78       gHiiDatabase               00000000000e52d8     UefiHiiServicesLib:UefiHiiServicesLib.obj
 0003:00060c80       gHiiString                 00000000000e52e0     UefiHiiServicesLib:UefiHiiServicesLib.obj
 0003:00060c88       gHiiFont                   00000000000e52e8     UefiHiiServicesLib:UefiHiiServicesLib.obj
 0003:00060c90       gHiiConfigRouting          00000000000e52f0     UefiHiiServicesLib:UefiHiiServicesLib.obj
 0003:00060c98       gHiiImage                  00000000000e52f8     UefiHiiServicesLib:UefiHiiServicesLib.obj
 0003:00060ca0       mHobList                   00000000000e5300     DxeHobLib:HobLib.obj
 0003:00060cb0       gDS                        00000000000e5310     DxeServicesTableLib:DxeServicesTableLib.obj
 0003:00060cb8       mHandleList                00000000000e5318     UefiHandleParsingLib:UefiHandleParsingLib.obj
 0003:00060ce0       mHandleParsingHiiHandle    00000000000e5340     UefiHandleParsingLib:UefiHandleParsingLib.obj
 0003:00060ce8       gShellCurMapping           00000000000e5348     UefiShellCommandLib:UefiShellCommandLib.obj
 0003:00060cf0       gUnicodeCollation          00000000000e5350     UefiShellCommandLib:UefiShellCommandLib.obj
 0003:00060d08       gShellLevel2HiiHandle      00000000000e5368     UefiShellLevel2CommandsLib:UefiShellLevel2CommandsLib.obj
 0003:00060d10       gShellLevel1HiiHandle      00000000000e5370     UefiShellLevel1CommandsLib:UefiShellLevel1CommandsLib.obj
 0003:00060d18       gShellLevel3HiiHandle      00000000000e5378     UefiShellLevel3CommandsLib:UefiShellLevel3CommandsLib.obj
 0003:00060d20       gInReconnect               00000000000e5380     UefiShellDriver1CommandsLib:UefiShellDriver1CommandsLib.obj
 0003:00060d28       gShellDriver1HiiHandle     00000000000e5388     UefiShellDriver1CommandsLib:UefiShellDriver1CommandsLib.obj
 0003:00060d30       gShellDebug1HiiHandle      00000000000e5390     UefiShellDebug1CommandsLib:UefiShellDebug1CommandsLib.obj
 0003:00060d38       mConfigSpace               00000000000e5398     UefiShellDebug1CommandsLib:Pci.obj
 0003:00060d50       mHuffmanDepth              00000000000e53b0     UefiShellDebug1CommandsLib:Compress.obj
 0003:000633d8       HClipBoardConst            00000000000e7a38     UefiShellDebug1CommandsLib:Clipboard.obj
 0003:000633e8       Title                      00000000000e7a48     UefiShellDebug1CommandsLib:EditTitleBar.obj
 0003:000633f0       HMemImageConst             00000000000e7a50     UefiShellDebug1CommandsLib:MemImage.obj
 0003:00063408       HDiskImageConst            00000000000e7a68     UefiShellDebug1CommandsLib:DiskImage.obj
 0003:00063430       HFileImageConst            00000000000e7a90     UefiShellDebug1CommandsLib:FileImage.obj
 0003:000634a8       gShellNetwork1HiiHandle    00000000000e7b08     UefiShellNetwork1CommandsLib:UefiShellNetwork1CommandsLib.obj
 0003:000634b0       gParity                    00000000000e7b10     PcAtSerialPortLib:SerialPortLib.obj
 0003:000634b1       gBreakSet                  00000000000e7b11     PcAtSerialPortLib:SerialPortLib.obj
 0003:000634c0       mZeroIp4Addr               00000000000e7b20     DxeNetLib:DxeNetLib.obj
 0003:000634c4       mTdDataReturned            00000000000e7b24     TdxLib:TdInfo.obj
 0003:000634c8       mTdSharedPageMask          00000000000e7b28     TdxLib:TdInfo.obj
 0003:000634e0       HFileImageBackupVar        00000000000e7b40     <common>
 0003:00063500       HFileImage                 00000000000e7b60     <common>
 0003:00063520       HDiskImage                 00000000000e7b80     <common>
 0003:00063540       HDiskImageBackupVar        00000000000e7ba0     <common>
 0003:00063560       HMemImage                  00000000000e7bc0     <common>
 0003:00063580       HMemImageBackupVar         00000000000e7be0     <common>
 0003:00063598       mTextInEx                  00000000000e7bf8     <common>
 0003:000635a0       mReturnString              00000000000e7c00     <common>
 0003:000635a8       StringSize                 00000000000e7c08     <common>
 0003:000635b0       mPrompt                    00000000000e7c10     <common>
 0003:000635c0       HClipBoard                 00000000000e7c20     <common>
 0003:000635d0       MenuItems                  00000000000e7c30     <common>
 0003:000635d8       NumItems                   00000000000e7c38     <common>
 0003:000635e0       ControlBasedMenuFunctions  00000000000e7c40     <common>
 0003:00063600       FileBuffer                 00000000000e7c60     <common>
 0003:00063678       FileBufferMouseNeedRefresh 00000000000e7cd8     <common>
 0003:00063680       FileBufferBackupVar        00000000000e7ce0     <common>
 0003:000636f8       FileBufferOnlyLineNeedRefresh 00000000000e7d58     <common>
 0003:000636f9       FileBufferNeedRefresh      00000000000e7d59     <common>
 0003:000636fa       EditorFirst                00000000000e7d5a     <common>
 0003:000636fb       EditorMouseAction          00000000000e7d5b     <common>
 0003:000636fc       OriginalColors             00000000000e7d5c     <common>
 0003:00063700       EditorExit                 00000000000e7d60     <common>
 0003:00063708       OriginalMode               00000000000e7d68     <common>
 0003:00063720       MainEditor                 00000000000e7d80     <common>
 0003:00063780       HBufferImage               00000000000e7de0     <common>
 0003:000637f8       HBufferImageNeedRefresh    00000000000e7e58     <common>
 0003:00063800       HBufferImageBackupVar      00000000000e7e60     <common>
 0003:00063878       HBufferImageOnlyLineNeedRefresh 00000000000e7ed8     <common>
 0003:00063879       HBufferImageMouseNeedRefresh 00000000000e7ed9     <common>
 0003:0006387a       StatusStringChanged        00000000000e7eda     <common>
 0003:00063880       StatusString               00000000000e7ee0     <common>
 0003:00063888       StatusBarNeedRefresh       00000000000e7ee8     <common>
 0003:0006388c       HOriginalColors            00000000000e7eec     <common>
 0003:000638a0       HMainEditor                00000000000e7f00     <common>
 0003:000638f0       HOriginalMode              00000000000e7f50     <common>
 0003:000638f8       HEditorMouseAction         00000000000e7f58     <common>
 0003:000638f9       HEditorExit                00000000000e7f59     <common>
 0003:000638fa       HEditorFirst               00000000000e7f5a     <common>
 0003:00063900       HMainEditorBackupVar       00000000000e7f60     <common>
 0003:00063950       mSmbios64BitTableLength    00000000000e7fb0     <common>
 0003:00063958       SmbiosMinorVersion         00000000000e7fb8     <common>
 0003:00063960       mNumberOfSmbios64BitStructures 00000000000e7fc0     <common>
 0003:00063968       SmbiosMajorVersion         00000000000e7fc8     <common>
 0003:00063980       gShellMapList              00000000000e7fe0     <common>
 0003:000639b0       mGuidListCount             00000000000e8010     <common>
 0003:000639b8       mGuidList                  00000000000e8018     <common>
 0003:000639c0       FileFunctionMap            00000000000e8020     <common>
 0003:00063a10       mEfiShellEnvironment2      00000000000e8070     <common>
 0003:00063a18       mEfiShellInterface         00000000000e8078     <common>
 0003:00063a20       mUnicodeCollationProtocol  00000000000e8080     <common>
 0003:00063a28       mEfiShellEnvironment2Handle 00000000000e8088     <common>
 0003:00063a30       gEfiShellParametersProtocol 00000000000e8090     <common>
 0003:00063a38       gEfiShellProtocol          00000000000e8098     <common>
 0003:00063a40       gShellEnvVarList           00000000000e80a0     <common>

 entry point at        0001:000001e8

 Static symbols

 0001:0000001a       InternalMemCopyMem.0       00000000000002da     BaseMemoryLibRepStr:CopyMem.obj
 0001:0000002a       @CopyBackward              00000000000002ea     BaseMemoryLibRepStr:CopyMem.obj
 0001:00000033       @CopyBytes                 00000000000002f3     BaseMemoryLibRepStr:CopyMem.obj
 0001:00000169       TdVmCall.no_return_data    0000000000000429     BaseLib:TdVmcall.obj
 0001:000001db       TdCall.exit                000000000000049b     BaseLib:TdCall.obj
 0001:00006090       NestingEnabled             0000000000006350 f   Shell:ShellProtocol.obj
 0001:00018a44       DevicePathProtocolDumpInformationEx 0000000000018d04 f   UefiHandleParsingLib:UefiHandleParsingLib.obj
 0001:0001d05c       UniqueNameCompare          000000000001d31c f   UefiShellCommandLib:UefiShellCommandLib.obj
 0001:0001d070       UniqueNameAliasCompare     000000000001d330 f   UefiShellCommandLib:UefiShellCommandLib.obj
 0001:000422ec       FileBufferReadByte         00000000000425ac f   UefiShellDebug1CommandsLib:Comp.obj
 0002:00000870       mScriptExtension           0000000000067390     Shell:Shell.obj
 0002:00000880       mExecutableExtensions      00000000000673a0     Shell:Shell.obj
 0002:000008b0       mStartupScript             00000000000673d0     Shell:Shell.obj
 0002:00002a80       Hex                        00000000000695a0     UefiShellCommandLib:UefiShellCommandLib.obj
 0002:000043a0       EfiIsaIoProtocolGuid       000000000006aec0     UefiHandleParsingLib:UefiHandleParsingLib.obj
 0002:000043b0       WinNtThunkProtocolGuid     000000000006aed0     UefiHandleParsingLib:UefiHandleParsingLib.obj
 0002:000043c0       mGuidStringListNT          000000000006aee0     UefiHandleParsingLib:UefiHandleParsingLib.obj
 0002:00004420       EfiIsaAcpiProtocolGuid     000000000006af40     UefiHandleParsingLib:UefiHandleParsingLib.obj
 0002:00004430       WinNtSerialPortGuid        000000000006af50     UefiHandleParsingLib:UefiHandleParsingLib.obj
 0002:00004440       WinNtIoProtocolGuid        000000000006af60     UefiHandleParsingLib:UefiHandleParsingLib.obj
 0002:00004450       mGuidStringList            000000000006af70     UefiHandleParsingLib:UefiHandleParsingLib.obj
 0002:00006730       ResetParamList             000000000006d250     UefiShellLevel2CommandsLib:Reset.obj
 0002:00006810       LoadParamList              000000000006d330     UefiShellLevel2CommandsLib:Load.obj
 0002:00006930       TimeZoneList               000000000006d450     UefiShellLevel2CommandsLib:TimeDate.obj
 0002:000069c0       TimeZoneParamList3         000000000006d4e0     UefiShellLevel2CommandsLib:TimeDate.obj
 0002:00006a00       TimeParamList3             000000000006d520     UefiShellLevel2CommandsLib:TimeDate.obj
 0002:00006b00       ParamList                  000000000006d620     UefiShellLevel2CommandsLib:Parse.obj
 0002:00006c8c       AllFiles                   000000000006d7ac     UefiShellLevel2CommandsLib:Attrib.obj
 0002:00006c90       AttribParamList            000000000006d7b0     UefiShellLevel2CommandsLib:Attrib.obj
 0002:00006f50       LsParamList                000000000006da70     UefiShellLevel2CommandsLib:Ls.obj
 0002:00007080       MapParamList               000000000006dba0     UefiShellLevel2CommandsLib:Map.obj
 0002:000072b0       ParamList                  000000000006ddd0     UefiShellLevel2CommandsLib:Cp.obj
 0002:00007370       ParamList                  000000000006de90     UefiShellLevel2CommandsLib:Vol.obj
 0002:00007400       ParamList                  000000000006df20     UefiShellLevel2CommandsLib:Rm.obj
 0002:00007480       SetParamList               000000000006dfa0     UefiShellLevel2CommandsLib:Set.obj
 0002:00007640       mFileName                  000000000006e160     UefiShellLevel1CommandsLib:UefiShellLevel1CommandsLib.obj
 0002:00007c20       ParamList                  000000000006e740     UefiShellLevel1CommandsLib:Exit.obj
 0002:00007e30       ParamList                  000000000006e950     UefiShellLevel3CommandsLib:Help.obj
 0002:00007f10       ParamList                  000000000006ea30     UefiShellLevel3CommandsLib:Type.obj
 0002:00007fc0       ParamList                  000000000006eae0     UefiShellLevel3CommandsLib:Echo.obj
 0002:00008050       ParamList                  000000000006eb70     UefiShellLevel3CommandsLib:Pause.obj
 0002:000080d0       ParamList                  000000000006ebf0     UefiShellLevel3CommandsLib:Touch.obj
 0002:00008200       ParamList                  000000000006ed20     UefiShellLevel3CommandsLib:Ver.obj
 0002:000082b0       ParamList                  000000000006edd0     UefiShellLevel3CommandsLib:Alias.obj
 0002:00008340       ParamList                  000000000006ee60     UefiShellLevel3CommandsLib:Cls.obj
 0002:00008430       mFileName                  000000000006ef50     UefiShellDriver1CommandsLib:UefiShellDriver1CommandsLib.obj
 0002:00008540       ParamList                  000000000006f060     UefiShellDriver1CommandsLib:Connect.obj
 0002:000085f0       ParamList                  000000000006f110     UefiShellDriver1CommandsLib:Devices.obj
 0002:00008690       ParamList                  000000000006f1b0     UefiShellDriver1CommandsLib:Unload.obj
 0002:00008740       ParamList                  000000000006f260     UefiShellDriver1CommandsLib:Reconnect.obj
 0002:000087d8       StringExclusive            000000000006f2f8     UefiShellDriver1CommandsLib:OpenInfo.obj
 0002:000087f0       StringTestProt             000000000006f310     UefiShellDriver1CommandsLib:OpenInfo.obj
 0002:00008808       StringChild                000000000006f328     UefiShellDriver1CommandsLib:OpenInfo.obj
 0002:00008820       StringGetProt              000000000006f340     UefiShellDriver1CommandsLib:OpenInfo.obj
 0002:00008838       StringUnknown              000000000006f358     UefiShellDriver1CommandsLib:OpenInfo.obj
 0002:00008850       StringDriverEx             000000000006f370     UefiShellDriver1CommandsLib:OpenInfo.obj
 0002:00008868       StringDriver               000000000006f388     UefiShellDriver1CommandsLib:OpenInfo.obj
 0002:00008880       StringHandProt             000000000006f3a0     UefiShellDriver1CommandsLib:OpenInfo.obj
 0002:00008900       ParamList                  000000000006f420     UefiShellDriver1CommandsLib:Drivers.obj
 0002:00008a70       ParamList                  000000000006f590     UefiShellDriver1CommandsLib:DrvDiag.obj
 0002:00008ce0       ParamList                  000000000006f800     UefiShellDriver1CommandsLib:Dh.obj
 0002:00008e00       ParamList                  000000000006f920     UefiShellDriver1CommandsLib:DevTree.obj
 0002:00009040       ParamListPreHii            000000000006fb60     UefiShellDriver1CommandsLib:DrvCfg.obj
 0002:000090a0       ParamListHii               000000000006fbc0     UefiShellDriver1CommandsLib:DrvCfg.obj
 0002:000091d0       ParamList                  000000000006fcf0     UefiShellDriver1CommandsLib:Disconnect.obj
 0002:000093e8       mFileName                  000000000006ff08     UefiShellDebug1CommandsLib:UefiShellDebug1CommandsLib.obj
 0002:00009720       ParamList                  0000000000070240     UefiShellDebug1CommandsLib:Dmem.obj
 0002:0000f7b0       ParamList                  00000000000762d0     UefiShellDebug1CommandsLib:Pci.obj
 0002:0000f8a0       ParamList                  00000000000763c0     UefiShellDebug1CommandsLib:HexEdit.obj
 0002:0000f950       NameEfiReservedMemoryType  0000000000076470     UefiShellDebug1CommandsLib:MemMap.obj
 0002:0000f968       NameEfiBootServicesCode    0000000000076488     UefiShellDebug1CommandsLib:MemMap.obj
 0002:0000f988       NameEfiRuntimeServicesCodeShort 00000000000764a8     UefiShellDebug1CommandsLib:MemMap.obj
 0002:0000f998       NameEfiConventionalMemory  00000000000764b8     UefiShellDebug1CommandsLib:MemMap.obj
 0002:0000f9b0       NameEfiMemoryMappedIO      00000000000764d0     UefiShellDebug1CommandsLib:MemMap.obj
 0002:0000f9d0       NameEfiMemoryMappedIOPortSpace 00000000000764f0     UefiShellDebug1CommandsLib:MemMap.obj
 0002:0000fa00       NameEfiMemoryMappedIOPortSpaceShort 0000000000076520     UefiShellDebug1CommandsLib:MemMap.obj
 0002:0000fa18       NameEfiUnacceptedMemoryType 0000000000076538     UefiShellDebug1CommandsLib:MemMap.obj
 0002:0000fa30       NameEfiRuntimeServicesCode 0000000000076550     UefiShellDebug1CommandsLib:MemMap.obj
 0002:0000fa48       NameEfiBootServicesDataShort 0000000000076568     UefiShellDebug1CommandsLib:MemMap.obj
 0002:0000fa58       NameEfiPersistentMemory    0000000000076578     UefiShellDebug1CommandsLib:MemMap.obj
 0002:0000fa70       NameEfiACPIMemoryNVSShort  0000000000076590     UefiShellDebug1CommandsLib:MemMap.obj
 0002:0000fa88       NameEfiLoaderCode          00000000000765a8     UefiShellDebug1CommandsLib:MemMap.obj
 0002:0000faa0       NameEfiBootServicesData    00000000000765c0     UefiShellDebug1CommandsLib:MemMap.obj
 0002:0000fac0       NameEfiACPIReclaimMemory   00000000000765e0     UefiShellDebug1CommandsLib:MemMap.obj
 0002:0000fae8       NameEfiACPIMemoryNVS       0000000000076608     UefiShellDebug1CommandsLib:MemMap.obj
 0002:0000fb08       NameEfiBootServicesCodeShort 0000000000076628     UefiShellDebug1CommandsLib:MemMap.obj
 0002:0000fb18       NameEfiMemoryMappedIOShort 0000000000076638     UefiShellDebug1CommandsLib:MemMap.obj
 0002:0000fb28       NameEfiLoaderData          0000000000076648     UefiShellDebug1CommandsLib:MemMap.obj
 0002:0000fb40       NameEfiRuntimeServicesDataShort 0000000000076660     UefiShellDebug1CommandsLib:MemMap.obj
 0002:0000fb50       NameEfiACPIReclaimMemoryShort 0000000000076670     UefiShellDebug1CommandsLib:MemMap.obj
 0002:0000fb68       NameEfiUnusableMemory      0000000000076688     UefiShellDebug1CommandsLib:MemMap.obj
 0002:0000fb88       NameEfiRuntimeServicesData 00000000000766a8     UefiShellDebug1CommandsLib:MemMap.obj
 0002:0000fba0       NameEfiPalCode             00000000000766c0     UefiShellDebug1CommandsLib:MemMap.obj
 0002:0000fbb0       NameEfiUnusableMemoryShort 00000000000766d0     UefiShellDebug1CommandsLib:MemMap.obj
 0002:0000ff80       ParamList                  0000000000076aa0     UefiShellDebug1CommandsLib:Mm.obj
 0002:000100e0       ParamList                  0000000000076c00     UefiShellDebug1CommandsLib:Comp.obj
 0002:00010430       ParamList                  0000000000076f50     UefiShellDebug1CommandsLib:SmbiosView.obj
 0002:00010510       ParamList                  0000000000077030     UefiShellDebug1CommandsLib:LoadPciRom.obj
 0002:00010680       ParamList                  00000000000771a0     UefiShellDebug1CommandsLib:DmpStore.obj
 0002:000107b0       ParamList                  00000000000772d0     UefiShellDebug1CommandsLib:SetVar.obj
 0002:0001c9a0       PingParamList              00000000000834c0     UefiShellNetwork1CommandsLib:Ping.obj
 0002:0001cb48       PermanentString            0000000000083668     UefiShellNetwork1CommandsLib:Ifconfig.obj
 0002:0001d5d0       mFileName                  00000000000840f0     UefiShellBcfgCommandLib:UefiShellBcfgCommandLib.obj
 0002:0001d5f0       ParamList                  0000000000084110     UefiShellBcfgCommandLib:UefiShellBcfgCommandLib.obj
 0003:00037510       DiagGuidList               00000000000bbb70     UefiShellDriver1CommandsLib:DrvDiag.obj
 0003:00037530       CfgGuidList                00000000000bbb90     UefiShellDriver1CommandsLib:DrvCfg.obj
 0003:00057818       mSmbiosStruct              00000000000dbe78     UefiShellDebug1CommandsLib:LibSmbiosView.obj
 0003:00057820       mSmbios64BitStruct         00000000000dbe80     UefiShellDebug1CommandsLib:LibSmbiosView.obj
 0003:00060c38       mCcProbeGuestType          00000000000e5298     DxeCcProbeLib:DxeCcProbeLib.obj
 0003:00060c39       mCcProbed                  00000000000e5299     DxeCcProbeLib:DxeCcProbeLib.obj
 0003:00060ca8       mUnicodeCollation          00000000000e5308     UefiSortLib:UefiSortLib.obj
 0003:00060cf8       mFsMaxCount                00000000000e5358     UefiShellCommandLib:UefiShellCommandLib.obj
 0003:00060d00       mBlkMaxCount               00000000000e5360     UefiShellCommandLib:UefiShellCommandLib.obj
 0003:00060d40       mStatisticsTable           00000000000e53a0     UefiShellDebug1CommandsLib:SmbiosView.obj
 0003:00060d48       mSmbios64BitStatisticsTable 00000000000e53a8     UefiShellDebug1CommandsLib:SmbiosView.obj
 0003:00060d54       mBufSiz                    00000000000e53b4     UefiShellDebug1CommandsLib:Compress.obj
 0003:00060d58       mNext                      00000000000e53b8     UefiShellDebug1CommandsLib:Compress.obj
 0003:00060d60       m_SmbiosStruct             00000000000e53c0     UefiShellDebug1CommandsLib:LibSmbiosView.obj
 0003:00060d68       m_Smbios64BitStruct        00000000000e53c8     UefiShellDebug1CommandsLib:LibSmbiosView.obj
 0003:00060d70       mAliasList                 00000000000e53d0     UefiShellCommandLib:UefiShellCommandLib.obj
 0003:00060d90       mExitRequested             00000000000e53f0     UefiShellCommandLib:UefiShellCommandLib.obj
 0003:00060d91       mExitScript                00000000000e53f1     UefiShellCommandLib:UefiShellCommandLib.obj
 0003:00060d92       mEchoState                 00000000000e53f2     UefiShellCommandLib:UefiShellCommandLib.obj
 0003:00060d98       mExitCode                  00000000000e53f8     UefiShellCommandLib:UefiShellCommandLib.obj
 0003:00060da0       mScriptList                00000000000e5400     UefiShellCommandLib:UefiShellCommandLib.obj
 0003:00060db8       mProfileList               00000000000e5418     UefiShellCommandLib:UefiShellCommandLib.obj
 0003:00060dc0       mCommandList               00000000000e5420     UefiShellCommandLib:UefiShellCommandLib.obj
 0003:00060e00       mProfileListSize           00000000000e5460     UefiShellCommandLib:UefiShellCommandLib.obj
 0003:00060e08       mFileHandleList            00000000000e5468     UefiShellCommandLib:UefiShellCommandLib.obj
 0003:00060e20       mCLen                      00000000000e5480     UefiShellDebug1CommandsLib:Compress.obj
 0003:00061020       mText                      00000000000e5680     UefiShellDebug1CommandsLib:Compress.obj
 0003:00061028       mRemainder                 00000000000e5688     UefiShellDebug1CommandsLib:Compress.obj
 0003:00061030       mTFreq                     00000000000e5690     UefiShellDebug1CommandsLib:Compress.obj
 0003:0006107c       mMatchLen                  00000000000e56dc     UefiShellDebug1CommandsLib:Compress.obj
 0003:00061080       mSortPtr                   00000000000e56e0     UefiShellDebug1CommandsLib:Compress.obj
 0003:00061088       mChildCount                00000000000e56e8     UefiShellDebug1CommandsLib:Compress.obj
 0003:00061090       mHeap                      00000000000e56f0     UefiShellDebug1CommandsLib:Compress.obj
 0003:00061490       mCFreq                     00000000000e5af0     UefiShellDebug1CommandsLib:Compress.obj
 0003:00061c88       mBuf                       00000000000e62e8     UefiShellDebug1CommandsLib:Compress.obj
 0003:00061c90       mCCode                     00000000000e62f0     UefiShellDebug1CommandsLib:Compress.obj
 0003:00062090       mPTCode                    00000000000e66f0     UefiShellDebug1CommandsLib:Compress.obj
 0003:000620b8       mAvail                     00000000000e6718     UefiShellDebug1CommandsLib:Compress.obj
 0003:000620c0       mPFreq                     00000000000e6720     UefiShellDebug1CommandsLib:Compress.obj
 0003:000620f8       mHeapSize                  00000000000e6758     UefiShellDebug1CommandsLib:Compress.obj
 0003:000620fc       ?CPos@?1??CompressOutput@@9@9 00000000000e675c     UefiShellDebug1CommandsLib:Compress.obj
 0003:00062100       mDstUpperLimit             00000000000e6760     UefiShellDebug1CommandsLib:Compress.obj
 0003:00062108       mFreq                      00000000000e6768     UefiShellDebug1CommandsLib:Compress.obj
 0003:00062110       mPTLen                     00000000000e6770     UefiShellDebug1CommandsLib:Compress.obj
 0003:00062128       mPosition                  00000000000e6788     UefiShellDebug1CommandsLib:Compress.obj
 0003:00062130       mLeft                      00000000000e6790     UefiShellDebug1CommandsLib:Compress.obj
 0003:00062928       mOutputPos                 00000000000e6f88     UefiShellDebug1CommandsLib:Compress.obj
 0003:0006292c       mOrigSize                  00000000000e6f8c     UefiShellDebug1CommandsLib:Compress.obj
 0003:00062930       mLenCnt                    00000000000e6f90     UefiShellDebug1CommandsLib:Compress.obj
 0003:00062954       mTempInt32                 00000000000e6fb4     UefiShellDebug1CommandsLib:Compress.obj
 0003:00062958       mLen                       00000000000e6fb8     UefiShellDebug1CommandsLib:Compress.obj
 0003:00062960       mCrcTable                  00000000000e6fc0     UefiShellDebug1CommandsLib:Compress.obj
 0003:00062b60       mParent                    00000000000e71c0     UefiShellDebug1CommandsLib:Compress.obj
 0003:00062b68       mBitCount                  00000000000e71c8     UefiShellDebug1CommandsLib:Compress.obj
 0003:00062b6c       mMatchPos                  00000000000e71cc     UefiShellDebug1CommandsLib:Compress.obj
 0003:00062b70       mSrcUpperLimit             00000000000e71d0     UefiShellDebug1CommandsLib:Compress.obj
 0003:00062b78       mSrc                       00000000000e71d8     UefiShellDebug1CommandsLib:Compress.obj
 0003:00062b80       mLevel                     00000000000e71e0     UefiShellDebug1CommandsLib:Compress.obj
 0003:00062b88       mCompSize                  00000000000e71e8     UefiShellDebug1CommandsLib:Compress.obj
 0003:00062b8c       mCrc                       00000000000e71ec     UefiShellDebug1CommandsLib:Compress.obj
 0003:00062b90       mDst                       00000000000e71f0     UefiShellDebug1CommandsLib:Compress.obj
 0003:00062b98       mPrev                      00000000000e71f8     UefiShellDebug1CommandsLib:Compress.obj
 0003:00062ba0       mPos                       00000000000e7200     UefiShellDebug1CommandsLib:Compress.obj
 0003:00062ba4       mSubBitBuf                 00000000000e7204     UefiShellDebug1CommandsLib:Compress.obj
 0003:00062ba8       mOutputMask                00000000000e7208     UefiShellDebug1CommandsLib:Compress.obj
 0003:00062bb0       mRight                     00000000000e7210     UefiShellDebug1CommandsLib:Compress.obj
 0003:000633a8       mDstString                 00000000000e7a08     UefiShellNetwork1CommandsLib:Ping.obj
 0003:000633b0       mSrcString                 00000000000e7a10     UefiShellNetwork1CommandsLib:Ping.obj
 0003:000633b8       ?CheckConflict@?1??IfConfigRetriveCheckListByName@@9@9 00000000000e7a18     UefiShellNetwork1CommandsLib:Ifconfig.obj
 0003:000633bc       ?CheckDuplicate@?1??IfConfigRetriveCheckListByName@@9@9 00000000000e7a1c     UefiShellNetwork1CommandsLib:Ifconfig.obj
 0003:000633c0       mSmbiosTable               00000000000e7a20     UefiShellDebug1CommandsLib:LibSmbiosView.obj
 0003:000633c8       mSmbios64BitTable          00000000000e7a28     UefiShellDebug1CommandsLib:LibSmbiosView.obj
 0003:000633d0       mInit                      00000000000e7a30     UefiShellDebug1CommandsLib:LibSmbiosView.obj
 0003:000633d1       m64Init                    00000000000e7a31     UefiShellDebug1CommandsLib:LibSmbiosView.obj
 0003:000634b8       gShellBcfgHiiHandle        00000000000e7b18     UefiShellBcfgCommandLib:UefiShellBcfgCommandLib.obj
 0005:00000000       $unwind$HiiGetSupportedLanguages 00000000000ea7c0     UefiHiiLib:HiiLanguage.obj
 0005:00000000       $unwind$StringNoCaseCompare 00000000000ea7c0     UefiSortLib:UefiSortLib.obj
 0005:00000000       $unwind$InsertHeadList     00000000000ea7c0     BaseLib:LinkedList.obj
 0005:00000000       $unwind$InsertTailList     00000000000ea7c0     BaseLib:LinkedList.obj
 0005:00000000       $unwind$IsNull             00000000000ea7c0     BaseLib:LinkedList.obj
 0005:00000000       $unwind$RShiftU64          00000000000ea7c0     BaseLib:RShiftU64.obj
 0005:00000000       $unwind$StrnLenS           00000000000ea7c0     BaseLib:SafeString.obj
 0005:00000000       $unwind$AsciiStrLen        00000000000ea7c0     BaseLib:String.obj
 0005:00000000       $unwind$ZeroMem            00000000000ea7c0     BaseMemoryLibRepStr:ZeroMemWrapper.obj
 0005:00000000       $unwind$_ModuleEntryPoint  00000000000ea7c0     UefiApplicationEntryPoint:ApplicationEntryPoint.obj
 0005:00000000       $unwind$IsDevicePathEnd    00000000000ea7c0     UefiDevicePathLibDevicePathProtocol:UefiDevicePathLib.obj
 0005:00000000       $unwind$SetDevicePathNodeLength 00000000000ea7c0     UefiDevicePathLibDevicePathProtocol:UefiDevicePathLib.obj
 0005:00000000       $unwind$InternalAllocateCopyPool 00000000000ea7c0     UefiMemoryAllocationLib:MemoryAllocationLib.obj
 0005:00000000       $unwind$ConsoleLoggerEnableCursor 00000000000ea7c0     Shell:ConsoleLogger.obj
 0005:00000000       $unwind$ConsoleLoggerOutputStringSplit 00000000000ea7c0     Shell:ConsoleLogger.obj
 0005:00000000       $unwind$ConsoleLoggerSetAttribute 00000000000ea7c0     Shell:ConsoleLogger.obj
 0005:00000000       $unwind$ConsoleLoggerSetMode 00000000000ea7c0     Shell:ConsoleLogger.obj
 0005:00000000       $unwind$ConsoleLoggerTestString 00000000000ea7c0     Shell:ConsoleLogger.obj
 0005:00000000       $unwind$CloseSimpleTextOutOnFile 00000000000ea7c0     Shell:ConsoleWrappers.obj
 0005:00000000       $unwind$CreateFileInterfaceFile 00000000000ea7c0     Shell:FileHandleWrappers.obj
 0005:00000000       $unwind$CreateFileInterfaceMem 00000000000ea7c0     Shell:FileHandleWrappers.obj
 0005:00000000       $unwind$FileInterfaceFileClose 00000000000ea7c0     Shell:FileHandleWrappers.obj
 0005:00000000       $unwind$FileInterfaceFileDelete 00000000000ea7c0     Shell:FileHandleWrappers.obj
 0005:00000000       $unwind$FileInterfaceMemRead 00000000000ea7c0     Shell:FileHandleWrappers.obj
 0005:00000000       $unwind$FindNextInstance   00000000000ea7c0     Shell:Shell.obj
 0005:00000000       $unwind$GetOperationType   00000000000ea7c0     Shell:Shell.obj
 0005:00000000       $unwind$FreeEnvironmentVariableList 00000000000ea7c0     Shell:ShellEnvVar.obj
 0005:00000000       $unwind$ShellRemvoeEnvVarFromList 00000000000ea7c0     Shell:ShellEnvVar.obj
 0005:00000000       $unwind$FixFileName        00000000000ea7c0     Shell:ShellParametersProtocol.obj
 0005:00000000       $unwind$EfiShellFreeFileList 00000000000ea7c0     Shell:ShellProtocol.obj
 0005:00000000       $unwind$EfiShellGetCurDir  00000000000ea7c0     Shell:ShellProtocol.obj
 0005:00000000       $unwind$EfiShellGetGuidFromName 00000000000ea7c0     Shell:ShellProtocol.obj
 0005:00000000       $unwind$EfiShellGetGuidName 00000000000ea7c0     Shell:ShellProtocol.obj
 0005:00000000       $unwind$GetStringNameFromGuid 00000000000ea7c0     UefiHandleParsingLib:UefiHandleParsingLib.obj
 0005:00000000       $unwind$AppendCSDNum       00000000000ea7c0     UefiShellCommandLib:ConsistMapping.obj
 0005:00000000       $unwind$DevPathComparePci  00000000000ea7c0     UefiShellCommandLib:ConsistMapping.obj
 0005:00000000       $unwind$DevPathSerialAcpi  00000000000ea7c0     UefiShellCommandLib:ConsistMapping.obj
 0005:00000000       $unwind$DevPathSerialAtapi 00000000000ea7c0     UefiShellCommandLib:ConsistMapping.obj
 0005:00000000       $unwind$DevPathSerialCdRom 00000000000ea7c0     UefiShellCommandLib:ConsistMapping.obj
 0005:00000000       $unwind$DevPathSerialFibre 00000000000ea7c0     UefiShellCommandLib:ConsistMapping.obj
 0005:00000000       $unwind$DevPathSerialHardDrive 00000000000ea7c0     UefiShellCommandLib:ConsistMapping.obj
 0005:00000000       $unwind$DevPathSerialI2O   00000000000ea7c0     UefiShellCommandLib:ConsistMapping.obj
 0005:00000000       $unwind$DevPathSerialLun   00000000000ea7c0     UefiShellCommandLib:ConsistMapping.obj
 0005:00000000       $unwind$DevPathSerialSata  00000000000ea7c0     UefiShellCommandLib:ConsistMapping.obj
 0005:00000000       $unwind$DevPathSerialScsi  00000000000ea7c0     UefiShellCommandLib:ConsistMapping.obj
 0005:00000000       $unwind$DevPathSerialUart  00000000000ea7c0     UefiShellCommandLib:ConsistMapping.obj
 0005:00000000       $unwind$ShellCommandConsistMappingUnInitialize 00000000000ea7c0     UefiShellCommandLib:ConsistMapping.obj
 0005:00000000       $unwind$ShellCommandFindMapItem 00000000000ea7c0     UefiShellCommandLib:ConsistMapping.obj
 0005:00000000       $unwind$ShellCommandCreateNewMappingName 00000000000ea7c0     UefiShellCommandLib:UefiShellCommandLib.obj
 0005:00000000       $unwind$ShellCommandGetCommandHelp 00000000000ea7c0     UefiShellCommandLib:UefiShellCommandLib.obj
 0005:00000000       $unwind$ShellCommandIsCommandOnList 00000000000ea7c0     UefiShellCommandLib:UefiShellCommandLib.obj
 0005:00000000       $unwind$ShellCommandIsOnAliasList 00000000000ea7c0     UefiShellCommandLib:UefiShellCommandLib.obj
 0005:00000000       $unwind$ShellFileHandleEof 00000000000ea7c0     UefiShellCommandLib:UefiShellCommandLib.obj
 0005:00000000       $unwind$ShellFileHandleGetPath 00000000000ea7c0     UefiShellCommandLib:UefiShellCommandLib.obj
 0005:00000000       $unwind$ShellFileHandleRemove 00000000000ea7c0     UefiShellCommandLib:UefiShellCommandLib.obj
 0005:00000000       $unwind$FileBufferDoDelete 00000000000ea7c0     UefiShellDebug1CommandsLib:FileBuffer.obj
 0005:00000000       $unwind$FileBufferFreeLines 00000000000ea7c0     UefiShellDebug1CommandsLib:FileBuffer.obj
 0005:00000000       $unwind$FileBufferRefresh  00000000000ea7c0     UefiShellDebug1CommandsLib:FileBuffer.obj
 0005:00000000       $unwind$FileBufferScrollLeft 00000000000ea7c0     UefiShellDebug1CommandsLib:FileBuffer.obj
 0005:00000000       $unwind$MainCommandExit    00000000000ea7c0     UefiShellDebug1CommandsLib:MainTextEditor.obj
 0005:00000000       $unwind$LineDup            00000000000ea7c0     UefiShellDebug1CommandsLib:Misc.obj
 0005:00000000       $unwind$HBufferImageAddChar 00000000000ea7c0     UefiShellDebug1CommandsLib:BufferImage.obj
 0005:00000000       $unwind$HBufferImageFreeLines 00000000000ea7c0     UefiShellDebug1CommandsLib:BufferImage.obj
 0005:00000000       $unwind$HBufferImageSave   00000000000ea7c0     UefiShellDebug1CommandsLib:BufferImage.obj
 0005:00000000       $unwind$HMainCommandCut    00000000000ea7c0     UefiShellDebug1CommandsLib:MainHexEditor.obj
 0005:00000000       $unwind$HMainCommandPaste  00000000000ea7c0     UefiShellDebug1CommandsLib:MainHexEditor.obj
 0005:00000000       $unwind$ExplainPcieLinkStatus 00000000000ea7c0     UefiShellDebug1CommandsLib:Pci.obj
 0005:00000000       $unwind$ExplainPcieRootControl 00000000000ea7c0     UefiShellDebug1CommandsLib:Pci.obj
 0005:00000000       $unwind$ExplainPcieRootStatus 00000000000ea7c0     UefiShellDebug1CommandsLib:Pci.obj
 0005:00000000       $unwind$PciGetProtocolAndResource 00000000000ea7c0     UefiShellDebug1CommandsLib:Pci.obj
 0005:00000000       $unwind$TestDataType       00000000000ea7c0     UefiShellDebug1CommandsLib:SetVar.obj
 0005:00000000       $unwind$LibGetSmbiosString 00000000000ea7c0     UefiShellDebug1CommandsLib:LibSmbiosView.obj
 0005:00000000       $unwind$ShellIsValidForNumber 00000000000ea7c0     UefiShellLevel1CommandsLib:For.obj
 0005:00000000       $unwind$ShellCloseFileMetaArg 00000000000ea7c0     UefiShellLib:UefiShellLib.obj
 0005:00000000       $unwind$ShellLibDestructor 00000000000ea7c0     UefiShellLib:UefiShellLib.obj
 0005:0000000c       $unwind$StrCatS            00000000000ea7cc     BaseLib:SafeString.obj
 0005:0000000c       $unwind$ProcessLibraryConstructorList 00000000000ea7cc     Shell:AutoGen.obj
 0005:0000000c       $unwind$BcfgMove           00000000000ea7cc     UefiShellBcfgCommandLib:UefiShellBcfgCommandLib.obj
 0005:0000000c       $unwind$MainEditorKeyInput 00000000000ea7cc     UefiShellDebug1CommandsLib:MainTextEditor.obj
 0005:00000028       $unwind$ProcessLibraryDestructorList 00000000000ea7e8     Shell:AutoGen.obj
 0005:00000028       $unwind$RestoreArgcArgv    00000000000ea7e8     Shell:ShellParametersProtocol.obj
 0005:00000028       $unwind$CreateFullDestPath 00000000000ea7e8     UefiShellLevel2CommandsLib:Mv.obj
 0005:0000003c       $unwind$DevicePathCompare  00000000000ea7fc     UefiSortLib:UefiSortLib.obj
 0005:0000003c       $unwind$DivU64x32Remainder 00000000000ea7fc     BaseLib:DivU64x32Remainder.obj
 0005:0000003c       $unwind$SwapListEntries    00000000000ea7fc     BaseLib:LinkedList.obj
 0005:0000003c       $unwind$AsciiStrnCmp       00000000000ea7fc     BaseLib:String.obj
 0005:0000003c       $unwind$StrCmp             00000000000ea7fc     BaseLib:String.obj
 0005:0000003c       $unwind$StrLen             00000000000ea7fc     BaseLib:String.obj
 0005:0000003c       $unwind$StrStr             00000000000ea7fc     BaseLib:String.obj
 0005:0000003c       $unwind$CopyGuid           00000000000ea7fc     BaseMemoryLibRepStr:MemLibGuid.obj
 0005:0000003c       $unwind$SetMem16           00000000000ea7fc     BaseMemoryLibRepStr:SetMem16Wrapper.obj
 0005:0000003c       $unwind$SetMem             00000000000ea7fc     BaseMemoryLibRepStr:SetMemWrapper.obj
 0005:0000003c       $unwind$ConvertDevicePathToText 00000000000ea7fc     UefiDevicePathLibDevicePathProtocol:UefiDevicePathLib.obj
 0005:0000003c       $unwind$SerialPortWrite    00000000000ea7fc     PcAtSerialPortLib:SerialPortLib.obj
 0005:0000003c       $unwind$ConsoleLoggerDisplayHistory 00000000000ea7fc     Shell:ConsoleLogger.obj
 0005:0000003c       $unwind$ConsoleLoggerInstall 00000000000ea7fc     Shell:ConsoleLogger.obj
 0005:0000003c       $unwind$ConsoleLoggerReset 00000000000ea7fc     Shell:ConsoleLogger.obj
 0005:0000003c       $unwind$ConsoleLoggerResetBuffers 00000000000ea7fc     Shell:ConsoleLogger.obj
 0005:0000003c       $unwind$ConsoleLoggerSetCursorPosition 00000000000ea7fc     Shell:ConsoleLogger.obj
 0005:0000003c       $unwind$CloseSimpleTextInOnFile 00000000000ea7fc     Shell:ConsoleWrappers.obj
 0005:0000003c       $unwind$FileInterfaceMemGetInfo 00000000000ea7fc     Shell:FileHandleWrappers.obj
 0005:0000003c       $unwind$ContainsSplit      00000000000ea7fc     Shell:Shell.obj
 0005:0000003c       $unwind$TrimSpaces         00000000000ea7fc     Shell:Shell.obj
 0005:0000003c       $unwind$GetManFileName     00000000000ea7fc     Shell:ShellManParser.obj
 0005:0000003c       $unwind$CleanUpShellProtocol 00000000000ea7fc     Shell:ShellProtocol.obj
 0005:0000003c       $unwind$EfiShellRegisterGuidName 00000000000ea7fc     Shell:ShellProtocol.obj
 0005:0000003c       $unwind$InternalDuplicateShellFileInfo 00000000000ea7fc     Shell:ShellProtocol.obj
 0005:0000003c       $unwind$InsertNewGuidNameMapping 00000000000ea7fc     UefiHandleParsingLib:UefiHandleParsingLib.obj
 0005:0000003c       $unwind$InternalShellGetNodeFromGuid 00000000000ea7fc     UefiHandleParsingLib:UefiHandleParsingLib.obj
 0005:0000003c       $unwind$AppendCSDNum2      00000000000ea7fc     UefiShellCommandLib:ConsistMapping.obj
 0005:0000003c       $unwind$DevPathCompareDefault 00000000000ea7fc     UefiShellCommandLib:ConsistMapping.obj
 0005:0000003c       $unwind$ShellCommandRegisterAlias 00000000000ea7fc     UefiShellCommandLib:UefiShellCommandLib.obj
 0005:0000003c       $unwind$Compress           00000000000ea7fc     UefiShellDebug1CommandsLib:Compress.obj
 0005:0000003c       $unwind$CompressOutput     00000000000ea7fc     UefiShellDebug1CommandsLib:Compress.obj
 0005:0000003c       $unwind$CountLen           00000000000ea7fc     UefiShellDebug1CommandsLib:Compress.obj
 0005:0000003c       $unwind$GetNextMatch       00000000000ea7fc     UefiShellDebug1CommandsLib:Compress.obj
 0005:0000003c       $unwind$FileBufferDoBackspace 00000000000ea7fc     UefiShellDebug1CommandsLib:FileBuffer.obj
 0005:0000003c       $unwind$FileBufferMovePosition 00000000000ea7fc     UefiShellDebug1CommandsLib:FileBuffer.obj
 0005:0000003c       $unwind$HBufferImageDoCharInput 00000000000ea7fc     UefiShellDebug1CommandsLib:BufferImage.obj
 0005:0000003c       $unwind$HBufferImageMovePosition 00000000000ea7fc     UefiShellDebug1CommandsLib:BufferImage.obj
 0005:0000003c       $unwind$HBufferImageRead   00000000000ea7fc     UefiShellDebug1CommandsLib:BufferImage.obj
 0005:0000003c       $unwind$HLineAdvance       00000000000ea7fc     UefiShellDebug1CommandsLib:Misc.obj
 0005:0000003c       $unwind$HLineRetreat       00000000000ea7fc     UefiShellDebug1CommandsLib:Misc.obj
 0005:0000003c       $unwind$ExplainPcieCapReg  00000000000ea7fc     UefiShellDebug1CommandsLib:Pci.obj
 0005:0000003c       $unwind$ExplainPcieDeviceControl 00000000000ea7fc     UefiShellDebug1CommandsLib:Pci.obj
 0005:0000003c       $unwind$ExplainPcieLinkCap 00000000000ea7fc     UefiShellDebug1CommandsLib:Pci.obj
 0005:0000003c       $unwind$ExplainPcieLinkControl 00000000000ea7fc     UefiShellDebug1CommandsLib:Pci.obj
 0005:0000003c       $unwind$EditGetDefaultFileName 00000000000ea7fc     UefiShellDebug1CommandsLib:UefiShellDebug1CommandsLib.obj
 0005:0000003c       $unwind$IsValidFileName    00000000000ea7fc     UefiShellDebug1CommandsLib:UefiShellDebug1CommandsLib.obj
 0005:0000003c       $unwind$InternalIsAliasOnList 00000000000ea7fc     UefiShellLevel1CommandsLib:For.obj
 0005:0000003c       $unwind$InternalRemoveAliasFromList 00000000000ea7fc     UefiShellLevel1CommandsLib:For.obj
 0005:0000003c       $unwind$BuildNextStatement 00000000000ea7fc     UefiShellLevel1CommandsLib:If.obj
 0005:0000003c       $unwind$ShellLevel2StripQuotes 00000000000ea7fc     UefiShellLevel2CommandsLib:UefiShellLevel2CommandsLib.obj
 0005:0000003c       $unwind$PrintAllShellAlias 00000000000ea7fc     UefiShellLevel3CommandsLib:Alias.obj
 0005:0000003c       $unwind$InternalIsFlag     00000000000ea7fc     UefiShellLib:UefiShellLib.obj
 0005:0000003c       $unwind$InternalShellStrDecimalToUint64 00000000000ea7fc     UefiShellLib:UefiShellLib.obj
 0005:0000003c       $unwind$InternalShellStrHexToUint64 00000000000ea7fc     UefiShellLib:UefiShellLib.obj
 0005:0000003c       $unwind$ShellCommandLineGetCount 00000000000ea7fc     UefiShellLib:UefiShellLib.obj
 0005:0000003c       $unwind$ShellCommandLineGetRawValue 00000000000ea7fc     UefiShellLib:UefiShellLib.obj
 0005:0000003c       $unwind$ShellPromptForResponseHii 00000000000ea7fc     UefiShellLib:UefiShellLib.obj
 0005:0000003c       $unwind$PingSendEchoRequest 00000000000ea7fc     UefiShellNetwork1CommandsLib:Ping.obj
 0005:0000004c       $unwind$InternalEfiShellStartCtrlSMonitor 00000000000ea80c     Shell:Shell.obj
 0005:0000004c       $unwind$InernalEfiShellStartMonitor 00000000000ea80c     Shell:ShellProtocol.obj
 0005:00000058       $unwind$UefiMain           00000000000ea818     Shell:Shell.obj
 0005:00000070       $unwind$IsScriptOnlyCommand 00000000000ea830     Shell:Shell.obj
 0005:0000007c       $unwind$PerformQuickSort   00000000000ea83c     UefiSortLib:UefiSortLib.obj
 0005:0000007c       $unwind$GetDevicePathsForImageAndFile 00000000000ea83c     Shell:Shell.obj
 0005:0000007c       $unwind$DisplayElVdfInfo   00000000000ea83c     UefiShellDebug1CommandsLib:EventLogInfo.obj
 0005:0000007c       $unwind$DisplaySELAccessMethod 00000000000ea83c     UefiShellDebug1CommandsLib:EventLogInfo.obj
 0005:0000007c       $unwind$DisplaySELLogStatus 00000000000ea83c     UefiShellDebug1CommandsLib:EventLogInfo.obj
 0005:0000007c       $unwind$DisplaySysEventLogHeader 00000000000ea83c     UefiShellDebug1CommandsLib:EventLogInfo.obj
 0005:0000007c       $unwind$DisplaySysEventLogHeaderFormat 00000000000ea83c     UefiShellDebug1CommandsLib:EventLogInfo.obj
 0005:0000007c       $unwind$DisplayBiosCharacteristics 00000000000ea83c     UefiShellDebug1CommandsLib:PrintInfo.obj
 0005:0000007c       $unwind$DisplayBiosCharacteristicsExt1 00000000000ea83c     UefiShellDebug1CommandsLib:PrintInfo.obj
 0005:0000007c       $unwind$DisplayBiosCharacteristicsExt2 00000000000ea83c     UefiShellDebug1CommandsLib:PrintInfo.obj
 0005:0000007c       $unwind$DisplayMmMemorySize 00000000000ea83c     UefiShellDebug1CommandsLib:PrintInfo.obj
 0005:0000007c       $unwind$DisplayOBRAConnections 00000000000ea83c     UefiShellDebug1CommandsLib:PrintInfo.obj
 0005:0000007c       $unwind$DisplayProcessorStatus 00000000000ea83c     UefiShellDebug1CommandsLib:PrintInfo.obj
 0005:0000007c       $unwind$DisplayProcessorVoltage 00000000000ea83c     UefiShellDebug1CommandsLib:PrintInfo.obj
 0005:0000007c       $unwind$DisplaySystemBootStatus 00000000000ea83c     UefiShellDebug1CommandsLib:PrintInfo.obj
 0005:0000007c       $unwind$DisplayTpmDeviceCharacteristics 00000000000ea83c     UefiShellDebug1CommandsLib:PrintInfo.obj
 0005:0000007c       $unwind$PrintBitsInfo      00000000000ea83c     UefiShellDebug1CommandsLib:QueryTable.obj
 0005:0000008c       $unwind$ProcessCommandLine 00000000000ea84c     Shell:Shell.obj
 0005:0000009c       $unwind$DoStartupScript    00000000000ea85c     Shell:Shell.obj
 0005:0000009c       $unwind$ShellCommandConsistMappingInitialize 00000000000ea85c     UefiShellCommandLib:ConsistMapping.obj
 0005:000000b0       $unwind$DoShellPrompt      00000000000ea870     Shell:Shell.obj
 0005:000000bc       $unwind$EfiBootManagerFreeLoadOption 00000000000ea87c     UefiBootManagerLib:BmLoadOption.obj
 0005:000000bc       $unwind$HiiRemovePackages  00000000000ea87c     UefiHiiLib:HiiLib.obj
 0005:000000bc       $unwind$GetFirstNode       00000000000ea87c     BaseLib:LinkedList.obj
 0005:000000bc       $unwind$GetNextNode        00000000000ea87c     BaseLib:LinkedList.obj
 0005:000000bc       $unwind$GetPreviousNode    00000000000ea87c     BaseLib:LinkedList.obj
 0005:000000bc       $unwind$InitializeListHead 00000000000ea87c     BaseLib:LinkedList.obj
 0005:000000bc       $unwind$InternalBaseLibIsListValid 00000000000ea87c     BaseLib:LinkedList.obj
 0005:000000bc       $unwind$IsListEmpty        00000000000ea87c     BaseLib:LinkedList.obj
 0005:000000bc       $unwind$RemoveEntryList    00000000000ea87c     BaseLib:LinkedList.obj
 0005:000000bc       $unwind$ReadUnaligned16    00000000000ea87c     BaseLib:Unaligned.obj
 0005:000000bc       $unwind$ReadUnaligned64    00000000000ea87c     BaseLib:Unaligned.obj
 0005:000000bc       $unwind$PeCoffLoaderGetPdbPointer 00000000000ea87c     BasePeCoffGetEntryPointLib:PeCoffGetEntryPoint.obj
 0005:000000bc       $unwind$DevicePathNodeLength 00000000000ea87c     UefiDevicePathLibDevicePathProtocol:UefiDevicePathLib.obj
 0005:000000bc       $unwind$FileHandleGetSize  00000000000ea87c     UefiFileHandleLib:UefiFileHandleLib.obj
 0005:000000bc       $unwind$FileHandleIsDirectory 00000000000ea87c     UefiFileHandleLib:UefiFileHandleLib.obj
 0005:000000bc       $unwind$AllocateZeroPool   00000000000ea87c     UefiMemoryAllocationLib:MemoryAllocationLib.obj
 0005:000000bc       $unwind$ConsoleLoggerClearScreen 00000000000ea87c     Shell:ConsoleLogger.obj
 0005:000000bc       $unwind$ConsoleLoggerDoPageBreak 00000000000ea87c     Shell:ConsoleLogger.obj
 0005:000000bc       $unwind$ConsoleLoggerUninstall 00000000000ea87c     Shell:ConsoleLogger.obj
 0005:000000bc       $unwind$FileInterfaceMemClose 00000000000ea87c     Shell:FileHandleWrappers.obj
 0005:000000bc       $unwind$AddBufferToFreeList 00000000000ea87c     Shell:Shell.obj
 0005:000000bc       $unwind$RestoreBufferList  00000000000ea87c     Shell:Shell.obj
 0005:000000bc       $unwind$VerifySplit        00000000000ea87c     Shell:Shell.obj
 0005:000000bc       $unwind$FixVarName         00000000000ea87c     Shell:ShellParametersProtocol.obj
 0005:000000bc       $unwind$WriteFileTag       00000000000ea87c     Shell:ShellParametersProtocol.obj
 0005:000000bc       $unwind$EfiShellClose      00000000000ea87c     Shell:ShellProtocol.obj
 0005:000000bc       $unwind$InternalFreeShellFileInfoNode 00000000000ea87c     Shell:ShellProtocol.obj
 0005:000000bc       $unwind$DriverEfiVersionProtocolDumpInformation 00000000000ea87c     UefiHandleParsingLib:UefiHandleParsingLib.obj
 0005:000000bc       $unwind$DevPathSerialIScsi 00000000000ea87c     UefiShellCommandLib:ConsistMapping.obj
 0005:000000bc       $unwind$ShellCommandSetNewScript 00000000000ea87c     UefiShellCommandLib:UefiShellCommandLib.obj
 0005:000000bc       $unwind$InitSlide          00000000000ea87c     UefiShellDebug1CommandsLib:Compress.obj
 0005:000000bc       $unwind$InputBarSetPrompt  00000000000ea87c     UefiShellDebug1CommandsLib:EditInputBar.obj
 0005:000000bc       $unwind$InputBarSetStringSize 00000000000ea87c     UefiShellDebug1CommandsLib:EditInputBar.obj
 0005:000000bc       $unwind$MenuBarInit        00000000000ea87c     UefiShellDebug1CommandsLib:EditMenuBar.obj
 0005:000000bc       $unwind$StatusBarSetStatusString 00000000000ea87c     UefiShellDebug1CommandsLib:EditStatusBar.obj
 0005:000000bc       $unwind$MainTitleBarInit   00000000000ea87c     UefiShellDebug1CommandsLib:EditTitleBar.obj
 0005:000000bc       $unwind$FileBufferCreateLine 00000000000ea87c     UefiShellDebug1CommandsLib:FileBuffer.obj
 0005:000000bc       $unwind$FileBufferInit     00000000000ea87c     UefiShellDebug1CommandsLib:FileBuffer.obj
 0005:000000bc       $unwind$FileBufferSetFileName 00000000000ea87c     UefiShellDebug1CommandsLib:FileBuffer.obj
 0005:000000bc       $unwind$HBufferImageCreateLine 00000000000ea87c     UefiShellDebug1CommandsLib:BufferImage.obj
 0005:000000bc       $unwind$HFileImageSetFileName 00000000000ea87c     UefiShellDebug1CommandsLib:FileImage.obj
 0005:000000bc       $unwind$HMainCommandGoToOffset 00000000000ea87c     UefiShellDebug1CommandsLib:MainHexEditor.obj
 0005:000000bc       $unwind$HMainCommandSelectEnd 00000000000ea87c     UefiShellDebug1CommandsLib:MainHexEditor.obj
 0005:000000bc       $unwind$InternalPrintTo    00000000000ea87c     UefiShellLib:UefiShellLib.obj
 0005:000000bc       $unwind$ShellFileExists    00000000000ea87c     UefiShellLib:UefiShellLib.obj
 0005:000000bc       $unwind$ShellStrToUintn    00000000000ea87c     UefiShellLib:UefiShellLib.obj
 0005:000000c4       $unwind$PathCleanUpDirectories 00000000000ea884     BaseLib:FilePaths.obj
 0005:000000c4       $unwind$FileDevicePath     00000000000ea884     UefiDevicePathLibDevicePathProtocol:UefiDevicePathLib.obj
 0005:000000c4       $unwind$EfiGetSystemConfigurationTable 00000000000ea884     UefiLib:UefiLib.obj
 0005:000000c4       $unwind$InternalPrint      00000000000ea884     UefiLib:UefiLibPrint.obj
 0005:000000c4       $unwind$AppendStringToHistory 00000000000ea884     Shell:ConsoleLogger.obj
 0005:000000c4       $unwind$FileInterfaceMemWrite 00000000000ea884     Shell:FileHandleWrappers.obj
 0005:000000c4       $unwind$AddLineToCommandHistory 00000000000ea884     Shell:Shell.obj
 0005:000000c4       $unwind$ShellAddEnvVarToList 00000000000ea884     Shell:ShellEnvVar.obj
 0005:000000c4       $unwind$EfiShellSetAlias   00000000000ea884     Shell:ShellProtocol.obj
 0005:000000c4       $unwind$GetAllMappingGuids 00000000000ea884     UefiHandleParsingLib:UefiHandleParsingLib.obj
 0005:000000c4       $unwind$AppendCSDStr       00000000000ea884     UefiShellCommandLib:ConsistMapping.obj
 0005:000000c4       $unwind$ConvertEfiFileProtocolToShellHandle 00000000000ea884     UefiShellCommandLib:UefiShellCommandLib.obj
 0005:000000c4       $unwind$WritePTLen         00000000000ea884     UefiShellDebug1CommandsLib:Compress.obj
 0005:000000c4       $unwind$FileBufferAddChar  00000000000ea884     UefiShellDebug1CommandsLib:FileBuffer.obj
 0005:000000c4       $unwind$LineCat            00000000000ea884     UefiShellDebug1CommandsLib:FileBuffer.obj
 0005:000000c4       $unwind$HBufferImageBufferToList 00000000000ea884     UefiShellDebug1CommandsLib:BufferImage.obj
 0005:000000c4       $unwind$HBufferImageInit   00000000000ea884     UefiShellDebug1CommandsLib:BufferImage.obj
 0005:000000c4       $unwind$AddMemoryLength    00000000000ea884     UefiShellDebug1CommandsLib:MemMap.obj
 0005:000000c4       $unwind$ReplaceDriveWithCwd 00000000000ea884     UefiShellLevel2CommandsLib:Cd.obj
 0005:000000c4       $unwind$FileTimeToLocalTime 00000000000ea884     UefiShellLevel2CommandsLib:Ls.obj
 0005:000000c4       $unwind$IsSoucePathValid   00000000000ea884     UefiShellLevel2CommandsLib:Mv.obj
 0005:000000c4       $unwind$SplitStrToList     00000000000ea884     UefiShellNetwork1CommandsLib:Ifconfig.obj
 0005:000000dc       $unwind$ShellConvertVariables 00000000000ea89c     Shell:Shell.obj
 0005:000000f4       $unwind$RunSplitCommand    00000000000ea8b4     Shell:Shell.obj
 0005:0000010c       $unwind$ShellSubstituteAliases 00000000000ea8cc     Shell:Shell.obj
 0005:00000120       $unwind$IsValidSplit       00000000000ea8e0     Shell:Shell.obj
 0005:00000120       $unwind$RunShellCommand    00000000000ea8e0     Shell:Shell.obj
 0005:00000134       $unwind$SetLastError       00000000000ea8f4     Shell:Shell.obj
 0005:0000013c       $unwind$EfiBootManagerIsValidLoadOptionVariableName 00000000000ea8fc     UefiBootManagerLib:BmLoadOption.obj
 0005:0000013c       $unwind$ProcessCommandLineToFinal 00000000000ea8fc     Shell:Shell.obj
 0005:0000013c       $unwind$IsTitleHeader      00000000000ea8fc     Shell:ShellManParser.obj
 0005:0000013c       $unwind$DeleteNode         00000000000ea8fc     UefiShellDebug1CommandsLib:Compress.obj
 0005:0000013c       $unwind$MainCommandSearchReplace 00000000000ea8fc     UefiShellDebug1CommandsLib:MainTextEditor.obj
 0005:0000013c       $unwind$HBufferImageAddCharacterToBuffer 00000000000ea8fc     UefiShellDebug1CommandsLib:BufferImage.obj
 0005:0000013c       $unwind$HBufferImageDeleteCharacterFromBuffer 00000000000ea8fc     UefiShellDebug1CommandsLib:BufferImage.obj
 0005:0000013c       $unwind$LexicalInsertIntoList 00000000000ea8fc     UefiShellLevel3CommandsLib:Help.obj
 0005:0000013c       $unwind$TypeFileByHandle   00000000000ea8fc     UefiShellLevel3CommandsLib:Type.obj
 0005:0000013c       $unwind$ShellLevel3CommandsLibConstructor 00000000000ea8fc     UefiShellLevel3CommandsLib:UefiShellLevel3CommandsLib.obj
 0005:00000158       $unwind$StrnCatS           00000000000ea918     BaseLib:SafeString.obj
 0005:00000158       $unwind$RunInternalCommand 00000000000ea918     Shell:Shell.obj
 0005:00000158       $unwind$PerformMappingDisplay2 00000000000ea918     UefiShellLevel2CommandsLib:Map.obj
 0005:00000158       $unwind$InternalShellPrintWorker 00000000000ea918     UefiShellLib:UefiShellLib.obj
 0005:00000174       $unwind$StrnCpyS           00000000000ea934     BaseLib:SafeString.obj
 0005:00000174       $unwind$RunCommandOrFile   00000000000ea934     Shell:Shell.obj
 0005:00000174       $unwind$FileBufferPrintLine 00000000000ea934     UefiShellDebug1CommandsLib:FileBuffer.obj
 0005:00000174       $unwind$PciExplainPciExpress 00000000000ea934     UefiShellDebug1CommandsLib:Pci.obj
 0005:0000018c       $unwind$SetupAndRunCommandOrFile 00000000000ea94c     Shell:Shell.obj
 0005:000001a4       $unwind$RunScriptFileHandle 00000000000ea964     Shell:Shell.obj
 0005:000001c0       $unwind$RunScriptFile      00000000000ea980     Shell:Shell.obj
 0005:000001d0       $unwind$FindFirstCharacter 00000000000ea990     Shell:Shell.obj
 0005:000001d0       $unwind$SendBlock          00000000000ea990     UefiShellDebug1CommandsLib:Compress.obj
 0005:000001d0       $unwind$StrniCmp           00000000000ea990     UefiShellLevel2CommandsLib:UefiShellLevel2CommandsLib.obj
 0005:000001ec       $unwind$EfiShellSetMap     00000000000ea9ac     Shell:ShellProtocol.obj
 0005:000001f8       $unwind$EfiShellGetDevicePathFromMap 00000000000ea9b8     Shell:ShellProtocol.obj
 0005:00000200       $unwind$EfiShellGetMapFromDevicePath 00000000000ea9c0     Shell:ShellProtocol.obj
 0005:00000214       $unwind$EfiShellGetFilePathFromDevicePath 00000000000ea9d4     Shell:ShellProtocol.obj
 0005:00000228       $unwind$EfiShellGetDevicePathFromFilePath 00000000000ea9e8     Shell:ShellProtocol.obj
 0005:00000238       $unwind$EfiShellGetDeviceName 00000000000ea9f8     Shell:ShellProtocol.obj
 0005:00000250       $unwind$EfiShellOpenRootByHandle 00000000000eaa10     Shell:ShellProtocol.obj
 0005:00000250       $unwind$UsbIoProtocolDumpInformation 00000000000eaa10     UefiHandleParsingLib:UefiHandleParsingLib.obj
 0005:0000025c       $unwind$EfiShellOpenRoot   00000000000eaa1c     Shell:ShellProtocol.obj
 0005:00000264       $unwind$GetHobList         00000000000eaa24     DxeHobLib:HobLib.obj
 0005:00000264       $unwind$TdSharedPageMask   00000000000eaa24     TdxLib:TdInfo.obj
 0005:00000264       $unwind$DevicePathFromHandle 00000000000eaa24     UefiDevicePathLibDevicePathProtocol:UefiDevicePathLib.obj
 0005:00000264       $unwind$UefiDevicePathLibLocateProtocol 00000000000eaa24     UefiDevicePathLibDevicePathProtocol:UefiDevicePathLib.obj
 0005:00000264       $unwind$FreePool           00000000000eaa24     UefiMemoryAllocationLib:MemoryAllocationLib.obj
 0005:00000264       $unwind$InternalAllocatePool 00000000000eaa24     UefiMemoryAllocationLib:MemoryAllocationLib.obj
 0005:00000264       $unwind$FileBasedSimpleTextInReadKeyStroke 00000000000eaa24     Shell:ConsoleWrappers.obj
 0005:00000264       $unwind$FindEndOfParameter 00000000000eaa24     Shell:ShellParametersProtocol.obj
 0005:00000264       $unwind$EfiShellBatchIsActive 00000000000eaa24     Shell:ShellProtocol.obj
 0005:00000264       $unwind$EfiShellDeleteFileByName 00000000000eaa24     Shell:ShellProtocol.obj
 0005:00000264       $unwind$HandleParsingHiiInit 00000000000eaa24     UefiHandleParsingLib:UefiHandleParsingLib.obj
 0005:00000264       $unwind$ShellCommandGetCurrentScriptFile 00000000000eaa24     UefiShellCommandLib:UefiShellCommandLib.obj
 0005:00000264       $unwind$FreeMemory         00000000000eaa24     UefiShellDebug1CommandsLib:Compress.obj
 0005:00000264       $unwind$MenuBarDispatchControlHotKey 00000000000eaa24     UefiShellDebug1CommandsLib:EditMenuBar.obj
 0005:00000264       $unwind$FileBufferPasteLine 00000000000eaa24     UefiShellDebug1CommandsLib:FileBuffer.obj
 0005:00000264       $unwind$FileBufferScrollRight 00000000000eaa24     UefiShellDebug1CommandsLib:FileBuffer.obj
 0005:00000264       $unwind$MainCommandGotoLine 00000000000eaa24     UefiShellDebug1CommandsLib:MainTextEditor.obj
 0005:00000264       $unwind$MainCommandPasteLine 00000000000eaa24     UefiShellDebug1CommandsLib:MainTextEditor.obj
 0005:00000264       $unwind$MainCommandSwitchFileType 00000000000eaa24     UefiShellDebug1CommandsLib:MainTextEditor.obj
 0005:00000264       $unwind$MainEditorBackup   00000000000eaa24     UefiShellDebug1CommandsLib:MainTextEditor.obj
 0005:00000264       $unwind$HBufferImageGetTotalSize 00000000000eaa24     UefiShellDebug1CommandsLib:BufferImage.obj
 0005:00000264       $unwind$HMainCommandSelectStart 00000000000eaa24     UefiShellDebug1CommandsLib:MainHexEditor.obj
 0005:00000264       $unwind$HMainEditorBackup  00000000000eaa24     UefiShellDebug1CommandsLib:MainHexEditor.obj
 0005:00000264       $unwind$ExplainPcieRootCap 00000000000eaa24     UefiShellDebug1CommandsLib:Pci.obj
 0005:00000264       $unwind$ReturnUintn        00000000000eaa24     UefiShellLevel1CommandsLib:For.obj
 0005:00000264       $unwind$ShellGetExecutionBreakFlag 00000000000eaa24     UefiShellLib:UefiShellLib.obj
 0005:00000264       $unwind$ShellInitialize    00000000000eaa24     UefiShellLib:UefiShellLib.obj
 0005:0000026c       $unwind$InternalOpenFileDevicePath 00000000000eaa2c     Shell:ShellProtocol.obj
 0005:00000284       $unwind$FileInterfaceFileWrite 00000000000eaa44     Shell:FileHandleWrappers.obj
 0005:00000284       $unwind$EfiShellCreateFile 00000000000eaa44     Shell:ShellProtocol.obj
 0005:00000284       $unwind$EfiShellRemoveDupInFileList 00000000000eaa44     Shell:ShellProtocol.obj
 0005:00000284       $unwind$ConvertStrToGuid   00000000000eaa44     UefiShellDriver1CommandsLib:Dh.obj
 0005:00000298       $unwind$FileHandleFindFirstFile 00000000000eaa58     UefiFileHandleLib:UefiFileHandleLib.obj
 0005:00000298       $unwind$EfiShellOpenFileByName 00000000000eaa58     Shell:ShellProtocol.obj
 0005:00000298       $unwind$ShellCommandFindDynamicCommand 00000000000eaa58     UefiShellCommandLib:UefiShellCommandLib.obj
 0005:000002a8       $unwind$InternalShellExecuteDevicePath 00000000000eaa68     Shell:ShellProtocol.obj
 0005:000002c4       $unwind$NestingEnabled     00000000000eaa84     Shell:ShellProtocol.obj
 0005:000002d0       $unwind$EfiShellExecute    00000000000eaa90     Shell:ShellProtocol.obj
 0005:000002e8       $unwind$CreateAndPopulateShellFileInfo 00000000000eaaa8     Shell:ShellProtocol.obj
 0005:00000304       $unwind$EfiShellFindFilesInDir 00000000000eaac4     Shell:ShellProtocol.obj
 0005:0000031c       $unwind$ManFileFindSections 00000000000eaadc     Shell:ShellManParser.obj
 0005:0000031c       $unwind$ShellSearchHandle  00000000000eaadc     Shell:ShellProtocol.obj
 0005:00000334       $unwind$EfiShellFindFiles  00000000000eaaf4     Shell:ShellProtocol.obj
 0005:00000348       $unwind$EfiShellOpenFileList 00000000000eab08     Shell:ShellProtocol.obj
 0005:00000360       $unwind$EfiShellGetEnvEx   00000000000eab20     Shell:ShellProtocol.obj
 0005:00000374       $unwind$UnicodeVSPrint     00000000000eab34     BasePrintLib:PrintLib.obj
 0005:00000374       $unwind$InternalEfiShellSetEnv 00000000000eab34     Shell:ShellProtocol.obj
 0005:00000374       $unwind$HMemImageSave      00000000000eab34     UefiShellDebug1CommandsLib:MemImage.obj
 0005:00000374       $unwind$DisplaySystemSlotId 00000000000eab34     UefiShellDebug1CommandsLib:PrintInfo.obj
 0005:00000388       $unwind$StrnCmp            00000000000eab48     BaseLib:String.obj
 0005:00000388       $unwind$CompareMem         00000000000eab48     BaseMemoryLibRepStr:CompareMemWrapper.obj
 0005:00000388       $unwind$CopyMem            00000000000eab48     BaseMemoryLibRepStr:CopyMemWrapper.obj
 0005:00000388       $unwind$InternalReallocatePool 00000000000eab48     UefiMemoryAllocationLib:MemoryAllocationLib.obj
 0005:00000388       $unwind$ConsoleLoggerQueryMode 00000000000eab48     Shell:ConsoleLogger.obj
 0005:00000388       $unwind$CreateSimpleTextOutOnFile 00000000000eab48     Shell:ConsoleWrappers.obj
 0005:00000388       $unwind$EfiShellSetEnv     00000000000eab48     Shell:ShellProtocol.obj
 0005:00000388       $unwind$Encode             00000000000eab48     UefiShellDebug1CommandsLib:Compress.obj
 0005:00000388       $unwind$WriteCLen          00000000000eab48     UefiShellDebug1CommandsLib:Compress.obj
 0005:00000388       $unwind$FileBufferHandleInput 00000000000eab48     UefiShellDebug1CommandsLib:FileBuffer.obj
 0005:00000388       $unwind$FileBufferSearch   00000000000eab48     UefiShellDebug1CommandsLib:FileBuffer.obj
 0005:00000388       $unwind$InternalEditorMiscLineAdvance 00000000000eab48     UefiShellDebug1CommandsLib:FileBuffer.obj
 0005:00000388       $unwind$InternalEditorMiscLineRetreat 00000000000eab48     UefiShellDebug1CommandsLib:FileBuffer.obj
 0005:00000388       $unwind$MainCommandCutLine 00000000000eab48     UefiShellDebug1CommandsLib:MainTextEditor.obj
 0005:00000388       $unwind$MainCommandSearch  00000000000eab48     UefiShellDebug1CommandsLib:MainTextEditor.obj
 0005:00000388       $unwind$HBufferImageHandleInput 00000000000eab48     UefiShellDebug1CommandsLib:BufferImage.obj
 0005:00000388       $unwind$HBufferImageListToBuffer 00000000000eab48     UefiShellDebug1CommandsLib:BufferImage.obj
 0005:00000388       $unwind$HBufferImagePageDown 00000000000eab48     UefiShellDebug1CommandsLib:BufferImage.obj
 0005:00000388       $unwind$HBufferImageScrollDown 00000000000eab48     UefiShellDebug1CommandsLib:BufferImage.obj
 0005:00000388       $unwind$GetSystemConfigurationTable 00000000000eab48     UefiShellDebug1CommandsLib:UefiShellDebug1CommandsLib.obj
 0005:00000388       $unwind$AddMappingFromMapping 00000000000eab48     UefiShellLevel2CommandsLib:Map.obj
 0005:00000388       $unwind$ShellCommandLineCheckDuplicate 00000000000eab48     UefiShellLib:UefiShellLib.obj
 0005:0000039c       $unwind$EfiShellSetCurDir  00000000000eab5c     Shell:ShellProtocol.obj
 0005:000003b4       $unwind$EfiShellGetHelpText 00000000000eab74     Shell:ShellProtocol.obj
 0005:000003b4       $unwind$InternalSetAlias   00000000000eab74     Shell:ShellProtocol.obj
 0005:000003b4       $unwind$PrintDifferentPoint 00000000000eab74     UefiShellDebug1CommandsLib:Comp.obj
 0005:000003b4       $unwind$HMemImageRead      00000000000eab74     UefiShellDebug1CommandsLib:MemImage.obj
 0005:000003b4       $unwind$DisplayCacheConfiguration 00000000000eab74     UefiShellDebug1CommandsLib:PrintInfo.obj
 0005:000003b4       $unwind$DisplaySPSCharacteristics 00000000000eab74     UefiShellDebug1CommandsLib:PrintInfo.obj
 0005:000003b4       $unwind$ShellConvertStringToUint64 00000000000eab74     UefiShellLib:UefiShellLib.obj
 0005:000003b4       $unwind$ShellOpenFileMetaArg 00000000000eab74     UefiShellLib:UefiShellLib.obj
 0005:000003cc       $unwind$InternalEfiShellGetListAlias 00000000000eab8c     Shell:ShellProtocol.obj
 0005:000003e0       $unwind$EfiShellGetAlias   00000000000eaba0     Shell:ShellProtocol.obj
 0005:000003f0       $unwind$CreatePopulateInstallShellProtocol 00000000000eabb0     Shell:ShellProtocol.obj
 0005:00000408       $unwind$TdIoRead16         00000000000eabc8     BaseIoLibIntrinsicSev:IoLibInternalTdx.obj
 0005:00000408       $unwind$TdIoRead32         00000000000eabc8     BaseIoLibIntrinsicSev:IoLibInternalTdx.obj
 0005:00000408       $unwind$TdIoWrite8         00000000000eabc8     BaseIoLibIntrinsicSev:IoLibInternalTdx.obj
 0005:00000408       $unwind$FileInterfaceEnvDelete 00000000000eabc8     Shell:FileHandleWrappers.obj
 0005:00000408       $unwind$FileInterfaceEnvRead 00000000000eabc8     Shell:FileHandleWrappers.obj
 0005:00000408       $unwind$CleanUpShellEnvironment 00000000000eabc8     Shell:ShellProtocol.obj
 0005:00000408       $unwind$MainEditorCleanup  00000000000eabc8     UefiShellDebug1CommandsLib:MainTextEditor.obj
 0005:00000408       $unwind$GetDriverImageName 00000000000eabc8     UefiShellDriver1CommandsLib:Dh.obj
 0005:00000408       $unwind$PrintNonSfoHeader  00000000000eabc8     UefiShellLevel2CommandsLib:Ls.obj
 0005:00000408       $unwind$PerformSingleMappingDelete 00000000000eabc8     UefiShellLevel2CommandsLib:Map.obj
 0005:00000410       $unwind$CreateSimpleTextInOnFile 00000000000eabd0     Shell:ConsoleWrappers.obj
 0005:00000420       $unwind$BasePrintLibValueToString 00000000000eabe0     BasePrintLib:PrintLibInternal.obj
 0005:00000420       $unwind$FileHandleGetInfo  00000000000eabe0     UefiFileHandleLib:UefiFileHandleLib.obj
 0005:00000420       $unwind$FileBasedSimpleTextOutOutputString 00000000000eabe0     Shell:ConsoleWrappers.obj
 0005:0000042c       $unwind$IsVolatileEnv      00000000000eabec     Shell:ShellEnvVar.obj
 0005:0000043c       $unwind$GetEnvironmentVariableList 00000000000eabfc     Shell:ShellEnvVar.obj
 0005:00000454       $unwind$SetEnvironmentVariableList 00000000000eac14     Shell:ShellEnvVar.obj
 0005:00000468       $unwind$BmValidateOption   00000000000eac28     UefiBootManagerLib:BmLoadOption.obj
 0005:00000468       $unwind$StrnCatGrowLeft    00000000000eac28     UefiFileHandleLib:UefiFileHandleLib.obj
 0005:00000468       $unwind$SetEnvironmentVariables 00000000000eac28     Shell:ShellEnvVar.obj
 0005:00000468       $unwind$GetExecuatableFileName 00000000000eac28     Shell:ShellManParser.obj
 0005:00000468       $unwind$GetNextParameter   00000000000eac28     Shell:ShellParametersProtocol.obj
 0005:00000468       $unwind$ShellCommandRegisterCommandName 00000000000eac28     UefiShellCommandLib:UefiShellCommandLib.obj
 0005:00000468       $unwind$CountTFreq         00000000000eac28     UefiShellDebug1CommandsLib:Compress.obj
 0005:00000468       $unwind$InputBarPrintInput 00000000000eac28     UefiShellDebug1CommandsLib:EditInputBar.obj
 0005:00000468       $unwind$FileBufferDoReturn 00000000000eac28     UefiShellDebug1CommandsLib:FileBuffer.obj
 0005:00000468       $unwind$ExplainPcieDeviceCap 00000000000eac28     UefiShellDebug1CommandsLib:Pci.obj
 0005:00000468       $unwind$ExtractDriveAndPath 00000000000eac28     UefiShellLevel2CommandsLib:Cd.obj
 0005:00000468       $unwind$FullyQualifyPath   00000000000eac28     UefiShellLib:UefiShellLib.obj
 0005:00000468       $unwind$ShellFindFilePathEx 00000000000eac28     UefiShellLib:UefiShellLib.obj
 0005:00000468       $unwind$StrnCatGrow        00000000000eac28     UefiShellLib:UefiShellLib.obj
 0005:00000480       $unwind$ShellFindEnvVarInList 00000000000eac40     Shell:ShellEnvVar.obj
 0005:00000498       $unwind$ParseCommandLineToArgs 00000000000eac58     Shell:ShellParametersProtocol.obj
 0005:00000498       $unwind$ShellFileHandleReadLine 00000000000eac58     UefiShellLib:UefiShellLib.obj
 0005:000004b4       $unwind$CreatePopulateInstallShellParametersProtocol 00000000000eac74     Shell:ShellParametersProtocol.obj
 0005:000004c8       $unwind$IsUnicodeFile      00000000000eac88     Shell:ShellParametersProtocol.obj
 0005:000004d4       $unwind$UpdateStdInStdOutStdErr 00000000000eac94     Shell:ShellParametersProtocol.obj
 0005:000004ec       $unwind$UpdateDisplayFromHistory 00000000000eacac     Shell:ConsoleLogger.obj
 0005:00000504       $unwind$ConsoleLoggerPrintWithPageBreak 00000000000eacc4     Shell:ConsoleLogger.obj
 0005:0000051c       $unwind$ConsoleLoggerOutputString 00000000000eacdc     Shell:ConsoleLogger.obj
 0005:0000052c       $unwind$CreateTabCompletionList 00000000000eacec     Shell:FileHandleWrappers.obj
 0005:00000548       $unwind$FileInterfaceStdInRead 00000000000ead08     Shell:FileHandleWrappers.obj
 0005:00000564       $unwind$FileInterfaceEnvClose 00000000000ead24     Shell:FileHandleWrappers.obj
 0005:00000564       $unwind$GetHandleListByProtocolList 00000000000ead24     UefiHandleParsingLib:UefiHandleParsingLib.obj
 0005:00000578       $unwind$FileInterfaceEnvNonVolWrite 00000000000ead38     Shell:FileHandleWrappers.obj
 0005:00000578       $unwind$FileInterfaceEnvVolWrite 00000000000ead38     Shell:FileHandleWrappers.obj
 0005:00000594       $unwind$CreateFileInterfaceEnv 00000000000ead54     Shell:FileHandleWrappers.obj
 0005:000005a4       $unwind$PrintCommandHistory 00000000000ead64     Shell:FileHandleWrappers.obj
 0005:000005a4       $unwind$DisplayHardwareSecuritySettings 00000000000ead64     UefiShellDebug1CommandsLib:PrintInfo.obj
 0005:000005a4       $unwind$MoveWithinFileSystems 00000000000ead64     UefiShellLevel2CommandsLib:Mv.obj
 0005:000005bc       $unwind$FileInterfaceFileRead 00000000000ead7c     Shell:FileHandleWrappers.obj
 0005:000005d0       $unwind$ManFileFindTitleSection 00000000000ead90     Shell:ShellManParser.obj
 0005:000005e8       $unwind$ProcessManFile     00000000000eada8     Shell:ShellManParser.obj
 0005:000005fc       $unwind$CreateBasicVariablePolicy 00000000000eadbc     VariablePolicyHelperLib:VariablePolicyHelperLib.obj
 0005:000005fc       $unwind$CompareGuid        00000000000eadbc     BaseMemoryLibRepStr:MemLibGuid.obj
 0005:000005fc       $unwind$InternalUpdateAliasOnList 00000000000eadbc     UefiShellLevel1CommandsLib:For.obj
 0005:00000614       $unwind$StrCpyS            00000000000eadd4     BaseLib:SafeString.obj
 0005:00000614       $unwind$StrHexToBytes      00000000000eadd4     BaseLib:SafeString.obj
 0005:00000614       $unwind$DisplayMaxMemoryModuleSize 00000000000eadd4     UefiShellDebug1CommandsLib:PrintInfo.obj
 0005:00000614       $unwind$IfConfigRetriveCheckListByName 00000000000eadd4     UefiShellNetwork1CommandsLib:Ifconfig.obj
 0005:0000062c       $unwind$StrDecimalToUintnS 00000000000eadec     BaseLib:SafeString.obj
 0005:0000062c       $unwind$StrHexToUint64S    00000000000eadec     BaseLib:SafeString.obj
 0005:0000062c       $unwind$StrHexToUintnS     00000000000eadec     BaseLib:SafeString.obj
 0005:0000062c       $unwind$HMainCommandOpenFile 00000000000eadec     UefiShellDebug1CommandsLib:MainHexEditor.obj
 0005:0000062c       $unwind$PrintInterpretedExtendedCompatibilityLinkDeclaration 00000000000eadec     UefiShellDebug1CommandsLib:Pci.obj
 0005:0000062c       $unwind$PrintInterpretedExtendedCompatibilityTph 00000000000eadec     UefiShellDebug1CommandsLib:Pci.obj
 0005:0000062c       $unwind$ShellCommandRunElse 00000000000eadec     UefiShellLevel1CommandsLib:If.obj
 0005:0000062c       $unwind$ShellLevel1CommandsLibConstructor 00000000000eadec     UefiShellLevel1CommandsLib:UefiShellLevel1CommandsLib.obj
 0005:0000062c       $unwind$TouchFileByHandle  00000000000eadec     UefiShellLevel3CommandsLib:Touch.obj
 0005:0000062c       $unwind$ShellCommandLineParseEx 00000000000eadec     UefiShellLib:UefiShellLib.obj
 0005:0000063c       $unwind$StrToIpv6Address   00000000000eadfc     BaseLib:SafeString.obj
 0005:00000654       $unwind$StrToGuid          00000000000eae14     BaseLib:SafeString.obj
 0005:0000066c       $unwind$AsciiStrToUnicodeStrS 00000000000eae2c     BaseLib:SafeString.obj
 0005:0000066c       $unwind$StatusBarRefresh   00000000000eae2c     UefiShellDebug1CommandsLib:EditStatusBar.obj
 0005:0000066c       $unwind$HDiskImageSave     00000000000eae2c     UefiShellDebug1CommandsLib:DiskImage.obj
 0005:0000066c       $unwind$PrintInterpretedExtendedCompatibilityAcs 00000000000eae2c     UefiShellDebug1CommandsLib:Pci.obj
 0005:0000066c       $unwind$PrintInterpretedExtendedCompatibilitySecondary 00000000000eae2c     UefiShellDebug1CommandsLib:Pci.obj
 0005:0000066c       $unwind$DisplayMemoryModuleConfigHandles 00000000000eae2c     UefiShellDebug1CommandsLib:PrintInfo.obj
 0005:0000066c       $unwind$ShellCmdDriverConfigurationProcessActionRequired 00000000000eae2c     UefiShellDriver1CommandsLib:DrvCfg.obj
 0005:00000680       $unwind$UnicodeSPrint      00000000000eae40     BasePrintLib:PrintLib.obj
 0005:00000680       $unwind$ShellPrintEx       00000000000eae40     UefiShellLib:UefiShellLib.obj
 0005:00000688       $unwind$TdIoWrite16        00000000000eae48     BaseIoLibIntrinsicSev:IoLibInternalTdx.obj
 0005:00000688       $unwind$TdIoWrite32        00000000000eae48     BaseIoLibIntrinsicSev:IoLibInternalTdx.obj
 0005:00000688       $unwind$UnicodeValueToStringS 00000000000eae48     BasePrintLib:PrintLib.obj
 0005:00000688       $unwind$NetLibGetSnpHandle 00000000000eae48     DxeNetLib:DxeNetLib.obj
 0005:00000688       $unwind$EdidActiveProtocolDumpInformation 00000000000eae48     UefiHandleParsingLib:UefiHandleParsingLib.obj
 0005:00000688       $unwind$EdidDiscoveredProtocolDumpInformation 00000000000eae48     UefiHandleParsingLib:UefiHandleParsingLib.obj
 0005:00000688       $unwind$GetBestLanguageForDriver 00000000000eae48     UefiHandleParsingLib:UefiHandleParsingLib.obj
 0005:00000688       $unwind$HMainEditorCleanup 00000000000eae48     UefiShellDebug1CommandsLib:MainHexEditor.obj
 0005:00000688       $unwind$PciPrintClassCode  00000000000eae48     UefiShellDebug1CommandsLib:Pci.obj
 0005:00000688       $unwind$DisplayBaseBoardFeatureFlags 00000000000eae48     UefiShellDebug1CommandsLib:QueryTable.obj
 0005:00000688       $unwind$DisplayCacheSRAMType 00000000000eae48     UefiShellDebug1CommandsLib:QueryTable.obj
 0005:00000688       $unwind$DisplayFirmwareCharacteristics 00000000000eae48     UefiShellDebug1CommandsLib:QueryTable.obj
 0005:00000688       $unwind$DisplayMcErrorCorrectCapability 00000000000eae48     UefiShellDebug1CommandsLib:QueryTable.obj
 0005:00000688       $unwind$DisplayMcMemorySpeeds 00000000000eae48     UefiShellDebug1CommandsLib:QueryTable.obj
 0005:00000688       $unwind$DisplayMemoryDeviceMemoryOperatingModeCapability 00000000000eae48     UefiShellDebug1CommandsLib:QueryTable.obj
 0005:00000688       $unwind$DisplayMemoryDeviceTypeDetail 00000000000eae48     UefiShellDebug1CommandsLib:QueryTable.obj
 0005:00000688       $unwind$DisplayMemoryModuleVoltage 00000000000eae48     UefiShellDebug1CommandsLib:QueryTable.obj
 0005:00000688       $unwind$DisplayMmErrorStatus 00000000000eae48     UefiShellDebug1CommandsLib:QueryTable.obj
 0005:00000688       $unwind$DisplayMmMemoryType 00000000000eae48     UefiShellDebug1CommandsLib:QueryTable.obj
 0005:00000688       $unwind$DisplayProcessorCharacteristics 00000000000eae48     UefiShellDebug1CommandsLib:QueryTable.obj
 0005:00000688       $unwind$DisplaySlotCharacteristics1 00000000000eae48     UefiShellDebug1CommandsLib:QueryTable.obj
 0005:00000688       $unwind$DisplaySlotCharacteristics2 00000000000eae48     UefiShellDebug1CommandsLib:QueryTable.obj
 0005:00000688       $unwind$ShellCommandRunShift 00000000000eae48     UefiShellLevel1CommandsLib:Shift.obj
 0005:00000688       $unwind$ShellLibConstructorWorker 00000000000eae48     UefiShellLib:UefiShellLib.obj
 0005:00000688       $unwind$Ping6ReceiveEchoReply 00000000000eae48     UefiShellNetwork1CommandsLib:Ping.obj
 0005:00000694       $unwind$AsciiSPrint        00000000000eae54     BasePrintLib:PrintLib.obj
 0005:0000069c       $unwind$BasePrintLibConvertValueToStringS 00000000000eae5c     BasePrintLib:PrintLibInternal.obj
 0005:000006b0       $unwind$BasePrintLibSPrintMarker 00000000000eae70     BasePrintLib:PrintLibInternal.obj
 0005:000006cc       $unwind$BasePrintLibSPrint 00000000000eae8c     BasePrintLib:PrintLibInternal.obj
 0005:000006d4       $unwind$DebugPrint         00000000000eae94     BaseDebugLibSerialPort:DebugLib.obj
 0005:000006dc       $unwind$DebugPrintMarker   00000000000eae9c     BaseDebugLibSerialPort:DebugLib.obj
 0005:000006f0       $unwind$DebugAssert        00000000000eaeb0     BaseDebugLibSerialPort:DebugLib.obj
 0005:000006f8       $unwind$GetVariable2       00000000000eaeb8     UefiLib:UefiLib.obj
 0005:000006f8       $unwind$ShellFileHandleReturnLine 00000000000eaeb8     UefiShellLib:UefiShellLib.obj
 0005:0000070c       $unwind$GetBestLanguage    00000000000eaecc     UefiLib:UefiLib.obj
 0005:00000720       $unwind$EfiOpenFileByDevicePath 00000000000eaee0     UefiLib:UefiLib.obj
 0005:0000073c       $unwind$HiiAddPackages     00000000000eaefc     UefiHiiLib:HiiLib.obj
 0005:00000750       $unwind$HiiSetString       00000000000eaf10     UefiHiiLib:HiiString.obj
 0005:0000076c       $unwind$HiiGetString       00000000000eaf2c     UefiHiiLib:HiiString.obj
 0005:00000780       $unwind$FileHandleGetFileName 00000000000eaf40     UefiFileHandleLib:UefiFileHandleLib.obj
 0005:00000798       $unwind$ShellFindSE2       00000000000eaf58     UefiShellLib:UefiShellLib.obj
 0005:000007ac       $unwind$LibGetSmbios64BitStructure 00000000000eaf6c     UefiShellDebug1CommandsLib:LibSmbiosView.obj
 0005:000007ac       $unwind$LibGetSmbiosStructure 00000000000eaf6c     UefiShellDebug1CommandsLib:LibSmbiosView.obj
 0005:000007ac       $unwind$ShellOpenFileByName 00000000000eaf6c     UefiShellLib:UefiShellLib.obj
 0005:000007ac       $unwind$IfConfigClearInterfaceInfo 00000000000eaf6c     UefiShellNetwork1CommandsLib:Ifconfig.obj
 0005:000007c4       $unwind$OrderedCollectionInsert 00000000000eaf84     BaseOrderedCollectionRedBlackTreeLib:BaseOrderedCollectionRedBlackTreeLib.obj
 0005:000007c4       $unwind$InternalShellConvertFileListType 00000000000eaf84     UefiShellLib:UefiShellLib.obj
 0005:000007dc       $unwind$ShellFindFilePath  00000000000eaf9c     UefiShellLib:UefiShellLib.obj
 0005:000007f4       $unwind$InternalIsOnCheckList 00000000000eafb4     UefiShellLib:UefiShellLib.obj
 0005:00000804       $unwind$AppendSingleVariableToFile 00000000000eafc4     UefiShellDebug1CommandsLib:DmpStore.obj
 0005:00000804       $unwind$InternalCommandLineParse 00000000000eafc4     UefiShellLib:UefiShellLib.obj
 0005:0000081c       $unwind$FreeBufferList     00000000000eafdc     UefiShellCommandLib:UefiShellCommandLib.obj
 0005:0000081c       $unwind$CalculateSmbios64BitStructureCountAndLength 00000000000eafdc     UefiShellDebug1CommandsLib:SmbiosView.obj
 0005:0000081c       $unwind$ShellCommandLineFreeVarList 00000000000eafdc     UefiShellLib:UefiShellLib.obj
 0005:00000828       $unwind$ShellCommandLineGetFlag 00000000000eafe8     UefiShellLib:UefiShellLib.obj
 0005:00000828       $unwind$ShellCommandLineGetValue 00000000000eafe8     UefiShellLib:UefiShellLib.obj
 0005:0000083c       $unwind$ShellCommandCreateInitialMappingsAndPaths 00000000000eaffc     UefiShellCommandLib:UefiShellCommandLib.obj
 0005:0000083c       $unwind$ShellCommandUpdateMapping 00000000000eaffc     UefiShellCommandLib:UefiShellCommandLib.obj
 0005:0000083c       $unwind$InsertNode         00000000000eaffc     UefiShellDebug1CommandsLib:Compress.obj
 0005:0000083c       $unwind$HBufferImageRestoreMousePosition 00000000000eaffc     UefiShellDebug1CommandsLib:BufferImage.obj
 0005:0000083c       $unwind$MoveToTagSpecial   00000000000eaffc     UefiShellLevel1CommandsLib:If.obj
 0005:0000083c       $unwind$ShellCopySearchAndReplace 00000000000eaffc     UefiShellLib:UefiShellLib.obj
 0005:00000858       $unwind$ShellPrintHiiEx    00000000000eb018     UefiShellLib:UefiShellLib.obj
 0005:00000868       $unwind$ShellIsDirectory   00000000000eb028     UefiShellLib:UefiShellLib.obj
 0005:00000878       $unwind$VerifyIntermediateDirectories 00000000000eb038     UefiShellLevel2CommandsLib:UefiShellLevel2CommandsLib.obj
 0005:00000878       $unwind$ShellIsFile        00000000000eb038     UefiShellLib:UefiShellLib.obj
 0005:00000888       $unwind$ShellPromptForResponse 00000000000eb048     UefiShellLib:UefiShellLib.obj
 0005:000008a0       $unwind$InternalShellIsHexOrDecimalNumber 00000000000eb060     UefiShellLib:UefiShellLib.obj
 0005:000008ac       $unwind$PartitionInfoProtocolDumpInformation 00000000000eb06c     UefiHandleParsingLib:UefiHandleParsingLib.obj
 0005:000008ac       $unwind$GetDevicePathForDriverHandle 00000000000eb06c     UefiShellBcfgCommandLib:UefiShellBcfgCommandLib.obj
 0005:000008ac       $unwind$ShellPrintHelp     00000000000eb06c     UefiShellLib:UefiShellLib.obj
 0005:000008bc       $unwind$ConvertMemoryType  00000000000eb07c     UefiHandleParsingLib:UefiHandleParsingLib.obj
 0005:000008c4       $unwind$LoadedImageProtocolDumpInformation 00000000000eb084     UefiHandleParsingLib:UefiHandleParsingLib.obj
 0005:000008e0       $unwind$GraphicsOutputProtocolDumpInformation 00000000000eb0a0     UefiHandleParsingLib:UefiHandleParsingLib.obj
 0005:000008f8       $unwind$PciRootBridgeIoDumpInformation 00000000000eb0b8     UefiHandleParsingLib:UefiHandleParsingLib.obj
 0005:00000908       $unwind$TxtOutProtocolDumpInformation 00000000000eb0c8     UefiHandleParsingLib:UefiHandleParsingLib.obj
 0005:00000908       $unwind$ShellCommandRunHexEdit 00000000000eb0c8     UefiShellDebug1CommandsLib:HexEdit.obj
 0005:00000920       $unwind$DevicePathProtocolDumpInformationEx 00000000000eb0e0     UefiHandleParsingLib:UefiHandleParsingLib.obj
 0005:00000920       $unwind$ShellCommandRunIfconfig 00000000000eb0e0     UefiShellNetwork1CommandsLib:Ifconfig.obj
 0005:00000934       $unwind$BusSpecificDriverOverrideProtocolDumpInformation 00000000000eb0f4     UefiHandleParsingLib:UefiHandleParsingLib.obj
 0005:00000948       $unwind$BlockIoProtocolDumpInformation 00000000000eb108     UefiHandleParsingLib:UefiHandleParsingLib.obj
 0005:0000095c       $unwind$DebugSupportProtocolDumpInformation 00000000000eb11c     UefiHandleParsingLib:UefiHandleParsingLib.obj
 0005:0000095c       $unwind$GetDevicePathTextForHandle 00000000000eb11c     UefiShellDriver1CommandsLib:Drivers.obj
 0005:00000968       $unwind$PciIoProtocolDumpInformation 00000000000eb128     UefiHandleParsingLib:UefiHandleParsingLib.obj
 0005:00000980       $unwind$AdapterInformationDumpInformation 00000000000eb140     UefiHandleParsingLib:UefiHandleParsingLib.obj
 0005:00000980       $unwind$ShellCommandRunTime 00000000000eb140     UefiShellLevel2CommandsLib:TimeDate.obj
 0005:00000998       $unwind$FirmwareManagementDumpInformation 00000000000eb158     UefiHandleParsingLib:UefiHandleParsingLib.obj
 0005:000009b4       $unwind$GetGuidFromStringName 00000000000eb174     UefiHandleParsingLib:UefiHandleParsingLib.obj
 0005:000009c8       $unwind$GetStringNameFromHandle 00000000000eb188     UefiHandleParsingLib:UefiHandleParsingLib.obj
 0005:000009d8       $unwind$InternalShellInitHandleList 00000000000eb198     UefiHandleParsingLib:UefiHandleParsingLib.obj
 0005:000009e4       $unwind$ConvertHandleIndexToHandle 00000000000eb1a4     UefiHandleParsingLib:UefiHandleParsingLib.obj
 0005:000009e4       $unwind$ConvertHandleToHandleIndex 00000000000eb1a4     UefiHandleParsingLib:UefiHandleParsingLib.obj
 0005:000009f4       $unwind$ParseHandleDatabaseByRelationshipWithType 00000000000eb1b4     UefiHandleParsingLib:UefiHandleParsingLib.obj
 0005:00000a0c       $unwind$ParseHandleDatabaseByRelationship 00000000000eb1cc     UefiHandleParsingLib:UefiHandleParsingLib.obj
 0005:00000a24       $unwind$ParseHandleDatabaseForChildControllers 00000000000eb1e4     UefiHandleParsingLib:UefiHandleParsingLib.obj
 0005:00000a38       $unwind$ParseHandleDatabaseForChildDevices 00000000000eb1f8     UefiHandleParsingLib:UefiHandleParsingLib.obj
 0005:00000a48       $unwind$GetHandleListByProtocol 00000000000eb208     UefiHandleParsingLib:UefiHandleParsingLib.obj
 0005:00000a54       $unwind$CommandInit        00000000000eb214     UefiShellCommandLib:UefiShellCommandLib.obj
 0005:00000a60       $unwind$ShellCommandLibDestructor 00000000000eb220     UefiShellCommandLib:UefiShellCommandLib.obj
 0005:00000a60       $unwind$ExplainPcieDeviceStatus 00000000000eb220     UefiShellDebug1CommandsLib:Pci.obj
 0005:00000a60       $unwind$ExplainPcieSlotCap 00000000000eb220     UefiShellDebug1CommandsLib:Pci.obj
 0005:00000a60       $unwind$ExplainPcieSlotStatus 00000000000eb220     UefiShellDebug1CommandsLib:Pci.obj
 0005:00000a6c       $unwind$DeleteScriptFileStruct 00000000000eb22c     UefiShellCommandLib:UefiShellCommandLib.obj
 0005:00000a7c       $unwind$ShellCommandAddMapItemAndUpdatePath 00000000000eb23c     UefiShellCommandLib:UefiShellCommandLib.obj
 0005:00000a94       $unwind$DumpHex            00000000000eb254     UefiShellCommandLib:UefiShellCommandLib.obj
 0005:00000ab0       $unwind$CatSDumpHex        00000000000eb270     UefiShellCommandLib:UefiShellCommandLib.obj
 0005:00000ad0       $unwind$ShellSortFileList  00000000000eb290     UefiShellCommandLib:UefiShellCommandLib.obj
 0005:00000ae8       $unwind$CatPrint           00000000000eb2a8     UefiShellCommandLib:ConsistMapping.obj
 0005:00000af8       $unwind$DevPathSerialUsb   00000000000eb2b8     UefiShellCommandLib:ConsistMapping.obj
 0005:00000b04       $unwind$DevPathSerialIPv6  00000000000eb2c4     UefiShellCommandLib:ConsistMapping.obj
 0005:00000b04       $unwind$DevPathSerialInfiniBand 00000000000eb2c4     UefiShellCommandLib:ConsistMapping.obj
 0005:00000b04       $unwind$DevPathSerialVendor 00000000000eb2c4     UefiShellCommandLib:ConsistMapping.obj
 0005:00000b1c       $unwind$DevPathSerialMacAddr 00000000000eb2dc     UefiShellCommandLib:ConsistMapping.obj
 0005:00000b38       $unwind$DevPathSerialIPv4  00000000000eb2f8     UefiShellCommandLib:ConsistMapping.obj
 0005:00000b44       $unwind$GetBootOptionCrc   00000000000eb304     UefiShellBcfgCommandLib:UefiShellBcfgCommandLib.obj
 0005:00000b44       $unwind$DevPathSerial1394  00000000000eb304     UefiShellCommandLib:ConsistMapping.obj
 0005:00000b44       $unwind$PciExplainPci      00000000000eb304     UefiShellDebug1CommandsLib:Pci.obj
 0005:00000b44       $unwind$DisplaySysEventLogHeaderType1 00000000000eb304     UefiShellDebug1CommandsLib:EventLogInfo.obj
 0005:00000b44       $unwind$ShellCommandRunGoto 00000000000eb304     UefiShellLevel1CommandsLib:Goto.obj
 0005:00000b44       $unwind$ShellCommandRunGetMtc 00000000000eb304     UefiShellLevel3CommandsLib:GetMtc.obj
 0005:00000b44       $unwind$ShellCommandRunPause 00000000000eb304     UefiShellLevel3CommandsLib:Pause.obj
 0005:00000b50       $unwind$GetHIDevicePath    00000000000eb310     UefiShellCommandLib:ConsistMapping.obj
 0005:00000b68       $unwind$ShellCommandConsistMappingGenMappingName 00000000000eb328     UefiShellCommandLib:ConsistMapping.obj
 0005:00000b68       $unwind$ShellCommandRunDblk 00000000000eb328     UefiShellDebug1CommandsLib:Dblk.obj
 0005:00000b80       $unwind$ShellLevel2CommandsLibConstructor 00000000000eb340     UefiShellLevel2CommandsLib:UefiShellLevel2CommandsLib.obj
 0005:00000b9c       $unwind$GetFullyQualifiedPath 00000000000eb35c     UefiShellLevel2CommandsLib:UefiShellLevel2CommandsLib.obj
 0005:00000bb0       $unwind$ShellCommandRunReset 00000000000eb370     UefiShellLevel2CommandsLib:Reset.obj
 0005:00000bc4       $unwind$LoadDriver         00000000000eb384     UefiShellLevel2CommandsLib:Load.obj
 0005:00000bc4       $unwind$ShellCommandRunEcho 00000000000eb384     UefiShellLevel3CommandsLib:Echo.obj
 0005:00000bd8       $unwind$FileBufferSave     00000000000eb398     UefiShellDebug1CommandsLib:FileBuffer.obj
 0005:00000bd8       $unwind$ShellCommandRunLoadPciRom 00000000000eb398     UefiShellDebug1CommandsLib:LoadPciRom.obj
 0005:00000bd8       $unwind$ShellCommandRunMode 00000000000eb398     UefiShellDebug1CommandsLib:Mode.obj
 0005:00000bd8       $unwind$ShellCommandRunIf  00000000000eb398     UefiShellLevel1CommandsLib:If.obj
 0005:00000bd8       $unwind$ShellCommandRunCp  00000000000eb398     UefiShellLevel2CommandsLib:Cp.obj
 0005:00000bd8       $unwind$ShellCommandRunLoad 00000000000eb398     UefiShellLevel2CommandsLib:Load.obj
 0005:00000bd8       $unwind$ShellCommandRunMv  00000000000eb398     UefiShellLevel2CommandsLib:Mv.obj
 0005:00000bd8       $unwind$ShellCommandRunVol 00000000000eb398     UefiShellLevel2CommandsLib:Vol.obj
 0005:00000bd8       $unwind$ShellCommandRunType 00000000000eb398     UefiShellLevel3CommandsLib:Type.obj
 0005:00000bf0       $unwind$HBufferImageAdjustMousePosition 00000000000eb3b0     UefiShellDebug1CommandsLib:BufferImage.obj
 0005:00000bf0       $unwind$HBufferImageIsInSelectedArea 00000000000eb3b0     UefiShellDebug1CommandsLib:BufferImage.obj
 0005:00000bf0       $unwind$InternalIsTimeLikeString 00000000000eb3b0     UefiShellLevel2CommandsLib:TimeDate.obj
 0005:00000bf8       $unwind$CheckAndSetDate    00000000000eb3b8     UefiShellLevel2CommandsLib:TimeDate.obj
 0005:00000c10       $unwind$ShellCommandRunDate 00000000000eb3d0     UefiShellLevel2CommandsLib:TimeDate.obj
 0005:00000c20       $unwind$HMainEditorKeyInput 00000000000eb3e0     UefiShellDebug1CommandsLib:MainHexEditor.obj
 0005:00000c20       $unwind$CheckAndSetTime    00000000000eb3e0     UefiShellLevel2CommandsLib:TimeDate.obj
 0005:00000c3c       $unwind$CheckAndSetTimeZone 00000000000eb3fc     UefiShellLevel2CommandsLib:TimeDate.obj
 0005:00000c54       $unwind$ShellCommandRunTimeZone 00000000000eb414     UefiShellLevel2CommandsLib:TimeDate.obj
 0005:00000c68       $unwind$PerformParsing     00000000000eb428     UefiShellLevel2CommandsLib:Parse.obj
 0005:00000c84       $unwind$ShellCommandRunSmbiosView 00000000000eb444     UefiShellDebug1CommandsLib:SmbiosView.obj
 0005:00000c84       $unwind$ShellCommandRunDisconnect 00000000000eb444     UefiShellDriver1CommandsLib:Disconnect.obj
 0005:00000c84       $unwind$ShellCommandRunUnload 00000000000eb444     UefiShellDriver1CommandsLib:Unload.obj
 0005:00000c84       $unwind$ShellCommandRunParse 00000000000eb444     UefiShellLevel2CommandsLib:Parse.obj
 0005:00000c84       $unwind$ShellCommandRunPing 00000000000eb444     UefiShellNetwork1CommandsLib:Ping.obj
 0005:00000c9c       $unwind$ShellMmLocateIoProtocol 00000000000eb45c     UefiShellDebug1CommandsLib:Mm.obj
 0005:00000c9c       $unwind$ShellCommandRunCd  00000000000eb45c     UefiShellLevel2CommandsLib:Cd.obj
 0005:00000c9c       $unwind$ShellCommandRunMap 00000000000eb45c     UefiShellLevel2CommandsLib:Map.obj
 0005:00000cb4       $unwind$ShellCommandRunSerMode 00000000000eb474     UefiShellDebug1CommandsLib:SerMode.obj
 0005:00000cb4       $unwind$ShellCommandRunSetVar 00000000000eb474     UefiShellDebug1CommandsLib:SetVar.obj
 0005:00000cb4       $unwind$ShellCommandRunFor 00000000000eb474     UefiShellLevel1CommandsLib:For.obj
 0005:00000cb4       $unwind$ShellCommandRunAttrib 00000000000eb474     UefiShellLevel2CommandsLib:Attrib.obj
 0005:00000cb4       $unwind$ShellCommandRunHelp 00000000000eb474     UefiShellLevel3CommandsLib:Help.obj
 0005:00000cb4       $unwind$IfConfigSetInterfaceInfo 00000000000eb474     UefiShellNetwork1CommandsLib:Ifconfig.obj
 0005:00000ccc       $unwind$PrintSfoVolumeInfoTableEntry 00000000000eb48c     UefiShellLevel2CommandsLib:Ls.obj
 0005:00000cdc       $unwind$PrintFileInformation 00000000000eb49c     UefiShellLevel2CommandsLib:Ls.obj
 0005:00000cfc       $unwind$PreHiiDrvCfg       00000000000eb4bc     UefiShellDriver1CommandsLib:DrvCfg.obj
 0005:00000cfc       $unwind$PrintLsOutput      00000000000eb4bc     UefiShellLevel2CommandsLib:Ls.obj
 0005:00000d14       $unwind$ShellCommandRunEfiDecompress 00000000000eb4d4     UefiShellDebug1CommandsLib:EfiDecompress.obj
 0005:00000d14       $unwind$ShellCommandRunDrvCfg 00000000000eb4d4     UefiShellDriver1CommandsLib:DrvCfg.obj
 0005:00000d14       $unwind$ShellCommandRunLs  00000000000eb4d4     UefiShellLevel2CommandsLib:Ls.obj
 0005:00000d30       $unwind$FileBufferRestoreMousePosition 00000000000eb4f0     UefiShellDebug1CommandsLib:FileBuffer.obj
 0005:00000d30       $unwind$SearchList         00000000000eb4f0     UefiShellLevel2CommandsLib:Map.obj
 0005:00000d48       $unwind$QuickSort          00000000000eb508     BaseLib:QuickSort.obj
 0005:00000d48       $unwind$TestNodeForMove    00000000000eb508     UefiShellLevel1CommandsLib:UefiShellLevel1CommandsLib.obj
 0005:00000d48       $unwind$MappingListHasType 00000000000eb508     UefiShellLevel2CommandsLib:Map.obj
 0005:00000d48       $unwind$PrintDynamicCommandHelp 00000000000eb508     UefiShellLevel3CommandsLib:Help.obj
 0005:00000d64       $unwind$PerformSingleMappingDisplay 00000000000eb524     UefiShellLevel2CommandsLib:Map.obj
 0005:00000d7c       $unwind$PerformMappingDisplay 00000000000eb53c     UefiShellLevel2CommandsLib:Map.obj
 0005:00000d94       $unwind$PerformMappingDelete 00000000000eb554     UefiShellLevel2CommandsLib:Map.obj
 0005:00000da8       $unwind$AddMappingFromHandle 00000000000eb568     UefiShellLevel2CommandsLib:Map.obj
 0005:00000dbc       $unwind$CopySingleFile     00000000000eb57c     UefiShellLevel2CommandsLib:Cp.obj
 0005:00000dd8       $unwind$ValidateAndCopyFiles 00000000000eb598     UefiShellLevel2CommandsLib:Cp.obj
 0005:00000df4       $unwind$ProcessValidateAndCopyFiles 00000000000eb5b4     UefiShellLevel2CommandsLib:Cp.obj
 0005:00000e10       $unwind$HandleVol          00000000000eb5d0     UefiShellLevel2CommandsLib:Vol.obj
 0005:00000e28       $unwind$IsDirectoryEmpty   00000000000eb5e8     UefiShellLevel2CommandsLib:Rm.obj
 0005:00000e40       $unwind$CascadeDelete      00000000000eb600     UefiShellLevel2CommandsLib:Rm.obj
 0005:00000e58       $unwind$IsValidDeleteTarget 00000000000eb618     UefiShellLevel2CommandsLib:Rm.obj
 0005:00000e68       $unwind$ShellCommandRunRm  00000000000eb628     UefiShellLevel2CommandsLib:Rm.obj
 0005:00000e7c       $unwind$ShellCommandRunSet 00000000000eb63c     UefiShellLevel2CommandsLib:Set.obj
 0005:00000e90       $unwind$ShellCommandRunMkDir 00000000000eb650     UefiShellLevel2CommandsLib:MkDir.obj
 0005:00000e90       $unwind$ShellCommandRunTouch 00000000000eb650     UefiShellLevel3CommandsLib:Touch.obj
 0005:00000ea8       $unwind$IsBetweenFileSystem 00000000000eb668     UefiShellLevel2CommandsLib:Mv.obj
 0005:00000eb8       $unwind$IsValidMove        00000000000eb678     UefiShellLevel2CommandsLib:Mv.obj
 0005:00000ec8       $unwind$GetDestinationLocation 00000000000eb688     UefiShellLevel2CommandsLib:Mv.obj
 0005:00000ee0       $unwind$ValidateAndMoveFiles 00000000000eb6a0     UefiShellLevel2CommandsLib:Mv.obj
 0005:00000ef8       $unwind$DoDevTreeForHandle 00000000000eb6b8     UefiShellDriver1CommandsLib:DevTree.obj
 0005:00000ef8       $unwind$MoveToTag          00000000000eb6b8     UefiShellLevel1CommandsLib:UefiShellLevel1CommandsLib.obj
 0005:00000f14       $unwind$IsNextFragment     00000000000eb6d4     UefiShellLevel1CommandsLib:If.obj
 0005:00000f28       $unwind$TestOperation      00000000000eb6e8     UefiShellLevel1CommandsLib:If.obj
 0005:00000f40       $unwind$ProcessStatement   00000000000eb700     UefiShellLevel1CommandsLib:If.obj
 0005:00000f58       $unwind$HMainCommandExit   00000000000eb718     UefiShellDebug1CommandsLib:MainHexEditor.obj
 0005:00000f58       $unwind$PciExplainStatus   00000000000eb718     UefiShellDebug1CommandsLib:Pci.obj
 0005:00000f58       $unwind$DisplaySBDSManufactureDate 00000000000eb718     UefiShellDebug1CommandsLib:PrintInfo.obj
 0005:00000f58       $unwind$UefiShellDebug1CommandsLibConstructor 00000000000eb718     UefiShellDebug1CommandsLib:UefiShellDebug1CommandsLib.obj
 0005:00000f58       $unwind$UefiShellDriver1CommandsLibConstructor 00000000000eb718     UefiShellDriver1CommandsLib:UefiShellDriver1CommandsLib.obj
 0005:00000f58       $unwind$ShellCommandRunEndIf 00000000000eb718     UefiShellLevel1CommandsLib:If.obj
 0005:00000f58       $unwind$ShellLevel3CommandsLibSetAlias 00000000000eb718     UefiShellLevel3CommandsLib:Alias.obj
 0005:00000f64       $unwind$HMainEditorRefresh 00000000000eb724     UefiShellDebug1CommandsLib:MainHexEditor.obj
 0005:00000f64       $unwind$ShellCommandRunExit 00000000000eb724     UefiShellLevel1CommandsLib:Exit.obj
 0005:00000f64       $unwind$ShellCommandRunStall 00000000000eb724     UefiShellLevel1CommandsLib:Stall.obj
 0005:00000f74       $unwind$BcfgLibraryRegisterBcfgCommand 00000000000eb734     UefiShellBcfgCommandLib:UefiShellBcfgCommandLib.obj
 0005:00000f74       $unwind$ShellCommandRunEndFor 00000000000eb734     UefiShellLevel1CommandsLib:For.obj
 0005:00000f7c       $unwind$DoTouchByHandle    00000000000eb73c     UefiShellLevel3CommandsLib:Touch.obj
 0005:00000f98       $unwind$ShellCommandRunVer 00000000000eb758     UefiShellLevel3CommandsLib:Ver.obj
 0005:00000fa8       $unwind$PrintSingleShellAlias 00000000000eb768     UefiShellLevel3CommandsLib:Alias.obj
 0005:00000fb8       $unwind$ShellCommandRunAlias 00000000000eb778     UefiShellLevel3CommandsLib:Alias.obj
 0005:00000fb8       $unwind$ShellCommandRunCls 00000000000eb778     UefiShellLevel3CommandsLib:Cls.obj
 0005:00000fd0       $unwind$ShellConnectFromDevPaths 00000000000eb790     UefiShellDriver1CommandsLib:Connect.obj
 0005:00000fe4       $unwind$ConvertAndConnectControllers 00000000000eb7a4     UefiShellDriver1CommandsLib:Connect.obj
 0005:00000ffc       $unwind$ShellCommandRunSetSize 00000000000eb7bc     UefiShellDebug1CommandsLib:SetSize.obj
 0005:00000ffc       $unwind$ShellCommandRunConnect 00000000000eb7bc     UefiShellDriver1CommandsLib:Connect.obj
 0005:00000ffc       $unwind$ShellCommandRunDh  00000000000eb7bc     UefiShellDriver1CommandsLib:Dh.obj
 0005:00000ffc       $unwind$ShellCommandRunDrvDiag 00000000000eb7bc     UefiShellDriver1CommandsLib:DrvDiag.obj
 0005:00001014       $unwind$MainTitleBarRefresh 00000000000eb7d4     UefiShellDebug1CommandsLib:EditTitleBar.obj
 0005:00001014       $unwind$ParseParameterData 00000000000eb7d4     UefiShellDebug1CommandsLib:SetVar.obj
 0005:00001014       $unwind$GetDeviceHandleInfo 00000000000eb7d4     UefiShellDriver1CommandsLib:Devices.obj
 0005:0000102c       $unwind$ShellCommandRunDevices 00000000000eb7ec     UefiShellDriver1CommandsLib:Devices.obj
 0005:00001048       $unwind$ShellCommandRunReconnect 00000000000eb808     UefiShellDriver1CommandsLib:Reconnect.obj
 0005:00001058       $unwind$TraverseHandleDatabase 00000000000eb818     UefiShellDriver1CommandsLib:OpenInfo.obj
 0005:00001070       $unwind$ShellCommandRunOpenInfo 00000000000eb830     UefiShellDriver1CommandsLib:OpenInfo.obj
 0005:00001080       $unwind$GetImageNameFromHandle 00000000000eb840     UefiShellDriver1CommandsLib:Drivers.obj
 0005:0000108c       $unwind$ShellCommandRunDrivers 00000000000eb84c     UefiShellDriver1CommandsLib:Drivers.obj
 0005:000010a8       $unwind$DoDiagnostics      00000000000eb868     UefiShellDriver1CommandsLib:DrvDiag.obj
 0005:000010c4       $unwind$GetDriverName      00000000000eb884     UefiShellDriver1CommandsLib:Dh.obj
 0005:000010d4       $unwind$GetProtocolInfoString 00000000000eb894     UefiShellDriver1CommandsLib:Dh.obj
 0005:000010f4       $unwind$DisplayDriverModelHandle 00000000000eb8b4     UefiShellDriver1CommandsLib:Dh.obj
 0005:0000110c       $unwind$PrintPciExtendedCapabilityDetails 00000000000eb8cc     UefiShellDebug1CommandsLib:Pci.obj
 0005:0000110c       $unwind$DoDhByHandle       00000000000eb8cc     UefiShellDriver1CommandsLib:Dh.obj
 0005:00001120       $unwind$DisplaySystemResetCapabilities 00000000000eb8e0     UefiShellDebug1CommandsLib:PrintInfo.obj
 0005:00001120       $unwind$DoDhByProtocolGuid 00000000000eb8e0     UefiShellDriver1CommandsLib:Dh.obj
 0005:00001120       $unwind$PingGenerateToken  00000000000eb8e0     UefiShellNetwork1CommandsLib:Ping.obj
 0005:0000113c       $unwind$DoDecodeByProtocol 00000000000eb8fc     UefiShellDriver1CommandsLib:Dh.obj
 0005:00001158       $unwind$GetVariableDataFromParameter 00000000000eb918     UefiShellDebug1CommandsLib:SetVar.obj
 0005:00001158       $unwind$ShellCommandRunDevTree 00000000000eb918     UefiShellDriver1CommandsLib:DevTree.obj
 0005:00001170       $unwind$FindHiiHandleViaDevPath 00000000000eb930     UefiShellDriver1CommandsLib:DrvCfg.obj
 0005:00001188       $unwind$ConfigToFile       00000000000eb948     UefiShellDriver1CommandsLib:DrvCfg.obj
 0005:0000119c       $unwind$ConfigFromFile     00000000000eb95c     UefiShellDriver1CommandsLib:DrvCfg.obj
 0005:000011b0       $unwind$PrintConfigInfoOnAll 00000000000eb970     UefiShellDriver1CommandsLib:DrvCfg.obj
 0005:000011c8       $unwind$EditorClearLine    00000000000eb988     UefiShellDebug1CommandsLib:UefiShellDebug1CommandsLib.obj
 0005:000011e8       $unwind$DisplayMmioMemory  00000000000eb9a8     UefiShellDebug1CommandsLib:Dmem.obj
 0005:000011fc       $unwind$DisplayRtProperties 00000000000eb9bc     UefiShellDebug1CommandsLib:Dmem.obj
 0005:0000121c       $unwind$GetImageExecutionInfo 00000000000eb9dc     UefiShellDebug1CommandsLib:Dmem.obj
 0005:00001230       $unwind$DisplayConformanceProfiles 00000000000eb9f0     UefiShellDebug1CommandsLib:Dmem.obj
 0005:00001230       $unwind$InputBarRefresh    00000000000eb9f0     UefiShellDebug1CommandsLib:EditInputBar.obj
 0005:0000124c       $unwind$ShellCommandRunDmem 00000000000eba0c     UefiShellDebug1CommandsLib:Dmem.obj
 0005:00001268       $unwind$ShellCommandRunPci 00000000000eba28     UefiShellDebug1CommandsLib:Pci.obj
 0005:00001284       $unwind$PciFindProtocolInterface 00000000000eba44     UefiShellDebug1CommandsLib:Pci.obj
 0005:000012a0       $unwind$MainCommandOpenFile 00000000000eba60     UefiShellDebug1CommandsLib:MainTextEditor.obj
 0005:000012a0       $unwind$PciExplainCommand  00000000000eba60     UefiShellDebug1CommandsLib:Pci.obj
 0005:000012ac       $unwind$ExplainPcieSlotControl 00000000000eba6c     UefiShellDebug1CommandsLib:Pci.obj
 0005:000012ac       $unwind$QueryTable         00000000000eba6c     UefiShellDebug1CommandsLib:QueryTable.obj
 0005:000012bc       $unwind$PrintInterpretedExtendedCompatibilityDynamicPowerAllocation 00000000000eba7c     UefiShellDebug1CommandsLib:Pci.obj
 0005:000012cc       $unwind$PrintInterpretedExtendedCompatibilityAer 00000000000eba8c     UefiShellDebug1CommandsLib:Pci.obj
 0005:000012dc       $unwind$PrintInterpretedExtendedCompatibilityVirtualChannel 00000000000eba9c     UefiShellDebug1CommandsLib:Pci.obj
 0005:000012ec       $unwind$ShellCommandRunMemMap 00000000000ebaac     UefiShellDebug1CommandsLib:MemMap.obj
 0005:00001308       $unwind$DisplayTheBlocks   00000000000ebac8     UefiShellDebug1CommandsLib:Dblk.obj
 0005:0000131c       $unwind$DisplaySettings    00000000000ebadc     UefiShellDebug1CommandsLib:SerMode.obj
 0005:00001334       $unwind$ShellCommandRunDmpStore 00000000000ebaf4     UefiShellDebug1CommandsLib:DmpStore.obj
 0005:00001334       $unwind$ShellCommandRunEfiCompress 00000000000ebaf4     UefiShellDebug1CommandsLib:EfiCompress.obj
 0005:00001334       $unwind$ShellCommandRunMm  00000000000ebaf4     UefiShellDebug1CommandsLib:Mm.obj
 0005:0000134c       $unwind$ShellMmAccess      00000000000ebb0c     UefiShellDebug1CommandsLib:Mm.obj
 0005:00001368       $unwind$FileBufferReadByte 00000000000ebb28     UefiShellDebug1CommandsLib:Comp.obj
 0005:00001378       $unwind$ShellCommandRunComp 00000000000ebb38     UefiShellDebug1CommandsLib:Comp.obj
 0005:00001394       $unwind$SMBiosView         00000000000ebb54     UefiShellDebug1CommandsLib:SmbiosView.obj
 0005:000013ac       $unwind$SMBios64View       00000000000ebb6c     UefiShellDebug1CommandsLib:SmbiosView.obj
 0005:000013c0       $unwind$InitSmbiosTableStatistics 00000000000ebb80     UefiShellDebug1CommandsLib:SmbiosView.obj
 0005:000013d4       $unwind$InitSmbios64BitTableStatistics 00000000000ebb94     UefiShellDebug1CommandsLib:SmbiosView.obj
 0005:000013e8       $unwind$DisplaySmbios64BitStatisticsTable 00000000000ebba8     UefiShellDebug1CommandsLib:SmbiosView.obj
 0005:000013e8       $unwind$DisplayStatisticsTable 00000000000ebba8     UefiShellDebug1CommandsLib:SmbiosView.obj
 0005:000013fc       $unwind$LoadEfiDriversFromRomImage 00000000000ebbbc     UefiShellDebug1CommandsLib:LoadPciRom.obj
 0005:00001414       $unwind$GetAttrType        00000000000ebbd4     UefiShellDebug1CommandsLib:DmpStore.obj
 0005:00001424       $unwind$LoadVariablesFromFile 00000000000ebbe4     UefiShellDebug1CommandsLib:DmpStore.obj
 0005:0000143c       $unwind$CascadeProcessVariables 00000000000ebbfc     UefiShellDebug1CommandsLib:DmpStore.obj
 0005:00001458       $unwind$ProcessVariables   00000000000ebc18     UefiShellDebug1CommandsLib:DmpStore.obj
 0005:00001470       $unwind$ShellCommandRunEdit 00000000000ebc30     UefiShellDebug1CommandsLib:Edit.obj
 0005:00001480       $unwind$MainCommandDisplayHelp 00000000000ebc40     UefiShellDebug1CommandsLib:MainTextEditor.obj
 0005:00001480       $unwind$HMainCommandDisplayHelp 00000000000ebc40     UefiShellDebug1CommandsLib:MainHexEditor.obj
 0005:00001494       $unwind$HMainCommandSaveBuffer 00000000000ebc54     UefiShellDebug1CommandsLib:MainHexEditor.obj
 0005:000014a8       $unwind$HMainCommandOpenDisk 00000000000ebc68     UefiShellDebug1CommandsLib:MainHexEditor.obj
 0005:000014b8       $unwind$HMainCommandOpenMemory 00000000000ebc78     UefiShellDebug1CommandsLib:MainHexEditor.obj
 0005:000014c4       $unwind$HMainEditorInit    00000000000ebc84     UefiShellDebug1CommandsLib:MainHexEditor.obj
 0005:000014d4       $unwind$HMainEditorHandleMouseInput 00000000000ebc94     UefiShellDebug1CommandsLib:MainHexEditor.obj
 0005:000014ec       $unwind$HBufferImagePrintLine 00000000000ebcac     UefiShellDebug1CommandsLib:BufferImage.obj
 0005:00001504       $unwind$HBufferImageRefresh 00000000000ebcc4     UefiShellDebug1CommandsLib:BufferImage.obj
 0005:00001518       $unwind$DownHeap           00000000000ebcd8     UefiShellDebug1CommandsLib:Compress.obj
 0005:00001530       $unwind$MakeTree           00000000000ebcf0     UefiShellDebug1CommandsLib:Compress.obj
 0005:00001548       $unwind$SmbiosPrintEPSInfo 00000000000ebd08     UefiShellDebug1CommandsLib:PrintInfo.obj
 0005:00001558       $unwind$Smbios64BitPrintEPSInfo 00000000000ebd18     UefiShellDebug1CommandsLib:PrintInfo.obj
 0005:00001568       $unwind$SmbiosPrintStructure 00000000000ebd28     UefiShellDebug1CommandsLib:PrintInfo.obj
 0005:00001580       $unwind$TdIoRead8          00000000000ebd40     BaseIoLibIntrinsicSev:IoLibInternalTdx.obj
 0005:00001580       $unwind$DisplayProcessorFamily 00000000000ebd40     UefiShellDebug1CommandsLib:PrintInfo.obj
 0005:00001580       $unwind$DisplayProcessorFamily2 00000000000ebd40     UefiShellDebug1CommandsLib:PrintInfo.obj
 0005:00001588       $unwind$DisplayMmBankConnections 00000000000ebd48     UefiShellDebug1CommandsLib:PrintInfo.obj
 0005:00001598       $unwind$MainCommandSaveFile 00000000000ebd58     UefiShellDebug1CommandsLib:MainTextEditor.obj
 0005:000015a8       $unwind$MainEditorInit     00000000000ebd68     UefiShellDebug1CommandsLib:MainTextEditor.obj
 0005:000015b8       $unwind$MainEditorRefresh  00000000000ebd78     UefiShellDebug1CommandsLib:MainTextEditor.obj
 0005:000015c0       $unwind$FileBufferRead     00000000000ebd80     UefiShellDebug1CommandsLib:FileBuffer.obj
 0005:000015d8       $unwind$FileBufferReplace  00000000000ebd98     UefiShellDebug1CommandsLib:FileBuffer.obj
 0005:000015ec       $unwind$FileBufferReplaceAll 00000000000ebdac     UefiShellDebug1CommandsLib:FileBuffer.obj
 0005:00001608       $unwind$UpdateOptionalData 00000000000ebdc8     UefiShellBcfgCommandLib:UefiShellBcfgCommandLib.obj
 0005:00001608       $unwind$HDiskImageRead     00000000000ebdc8     UefiShellDebug1CommandsLib:DiskImage.obj
 0005:00001620       $unwind$HFileImageRead     00000000000ebde0     UefiShellDebug1CommandsLib:FileImage.obj
 0005:00001638       $unwind$HFileImageSave     00000000000ebdf8     UefiShellDebug1CommandsLib:FileImage.obj
 0005:00001650       $unwind$DisplayBaseBoardBoardType 00000000000ebe10     UefiShellDebug1CommandsLib:QueryTable.obj
 0005:00001650       $unwind$DisplayCacheAssociativity 00000000000ebe10     UefiShellDebug1CommandsLib:QueryTable.obj
 0005:00001650       $unwind$DisplayCacheErrCorrectingType 00000000000ebe10     UefiShellDebug1CommandsLib:QueryTable.obj
 0005:00001650       $unwind$DisplayCacheSystemCacheType 00000000000ebe10     UefiShellDebug1CommandsLib:QueryTable.obj
 0005:00001650       $unwind$DisplayCoolingDeviceStatus 00000000000ebe10     UefiShellDebug1CommandsLib:QueryTable.obj
 0005:00001650       $unwind$DisplayCoolingDeviceType 00000000000ebe10     UefiShellDebug1CommandsLib:QueryTable.obj
 0005:00001650       $unwind$DisplayECPLoc      00000000000ebe10     UefiShellDebug1CommandsLib:QueryTable.obj
 0005:00001650       $unwind$DisplayECPStatus   00000000000ebe10     UefiShellDebug1CommandsLib:QueryTable.obj
 0005:00001650       $unwind$DisplayFirmwareState 00000000000ebe10     UefiShellDebug1CommandsLib:QueryTable.obj
 0005:00001650       $unwind$DisplayIPMIDIBMCInterfaceType 00000000000ebe10     UefiShellDebug1CommandsLib:QueryTable.obj
 0005:00001650       $unwind$DisplayMCHostInterfaceType 00000000000ebe10     UefiShellDebug1CommandsLib:QueryTable.obj
 0005:00001650       $unwind$DisplayMDAddressType 00000000000ebe10     UefiShellDebug1CommandsLib:QueryTable.obj
 0005:00001650       $unwind$DisplayMDType      00000000000ebe10     UefiShellDebug1CommandsLib:QueryTable.obj
 0005:00001650       $unwind$DisplayMcErrorDetectMethod 00000000000ebe10     UefiShellDebug1CommandsLib:QueryTable.obj
 0005:00001650       $unwind$DisplayMcInterleaveSupport 00000000000ebe10     UefiShellDebug1CommandsLib:QueryTable.obj
 0005:00001650       $unwind$DisplayMemoryChannelType 00000000000ebe10     UefiShellDebug1CommandsLib:QueryTable.obj
 0005:00001650       $unwind$DisplayMemoryDeviceFormFactor 00000000000ebe10     UefiShellDebug1CommandsLib:QueryTable.obj
 0005:00001650       $unwind$DisplayMemoryDeviceMemoryTechnology 00000000000ebe10     UefiShellDebug1CommandsLib:QueryTable.obj
 0005:00001650       $unwind$DisplayMemoryDeviceType 00000000000ebe10     UefiShellDebug1CommandsLib:QueryTable.obj
 0005:00001650       $unwind$DisplayMemoryErrorGranularity 00000000000ebe10     UefiShellDebug1CommandsLib:QueryTable.obj
 0005:00001650       $unwind$DisplayMemoryErrorOperation 00000000000ebe10     UefiShellDebug1CommandsLib:QueryTable.obj
 0005:00001650       $unwind$DisplayMemoryErrorType 00000000000ebe10     UefiShellDebug1CommandsLib:QueryTable.obj
 0005:00001650       $unwind$DisplayOnboardDeviceTypes 00000000000ebe10     UefiShellDebug1CommandsLib:QueryTable.obj
 0005:00001650       $unwind$DisplayPBDeviceChemistry 00000000000ebe10     UefiShellDebug1CommandsLib:QueryTable.obj
 0005:00001650       $unwind$DisplayPMAErrorCorrectionTypes 00000000000ebe10     UefiShellDebug1CommandsLib:QueryTable.obj
 0005:00001650       $unwind$DisplayPMALocation 00000000000ebe10     UefiShellDebug1CommandsLib:QueryTable.obj
 0005:00001650       $unwind$DisplayPMAUse      00000000000ebe10     UefiShellDebug1CommandsLib:QueryTable.obj
 0005:00001650       $unwind$DisplayPointingDeviceInterface 00000000000ebe10     UefiShellDebug1CommandsLib:QueryTable.obj
 0005:00001650       $unwind$DisplayPointingDeviceType 00000000000ebe10     UefiShellDebug1CommandsLib:QueryTable.obj
 0005:00001650       $unwind$DisplayPortConnectorType 00000000000ebe10     UefiShellDebug1CommandsLib:QueryTable.obj
 0005:00001650       $unwind$DisplayPortType    00000000000ebe10     UefiShellDebug1CommandsLib:QueryTable.obj
 0005:00001650       $unwind$DisplayProcessorArchitectureType 00000000000ebe10     UefiShellDebug1CommandsLib:QueryTable.obj
 0005:00001650       $unwind$DisplayProcessorType 00000000000ebe10     UefiShellDebug1CommandsLib:QueryTable.obj
 0005:00001650       $unwind$DisplayProcessorUpgrade 00000000000ebe10     UefiShellDebug1CommandsLib:QueryTable.obj
 0005:00001650       $unwind$DisplaySELSysManagementTypes 00000000000ebe10     UefiShellDebug1CommandsLib:QueryTable.obj
 0005:00001650       $unwind$DisplaySELTypes    00000000000ebe10     UefiShellDebug1CommandsLib:QueryTable.obj
 0005:00001650       $unwind$DisplaySELVarDataFormatType 00000000000ebe10     UefiShellDebug1CommandsLib:QueryTable.obj
 0005:00001650       $unwind$DisplaySESecurityStatus 00000000000ebe10     UefiShellDebug1CommandsLib:QueryTable.obj
 0005:00001650       $unwind$DisplaySystemEnclosureStatus 00000000000ebe10     UefiShellDebug1CommandsLib:QueryTable.obj
 0005:00001650       $unwind$DisplaySystemEnclosureType 00000000000ebe10     UefiShellDebug1CommandsLib:QueryTable.obj
 0005:00001650       $unwind$DisplaySystemSlotCurrentUsage 00000000000ebe10     UefiShellDebug1CommandsLib:QueryTable.obj
 0005:00001650       $unwind$DisplaySystemSlotDataBusWidth 00000000000ebe10     UefiShellDebug1CommandsLib:QueryTable.obj
 0005:00001650       $unwind$DisplaySystemSlotHeight 00000000000ebe10     UefiShellDebug1CommandsLib:QueryTable.obj
 0005:00001650       $unwind$DisplaySystemSlotInformation 00000000000ebe10     UefiShellDebug1CommandsLib:QueryTable.obj
 0005:00001650       $unwind$DisplaySystemSlotLength 00000000000ebe10     UefiShellDebug1CommandsLib:QueryTable.obj
 0005:00001650       $unwind$DisplaySystemSlotPhysicalWidth 00000000000ebe10     UefiShellDebug1CommandsLib:QueryTable.obj
 0005:00001650       $unwind$DisplaySystemSlotType 00000000000ebe10     UefiShellDebug1CommandsLib:QueryTable.obj
 0005:00001650       $unwind$DisplaySystemWakeupType 00000000000ebe10     UefiShellDebug1CommandsLib:QueryTable.obj
 0005:00001650       $unwind$DisplayTemperatureProbeLoc 00000000000ebe10     UefiShellDebug1CommandsLib:QueryTable.obj
 0005:00001650       $unwind$DisplayTemperatureProbeStatus 00000000000ebe10     UefiShellDebug1CommandsLib:QueryTable.obj
 0005:00001650       $unwind$DisplayVPLocation  00000000000ebe10     UefiShellDebug1CommandsLib:QueryTable.obj
 0005:00001650       $unwind$DisplayVPStatus    00000000000ebe10     UefiShellDebug1CommandsLib:QueryTable.obj
 0005:00001660       $unwind$DisplayStructureTypeInfo 00000000000ebe20     UefiShellDebug1CommandsLib:QueryTable.obj
 0005:0000166c       $unwind$DisplaySysEventLogData 00000000000ebe2c     UefiShellDebug1CommandsLib:EventLogInfo.obj
 0005:00001684       $unwind$PingInitRttTimer   00000000000ebe44     UefiShellNetwork1CommandsLib:Ping.obj
 0005:00001694       $unwind$PingDestroyTxInfo  00000000000ebe54     UefiShellNetwork1CommandsLib:Ping.obj
 0005:000016a8       $unwind$Ping6OnEchoReplyReceived 00000000000ebe68     UefiShellNetwork1CommandsLib:Ping.obj
 0005:000016c0       $unwind$Ping6OnTimerRoutine 00000000000ebe80     UefiShellNetwork1CommandsLib:Ping.obj
 0005:000016d8       $unwind$PingCreateIpInstance 00000000000ebe98     UefiShellNetwork1CommandsLib:Ping.obj
 0005:000016f0       $unwind$ShellPing          00000000000ebeb0     UefiShellNetwork1CommandsLib:Ping.obj
 0005:0000170c       $unwind$IfConfigGetInterfaceInfo 00000000000ebecc     UefiShellNetwork1CommandsLib:Ifconfig.obj
 0005:00001724       $unwind$IfConfigShowInterfaceInfo 00000000000ebee4     UefiShellNetwork1CommandsLib:Ifconfig.obj
 0005:0000173c       $unwind$Print              00000000000ebefc     UefiLib:UefiLibPrint.obj
 0005:00001744       $unwind$CatSPrint          00000000000ebf04     UefiLib:UefiLibPrint.obj
 0005:00001758       $unwind$OrderedCollectionDelete 00000000000ebf18     BaseOrderedCollectionRedBlackTreeLib:BaseOrderedCollectionRedBlackTreeLib.obj
 0005:00001770       $unwind$GetDevicePathByHandle 00000000000ebf30     UefiShellBcfgCommandLib:UefiShellBcfgCommandLib.obj
 0005:00001788       $unwind$BcfgMod            00000000000ebf48     UefiShellBcfgCommandLib:UefiShellBcfgCommandLib.obj
 0005:000017a0       $unwind$BcfgAdd            00000000000ebf60     UefiShellBcfgCommandLib:UefiShellBcfgCommandLib.obj
 0005:000017bc       $unwind$BcfgRemove         00000000000ebf7c     UefiShellBcfgCommandLib:UefiShellBcfgCommandLib.obj
 0005:000017d8       $unwind$BcfgAddOpt         00000000000ebf98     UefiShellBcfgCommandLib:UefiShellBcfgCommandLib.obj
 0005:000017f0       $unwind$BcfgDisplayDump    00000000000ebfb0     UefiShellBcfgCommandLib:UefiShellBcfgCommandLib.obj
 0005:00001808       $unwind$ShellCommandRunBcfg 00000000000ebfc8     UefiShellBcfgCommandLib:UefiShellBcfgCommandLib.obj
 0005:00001824       $unwind$NetLibDetectMedia  00000000000ebfe4     DxeNetLib:DxeNetLib.obj
 0005:0000183c       $unwind$NetLibDetectMediaWaitTimeout 00000000000ebffc     DxeNetLib:DxeNetLib.obj
 0005:0000184c       $unwind$NetLibStrToIp4     00000000000ec00c     DxeNetLib:DxeNetLib.obj
 0005:00001860       $unwind$GetTdInfo          00000000000ec020     TdxLib:TdInfo.obj
 0005:00001868       $unwind$EfiBootManagerLoadOptionToVariable 00000000000ec028     UefiBootManagerLib:BmLoadOption.obj
 0005:0000187c       $unwind$EfiBootManagerInitializeLoadOption 00000000000ec03c     UefiBootManagerLib:BmLoadOption.obj
 0005:00001894       $unwind$EfiBootManagerVariableToLoadOptionEx 00000000000ec054     UefiBootManagerLib:BmLoadOption.obj
