 DisplayEngine

 Timestamp is 6725e4a7 (Sat Nov  2 16:36:55 2024)

 Preferred load address is 0000000000000000

 Start         Length     Name                   Class
 0001:00000000 000001c8H .text                   CODE
 0001:000001c8 0000fbacH .text$mn                CODE
 0002:00000000 00002488H .rdata                  DATA
 0002:00002488 00000030H .rdata$voltmd           DATA
 0002:000024b8 0000016cH .rdata$zzzdbg           DATA
 0003:00000000 00001e80H .data                   DATA
 0003:00001e80 00000440H .bss                    DATA
 0004:00000000 000005acH .pdata                  DATA
 0005:00000000 000004d8H .xdata                  DATA

  Address         Publics by Value              Rva+Base               Lib:Object

 0000:00000000       __arm64x_redirection_metadata 0000000000000000     <absolute>
 0000:00000000       __arm64x_extra_rfe_table_size 0000000000000000     <absolute>
 0000:00000000       __hybrid_code_map          0000000000000000     <absolute>
 0000:00000000       __x64_code_ranges_to_entry_points 0000000000000000     <absolute>
 0000:00000000       __guard_iat_count          0000000000000000     <absolute>
 0000:00000000       __guard_longjmp_table      0000000000000000     <absolute>
 0000:00000000       __guard_longjmp_count      0000000000000000     <absolute>
 0000:00000000       __dynamic_value_reloc_table 0000000000000000     <absolute>
 0000:00000000       __hybrid_auxiliary_iat     0000000000000000     <absolute>
 0000:00000000       __hybrid_auxiliary_iat_copy 0000000000000000     <absolute>
 0000:00000000       __x64_code_ranges_to_entry_points_count 0000000000000000     <absolute>
 0000:00000000       __guard_flags              0000000000000000     <absolute>
 0000:00000000       __guard_eh_cont_count      0000000000000000     <absolute>
 0000:00000000       __guard_iat_table          0000000000000000     <absolute>
 0000:00000000       __AbsoluteZero             0000000000000000     <absolute>
 0000:00000000       __guard_check_icall_a64n_fptr 0000000000000000     <absolute>
 0000:00000000       __hybrid_code_map_count    0000000000000000     <absolute>
 0000:00000000       __arm64x_extra_rfe_table   0000000000000000     <absolute>
 0000:00000000       __guard_fids_table         0000000000000000     <absolute>
 0000:00000000       __arm64x_redirection_metadata_count 0000000000000000     <absolute>
 0000:00000000       __enclave_config           0000000000000000     <absolute>
 0000:00000000       __guard_eh_cont_table      0000000000000000     <absolute>
 0000:00000000       __guard_fids_count         0000000000000000     <absolute>
 0000:00000000       __arm64x_native_entrypoint 0000000000000000     <absolute>
 0000:00000000       __ImageBase                0000000000000000     <linker-defined>
 0001:00000000       InternalMemCopyMem         00000000000002c0     BaseMemoryLibRepStr:CopyMem.obj
 0001:00000040       InternalMemZeroMem         0000000000000300     BaseMemoryLibRepStr:ZeroMem.obj
 0001:00000060       InternalMemCompareMem      0000000000000320     BaseMemoryLibRepStr:CompareMem.obj
 0001:00000080       CpuPause                   0000000000000340     BaseLib:CpuPause.obj
 0001:00000090       InternalMemSetMem          0000000000000350     BaseMemoryLibRepStr:SetMem.obj
 0001:000000b0       InternalMemSetMem64        0000000000000370     BaseMemoryLibRepStr:SetMem64.obj
 0001:000000d0       InternalMemSetMem32        0000000000000390     BaseMemoryLibRepStr:SetMem32.obj
 0001:000000f0       TdVmCall                   00000000000003b0     BaseLib:TdVmcall.obj
 0001:00000170       TdCall                     0000000000000430     BaseLib:TdCall.obj
 0001:000001c8       _DriverUnloadHandler       0000000000000488 f   UefiDriverEntryPoint:DriverEntryPoint.obj
 0001:0000020c       _ModuleEntryPoint          00000000000004cc f   UefiDriverEntryPoint:DriverEntryPoint.obj
 0001:00000298       ProcessLibraryConstructorList 0000000000000558 f   DisplayEngine:AutoGen.obj
 0001:00000614       ProcessLibraryDestructorList 00000000000008d4 f   DisplayEngine:AutoGen.obj
 0001:0000070c       GetToken                   00000000000009cc f   DisplayEngine:FormDisplay.obj
 0001:00000774       InitializeDisplayStrings   0000000000000a34 f   DisplayEngine:FormDisplay.obj
 0001:00000c48       FreeDisplayStrings         0000000000000f08 f   DisplayEngine:FormDisplay.obj
 0001:00000eb4       GetWidth                   0000000000001174 f   DisplayEngine:FormDisplay.obj
 0001:00000fdc       GetLineByWidth             000000000000129c f   DisplayEngine:FormDisplay.obj
 0001:000011f0       UiAddMenuOption            00000000000014b0 f   DisplayEngine:FormDisplay.obj
 0001:00001464       ConvertStatementToMenu     0000000000001724 f   DisplayEngine:FormDisplay.obj
 0001:000015ac       GetStringWidth             000000000000186c f   DisplayEngine:FormDisplay.obj
 0001:00001638       UpdateSkipInfoForMenu      00000000000018f8 f   DisplayEngine:FormDisplay.obj
 0001:000016e4       UpdateOptionSkipLines      00000000000019a4 f   DisplayEngine:FormDisplay.obj
 0001:00001774       PrintableMenu              0000000000001a34 f   DisplayEngine:FormDisplay.obj
 0001:00001828       IsSelectable               0000000000001ae8 f   DisplayEngine:FormDisplay.obj
 0001:0000185c       MoveToNextStatement        0000000000001b1c f   DisplayEngine:FormDisplay.obj
 0001:0000197c       ProcessStringForDateTime   0000000000001c3c f   DisplayEngine:FormDisplay.obj
 0001:00001aa0       AdjustDateAndTimePosition  0000000000001d60 f   DisplayEngine:FormDisplay.obj
 0001:00001b8c       UiWaitForEvent             0000000000001e4c f   DisplayEngine:FormDisplay.obj
 0001:00001c60       FindTopOfScreenMenu        0000000000001f20 f   DisplayEngine:FormDisplay.obj
 0001:00001d28       GetIndexInfoForOpcode      0000000000001fe8 f   DisplayEngine:FormDisplay.obj
 0001:00001dd0       FindHighLightMenuOption    0000000000002090 f   DisplayEngine:FormDisplay.obj
 0001:00001f64       FindTopOfScreenMenuOption  0000000000002224 f   DisplayEngine:FormDisplay.obj
 0001:000020f4       FindTopMenu                00000000000023b4 f   DisplayEngine:FormDisplay.obj
 0001:000024c8       UpdateHighlightMenuInfo    0000000000002788 f   DisplayEngine:FormDisplay.obj
 0001:000026fc       DisplayMenuString          00000000000029bc f   DisplayEngine:FormDisplay.obj
 0001:000027e0       FxConfirmPopup             0000000000002aa0 f   DisplayEngine:FormDisplay.obj
 0001:00002aa8       DisplayOneMenu             0000000000002d68 f   DisplayEngine:FormDisplay.obj
 0001:00003084       UiDisplayMenu              0000000000003344 f   DisplayEngine:FormDisplay.obj
 0001:000054cc       BrowserStatusProcess       000000000000578c f   DisplayEngine:FormDisplay.obj
 0001:00005940       FormDisplay                0000000000005c00 f   DisplayEngine:FormDisplay.obj
 0001:00005ae4       DriverClearDisplayPage     0000000000005da4 f   DisplayEngine:FormDisplay.obj
 0001:00005b24       InitializeDisplayEngine    0000000000005de4 f   DisplayEngine:FormDisplay.obj
 0001:00005d24       NewStrCat                  0000000000005fe4 f   DisplayEngine:ProcessOptions.obj
 0001:00005d54       CompareHiiValue            0000000000006014 f   DisplayEngine:ProcessOptions.obj
 0001:00006008       ValueToOption              00000000000062c8 f   DisplayEngine:ProcessOptions.obj
 0001:000060ec       GetArrayData               00000000000063ac f   DisplayEngine:ProcessOptions.obj
 0001:0000616c       SetArrayData               000000000000642c f   DisplayEngine:ProcessOptions.obj
 0001:000061ec       PrintFormattedNumber       00000000000064ac f   DisplayEngine:ProcessOptions.obj
 0001:00006278       CreateSharedPopUp          0000000000006538 f   DisplayEngine:ProcessOptions.obj
 0001:00006530       CreateMultiStringPopUp     00000000000067f0 f   DisplayEngine:ProcessOptions.obj
 0001:00006554       EmptyEventProcess          0000000000006814 f   DisplayEngine:ProcessOptions.obj
 0001:00006558       RefreshTimeOutProcess      0000000000006818 f   DisplayEngine:ProcessOptions.obj
 0001:000065d8       PasswordProcess            0000000000006898 f   DisplayEngine:ProcessOptions.obj
 0001:000068e4       PrintMismatchMenuInfo      0000000000006ba4 f   DisplayEngine:ProcessOptions.obj
 0001:00006c4c       ProcessOptions             0000000000006f0c f   DisplayEngine:ProcessOptions.obj
 0001:000079a4       ProcessHelpString          0000000000007c64 f   DisplayEngine:ProcessOptions.obj
 0001:00007aec       AddOneSelectableOption     0000000000007dac f   DisplayEngine:Popup.obj
 0001:00007bbc       AddUserSelectableOptions   0000000000007e7c f   DisplayEngine:Popup.obj
 0001:00007eac       GetUserSelection           000000000000816c f   DisplayEngine:Popup.obj
 0001:000080ec       ParseMessageString         00000000000083ac f   DisplayEngine:Popup.obj
 0001:00008214       CalculatePopupPosition     00000000000084d4 f   DisplayEngine:Popup.obj
 0001:000083b4       DrawMessageBox             0000000000008674 f   DisplayEngine:Popup.obj
 0001:000088bc       CreatePopup                0000000000008b7c f   DisplayEngine:Popup.obj
 0001:00008a2c       ReadString                 0000000000008cec f   DisplayEngine:InputHandler.obj
 0001:00009314       GetValueFromNum            00000000000095d4 f   DisplayEngine:InputHandler.obj
 0001:00009450       GetNumericInput            0000000000009710 f   DisplayEngine:InputHandler.obj
 0001:0000a1e0       AdjustOptionOrder          000000000000a4a0 f   DisplayEngine:InputHandler.obj
 0001:0000a348       SetValuesByType            000000000000a608 f   DisplayEngine:InputHandler.obj
 0001:0000a39c       GetSelectionInputPopUp     000000000000a65c f   DisplayEngine:InputHandler.obj
 0001:0000b034       StrnLenS                   000000000000b2f4 f   BaseLib:SafeString.obj
 0001:0000b09c       StrCpyS                    000000000000b35c f   BaseLib:SafeString.obj
 0001:0000b240       StrnCpyS                   000000000000b500 f   BaseLib:SafeString.obj
 0001:0000b418       StrCatS                    000000000000b6d8 f   BaseLib:SafeString.obj
 0001:0000b600       StrLen                     000000000000b8c0 f   BaseLib:String.obj
 0001:0000b688       StrCmp                     000000000000b948 f   BaseLib:String.obj
 0001:0000b730       AsciiStrLen                000000000000b9f0 f   BaseLib:String.obj
 0001:0000b79c       AsciiStrnCmp               000000000000ba5c f   BaseLib:String.obj
 0001:0000b868       InternalBaseLibIsListValid 000000000000bb28 f   BaseLib:LinkedList.obj
 0001:0000b8d4       InsertHeadList             000000000000bb94 f   BaseLib:LinkedList.obj
 0001:0000b924       InsertTailList             000000000000bbe4 f   BaseLib:LinkedList.obj
 0001:0000b978       GetFirstNode               000000000000bc38 f   BaseLib:LinkedList.obj
 0001:0000b9ac       GetNextNode                000000000000bc6c f   BaseLib:LinkedList.obj
 0001:0000b9e0       IsListEmpty                000000000000bca0 f   BaseLib:LinkedList.obj
 0001:0000ba18       IsNull                     000000000000bcd8 f   BaseLib:LinkedList.obj
 0001:0000ba5c       SwapListEntries            000000000000bd1c f   BaseLib:LinkedList.obj
 0001:0000baec       RemoveEntryList            000000000000bdac f   BaseLib:LinkedList.obj
 0001:0000bb34       CopyGuid                   000000000000bdf4 f   BaseMemoryLibRepStr:MemLibGuid.obj
 0001:0000bbe4       CompareGuid                000000000000bea4 f   BaseMemoryLibRepStr:MemLibGuid.obj
 0001:0000bca8       CopyMem                    000000000000bf68 f   BaseMemoryLibRepStr:CopyMemWrapper.obj
 0001:0000bd44       ZeroMem                    000000000000c004 f   BaseMemoryLibRepStr:ZeroMemWrapper.obj
 0001:0000bdb4       CompareMem                 000000000000c074 f   BaseMemoryLibRepStr:CompareMemWrapper.obj
 0001:0000be8c       UnicodeVSPrint             000000000000c14c f   BasePrintLib:PrintLib.obj
 0001:0000bf20       UnicodeSPrint              000000000000c1e0 f   BasePrintLib:PrintLib.obj
 0001:0000bf40       AsciiSPrint                000000000000c200 f   BasePrintLib:PrintLib.obj
 0001:0000bf6c       BasePrintLibFillBuffer     000000000000c22c f   BasePrintLib:PrintLibInternal.obj
 0001:0000bfa0       BasePrintLibValueToString  000000000000c260 f   BasePrintLib:PrintLibInternal.obj
 0001:0000c00c       BasePrintLibSPrintMarker   000000000000c2cc f   BasePrintLib:PrintLibInternal.obj
 0001:0000cf24       BasePrintLibSPrint         000000000000d1e4 f   BasePrintLib:PrintLibInternal.obj
 0001:0000cf48       DebugPrint                 000000000000d208 f   BaseDebugLibSerialPort:DebugLib.obj
 0001:0000cf6c       DebugPrintMarker           000000000000d22c f   BaseDebugLibSerialPort:DebugLib.obj
 0001:0000cff8       DebugAssert                000000000000d2b8 f   BaseDebugLibSerialPort:DebugLib.obj
 0001:0000d074       InternalAllocatePool       000000000000d334 f   UefiMemoryAllocationLib:MemoryAllocationLib.obj
 0001:0000d0a4       AllocateZeroPool           000000000000d364 f   UefiMemoryAllocationLib:MemoryAllocationLib.obj
 0001:0000d0cc       InternalAllocateCopyPool   000000000000d38c f   UefiMemoryAllocationLib:MemoryAllocationLib.obj
 0001:0000d144       InternalReallocatePool     000000000000d404 f   UefiMemoryAllocationLib:MemoryAllocationLib.obj
 0001:0000d1c0       FreePool                   000000000000d480 f   UefiMemoryAllocationLib:MemoryAllocationLib.obj
 0001:0000d204       GetBestLanguage            000000000000d4c4 f   UefiLib:UefiLib.obj
 0001:0000d33c       HiiSetString               000000000000d5fc f   UefiHiiLib:HiiString.obj
 0001:0000d47c       HiiGetStringEx             000000000000d73c f   UefiHiiLib:HiiString.obj
 0001:0000d698       HiiAddPackages             000000000000d958 f   UefiHiiLib:HiiLib.obj
 0001:0000d7e4       HiiRemovePackages          000000000000daa4 f   UefiHiiLib:HiiLib.obj
 0001:0000d854       HiiGetFormSetFromHiiHandle 000000000000db14 f   UefiHiiLib:HiiLib.obj
 0001:0000da54       HiiGetSupportedLanguages   000000000000dd14 f   UefiHiiLib:HiiLanguage.obj
 0001:0000daf8       DisplayPageFrame           000000000000ddb8 f   CustomizedDisplayLib:CustomizedDisplayLib.obj
 0001:0000dc50       RefreshKeyHelp             000000000000df10 f   CustomizedDisplayLib:CustomizedDisplayLib.obj
 0001:0000e388       UpdateStatusBar            000000000000e648 f   CustomizedDisplayLib:CustomizedDisplayLib.obj
 0001:0000e550       CreateDialog               000000000000e810 f   CustomizedDisplayLib:CustomizedDisplayLib.obj
 0001:0000e960       ConfirmDataChange          000000000000ec20 f   CustomizedDisplayLib:CustomizedDisplayLib.obj
 0001:0000ea14       ClearLines                 000000000000ecd4 f   CustomizedDisplayLib:CustomizedDisplayLib.obj
 0001:0000eaf0       PrintBannerInfo            000000000000edb0 f   CustomizedDisplayLib:CustomizedDisplayLibInternal.obj
 0001:0000eca0       PrintFramework             000000000000ef60 f   CustomizedDisplayLib:CustomizedDisplayLibInternal.obj
 0001:0000f050       ProcessUserOpcode          000000000000f310 f   CustomizedDisplayLib:CustomizedDisplayLibInternal.obj
 0001:0000f180       ProcessExternedOpcode      000000000000f440 f   CustomizedDisplayLib:CustomizedDisplayLibInternal.obj
 0001:0000f2e4       ScreenDiemensionInfoValidate 000000000000f5a4 f   CustomizedDisplayLib:CustomizedDisplayLibInternal.obj
 0001:0000f40c       LibGetToken                000000000000f6cc f   CustomizedDisplayLib:CustomizedDisplayLibInternal.obj
 0001:0000f474       LibGetStringWidth          000000000000f734 f   CustomizedDisplayLib:CustomizedDisplayLibInternal.obj
 0001:0000f500       PrintHotKeyHelpString      000000000000f7c0 f   CustomizedDisplayLib:CustomizedDisplayLibInternal.obj
 0001:0000f73c       InitializeLibStrings       000000000000f9fc f   CustomizedDisplayLib:CustomizedDisplayLibInternal.obj
 0001:0000f964       WaitForKeyStroke           000000000000fc24 f   CustomizedDisplayLib:CustomizedDisplayLibInternal.obj
 0001:0000f9c4       PrintInternal              000000000000fc84 f   CustomizedDisplayLib:CustomizedDisplayLibInternal.obj
 0001:0000fbf0       PrintAt                    000000000000feb0 f   CustomizedDisplayLib:CustomizedDisplayLibInternal.obj
 0001:0000fc1c       SerialPortWrite            000000000000fedc f   PcAtSerialPortLib:SerialPortLib.obj
 0001:0000fca0       IsTdxGuest                 000000000000ff60 f   BaseIoLibIntrinsicSev:IoLibInternalTdx.obj
 0001:0000fccc       TdIoRead8                  000000000000ff8c f   BaseIoLibIntrinsicSev:IoLibInternalTdx.obj
 0001:0000fd24       TdIoWrite8                 000000000000ffe4 f   BaseIoLibIntrinsicSev:IoLibInternalTdx.obj
 0002:00000000       ??_C@_0CB@DMEJJJHA@?6ASSERT_EFI_ERROR?5?$CIStatus?5?$DN?5?$CFr?$CJ@ 0000000000010040     UefiDriverEntryPoint:DriverEntryPoint.obj
 0002:00000028       ??_C@_0CH@BBNBJKHK@?$CB?$CI?$CI?$CIINTN?$CJ?$CIRETURN_STATUS?$CJ?$CIStatus@ 0000000000010068     UefiDriverEntryPoint:DriverEntryPoint.obj
 0002:00000050       ??_C@_0FP@ODLELCIC@D?3?2uefi_specs_personal_collecti@ 0000000000010090     UefiDriverEntryPoint:DriverEntryPoint.obj
 0002:000000b0       ??_C@_0O@HCCPIKNJ@DisplayEngine@ 00000000000100f0     DisplayEngine:AutoGen.obj
 0002:000000c0       ??_C@_0JA@JMGKEGAM@d?3?2uefi_specs_personal_collecti@ 0000000000010100     DisplayEngine:AutoGen.obj
 0002:00000150       _gPcd_FixedAtBuild_PcdFrontPageFormSetGuid 0000000000010190     DisplayEngine:AutoGen.obj
 0002:00000160       ??_C@_0BH@MAAHKCPC@String?5?$CB?$DN?5?$CI?$CIvoid?5?$CK?$CJ?50?$CJ@ 00000000000101a0     DisplayEngine:FormDisplay.obj
 0002:00000180       ??_C@_0FO@FOPCAML@D?3?2uefi_specs_personal_collecti@ 00000000000101c0     DisplayEngine:FormDisplay.obj
 0002:000001e0       ??_C@_0O@BOALFJLA@PromptId?5?$CB?$DN?50@ 0000000000010220     DisplayEngine:FormDisplay.obj
 0002:000001f0       ??_C@_0L@IFJDCMOO@MenuOption@ 0000000000010230     DisplayEngine:FormDisplay.obj
 0002:00000200       ??_C@_0BF@NDBIKIKC@CR?5has?5Bad?5Signature@ 0000000000010240     DisplayEngine:FormDisplay.obj
 0002:00000218       ??_C@_0BN@FIEBDFGF@OptionString?5?$CB?$DN?5?$CI?$CIvoid?5?$CK?$CJ?50?$CJ@ 0000000000010258     DisplayEngine:FormDisplay.obj
 0002:00000238       ??_C@_0DL@JHBACIIB@MenuOption?5?$CB?$DN?5?$CI?$CIvoid?5?$CK?$CJ?50?$CJ?5?$CG?$CG?5O@ 0000000000010278     DisplayEngine:FormDisplay.obj
 0002:00000278       ??_C@_0BO@JDMAKKHP@Timeout?5?$CB?$DN?50?5?$CG?$CG?5EventNum?5?$DN?$DN?52@ 00000000000102b8     DisplayEngine:FormDisplay.obj
 0002:00000298       ??_C@_0BM@MDDGLKPF@Index?5?$DN?$DN?52?5?$CG?$CG?5EventNum?5?$DN?$DN?53@ 00000000000102d8     DisplayEngine:FormDisplay.obj
 0002:000002b8       ??_C@_0BH@MHNEAHCE@NewPos?5?$CB?$DN?5?$CGgMenuOption@ 00000000000102f8     DisplayEngine:FormDisplay.obj
 0002:000002d0       ??_C@_0BP@DKHOIAOI@?$CKHighlightMenu?5?$CB?$DN?5?$CI?$CIvoid?5?$CK?$CJ?50?$CJ@ 0000000000010310     DisplayEngine:FormDisplay.obj
 0002:000002f0       ??_C@_0CN@CLCKLAMG@gHighligthMenuInfo?4HLTOpCode?5?$CB?$DN@ 0000000000010330     DisplayEngine:FormDisplay.obj
 0002:00000320       ??_C@_0CN@PKDANBPI@gHighligthMenuInfo?4TOSOpCode?5?$CB?$DN@ 0000000000010360     DisplayEngine:FormDisplay.obj
 0002:00000350       ??_C@_11LOCGONAA@@         0000000000010390     DisplayEngine:FormDisplay.obj
 0002:00000358       ??_C@_0BH@EIACHMCM@CfmStr?5?$CB?$DN?5?$CI?$CIvoid?5?$CK?$CJ?50?$CJ@ 0000000000010398     DisplayEngine:FormDisplay.obj
 0002:00000370       ??_C@_0BH@JJHAJIOH@NewPos?5?$CB?$DN?5?$CI?$CIvoid?5?$CK?$CJ?50?$CJ@ 00000000000103b0     DisplayEngine:FormDisplay.obj
 0002:00000388       ??_C@_0BL@MGMMPOHB@MenuOption?5?$CB?$DN?5?$CI?$CIvoid?5?$CK?$CJ?50?$CJ@ 00000000000103c8     DisplayEngine:FormDisplay.obj
 0002:000003a8       ??_C@_0BE@LNJPNPCM@HelpHeaderLine?5?$DN?$DN?51@ 00000000000103e8     DisplayEngine:FormDisplay.obj
 0002:000003c0       ??_C@_0EG@MLCGOFNB@GetStringWidth?5?$CIHelpHeaderStrin@ 0000000000010400     DisplayEngine:FormDisplay.obj
 0002:00000408       ??_C@_0BE@KPAMDEKB@HelpBottomLine?5?$DN?$DN?51@ 0000000000010448     DisplayEngine:FormDisplay.obj
 0002:00000420       ??_C@_0EG@EPAFMIEN@GetStringWidth?5?$CIHelpBottomStrin@ 0000000000010460     DisplayEngine:FormDisplay.obj
 0002:00000468       ??_C@_0BH@CFJDGJFI@HotKey?5?$CB?$DN?5?$CI?$CIvoid?5?$CK?$CJ?50?$CJ@ 00000000000104a8     DisplayEngine:FormDisplay.obj
 0002:00000480       ??_C@_0DH@IENGLGJH@OpCodeBuf?5?$CB?$DN?5?$CI?$CIvoid?5?$CK?$CJ?50?$CJ?5?$CG?$CG?5Op@ 00000000000104c0     DisplayEngine:FormDisplay.obj
 0002:000004b8       ??_C@_0BL@MCKCEPCD@gUserInput?5?$CB?$DN?5?$CI?$CIvoid?5?$CK?$CJ?50?$CJ@ 00000000000104f8     DisplayEngine:FormDisplay.obj
 0002:000004d8       ??_C@_0BJ@PJGKOGBG@FormData?5?$CB?$DN?5?$CI?$CIvoid?5?$CK?$CJ?50?$CJ@ 0000000000010518     DisplayEngine:FormDisplay.obj
 0002:000004f8       ??_C@_0BL@NCJOJLEB@gHiiHandle?5?$CB?$DN?5?$CI?$CIvoid?5?$CK?$CJ?50?$CJ@ 0000000000010538     DisplayEngine:FormDisplay.obj
 0002:00000518       ??_C@_0BK@HACKOMPP@NewString?5?$CB?$DN?5?$CI?$CIvoid?5?$CK?$CJ?50?$CJ@ 0000000000010558     DisplayEngine:FormDisplay.obj
 0002:00000540       ??_C@_0GB@CFGHFFKG@D?3?2uefi_specs_personal_collecti@ 0000000000010580     DisplayEngine:ProcessOptions.obj
 0002:000005a8       ??_C@_0BG@KEJHFGFH@Array?5?$CB?$DN?5?$CI?$CIvoid?5?$CK?$CJ?50?$CJ@ 00000000000105e8     DisplayEngine:ProcessOptions.obj
 0002:000005c0       ??_C@_19NMDCNMKO@?$AA?9?$AA?$CF?$AAl?$AAd@ 0000000000010600     DisplayEngine:ProcessOptions.obj
 0002:000005d0       ??_C@_17OADJODNB@?$AA?$CF?$AAl?$AAd@ 0000000000010610     DisplayEngine:ProcessOptions.obj
 0002:000005d8       ??_C@_17PKPGALPG@?$AA?$CF?$AAl?$AAx@ 0000000000010618     DisplayEngine:ProcessOptions.obj
 0002:000005e0       ??_C@_15KNBIKKIN@?$AA?$CF?$AAd@ 0000000000010620     DisplayEngine:ProcessOptions.obj
 0002:000005e8       ??_C@_09IPFCLGON@StringPtr@ 0000000000010628     DisplayEngine:ProcessOptions.obj
 0002:000005f8       ??_C@_0L@EFOKHEHD@TempString@ 0000000000010638     DisplayEngine:ProcessOptions.obj
 0002:00000610       ??_C@_0EF@GGMADOHO@?6?$FL?$CFa?$FN?3?5Mismatch?5Formset?5?5?5?5?3?5Fo@ 0000000000010650     DisplayEngine:ProcessOptions.obj
 0002:00000658       ??_C@_0DM@EMHACJKC@?$FL?$CFa?$FN?3?5Mismatch?5Form?5?5?5?5?5?5?5?3?5For@ 0000000000010698     DisplayEngine:ProcessOptions.obj
 0002:000006a0       ??_C@_0FN@MMPAFPLB@?$FL?$CFa?$FN?3?5Mismatch?5Error?5?5?5?5?5?5?3?5Ord@ 00000000000106e0     DisplayEngine:ProcessOptions.obj
 0002:00000700       ??_C@_0CI@LNHAJKBL@?$FL?$CFa?$FN?3?5Mismatch?5OrderedList?3?5Nam@ 0000000000010740     DisplayEngine:ProcessOptions.obj
 0002:00000728       ??_C@_0DH@ICIOHDCM@?$FL?$CFa?$FN?3?5Mismatch?5OrderedList?3?5Ord@ 0000000000010768     DisplayEngine:ProcessOptions.obj
 0002:00000760       ??_C@_0DI@MAHDDIDK@?5?5?5?5?5?5?5?5?5?5?5?5?5?5?5?5?5?5?5?5?5?5?5?5?5?5?5?5?5?5?5@ 00000000000107a0     DisplayEngine:ProcessOptions.obj
 0002:000007a0       ??_C@_0EK@JKIOLPJA@?$FL?$CFa?$FN?3?5Mismatch?5Error?5?5?5?5?5?5?3?5One@ 00000000000107e0     DisplayEngine:ProcessOptions.obj
 0002:000007f0       ??_C@_0CI@DMFGPKHA@?$FL?$CFa?$FN?3?5Mismatch?5OneOf?5?5?5?5?5?5?3?5Nam@ 0000000000010830     DisplayEngine:ProcessOptions.obj
 0002:00000818       ??_C@_0DA@LJKAMKHI@?$FL?$CFa?$FN?3?5Mismatch?5OneOf?5?5?5?5?5?5?3?5One@ 0000000000010858     DisplayEngine:ProcessOptions.obj
 0002:00000848       ??_C@_0CP@GPJKFJDH@?$FL?$CFa?$FN?3?5Mismatch?5OneOf?5?5?5?5?5?5?3?5One@ 0000000000010888     DisplayEngine:ProcessOptions.obj
 0002:00000878       ??_C@_0BC@FEDIJHFF@?$CI?$CIBOOLEAN?$CJ?$CI0?$DN?$DN1?$CJ?$CJ@ 00000000000108b8     DisplayEngine:ProcessOptions.obj
 0002:00000890       ??_C@_0EF@EOIPPIJK@?$FL?$CFa?$FN?3?5Option?5?$CFd?5?5?5?5?5?5?5?5?5?5?5?5?3?5Op@ 00000000000108d0     DisplayEngine:ProcessOptions.obj
 0002:000008e0       ??_C@_0EE@PILGPGON@?$FL?$CFa?$FN?3?5Option?5?$CFd?5?5?5?5?5?5?5?5?5?5?5?5?3?5Op@ 0000000000010920     DisplayEngine:ProcessOptions.obj
 0002:00000928       ??_C@_0O@IFFFLPLH@?$CKOptionString@ 0000000000010968     DisplayEngine:ProcessOptions.obj
 0002:00000938       ??_C@_0BL@PFKPELIK@ValueArray?5?$CB?$DN?5?$CI?$CIvoid?5?$CK?$CJ?50?$CJ@ 0000000000010978     DisplayEngine:ProcessOptions.obj
 0002:00000958       ??_C@_0BK@OHHEMHCC@StringPtr?5?$CB?$DN?5?$CI?$CIvoid?5?$CK?$CJ?50?$CJ@ 0000000000010998     DisplayEngine:ProcessOptions.obj
 0002:00000974       ??_C@_15BDFJADND@?$AA?$DP?$AA?$DP@ 00000000000109b4     DisplayEngine:ProcessOptions.obj
 0002:00000980       ??_C@_19MNDKMKJC@?$AA?$CF?$AA0?$AA2?$AAd@ 00000000000109c0     DisplayEngine:ProcessOptions.obj
 0002:00000990       ??_C@_19IEAEFCGC@?$AA?$DP?$AA?$DP?$AA?$DP?$AA?$DP@ 00000000000109d0     DisplayEngine:ProcessOptions.obj
 0002:000009a0       ??_C@_19BLGDCJIP@?$AA?$CF?$AA0?$AA4?$AAd@ 00000000000109e0     DisplayEngine:ProcessOptions.obj
 0002:000009b0       ??_C@_0CB@FFCAMKBE@?$CKFormattedString?5?$CB?$DN?5?$CI?$CIvoid?5?$CK?$CJ?50@ 00000000000109f0     DisplayEngine:ProcessOptions.obj
 0002:000009e0       ??_C@_0FI@IBICJPLM@D?3?2uefi_specs_personal_collecti@ 0000000000010a20     DisplayEngine:Popup.obj
 0002:00000a38       ??_C@_17LGKOMLJ@?$AA?4?$AA?4?$AA?4@ 0000000000010a78     DisplayEngine:Popup.obj
 0002:00000a40       ??_C@_1O@BJJIFMMK@?$AA?4?$AA?4?$AA?4?$AA?4?$AA?4?$AA?4@ 0000000000010a80     DisplayEngine:Popup.obj
 0002:00000a50       ??_C@_0FP@FBKGCDHB@D?3?2uefi_specs_personal_collecti@ 0000000000010a90     DisplayEngine:InputHandler.obj
 0002:00000ab0       ??_C@_0P@PDMJIOFD@BufferedString@ 0000000000010af0     DisplayEngine:InputHandler.obj
 0002:00000ac0       ??_C@_0CB@IJCHBAJG@Question?9?$DOOpCode?9?$DOOpCode?5?$DN?$DN?50x0@ 0000000000010b00     DisplayEngine:InputHandler.obj
 0002:00000ae8       ??_C@_0BE@HCEBPOGJ@InputWidth?5?$CL?52?5?$DM?524@ 0000000000010b28     DisplayEngine:InputHandler.obj
 0002:00000b00       ??_C@_0O@GHOKFFIC@EraseLen?5?$DO?$DN?52@ 0000000000010b40     DisplayEngine:InputHandler.obj
 0002:00000b10       ??_C@_0O@EMMHAGEB@EraseLen?5?$DO?$DN?51@ 0000000000010b50     DisplayEngine:InputHandler.obj
 0002:00000b20       ??_C@_13HOIJIPNN@?$AA?5@   0000000000010b60     DisplayEngine:InputHandler.obj
 0002:00000b30       ??_C@_0EB@PAKPJFDM@Count?5?$DM?5?$CIsizeof?5?$CIPreviousNumber@ 0000000000010b70     DisplayEngine:InputHandler.obj
 0002:00000b80       ??_C@_0ED@GAPODBOB@Count?5?$DM?5?$CI?$CIsizeof?5?$CIPreviousNumbe@ 0000000000010bc0     DisplayEngine:InputHandler.obj
 0002:00000bc8       ??_C@_0BO@PFDGAAML@HiiValueArray?5?$CB?$DN?5?$CI?$CIvoid?5?$CK?$CJ?50?$CJ@ 0000000000010c08     DisplayEngine:InputHandler.obj
 0002:00000be8       ??_C@_0BO@FEDJMLCM@TempStringPtr?5?$CB?$DN?5?$CI?$CIvoid?5?$CK?$CJ?50?$CJ@ 0000000000010c28     DisplayEngine:InputHandler.obj
 0002:00000c08       ??_C@_0BO@KCDJJCJE@CurrentOption?5?$CB?$DN?5?$CI?$CIvoid?5?$CK?$CJ?50?$CJ@ 0000000000010c48     DisplayEngine:InputHandler.obj
 0002:00000c28       ??_C@_0BM@HHHFMHHK@ReturnValue?5?$CB?$DN?5?$CI?$CIvoid?5?$CK?$CJ?50?$CJ@ 0000000000010c68     DisplayEngine:InputHandler.obj
 0002:00000c48       ??_C@_0CC@GFNLNIOC@?$CI?$CIUINTN?$CJString?5?$CG?50x00000001?$CJ?5?$DN?$DN@ 0000000000010c88     BaseLib:SafeString.obj
 0002:00000c70       ??_C@_0EM@OAPOMMAE@D?3?2uefi_specs_personal_collecti@ 0000000000010cb0     BaseLib:SafeString.obj
 0002:00000cc0       ??_C@_0CH@LALFPBMC@?$CI?$CIUINTN?$CJDestination?5?$CG?50x0000000@ 0000000000010d00     BaseLib:SafeString.obj
 0002:00000ce8       ??_C@_0CC@HEBCMBPF@?$CI?$CIUINTN?$CJSource?5?$CG?50x00000001?$CJ?5?$DN?$DN@ 0000000000010d28     BaseLib:SafeString.obj
 0002:00000d10       ??_C@_0BO@ECNIOIHG@?$CIDestination?5?$CB?$DN?5?$CI?$CIvoid?5?$CK?$CJ?50?$CJ?$CJ@ 0000000000010d50     BaseLib:SafeString.obj
 0002:00000d30       ??_C@_07KBGDFDAM@StrCpyS@  0000000000010d70     BaseLib:SafeString.obj
 0002:00000d40       ??_C@_0EA@PDPDJJNN@?$CFa?$CI?$CFd?$CJ?5?$CFa?3?5SAFE_STRING_CONSTRAI@ 0000000000010d80     BaseLib:SafeString.obj
 0002:00000d80       ??_C@_0BJ@EAEEJIP@?$CISource?5?$CB?$DN?5?$CI?$CIvoid?5?$CK?$CJ?50?$CJ?$CJ@ 0000000000010dc0     BaseLib:SafeString.obj
 0002:00000da0       ??_C@_0EA@BBALOHPI@?$CIDestMax?5?$DM?$DN?5?$CI_gPcd_FixedAtBuild@ 0000000000010de0     BaseLib:SafeString.obj
 0002:00000de0       ??_C@_0P@PMIMLIHM@?$CIDestMax?5?$CB?$DN?50?$CJ@ 0000000000010e20     BaseLib:SafeString.obj
 0002:00000df0       ??_C@_0BG@EEGIIOKH@?$CIDestMax?5?$DO?5SourceLen?$CJ@ 0000000000010e30     BaseLib:SafeString.obj
 0002:00000e10       ??_C@_0FH@PPBLBDBJ@InternalSafeStringNoStrOverlap?5@ 0000000000010e50     BaseLib:SafeString.obj
 0002:00000e68       ??_C@_08INOAHJON@StrnCpyS@ 0000000000010ea8     BaseLib:SafeString.obj
 0002:00000e78       ??_C@_0DP@PBOJGJC@?$CILength?5?$DM?$DN?5?$CI_gPcd_FixedAtBuild_@ 0000000000010eb8     BaseLib:SafeString.obj
 0002:00000eb8       ??_C@_07EBBOPAKF@StrCatS@  0000000000010ef8     BaseLib:SafeString.obj
 0002:00000ec0       ??_C@_0P@BHOOOJPD@?$CICopyLen?5?$CB?$DN?50?$CJ@ 0000000000010f00     BaseLib:SafeString.obj
 0002:00000ed0       ??_C@_0BG@BPGICNPK@?$CICopyLen?5?$DO?5SourceLen?$CJ@ 0000000000010f10     BaseLib:SafeString.obj
 0002:00000ee8       ??_C@_0BJ@CNKJJNE@?$CIBuffer?5?$CB?$DN?5?$CI?$CIvoid?5?$CK?$CJ?50?$CJ?$CJ@ 0000000000010f28     BaseLib:SafeString.obj
 0002:00000f10       ??_C@_0EI@LOLLHGDK@D?3?2uefi_specs_personal_collecti@ 0000000000010f50     BaseLib:String.obj
 0002:00000f58       ??_C@_0DK@EOJCOAME@Length?5?$DM?5_gPcd_FixedAtBuild_Pcd@ 0000000000010f98     BaseLib:String.obj
 0002:00000f98       ??_C@_0BL@JAAMOCAJ@StrSize?5?$CIFirstString?$CJ?5?$CB?$DN?50@ 0000000000010fd8     BaseLib:String.obj
 0002:00000fb8       ??_C@_0BM@DALBOILC@StrSize?5?$CISecondString?$CJ?5?$CB?$DN?50@ 0000000000010ff8     BaseLib:String.obj
 0002:00000fd8       ??_C@_0DI@MDIKFADO@Length?5?$DM?5_gPcd_FixedAtBuild_Pcd@ 0000000000011018     BaseLib:String.obj
 0002:00001010       ??_C@_0BL@IKFBNFIL@AsciiStrSize?5?$CIFirstString?$CJ@ 0000000000011050     BaseLib:String.obj
 0002:00001030       ??_C@_0BM@EDNOKLLE@AsciiStrSize?5?$CISecondString?$CJ@ 0000000000011070     BaseLib:String.obj
 0002:00001050       ??_C@_0DJ@JJHGIFMP@Length?5?$DM?$DN?5_gPcd_FixedAtBuild_Pc@ 0000000000011090     BaseLib:String.obj
 0002:00001090       ??_C@_0BF@NJNGJMPC@List?5?$CB?$DN?5?$CI?$CIvoid?5?$CK?$CJ?50?$CJ@ 00000000000110d0     BaseLib:LinkedList.obj
 0002:000010b0       ??_C@_0EM@NCJPOFNN@D?3?2uefi_specs_personal_collecti@ 00000000000110f0     BaseLib:LinkedList.obj
 0002:00001100       ??_C@_0CC@KDLPLAED@List?9?$DOForwardLink?5?$CB?$DN?5?$CI?$CIvoid?5?$CK?$CJ?5@ 0000000000011140     BaseLib:LinkedList.obj
 0002:00001128       ??_C@_0BP@IJJCCMAK@List?9?$DOBackLink?5?$CB?$DN?5?$CI?$CIvoid?5?$CK?$CJ?50?$CJ@ 0000000000011168     BaseLib:LinkedList.obj
 0002:00001148       ??_C@_0CI@BMHOPIIO@InternalBaseLibIsListValid?5?$CIFir@ 0000000000011188     BaseLib:LinkedList.obj
 0002:00001170       ??_C@_0CG@LGIALJFK@InternalBaseLibIsListValid?5?$CILis@ 00000000000111b0     BaseLib:LinkedList.obj
 0002:00001198       ??_C@_0CC@JLDICICM@InternalBaseLibIsListValid?5?$CILis@ 00000000000111d8     BaseLib:LinkedList.obj
 0002:000011c0       ??_C@_0BF@NMBJJECB@?$CBIsListEmpty?5?$CIEntry?$CJ@ 0000000000011200     BaseLib:LinkedList.obj
 0002:000011d8       ??_C@_0N@KGHEHMDL@Divisor?5?$CB?$DN?50@ 0000000000011218     BaseLib:DivU64x32.obj
 0002:000011e8       ??_C@_0DG@EEENIGGL@Length?5?$DM?$DN?5?$CI0xFFFFFFFFFFFFFFFFUL@ 0000000000011228     BaseMemoryLibRepStr:MemLibGuid.obj
 0002:00001220       ??_C@_0ED@MKGCMJG@?$CILength?5?9?51?$CJ?5?$DM?$DN?5?$CI0xFFFFFFFFFFFF@ 0000000000011260     BaseMemoryLibRepStr:CopyMemWrapper.obj
 0002:00001270       ??_C@_0FM@IDPIEKJH@D?3?2uefi_specs_personal_collecti@ 00000000000112b0     BaseMemoryLibRepStr:CopyMemWrapper.obj
 0002:000012d0       ??_C@_0DO@MAOBOFEG@?$CILength?5?9?51?$CJ?5?$DM?$DN?5?$CI0xFFFFFFFFFFFF@ 0000000000011310     BaseMemoryLibRepStr:CopyMemWrapper.obj
 0002:00001310       ??_C@_0BH@IACGKAP@Buffer?5?$CB?$DN?5?$CI?$CIvoid?5?$CK?$CJ?50?$CJ@ 0000000000011350     BaseMemoryLibRepStr:ZeroMemWrapper.obj
 0002:00001330       ??_C@_0FM@DHFKCLFA@D?3?2uefi_specs_personal_collecti@ 0000000000011370     BaseMemoryLibRepStr:ZeroMemWrapper.obj
 0002:00001390       ??_C@_0CC@JOEHDGKB@DestinationBuffer?5?$CB?$DN?5?$CI?$CIvoid?5?$CK?$CJ?5@ 00000000000113d0     BaseMemoryLibRepStr:CompareMemWrapper.obj
 0002:000013c0       ??_C@_0FP@MJKEJMKF@D?3?2uefi_specs_personal_collecti@ 0000000000011400     BaseMemoryLibRepStr:CompareMemWrapper.obj
 0002:00001420       ??_C@_0BN@MDMCNBCC@SourceBuffer?5?$CB?$DN?5?$CI?$CIvoid?5?$CK?$CJ?50?$CJ@ 0000000000011460     BaseMemoryLibRepStr:CompareMemWrapper.obj
 0002:00001440       ??_C@_0CI@BGLNHBLM@?$CI?$CI?$CIUINTN?$CJ?5?$CIStartOfBuffer?$CJ?$CJ?5?$CG?50x@ 0000000000011480     BasePrintLib:PrintLib.obj
 0002:00001470       ??_C@_0EP@OFLCNDBG@D?3?2uefi_specs_personal_collecti@ 00000000000114b0     BasePrintLib:PrintLib.obj
 0002:000014c0       ??_C@_0CH@KJLBGOBB@?$CI?$CI?$CIUINTN?$CJ?5?$CIFormatString?$CJ?$CJ?5?$CG?50x0@ 0000000000011500     BasePrintLib:PrintLib.obj
 0002:000014f0       ??_C@_0FH@MODEAFEI@D?3?2uefi_specs_personal_collecti@ 0000000000011530     BasePrintLib:PrintLibInternal.obj
 0002:00001550       ??_C@_0EB@HDGIDCIO@?$CIBufferSize?5?$DM?$DN?5?$CI_gPcd_FixedAtBu@ 0000000000011590     BasePrintLib:PrintLibInternal.obj
 0002:00001598       ??_C@_0BJ@PPAKKDJG@?$CIFormat?5?$CB?$DN?5?$CI?$CIvoid?5?$CK?$CJ?50?$CJ?$CJ@ 00000000000115d8     BasePrintLib:PrintLibInternal.obj
 0002:000015c0       ??_C@_0ED@LPDDCECB@?$CIBufferSize?5?$DM?$DN?5?$CI_gPcd_FixedAtBu@ 0000000000011600     BasePrintLib:PrintLibInternal.obj
 0002:00001610       ??_C@_0IM@BFJJFLGB@?$CIStrnLenS?5?$CI?$CICHAR16?5?$CK?$CJFormat?0?5?$CI_@ 0000000000011650     BasePrintLib:PrintLibInternal.obj
 0002:000016a0       ??_C@_0ID@PLGJGION@?$CIAsciiStrnLenS?5?$CIFormat?0?5?$CI_gPcd_@ 00000000000116e0     BasePrintLib:PrintLibInternal.obj
 0002:00001728       ??_C@_0O@MLOLIMFM@?$DMnull?5string?$DO@ 0000000000011768     BasePrintLib:PrintLibInternal.obj
 0002:00001738       ??_C@_0M@BJJDNPHK@?$DMnull?5guid?$DO@ 0000000000011778     BasePrintLib:PrintLibInternal.obj
 0002:00001748       ??_C@_0DB@PMLHLBMO@?$CF08x?9?$CF04x?9?$CF04x?9?$CF02x?$CF02x?9?$CF02x?$CF02@ 0000000000011788     BasePrintLib:PrintLibInternal.obj
 0002:00001780       ??_C@_0M@LHGBCIKM@?$DMnull?5time?$DO@ 00000000000117c0     BasePrintLib:PrintLibInternal.obj
 0002:00001790       ??_C@_0BK@FCPKCIDD@?$CF02d?1?$CF02d?1?$CF04d?5?5?$CF02d?3?$CF02d@ 00000000000117d0     BasePrintLib:PrintLibInternal.obj
 0002:000017ac       ??_C@_04JIMNDDED@?$CF08X@  00000000000117ec     BasePrintLib:PrintLibInternal.obj
 0002:000017b4       ??_C@_02PCIJFNDE@?$AN?6@   00000000000117f4     BasePrintLib:PrintLibInternal.obj
 0002:000017b8       ??_C@_01LIIJDEN@?$AN@      00000000000117f8     BasePrintLib:PrintLibInternal.obj
 0002:000017c0       mWarningString             0000000000011800     BasePrintLib:PrintLibInternal.obj
 0002:00001890       mErrorString               00000000000118d0     BasePrintLib:PrintLibInternal.obj
 0002:00001b70       mHexStr                    0000000000011bb0     BasePrintLib:PrintLibInternal.obj
 0002:00001b80       ??_C@_0BH@LKMBFCBF@Format?5?$CB?$DN?5?$CI?$CIvoid?5?$CK?$CJ?50?$CJ@ 0000000000011bc0     BaseDebugLibSerialPort:DebugLib.obj
 0002:00001ba0       ??_C@_0FJ@BNNHJMAJ@D?3?2uefi_specs_personal_collecti@ 0000000000011be0     BaseDebugLibSerialPort:DebugLib.obj
 0002:00001c00       ??_C@_0BI@NOCKJDBJ@ASSERT?5?$FL?$CFa?$FN?5?$CFa?$CI?$CFd?$CJ?3?5?$CFa?6@ 0000000000011c40     BaseDebugLibSerialPort:DebugLib.obj
 0002:00001c18       ??_C@_0BN@COECPDCC@gImageHandle?5?$CB?$DN?5?$CI?$CIvoid?5?$CK?$CJ?50?$CJ@ 0000000000011c58     UefiBootServicesTableLib:UefiBootServicesTableLib.obj
 0002:00001c40       ??_C@_0GL@PJCPJLGM@D?3?2uefi_specs_personal_collecti@ 0000000000011c80     UefiBootServicesTableLib:UefiBootServicesTableLib.obj
 0002:00001cb0       ??_C@_0BE@DGNHAHIL@gST?5?$CB?$DN?5?$CI?$CIvoid?5?$CK?$CJ?50?$CJ@ 0000000000011cf0     UefiBootServicesTableLib:UefiBootServicesTableLib.obj
 0002:00001cc8       ??_C@_0BE@BDFJLGLN@gBS?5?$CB?$DN?5?$CI?$CIvoid?5?$CK?$CJ?50?$CJ@ 0000000000011d08     UefiBootServicesTableLib:UefiBootServicesTableLib.obj
 0002:00001ce0       ??_C@_0GF@KMHDEKMA@D?3?2uefi_specs_personal_collecti@ 0000000000011d20     UefiMemoryAllocationLib:MemoryAllocationLib.obj
 0002:00001d48       ??_C@_0DO@GEEICOOO@AllocationSize?5?$DM?$DN?5?$CI0xFFFFFFFFFF@ 0000000000011d88     UefiMemoryAllocationLib:MemoryAllocationLib.obj
 0002:00001d90       ??_C@_0GP@HEOOPGAM@D?3?2uefi_specs_personal_collecti@ 0000000000011dd0     UefiDevicePathLibDevicePathProtocol:UefiDevicePathLib.obj
 0002:00001e00       ??_C@_0DC@CNNBPJA@mDevicePathLibDevicePathUtiliti@ 0000000000011e40     UefiDevicePathLibDevicePathProtocol:UefiDevicePathLib.obj
 0002:00001e38       ??_C@_0BE@OBDFIHND@gRT?5?$CB?$DN?5?$CI?$CIvoid?5?$CK?$CJ?50?$CJ@ 0000000000011e78     UefiRuntimeServicesTableLib:UefiRuntimeServicesTableLib.obj
 0002:00001e50       ??_C@_0HB@NCAPNEDO@D?3?2uefi_specs_personal_collecti@ 0000000000011e90     UefiRuntimeServicesTableLib:UefiRuntimeServicesTableLib.obj
 0002:00001ed0       ??_C@_0GF@MFAMBDAB@D?3?2uefi_specs_personal_collecti@ 0000000000011f10     UefiHiiServicesLib:UefiHiiServicesLib.obj
 0002:00001f40       ??_C@_0EJ@PPOMJLJB@D?3?2uefi_specs_personal_collecti@ 0000000000011f80     UefiLib:UefiLib.obj
 0002:00001f90       ??_C@_0BH@FMEOEIBC@?$CKValue?5?$CB?$DN?5?$CI?$CIvoid?5?$CK?$CJ?50?$CJ@ 0000000000011fd0     UefiLib:UefiLib.obj
 0002:00001fa8       ??_C@_0CD@OLFKAJF@SupportedLanguages?5?$CB?$DN?5?$CI?$CIvoid?5?$CK?$CJ@ 0000000000011fe8     UefiLib:UefiLib.obj
 0002:00001fd0       ??_C@_0BK@KLJHMMPJ@HiiHandle?5?$CB?$DN?5?$CI?$CIvoid?5?$CK?$CJ?50?$CJ@ 0000000000012010     UefiHiiLib:HiiString.obj
 0002:00001ff0       ??_C@_0FE@MDBONEFA@D?3?2uefi_specs_personal_collecti@ 0000000000012030     UefiHiiLib:HiiString.obj
 0002:00002044       ??_C@_06PLDEFKP@x?9UEFI@   0000000000012084     UefiHiiLib:HiiString.obj
 0002:00002050       ??_C@_0CA@OEKIMLLB@PackageListGuid?5?$CB?$DN?5?$CI?$CIvoid?5?$CK?$CJ?50?$CJ@ 0000000000012090     UefiHiiLib:HiiString.obj
 0002:00002070       ??_C@_0O@EMMLPDMJ@StringId?5?$CB?$DN?50@ 00000000000120b0     UefiHiiLib:HiiString.obj
 0002:00002080       ??_C@_1BK@GGGENMOA@?$AAP?$AAl?$AAa?$AAt?$AAf?$AAo?$AAr?$AAm?$AAL?$AAa?$AAn?$AAg@ 00000000000120c0     UefiHiiLib:HiiString.obj
 0002:0000209a       ??_C@_00CNPNBAHC@@         00000000000120da     UefiHiiLib:HiiString.obj
 0002:000020a0       ??_C@_0FB@IJGKLPLP@D?3?2uefi_specs_personal_collecti@ 00000000000120e0     UefiHiiLib:HiiLib.obj
 0002:000020f4       mEndOfPakageList           0000000000012134     UefiHiiLib:HiiLib.obj
 0002:00002100       ??_C@_0FG@CHPJEMDC@D?3?2uefi_specs_personal_collecti@ 0000000000012140     UefiHiiLib:HiiLanguage.obj
 0002:00002158       ??_C@_0DP@PCKCLDFH@FormData?5?$CB?$DN?5?$CI?$CIvoid?5?$CK?$CJ?50?$CJ?5?$CG?$CG?5Scr@ 0000000000012198     CustomizedDisplayLib:CustomizedDisplayLib.obj
 0002:000021a0       ??_C@_0GJ@OLMFEBJD@D?3?2uefi_specs_personal_collecti@ 00000000000121e0     CustomizedDisplayLib:CustomizedDisplayLib.obj
 0002:00002210       ??_C@_1BG@HCKICKBP@?$AA?$CF?$AAc?$AA?$CF?$AAc?$AA?$CF?$AAc?$AA?$CF?$AAc?$AA?$CF?$AAs@ 0000000000012250     CustomizedDisplayLib:CustomizedDisplayLib.obj
 0002:00002228       ??_C@_1O@OBLENKEO@?$AA?$CF?$AAc?$AA?$CF?$AAc?$AA?$CF?$AAs@ 0000000000012268     CustomizedDisplayLib:CustomizedDisplayLib.obj
 0002:00002238       ??_C@_15OJKDPEFE@?$AA?5?$AA?5@ 0000000000012278     CustomizedDisplayLib:CustomizedDisplayLib.obj
 0002:00002240       ??_C@_15GANGMFKL@?$AA?$CF?$AAs@ 0000000000012280     CustomizedDisplayLib:CustomizedDisplayLib.obj
 0002:00002248       ??_C@_15DAMPJCDE@?$AA?$CF?$AAc@ 0000000000012288     CustomizedDisplayLib:CustomizedDisplayLib.obj
 0002:00002250       ??_C@_0CF@FHJJPAPO@mCDLStringPackHandle?5?$CB?$DN?5?$CI?$CIvoid?5@ 0000000000012290     CustomizedDisplayLib:CustomizedDisplayLib.obj
 0002:00002278       ??_C@_0BM@GOGIKBPG@RowIdx?5?$DM?56?5?$CG?$CG?5ColumnIdx?5?$DM?53@ 00000000000122b8     CustomizedDisplayLib:CustomizedDisplayLibInternal.obj
 0002:000022a0       ??_C@_0HB@EKPGKPL@D?3?2uefi_specs_personal_collecti@ 00000000000122e0     CustomizedDisplayLib:CustomizedDisplayLibInternal.obj
 0002:00002318       ??_C@_0BJ@IHAHAJFB@TitleStr?5?$CB?$DN?5?$CI?$CIvoid?5?$CK?$CJ?50?$CJ@ 0000000000012358     CustomizedDisplayLib:CustomizedDisplayLibInternal.obj
 0002:00002338       ??_C@_0BM@DBDJAPO@gBannerData?5?$CB?$DN?5?$CI?$CIvoid?5?$CK?$CJ?50?$CJ@ 0000000000012378     CustomizedDisplayLib:CustomizedDisplayLibInternal.obj
 0002:00002354       ??_C@_13MGDFOILI@?$AA?$CB@ 0000000000012394     CustomizedDisplayLib:CustomizedDisplayLibInternal.obj
 0002:00002358       ??_C@_0BN@NNAHPNDP@mSpaceBuffer?5?$CB?$DN?5?$CI?$CIvoid?5?$CK?$CJ?50?$CJ@ 0000000000012398     CustomizedDisplayLib:CustomizedDisplayLibInternal.obj
 0002:00002378       ??_C@_06LBMCOACO@Buffer@   00000000000123b8     CustomizedDisplayLib:CustomizedDisplayLibInternal.obj
 0002:00002380       ??_C@_0N@LLKJGFOB@BackupBuffer@ 00000000000123c0     CustomizedDisplayLib:CustomizedDisplayLibInternal.obj
 0002:00002390       ??_C@_0EL@GLNKFHII@D?3?2uefi_specs_personal_collecti@ 00000000000123d0     BaseLib:Unaligned.obj
 0002:000023e0       ??_C@_0FE@LIGPAOFO@D?3?2uefi_specs_personal_collecti@ 0000000000012420     BaseLib:DivU64x32Remainder.obj
 0002:00002488       __volatile_metadata        00000000000124c8     <linker-defined>
 0003:00000000       gEfiLoadedImageProtocolGuid 0000000000012680     DisplayEngine:AutoGen.obj
 0003:00000010       gEfiGlobalVariableGuid     0000000000012690     DisplayEngine:AutoGen.obj
 0003:00000020       gEfiIfrTianoGuid           00000000000126a0     DisplayEngine:AutoGen.obj
 0003:00000030       gEfiHiiConfigRoutingProtocolGuid 00000000000126b0     DisplayEngine:AutoGen.obj
 0003:00000040       gEdkiiFormDisplayEngineProtocolGuid 00000000000126c0     DisplayEngine:AutoGen.obj
 0003:00000050       gEfiHiiPopupProtocolGuid   00000000000126d0     DisplayEngine:AutoGen.obj
 0003:00000060       gEfiHiiImageProtocolGuid   00000000000126e0     DisplayEngine:AutoGen.obj
 0003:00000070       gEfiDevicePathUtilitiesProtocolGuid 00000000000126f0     DisplayEngine:AutoGen.obj
 0003:00000080       gEfiHiiDatabaseProtocolGuid 0000000000012700     DisplayEngine:AutoGen.obj
 0003:00000090       gEfiHiiStringProtocolGuid  0000000000012710     DisplayEngine:AutoGen.obj
 0003:000000a0       DisplayEngineStrings       0000000000012720     DisplayEngine:AutoGen.obj
 0003:00001668       gEdkiiFormBrowserEx2ProtocolGuid 0000000000013ce8     DisplayEngine:AutoGen.obj
 0003:00001678       gEfiHiiFontProtocolGuid    0000000000013cf8     DisplayEngine:AutoGen.obj
 0003:00001690       gScanCodeToOperation       0000000000013d10     DisplayEngine:FormDisplay.obj
 0003:000016c8       gDisplayEngineGuid         0000000000013d48     DisplayEngine:FormDisplay.obj
 0003:000016d8       mPrivateData               0000000000013d58     DisplayEngine:FormDisplay.obj
 0003:00001710       gScreenOperationToControlFlag 0000000000013d90     DisplayEngine:FormDisplay.obj
 0003:00001760       mIsFirstForm               0000000000013de0     DisplayEngine:FormDisplay.obj
 0003:00001768       gCustomizedDisplayLibGuid  0000000000013de8     CustomizedDisplayLib:CustomizedDisplayLib.obj
 0003:00001778       gLibIsFirstForm            0000000000013df8     CustomizedDisplayLib:CustomizedDisplayLib.obj
 0003:00001780       CustomizedDisplayLibStrings 0000000000013e00     CustomizedDisplayLib:AutoGen.obj
 0003:00001e80       gHighligthMenuInfo         0000000000014500     DisplayEngine:FormDisplay.obj
 0003:00001ec8       gOldFormEntry              0000000000014548     DisplayEngine:FormDisplay.obj
 0003:00001f08       gST                        0000000000014588     UefiBootServicesTableLib:UefiBootServicesTableLib.obj
 0003:00001f10       gBS                        0000000000014590     UefiBootServicesTableLib:UefiBootServicesTableLib.obj
 0003:00001f18       gImageHandle               0000000000014598     UefiBootServicesTableLib:UefiBootServicesTableLib.obj
 0003:00001f20       mDevicePathLibDevicePathUtilities 00000000000145a0     UefiDevicePathLibDevicePathProtocol:UefiDevicePathLib.obj
 0003:00001f28       gRT                        00000000000145a8     UefiRuntimeServicesTableLib:UefiRuntimeServicesTableLib.obj
 0003:00001f30       gHiiString                 00000000000145b0     UefiHiiServicesLib:UefiHiiServicesLib.obj
 0003:00001f38       gHiiFont                   00000000000145b8     UefiHiiServicesLib:UefiHiiServicesLib.obj
 0003:00001f40       gHiiConfigRouting          00000000000145c0     UefiHiiServicesLib:UefiHiiServicesLib.obj
 0003:00001f48       gHiiImage                  00000000000145c8     UefiHiiServicesLib:UefiHiiServicesLib.obj
 0003:00001f50       gHiiDatabase               00000000000145d0     UefiHiiServicesLib:UefiHiiServicesLib.obj
 0003:00001f60       gParity                    00000000000145e0     PcAtSerialPortLib:SerialPortLib.obj
 0003:00001f61       gBreakSet                  00000000000145e1     PcAtSerialPortLib:SerialPortLib.obj
 0003:00001f68       mSpaceBuffer               00000000000145e8     <common>
 0003:00001f70       mLibUnknownString          00000000000145f0     <common>
 0003:00001f78       gDecNumericInput           00000000000145f8     <common>
 0003:00001f80       gMoveHighlight             0000000000014600     <common>
 0003:00001f88       gInputErrorMessage         0000000000014608     <common>
 0003:00001f90       gToggleCheckBox            0000000000014610     <common>
 0003:00001f98       gEscapeString              0000000000014618     <common>
 0003:00001fa0       gAdjustNumber              0000000000014620     <common>
 0003:00001fa8       gEnterEscapeString         0000000000014628     <common>
 0003:00001fb0       gEnterString               0000000000014630     <common>
 0003:00001fb8       gNoResponse                0000000000014638     <common>
 0003:00001fc0       gMinusString               0000000000014640     <common>
 0003:00001fc8       gEnterCommitString         0000000000014648     <common>
 0003:00001fd0       gHexNumericInput           0000000000014650     <common>
 0003:00001fd8       gPlusString                0000000000014658     <common>
 0003:00001fe0       gLibEmptyString            0000000000014660     <common>
 0003:00002000       gScreenDimensions          0000000000014680     <common>
 0003:00002020       gAreYouSure                00000000000146a0     <common>
 0003:00002028       gYesResponse               00000000000146a8     <common>
 0003:00002030       gSaveChanges               00000000000146b0     <common>
 0003:00002038       gNvUpdateMessage           00000000000146b8     <common>
 0003:00002040       mCDLStringPackHandle       00000000000146c0     <common>
 0003:00002048       gFooterHeight              00000000000146c8     <common>
 0003:00002050       gBannerData                00000000000146d0     <common>
 0003:00002058       gClassOfVfr                00000000000146d8     <common>
 0003:00002060       gPopupDimensions           00000000000146e0     <common>
 0003:00002080       gUserSelectableOptions     0000000000014700     <common>
 0003:00002090       gMesStrLineNum             0000000000014710     <common>
 0003:00002098       gMaxRowWidth               0000000000014718     <common>
 0003:000020a0       gMessageString             0000000000014720     <common>
 0003:000020a8       gReconnectConfirmChanges   0000000000014728     <common>
 0003:000020b0       gWarningPopup              0000000000014730     <common>
 0003:000020b8       gPromptForPassword         0000000000014738     <common>
 0003:000020c0       gUserInput                 0000000000014740     <common>
 0003:000020c8       gConfirmOptOk              0000000000014748     <common>
 0003:000020d0       gFormSuppress              0000000000014750     <common>
 0003:000020d8       gConfirmOptCancel          0000000000014758     <common>
 0003:000020e0       gConfirmOptNo              0000000000014760     <common>
 0003:000020e8       gPassowordInvalid          0000000000014768     <common>
 0003:000020f0       gInfoPopup                 0000000000014770     <common>
 0003:000020f8       gOptionBlockWidth          0000000000014778     <common>
 0003:00002100       gConfirmSubmitMsg          0000000000014780     <common>
 0003:00002108       gConfirmDefaultMsg2nd      0000000000014788     <common>
 0003:00002110       gConfirmOptYes             0000000000014790     <common>
 0003:00002118       gConfirmError              0000000000014798     <common>
 0003:00002120       gConfirmExitMsg2nd         00000000000147a0     <common>
 0003:00002128       gNoSubmitIf                00000000000147a8     <common>
 0003:00002130       gMenuOption                00000000000147b0     <common>
 0003:00002140       gConfirmDefaultMsg         00000000000147c0     <common>
 0003:00002148       gHelpBlockWidth            00000000000147c8     <common>
 0003:00002150       gConfirmExitMsg            00000000000147d0     <common>
 0003:00002158       gMisMatch                  00000000000147d8     <common>
 0003:00002160       gPromptForNewPassword      00000000000147e0     <common>
 0003:00002168       gPromptBlockWidth          00000000000147e8     <common>
 0003:00002170       gDiscardChange             00000000000147f0     <common>
 0003:00002178       gFormNotFound              00000000000147f8     <common>
 0003:00002180       gPasswordUnsupported       0000000000014800     <common>
 0003:00002188       gSaveProcess               0000000000014808     <common>
 0003:00002190       gSaveNoSubmitProcess       0000000000014810     <common>
 0003:00002198       gOptionMismatch            0000000000014818     <common>
 0003:000021a0       gOkOption                  0000000000014820     <common>
 0003:000021a8       gHiiHandle                 0000000000014828     <common>
 0003:000021b0       gReconnectRequired         0000000000014830     <common>
 0003:000021b8       gFormData                  0000000000014838     <common>
 0003:000021c0       gJumpToFormSet             0000000000014840     <common>
 0003:000021c8       gConfirmOpt                0000000000014848     <common>
 0003:000021d0       gYesOption                 0000000000014850     <common>
 0003:000021d8       gConfirmSubmitMsg2nd       0000000000014858     <common>
 0003:000021e0       gChangesOpt                0000000000014860     <common>
 0003:000021e8       gConfirmResetMsg2nd        0000000000014868     <common>
 0003:000021f0       gMiniString                0000000000014870     <common>
 0003:000021f8       gReconnectFail             0000000000014878     <common>
 0003:00002200       gModalSkipColumn           0000000000014880     <common>
 0003:00002208       gConfirmPassword           0000000000014888     <common>
 0003:00002210       gPressEnter                0000000000014890     <common>
 0003:00002218       gConfirmResetMsg           0000000000014898     <common>
 0003:00002220       gConfirmMsgEnd             00000000000148a0     <common>
 0003:00002228       gConfirmDiscardMsg         00000000000148a8     <common>
 0003:00002230       gEmptyString               00000000000148b0     <common>
 0003:00002240       gStatementDimensions       00000000000148c0     <common>
 0003:00002260       gPromptForData             00000000000148e0     <common>
 0003:00002268       gBrowserError              00000000000148e8     <common>
 0003:00002270       gErrorPopup                00000000000148f0     <common>
 0003:00002278       gSaveFailed                00000000000148f8     <common>
 0003:00002280       gCancelOption              0000000000014900     <common>
 0003:00002288       gNoSubmitIfFailed          0000000000014908     <common>
 0003:00002290       gDirection                 0000000000014910     <common>
 0003:00002298       mUnknownString             0000000000014918     <common>
 0003:000022a0       gConfirmMsgConnect         0000000000014920     <common>
 0003:000022a8       gNoOption                  0000000000014928     <common>
 0003:000022b0       gProtocolNotFound          0000000000014930     <common>
 0003:000022b8       gCheckError                0000000000014938     <common>

 entry point at        0001:0000020c

 Static symbols

 0001:0000001a       InternalMemCopyMem.0       00000000000002da     BaseMemoryLibRepStr:CopyMem.obj
 0001:0000002a       @CopyBackward              00000000000002ea     BaseMemoryLibRepStr:CopyMem.obj
 0001:00000033       @CopyBytes                 00000000000002f3     BaseMemoryLibRepStr:CopyMem.obj
 0001:00000149       TdVmCall.no_return_data    0000000000000409     BaseLib:TdVmcall.obj
 0001:000001bb       TdCall.exit                000000000000047b     BaseLib:TdCall.obj
 0003:00001f00       mCcProbeGuestType          0000000000014580     DxeCcProbeLib:DxeCcProbeLib.obj
 0003:00001f01       mCcProbed                  0000000000014581     DxeCcProbeLib:DxeCcProbeLib.obj
 0003:00001f58       mDeadLoopComparator        00000000000145d8     BaseLib:CpuDeadLoop.obj
 0005:00000000       $unwind$ProcessLibraryDestructorList 0000000000014f00     DisplayEngine:AutoGen.obj
 0005:00000000       $unwind$DriverClearDisplayPage 0000000000014f00     DisplayEngine:FormDisplay.obj
 0005:00000000       $unwind$FreeDisplayStrings 0000000000014f00     DisplayEngine:FormDisplay.obj
 0005:00000000       $unwind$InitializeDisplayStrings 0000000000014f00     DisplayEngine:FormDisplay.obj
 0005:00000000       $unwind$IsSelectable       0000000000014f00     DisplayEngine:FormDisplay.obj
 0005:00000000       $unwind$PrintFormattedNumber 0000000000014f00     DisplayEngine:ProcessOptions.obj
 0005:00000000       $unwind$_DriverUnloadHandler 0000000000014f00     UefiDriverEntryPoint:DriverEntryPoint.obj
 0005:00000000       $unwind$FreePool           0000000000014f00     UefiMemoryAllocationLib:MemoryAllocationLib.obj
 0005:00000000       $unwind$InternalAllocatePool 0000000000014f00     UefiMemoryAllocationLib:MemoryAllocationLib.obj
 0005:00000008       $unwind$LibGetToken        0000000000014f08     CustomizedDisplayLib:CustomizedDisplayLibInternal.obj
 0005:00000008       $unwind$WaitForKeyStroke   0000000000014f08     CustomizedDisplayLib:CustomizedDisplayLibInternal.obj
 0005:00000008       $unwind$HiiRemovePackages  0000000000014f08     UefiHiiLib:HiiLib.obj
 0005:00000008       $unwind$GetToken           0000000000014f08     DisplayEngine:FormDisplay.obj
 0005:00000008       $unwind$GetFirstNode       0000000000014f08     BaseLib:LinkedList.obj
 0005:00000008       $unwind$GetNextNode        0000000000014f08     BaseLib:LinkedList.obj
 0005:00000008       $unwind$InternalBaseLibIsListValid 0000000000014f08     BaseLib:LinkedList.obj
 0005:00000008       $unwind$IsListEmpty        0000000000014f08     BaseLib:LinkedList.obj
 0005:00000008       $unwind$RemoveEntryList    0000000000014f08     BaseLib:LinkedList.obj
 0005:00000008       $unwind$_ModuleEntryPoint  0000000000014f08     UefiDriverEntryPoint:DriverEntryPoint.obj
 0005:00000008       $unwind$AllocateZeroPool   0000000000014f08     UefiMemoryAllocationLib:MemoryAllocationLib.obj
 0005:00000010       $unwind$ProcessExternedOpcode 0000000000014f10     CustomizedDisplayLib:CustomizedDisplayLibInternal.obj
 0005:00000010       $unwind$ProcessLibraryConstructorList 0000000000014f10     DisplayEngine:AutoGen.obj
 0005:00000028       $unwind$GetWidth           0000000000014f28     DisplayEngine:FormDisplay.obj
 0005:00000044       $unwind$FindTopOfScreenMenuOption 0000000000014f44     DisplayEngine:FormDisplay.obj
 0005:00000044       $unwind$GetLineByWidth     0000000000014f44     DisplayEngine:FormDisplay.obj
 0005:00000044       $unwind$MoveToNextStatement 0000000000014f44     DisplayEngine:FormDisplay.obj
 0005:00000044       $unwind$AdjustOptionOrder  0000000000014f44     DisplayEngine:InputHandler.obj
 0005:00000060       $unwind$UiAddMenuOption    0000000000014f60     DisplayEngine:FormDisplay.obj
 0005:00000078       $unwind$ConvertStatementToMenu 0000000000014f78     DisplayEngine:FormDisplay.obj
 0005:0000008c       $unwind$LibGetStringWidth  0000000000014f8c     CustomizedDisplayLib:CustomizedDisplayLibInternal.obj
 0005:0000008c       $unwind$GetStringWidth     0000000000014f8c     DisplayEngine:FormDisplay.obj
 0005:00000094       $unwind$UpdateSkipInfoForMenu 0000000000014f94     DisplayEngine:FormDisplay.obj
 0005:000000a8       $unwind$PrintableMenu      0000000000014fa8     DisplayEngine:FormDisplay.obj
 0005:000000a8       $unwind$UpdateOptionSkipLines 0000000000014fa8     DisplayEngine:FormDisplay.obj
 0005:000000b4       $unwind$ScreenDiemensionInfoValidate 0000000000014fb4     CustomizedDisplayLib:CustomizedDisplayLibInternal.obj
 0005:000000b4       $unwind$ProcessStringForDateTime 0000000000014fb4     DisplayEngine:FormDisplay.obj
 0005:000000b4       $unwind$UpdateHighlightMenuInfo 0000000000014fb4     DisplayEngine:FormDisplay.obj
 0005:000000b4       $unwind$AddOneSelectableOption 0000000000014fb4     DisplayEngine:Popup.obj
 0005:000000b4       $unwind$GetArrayData       0000000000014fb4     DisplayEngine:ProcessOptions.obj
 0005:000000b4       $unwind$SetArrayData       0000000000014fb4     DisplayEngine:ProcessOptions.obj
 0005:000000b4       $unwind$CompareMem         0000000000014fb4     BaseMemoryLibRepStr:CompareMemWrapper.obj
 0005:000000b4       $unwind$CopyMem            0000000000014fb4     BaseMemoryLibRepStr:CopyMemWrapper.obj
 0005:000000b4       $unwind$InternalReallocatePool 0000000000014fb4     UefiMemoryAllocationLib:MemoryAllocationLib.obj
 0005:000000c8       $unwind$AdjustDateAndTimePosition 0000000000014fc8     DisplayEngine:FormDisplay.obj
 0005:000000c8       $unwind$FindTopOfScreenMenu 0000000000014fc8     DisplayEngine:FormDisplay.obj
 0005:000000c8       $unwind$GetIndexInfoForOpcode 0000000000014fc8     DisplayEngine:FormDisplay.obj
 0005:000000c8       $unwind$CompareHiiValue    0000000000014fc8     DisplayEngine:ProcessOptions.obj
 0005:000000e0       $unwind$UiWaitForEvent     0000000000014fe0     DisplayEngine:FormDisplay.obj
 0005:000000e8       $unwind$FindHighLightMenuOption 0000000000014fe8     DisplayEngine:FormDisplay.obj
 0005:000000e8       $unwind$CompareGuid        0000000000014fe8     BaseMemoryLibRepStr:MemLibGuid.obj
 0005:00000100       $unwind$FindTopMenu        0000000000015000     DisplayEngine:FormDisplay.obj
 0005:0000011c       $unwind$DisplayMenuString  000000000001501c     DisplayEngine:FormDisplay.obj
 0005:0000011c       $unwind$UnicodeVSPrint     000000000001501c     BasePrintLib:PrintLib.obj
 0005:00000130       $unwind$FxConfirmPopup     0000000000015030     DisplayEngine:FormDisplay.obj
 0005:0000014c       $unwind$DisplayOneMenu     000000000001504c     DisplayEngine:FormDisplay.obj
 0005:00000164       $unwind$UiDisplayMenu      0000000000015064     DisplayEngine:FormDisplay.obj
 0005:0000017c       $unwind$BrowserStatusProcess 000000000001507c     DisplayEngine:FormDisplay.obj
 0005:00000194       $unwind$InitializeLibStrings 0000000000015094     CustomizedDisplayLib:CustomizedDisplayLibInternal.obj
 0005:00000194       $unwind$ProcessUserOpcode  0000000000015094     CustomizedDisplayLib:CustomizedDisplayLibInternal.obj
 0005:00000194       $unwind$HiiGetSupportedLanguages 0000000000015094     UefiHiiLib:HiiLanguage.obj
 0005:00000194       $unwind$FormDisplay        0000000000015094     DisplayEngine:FormDisplay.obj
 0005:00000194       $unwind$InsertHeadList     0000000000015094     BaseLib:LinkedList.obj
 0005:00000194       $unwind$InsertTailList     0000000000015094     BaseLib:LinkedList.obj
 0005:00000194       $unwind$IsNull             0000000000015094     BaseLib:LinkedList.obj
 0005:00000194       $unwind$StrnLenS           0000000000015094     BaseLib:SafeString.obj
 0005:00000194       $unwind$AsciiStrLen        0000000000015094     BaseLib:String.obj
 0005:00000194       $unwind$ZeroMem            0000000000015094     BaseMemoryLibRepStr:ZeroMemWrapper.obj
 0005:00000194       $unwind$InternalAllocateCopyPool 0000000000015094     UefiMemoryAllocationLib:MemoryAllocationLib.obj
 0005:000001a0       $unwind$InitializeDisplayEngine 00000000000150a0     DisplayEngine:FormDisplay.obj
 0005:000001b0       $unwind$ValueToOption      00000000000150b0     DisplayEngine:ProcessOptions.obj
 0005:000001c4       $unwind$CreateSharedPopUp  00000000000150c4     DisplayEngine:ProcessOptions.obj
 0005:000001dc       $unwind$CreateMultiStringPopUp 00000000000150dc     DisplayEngine:ProcessOptions.obj
 0005:000001dc       $unwind$DebugPrint         00000000000150dc     BaseDebugLibSerialPort:DebugLib.obj
 0005:000001e4       $unwind$RefreshTimeOutProcess 00000000000150e4     DisplayEngine:ProcessOptions.obj
 0005:000001ec       $unwind$PasswordProcess    00000000000150ec     DisplayEngine:ProcessOptions.obj
 0005:000001ec       $unwind$PrintMismatchMenuInfo 00000000000150ec     DisplayEngine:ProcessOptions.obj
 0005:00000200       $unwind$ProcessOptions     0000000000015100     DisplayEngine:ProcessOptions.obj
 0005:0000021c       $unwind$ProcessHelpString  000000000001511c     DisplayEngine:ProcessOptions.obj
 0005:00000234       $unwind$ClearLines         0000000000015134     CustomizedDisplayLib:CustomizedDisplayLib.obj
 0005:00000234       $unwind$AddUserSelectableOptions 0000000000015134     DisplayEngine:Popup.obj
 0005:0000024c       $unwind$GetUserSelection   000000000001514c     DisplayEngine:Popup.obj
 0005:00000260       $unwind$ParseMessageString 0000000000015160     DisplayEngine:Popup.obj
 0005:0000027c       $unwind$CalculatePopupPosition 000000000001517c     DisplayEngine:Popup.obj
 0005:00000288       $unwind$DrawMessageBox     0000000000015188     DisplayEngine:Popup.obj
 0005:000002a0       $unwind$CreatePopup        00000000000151a0     DisplayEngine:Popup.obj
 0005:000002b4       $unwind$ReadString         00000000000151b4     DisplayEngine:InputHandler.obj
 0005:000002d0       $unwind$GetNumericInput    00000000000151d0     DisplayEngine:InputHandler.obj
 0005:000002e8       $unwind$GetSelectionInputPopUp 00000000000151e8     DisplayEngine:InputHandler.obj
 0005:00000300       $unwind$StrCpyS            0000000000015200     BaseLib:SafeString.obj
 0005:00000318       $unwind$StrnCpyS           0000000000015218     BaseLib:SafeString.obj
 0005:00000330       $unwind$StrCatS            0000000000015230     BaseLib:SafeString.obj
 0005:0000034c       $unwind$SwapListEntries    000000000001524c     BaseLib:LinkedList.obj
 0005:0000034c       $unwind$AsciiStrnCmp       000000000001524c     BaseLib:String.obj
 0005:0000034c       $unwind$StrCmp             000000000001524c     BaseLib:String.obj
 0005:0000034c       $unwind$StrLen             000000000001524c     BaseLib:String.obj
 0005:0000034c       $unwind$CopyGuid           000000000001524c     BaseMemoryLibRepStr:MemLibGuid.obj
 0005:0000034c       $unwind$BasePrintLibValueToString 000000000001524c     BasePrintLib:PrintLibInternal.obj
 0005:0000034c       $unwind$SerialPortWrite    000000000001524c     PcAtSerialPortLib:SerialPortLib.obj
 0005:0000035c       $unwind$UnicodeSPrint      000000000001525c     BasePrintLib:PrintLib.obj
 0005:00000364       $unwind$AsciiSPrint        0000000000015264     BasePrintLib:PrintLib.obj
 0005:0000036c       $unwind$BasePrintLibSPrintMarker 000000000001526c     BasePrintLib:PrintLibInternal.obj
 0005:00000388       $unwind$PrintAt            0000000000015288     CustomizedDisplayLib:CustomizedDisplayLibInternal.obj
 0005:00000388       $unwind$TdIoRead8          0000000000015288     BaseIoLibIntrinsicSev:IoLibInternalTdx.obj
 0005:00000388       $unwind$BasePrintLibSPrint 0000000000015288     BasePrintLib:PrintLibInternal.obj
 0005:00000390       $unwind$DebugPrintMarker   0000000000015290     BaseDebugLibSerialPort:DebugLib.obj
 0005:000003a4       $unwind$DebugAssert        00000000000152a4     BaseDebugLibSerialPort:DebugLib.obj
 0005:000003ac       $unwind$GetBestLanguage    00000000000152ac     UefiLib:UefiLib.obj
 0005:000003c0       $unwind$HiiSetString       00000000000152c0     UefiHiiLib:HiiString.obj
 0005:000003d8       $unwind$HiiGetStringEx     00000000000152d8     UefiHiiLib:HiiString.obj
 0005:000003f0       $unwind$HiiAddPackages     00000000000152f0     UefiHiiLib:HiiLib.obj
 0005:00000404       $unwind$HiiGetFormSetFromHiiHandle 0000000000015304     UefiHiiLib:HiiLib.obj
 0005:0000041c       $unwind$DisplayPageFrame   000000000001531c     CustomizedDisplayLib:CustomizedDisplayLib.obj
 0005:0000041c       $unwind$UpdateStatusBar    000000000001531c     CustomizedDisplayLib:CustomizedDisplayLib.obj
 0005:0000042c       $unwind$RefreshKeyHelp     000000000001532c     CustomizedDisplayLib:CustomizedDisplayLib.obj
 0005:00000444       $unwind$CreateDialog       0000000000015344     CustomizedDisplayLib:CustomizedDisplayLib.obj
 0005:0000045c       $unwind$ConfirmDataChange  000000000001535c     CustomizedDisplayLib:CustomizedDisplayLib.obj
 0005:00000468       $unwind$PrintBannerInfo    0000000000015368     CustomizedDisplayLib:CustomizedDisplayLibInternal.obj
 0005:00000484       $unwind$PrintFramework     0000000000015384     CustomizedDisplayLib:CustomizedDisplayLibInternal.obj
 0005:000004a0       $unwind$PrintHotKeyHelpString 00000000000153a0     CustomizedDisplayLib:CustomizedDisplayLibInternal.obj
 0005:000004b8       $unwind$PrintInternal      00000000000153b8     CustomizedDisplayLib:CustomizedDisplayLibInternal.obj
 0005:000004d0       $unwind$TdIoWrite8         00000000000153d0     BaseIoLibIntrinsicSev:IoLibInternalTdx.obj
