 IoMmuDxe

 Timestamp is 6725e48a (Sat Nov  2 16:36:26 2024)

 Preferred load address is 0000000000000000

 Start         Length     Name                   Class
 0001:00000000 00000324H .text                   CODE
 0001:00000324 000051a5H .text$mn                CODE
 0002:00000000 00002484H .rdata                  DATA
 0002:00002484 00000044H .rdata$voltmd           DATA
 0002:000024c8 00000148H .rdata$zzzdbg           DATA
 0003:00000000 00000140H .data                   DATA
 0003:00000140 000000c1H .bss                    DATA
 0004:00000000 0000033cH .pdata                  DATA
 0005:00000000 000002a0H .xdata                  DATA

  Address         Publics by Value              Rva+Base               Lib:Object

 0000:00000000       __x64_code_ranges_to_entry_points_count 0000000000000000     <absolute>
 0000:00000000       __guard_iat_table          0000000000000000     <absolute>
 0000:00000000       __guard_iat_count          0000000000000000     <absolute>
 0000:00000000       __guard_longjmp_table      0000000000000000     <absolute>
 0000:00000000       __guard_longjmp_count      0000000000000000     <absolute>
 0000:00000000       __x64_code_ranges_to_entry_points 0000000000000000     <absolute>
 0000:00000000       __dynamic_value_reloc_table 0000000000000000     <absolute>
 0000:00000000       __guard_fids_count         0000000000000000     <absolute>
 0000:00000000       __hybrid_auxiliary_iat     0000000000000000     <absolute>
 0000:00000000       __hybrid_auxiliary_iat_copy 0000000000000000     <absolute>
 0000:00000000       __arm64x_redirection_metadata 0000000000000000     <absolute>
 0000:00000000       __arm64x_extra_rfe_table   0000000000000000     <absolute>
 0000:00000000       __hybrid_code_map          0000000000000000     <absolute>
 0000:00000000       __AbsoluteZero             0000000000000000     <absolute>
 0000:00000000       __arm64x_extra_rfe_table_size 0000000000000000     <absolute>
 0000:00000000       __guard_check_icall_a64n_fptr 0000000000000000     <absolute>
 0000:00000000       __guard_fids_table         0000000000000000     <absolute>
 0000:00000000       __hybrid_code_map_count    0000000000000000     <absolute>
 0000:00000000       __guard_flags              0000000000000000     <absolute>
 0000:00000000       __arm64x_redirection_metadata_count 0000000000000000     <absolute>
 0000:00000000       __enclave_config           0000000000000000     <absolute>
 0000:00000000       __guard_eh_cont_count      0000000000000000     <absolute>
 0000:00000000       __guard_eh_cont_table      0000000000000000     <absolute>
 0000:00000000       __arm64x_native_entrypoint 0000000000000000     <absolute>
 0001:00000000       InternalMemCopyMem         00000000000002c0     BaseMemoryLibRepStr:CopyMem.obj
 0001:00000040       InternalMemZeroMem         0000000000000300     BaseMemoryLibRepStr:ZeroMem.obj
 0001:00000060       InternalMemSetMem          0000000000000320     BaseMemoryLibRepStr:SetMem.obj
 0001:00000080       InternalMemSetMem64        0000000000000340     BaseMemoryLibRepStr:SetMem64.obj
 0001:000000a0       InternalMemSetMem32        0000000000000360     BaseMemoryLibRepStr:SetMem32.obj
 0001:000000c0       AsmReadCr0                 0000000000000380     BaseLib:ReadCr0.obj
 0001:000000d0       AsmReadCr3                 0000000000000390     BaseLib:ReadCr3.obj
 0001:000000e0       AsmWriteCr0                00000000000003a0     BaseLib:WriteCr0.obj
 0001:000000f0       AsmVmgExit                 00000000000003b0     BaseLib:VmgExit.obj
 0001:00000100       CpuPause                   00000000000003c0     BaseLib:CpuPause.obj
 0001:00000110       TdVmCall                   00000000000003d0     BaseLib:TdVmcall.obj
 0001:00000190       AsmReadCr4                 0000000000000450     BaseLib:ReadCr4.obj
 0001:000001a0       AsmCpuid                   0000000000000460     BaseLib:CpuId.obj
 0001:000001d0       EnableInterrupts           0000000000000490     BaseLib:EnableInterrupts.obj
 0001:000001e0       AsmRmpAdjust               00000000000004a0     BaseLib:RmpAdjust.obj
 0001:000001f0       AsmVmgExitSvsm             00000000000004b0     BaseLib:VmgExitSvsm.obj
 0001:00000250       AsmPvalidate               0000000000000510     BaseLib:Pvalidate.obj
 0001:00000270       DisableInterrupts          0000000000000530     BaseLib:DisableInterrupts.obj
 0001:00000280       AsmWriteCr3                0000000000000540     BaseLib:WriteCr3.obj
 0001:00000290       AsmWbinvd                  0000000000000550     BaseLib:Wbinvd.obj
 0001:000002a0       AsmFlushCacheLine          0000000000000560     BaseLib:FlushCacheLine.obj
 0001:000002b0       AsmInvd                    0000000000000570     BaseLib:Invd.obj
 0001:000002c0       TdCall                     0000000000000580     BaseLib:TdCall.obj
 0001:00000320       AsmReadEflags              00000000000005e0     BaseLib:ReadEflags.obj
 0001:00000324       _ModuleEntryPoint          00000000000005e4 f   UefiDriverEntryPoint:DriverEntryPoint.obj
 0001:00000380       ProcessLibraryConstructorList 0000000000000640 f   IoMmuDxe:AutoGen.obj
 0001:00000704       IoMmuMap                   00000000000009c4 f   IoMmuDxe:CcIoMmu.obj
 0001:00000d4c       IoMmuUnmap                 000000000000100c f   IoMmuDxe:CcIoMmu.obj
 0001:00000d54       IoMmuAllocateBuffer        0000000000001014 f   IoMmuDxe:CcIoMmu.obj
 0001:00000f1c       IoMmuFreeBuffer            00000000000011dc f   IoMmuDxe:CcIoMmu.obj
 0001:00001048       IoMmuSetAttribute          0000000000001308 f   IoMmuDxe:CcIoMmu.obj
 0001:00001340       InstallIoMmuProtocol       0000000000001600 f   IoMmuDxe:CcIoMmu.obj
 0001:0000146c       IoMmuInitReservedSharedMem 000000000000172c f   IoMmuDxe:IoMmuBuffer.obj
 0001:0000182c       GetPcdProtocol             0000000000001aec f   DxePcdLib:DxePcdLib.obj
 0001:000018b8       FreePages                  0000000000001b78 f   UefiMemoryAllocationLib:MemoryAllocationLib.obj
 0001:00001934       InternalAllocateAlignedPages 0000000000001bf4 f   UefiMemoryAllocationLib:MemoryAllocationLib.obj
 0001:00001a44       InternalAllocatePool       0000000000001d04 f   UefiMemoryAllocationLib:MemoryAllocationLib.obj
 0001:00001a7c       FreePool                   0000000000001d3c f   UefiMemoryAllocationLib:MemoryAllocationLib.obj
 0001:00001b64       InternalGetMemEncryptionAddressMask 0000000000001e24 f   DxeMemEncryptSevLib:PeiDxeVirtualMemory.obj
 0001:00002528       SnpPageStateFailureTerminate 00000000000027e8 f   DxeMemEncryptSevLib:SnpPageStateChangeInternal.obj
 0001:00002730       InternalSetPageState       00000000000029f0 f   DxeMemEncryptSevLib:SnpPageStateChangeInternal.obj
 0001:00002b68       CopyMem                    0000000000002e28 f   BaseMemoryLibRepStr:CopyMemWrapper.obj
 0001:00002c04       ZeroMem                    0000000000002ec4 f   BaseMemoryLibRepStr:ZeroMemWrapper.obj
 0001:00002c74       SetMem                     0000000000002f34 f   BaseMemoryLibRepStr:SetMemWrapper.obj
 0001:00002cc4       InternalBaseLibIsListValid 0000000000002f84 f   BaseLib:LinkedList.obj
 0001:00002d30       InsertHeadList             0000000000002ff0 f   BaseLib:LinkedList.obj
 0001:00002d90       RemoveEntryList            0000000000003050 f   BaseLib:LinkedList.obj
 0001:00002df8       CpuDeadLoop                00000000000030b8 f   BaseLib:CpuDeadLoop.obj
 0001:00002e28       RShiftU64                  00000000000030e8 f   BaseLib:RShiftU64.obj
 0001:00002e6c       DebugPrint                 000000000000312c f   BaseDebugLibSerialPort:DebugLib.obj
 0001:00002e90       DebugPrintMarker           0000000000003150 f   BaseDebugLibSerialPort:DebugLib.obj
 0001:00002f1c       DebugAssert                00000000000031dc f   BaseDebugLibSerialPort:DebugLib.obj
 0001:00002f74       GetHobList                 0000000000003234 f   DxeHobLib:HobLib.obj
 0001:00003d94       WriteBackInvalidateDataCacheRange 0000000000004054 f   BaseCacheMaintenanceLib:X86Cache.obj
 0001:00003e4c       GetTdInfo                  000000000000410c f   TdxLib:TdInfo.obj
 0001:00003eb0       TdSharedPageMask           0000000000004170 f   TdxLib:TdInfo.obj
 0001:00003edc       IoRead8                    000000000000419c f   BaseIoLibIntrinsicSev:IoLibMsc.obj
 0001:00003f00       IoRead32                   00000000000041c0 f   BaseIoLibIntrinsicSev:IoLibMsc.obj
 0001:00003f48       IoWrite32                  0000000000004208 f   BaseIoLibIntrinsicSev:IoLibMsc.obj
 0001:00003f74       IsTdxGuest                 0000000000004234 f   BaseIoLibIntrinsicSev:IoLibInternalTdx.obj
 0001:00003fa0       TdIoRead8                  0000000000004260 f   BaseIoLibIntrinsicSev:IoLibInternalTdx.obj
 0001:00003ff8       TdIoRead32                 00000000000042b8 f   BaseIoLibIntrinsicSev:IoLibInternalTdx.obj
 0001:0000406c       TdIoWrite8                 000000000000432c f   BaseIoLibIntrinsicSev:IoLibInternalTdx.obj
 0001:000040bc       TdIoWrite32                000000000000437c f   BaseIoLibIntrinsicSev:IoLibInternalTdx.obj
 0001:00004110       CompareGuid                00000000000043d0 f   BaseMemoryLibRepStr:MemLibGuid.obj
 0001:000041d4       AsciiStrLen                0000000000004494 f   BaseLib:String.obj
 0001:00004240       StrnLenS                   0000000000004500 f   BaseLib:SafeString.obj
 0001:00004298       SerialPortWrite            0000000000004558 f   PcAtSerialPortLib:SerialPortLib.obj
 0001:00004308       AsciiSPrint                00000000000045c8 f   BasePrintLib:PrintLib.obj
 0001:00004334       BasePrintLibFillBuffer     00000000000045f4 f   BasePrintLib:PrintLibInternal.obj
 0001:00004368       BasePrintLibValueToString  0000000000004628 f   BasePrintLib:PrintLibInternal.obj
 0001:000043b8       BasePrintLibSPrintMarker   0000000000004678 f   BasePrintLib:PrintLibInternal.obj
 0001:000052c4       BasePrintLibSPrint         0000000000005584 f   BasePrintLib:PrintLibInternal.obj
 0001:000052e8       PciExpressRead32           00000000000055a8 f   BasePciExpressLib:PciExpressLib.obj
 0001:00005338       PciCf8Read32               00000000000055f8 f   BasePciCf8Lib:PciCf8Lib.obj
 0001:000053d4       MmioRead32                 0000000000005694 f   BaseIoLibIntrinsicSev:IoLib.obj
 0001:00005448       DivU64x32Remainder         0000000000005708 f   BaseLib:DivU64x32Remainder.obj
 0001:000054a8       SaveAndDisableInterrupts   0000000000005768 f   BaseLib:Cpu.obj
 0002:00000000       ??_C@_0CB@DMEJJJHA@?6ASSERT_EFI_ERROR?5?$CIStatus?5?$DN?5?$CFr?$CJ@ 00000000000057a0     UefiDriverEntryPoint:DriverEntryPoint.obj
 0002:00000028       ??_C@_0CH@BBNBJKHK@?$CB?$CI?$CI?$CIINTN?$CJ?$CIRETURN_STATUS?$CJ?$CIStatus@ 00000000000057c8     UefiDriverEntryPoint:DriverEntryPoint.obj
 0002:00000050       ??_C@_08JEJGOCPI@IoMmuDxe@ 00000000000057f0     IoMmuDxe:AutoGen.obj
 0002:00000060       ??_C@_0CE@IBFOBMLB@?6ASSERT_RETURN_ERROR?5?$CIStatus?5?$DN?5@ 0000000000005800     IoMmuDxe:AutoGen.obj
 0002:00000090       ??_C@_0HB@ICGCHPCJ@d?3?2uefi_specs_personal_collecti@ 0000000000005830     IoMmuDxe:AutoGen.obj
 0002:00000104       ??_C@_04DPHCJMMM@Read@     00000000000058a4     IoMmuDxe:CcIoMmu.obj
 0002:0000010c       ??_C@_05NBPIDCFL@Write@    00000000000058ac     IoMmuDxe:CcIoMmu.obj
 0002:00000118       ??_C@_0N@IALJNPMN@CommonBuffer@ 00000000000058b8     IoMmuDxe:CcIoMmu.obj
 0002:00000128       ??_C@_06FDKBCIK@Read64@    00000000000058c8     IoMmuDxe:CcIoMmu.obj
 0002:00000130       ??_C@_07KFEGODC@Write64@   00000000000058d0     IoMmuDxe:CcIoMmu.obj
 0002:00000138       ??_C@_0P@PDPEIMCK@CommonBuffer64@ 00000000000058d8     IoMmuDxe:CcIoMmu.obj
 0002:00000148       ??_C@_07DJMIGIHO@Invalid@  00000000000058e8     IoMmuDxe:CcIoMmu.obj
 0002:00000150       ??_C@_08MNNMNDJJ@IoMmuMap@ 00000000000058f0     IoMmuDxe:CcIoMmu.obj
 0002:00000160       ??_C@_0CI@KKGFBOLO@?$CFa?3?5Operation?$DN?$CFa?5Host?$DN0x?$CFp?5Byte@ 0000000000005900     IoMmuDxe:CcIoMmu.obj
 0002:00000190       ??_C@_0KE@CFOOJHHH@CommonBufferHeader?9?$DOSignature?5?$DN@ 0000000000005930     IoMmuDxe:CcIoMmu.obj
 0002:00000240       ??_C@_0ED@LKOJBJOE@D?3?2uefi_specs_personal_collecti@ 00000000000059e0     IoMmuDxe:CcIoMmu.obj
 0002:00000288       ??_C@_0BC@FEDIJHFF@?$CI?$CIBOOLEAN?$CJ?$CI0?$DN?$DN1?$CJ?$CJ@ 0000000000005a28     IoMmuDxe:CcIoMmu.obj
 0002:000002a0       ??_C@_0FN@BFJABANG@?$CFa?3?5Mapping?$DN0x?$CFp?5Device?$CIPlainTe@ 0000000000005a40     IoMmuDxe:CcIoMmu.obj
 0002:00000300       ??_C@_0BB@FBJJJMHD@IoMmuUnmapWorker@ 0000000000005aa0     IoMmuDxe:CcIoMmu.obj
 0002:00000318       ??_C@_0CF@JGBAKNIC@?$CFa?3?5Mapping?$DN0x?$CFp?5MemoryMapLocke@ 0000000000005ab8     IoMmuDxe:CcIoMmu.obj
 0002:00000340       ??_C@_0DF@PLGOIMNA@MapInfo?9?$DOPlainTextAddress?5?$DN?$DN?5Ma@ 0000000000005ae0     IoMmuDxe:CcIoMmu.obj
 0002:00000378       ??_C@_0BE@JCJOENGJ@IoMmuAllocateBuffer@ 0000000000005b18     IoMmuDxe:CcIoMmu.obj
 0002:00000390       ??_C@_0DA@CGJPIFMN@?$CFa?3?5MemoryType?$DN?$CFu?5Pages?$DN0x?$CFLx?5A@ 0000000000005b30     IoMmuDxe:CcIoMmu.obj
 0002:000003c0       ??_C@_0BL@KOPMHMHK@?$CFa?3?5Host?$DN0x?$CFLx?5Stash?$DN0x?$CFp?6@ 0000000000005b60     IoMmuDxe:CcIoMmu.obj
 0002:000003e0       ??_C@_0BA@GEGNCNAM@IoMmuFreeBuffer@ 0000000000005b80     IoMmuDxe:CcIoMmu.obj
 0002:000003f0       ??_C@_0BL@FIEBIBGD@?$CFa?3?5Host?$DN0x?$CFp?5Pages?$DN0x?$CFLx?6@ 0000000000005b90     IoMmuDxe:CcIoMmu.obj
 0002:00000410       ??_C@_0BC@IGMPNGAG@IoMmuSetAttribute@ 0000000000005bb0     IoMmuDxe:CcIoMmu.obj
 0002:00000428       ??_C@_0BN@KDHPPMCD@?$CFa?3?5Mapping?$DN0x?$CFp?5Access?$DN?$CFlu?6@ 0000000000005bc8     IoMmuDxe:CcIoMmu.obj
 0002:00000448       ??_C@_0O@OBEHPEAA@IoMmuExitBoot@ 0000000000005be8     IoMmuDxe:CcIoMmu.obj
 0002:00000458       ??_C@_03PKKNDGHC@?$CFa?6@  0000000000005bf8     IoMmuDxe:CcIoMmu.obj
 0002:00000460       ??_C@_0BG@LEGLDPII@IoMmuUnmapAllMappings@ 0000000000005c00     IoMmuDxe:CcIoMmu.obj
 0002:00000478       ??_C@_0BF@NDBIKIKC@CR?5has?5Bad?5Signature@ 0000000000005c18     IoMmuDxe:CcIoMmu.obj
 0002:00000490       ??_C@_0BF@JIKFJMGD@InstallIoMmuProtocol@ 0000000000005c30     IoMmuDxe:CcIoMmu.obj
 0002:000004a8       ??_C@_0DG@FMKFGEEJ@?$CFa?3?5Feature?5of?5reserved?5memory?5@ 0000000000005c48     IoMmuDxe:CcIoMmu.obj
 0002:00000510       ??_C@_0BL@MIIILBLE@IoMmuInitReservedSharedMem@ 0000000000005cb0     IoMmuDxe:IoMmuBuffer.obj
 0002:00000530       ??_C@_0CN@FCOHFMJI@?$CFa?3?5ReservedMem?5?$CI?$CFd?5pages?$CJ?5addr@ 0000000000005cd0     IoMmuDxe:IoMmuBuffer.obj
 0002:00000560       ??_C@_0EH@BAKHFLMO@D?3?2uefi_specs_personal_collecti@ 0000000000005d00     IoMmuDxe:IoMmuBuffer.obj
 0002:000005a8       ??_C@_0BJ@DAHKANGK@Index?5?$CB?$DN?5MemRange?9?$DOSlots@ 0000000000005d48     IoMmuDxe:IoMmuBuffer.obj
 0002:000005c8       ??_C@_0BH@DGJLAKAO@InternalAllocateBuffer@ 0000000000005d68     IoMmuDxe:IoMmuBuffer.obj
 0002:000005e0       ??_C@_0FJ@HFFLBGPL@?$CFa?3?5range?9size?3?5?$CFlx?0?5start?9addr@ 0000000000005d80     IoMmuDxe:IoMmuBuffer.obj
 0002:00000640       ??_C@_0BN@BDINJONM@Status?5?$DN?$DN?5?$CIRETURN_STATUS?$CJ?$CI0?$CJ@ 0000000000005de0     IoMmuDxe:IoMmuBuffer.obj
 0002:00000660       ??_C@_0BG@NMNIABFI@IoMmuFreeBounceBuffer@ 0000000000005e00     IoMmuDxe:IoMmuBuffer.obj
 0002:00000678       ??_C@_0DM@KBPOMEPG@?$CFa?3?5PlainTextAddress?$DN0x?$CFLx?0?5bit@ 0000000000005e18     IoMmuDxe:IoMmuBuffer.obj
 0002:000006b8       ??_C@_0BG@EFBCKJBC@IoMmuFreeCommonBuffer@ 0000000000005e58     IoMmuDxe:IoMmuBuffer.obj
 0002:000006d0       ??_C@_0DI@KPOLIMEE@?$CFa?3?5CommonBuffer?$DN0x?$CFLx?0?5bits?$DN0x@ 0000000000005e70     IoMmuDxe:IoMmuBuffer.obj
 0002:00000710       ??_C@_0EN@ENFGNHA@D?3?2uefi_specs_personal_collecti@ 0000000000005eb0     DxePcdLib:DxePcdLib.obj
 0002:00000760       ??_C@_0BF@OOKDELHM@mPcd?5?$CB?$DN?5?$CI?$CIvoid?5?$CK?$CJ?50?$CJ@ 0000000000005f00     DxePcdLib:DxePcdLib.obj
 0002:00000778       ??_C@_0BH@IACGKAP@Buffer?5?$CB?$DN?5?$CI?$CIvoid?5?$CK?$CJ?50?$CJ@ 0000000000005f18     DxePcdLib:DxePcdLib.obj
 0002:00000790       ??_C@_0L@LBCNCHJA@Pages?5?$CB?$DN?50@ 0000000000005f30     UefiMemoryAllocationLib:MemoryAllocationLib.obj
 0002:000007a0       ??_C@_0GF@KMHDEKMA@D?3?2uefi_specs_personal_collecti@ 0000000000005f40     UefiMemoryAllocationLib:MemoryAllocationLib.obj
 0002:00000808       ??_C@_0BO@CDABGLIP@ERROR?3?5Out?5of?5aligned?5pages?$AN?6@ 0000000000005fa8     DxeMemEncryptSevLib:PeiDxeVirtualMemory.obj
 0002:00000828       ??_C@_0BI@ELPJHLDG@AllocatePageTableMemory@ 0000000000005fc8     DxeMemEncryptSevLib:PeiDxeVirtualMemory.obj
 0002:00000840       ??_C@_0BP@HBBDJMHC@?$CFa?3?$CFa?3?5Buffer?$DN0x?$CFLx?5Pages?$DN?$CFld?6@ 0000000000005fe0     DxeMemEncryptSevLib:PeiDxeVirtualMemory.obj
 0002:00000860       ??_C@_0BP@OKEOING@PageTableEntry?5?$CB?$DN?5?$CI?$CIvoid?5?$CK?$CJ?50?$CJ@ 0000000000006000     DxeMemEncryptSevLib:PeiDxeVirtualMemory.obj
 0002:00000880       ??_C@_0GH@NBNLHIED@D?3?2uefi_specs_personal_collecti@ 0000000000006020     DxeMemEncryptSevLib:PeiDxeVirtualMemory.obj
 0002:000008e8       ??_C@_0BO@OLEBOBOB@?$CKPageEntry2M?5?$CG?5AddressEncMask@ 0000000000006088     DxeMemEncryptSevLib:PeiDxeVirtualMemory.obj
 0002:00000908       ??_C@_0BD@CAEJJLJJ@PageTableBase?5?$CB?$DN?50@ 00000000000060a8     DxeMemEncryptSevLib:PeiDxeVirtualMemory.obj
 0002:00000920       ??_C@_0CD@FNMLGMNP@Index?5?$DM?50x00001000?1sizeof?5?$CIUINT@ 00000000000060c0     DxeMemEncryptSevLib:PeiDxeVirtualMemory.obj
 0002:00000948       ??_C@_09GNKFGBPM@Level?5?$DO?51@ 00000000000060e8     DxeMemEncryptSevLib:PeiDxeVirtualMemory.obj
 0002:00000958       ??_C@_0BN@CIONDDJ@NewPageTable?5?$CB?$DN?5?$CI?$CIvoid?5?$CK?$CJ?50?$CJ@ 00000000000060f8     DxeMemEncryptSevLib:PeiDxeVirtualMemory.obj
 0002:00000978       ??_C@_0CD@KMCGCGEO@PageDirectoryEntry?5?$CB?$DN?5?$CI?$CIvoid?5?$CK?$CJ@ 0000000000006118     DxeMemEncryptSevLib:PeiDxeVirtualMemory.obj
 0002:000009a0       ??_C@_0BO@DJPNLHFP@?$CKPageEntry1G?5?$CG?5AddressEncMask@ 0000000000006140     DxeMemEncryptSevLib:PeiDxeVirtualMemory.obj
 0002:000009c0       ??_C@_07CEMOCOEI@Encrypt@  0000000000006160     DxeMemEncryptSevLib:PeiDxeVirtualMemory.obj
 0002:000009c8       ??_C@_07OKGDHKCM@Decrypt@  0000000000006168     DxeMemEncryptSevLib:PeiDxeVirtualMemory.obj
 0002:000009d0       ??_C@_0BA@CPMMHEB@SetMemoryEncDec@ 0000000000006170     DxeMemEncryptSevLib:PeiDxeVirtualMemory.obj
 0002:000009e0       ??_C@_0FA@OKAAHGNJ@?$CFa?3?$CFa?3?5Cr3Base?$DN0x?$CFLx?5Physical?$DN0@ 0000000000006180     DxeMemEncryptSevLib:PeiDxeVirtualMemory.obj
 0002:00000a30       ??_C@_0BL@DLLIJCGN@mPscBuffer?5?$CB?$DN?5?$CI?$CIvoid?5?$CK?$CJ?50?$CJ@ 00000000000061d0     DxeMemEncryptSevLib:PeiDxeVirtualMemory.obj
 0002:00000a50       ??_C@_0CE@HOIHAIIB@?$CFa?3?$CFa?3?5bad?5PML4?5for?5Physical?$DN0x@ 00000000000061f0     DxeMemEncryptSevLib:PeiDxeVirtualMemory.obj
 0002:00000a78       ??_C@_0CE@NADGKKGE@?$CFa?3?$CFa?3?5bad?5PDPE?5for?5Physical?$DN0x@ 0000000000006218     DxeMemEncryptSevLib:PeiDxeVirtualMemory.obj
 0002:00000aa0       ??_C@_0CN@IAPIMOJH@?$CFa?3?$CFa?3?5updated?51GB?5entry?5for?5Ph@ 0000000000006240     DxeMemEncryptSevLib:PeiDxeVirtualMemory.obj
 0002:00000ad0       ??_C@_0CO@PHABIDCB@?$CFa?3?$CFa?3?5splitting?51GB?5page?5for?5P@ 0000000000006270     DxeMemEncryptSevLib:PeiDxeVirtualMemory.obj
 0002:00000b00       ??_C@_0CD@NJKAIHIH@?$CFa?3?$CFa?3?5bad?5PDE?5for?5Physical?$DN0x?$CF@ 00000000000062a0     DxeMemEncryptSevLib:PeiDxeVirtualMemory.obj
 0002:00000b28       ??_C@_0CO@FMMNPKJP@?$CFa?3?$CFa?3?5splitting?52MB?5page?5for?5P@ 00000000000062c8     DxeMemEncryptSevLib:PeiDxeVirtualMemory.obj
 0002:00000b58       ??_C@_0CD@NINCABML@?$CFa?3?$CFa?3?5bad?5PTE?5for?5Physical?$DN0x?$CF@ 00000000000062f8     DxeMemEncryptSevLib:PeiDxeVirtualMemory.obj
 0002:00000b7c       ??_C@_01GBGANLPD@0@        000000000000631c     DxeMemEncryptSevLib:SnpPageStateChangeInternal.obj
 0002:00000b80       ??_C@_0GO@FHAPANCP@D?3?2uefi_specs_personal_collecti@ 0000000000006320     DxeMemEncryptSevLib:SnpPageStateChangeInternal.obj
 0002:00000bf0       ??_C@_0HB@EJLPMCNE@Count?5?$DM?$DN?5?$CI?$CIsizeof?5?$CI?$CI?$CIGHCB?5?$CK?$CJ0?$CJ?9@ 0000000000006390     DxeMemEncryptSevLib:SnpPageStateChangeInternal.obj
 0002:00000c64       ??_C@_06LOOAMPBO@Shared@   0000000000006404     DxeMemEncryptSevLib:SnpPageStateChangeInternal.obj
 0002:00000c70       ??_C@_07CFINJGKH@Private@  0000000000006410     DxeMemEncryptSevLib:SnpPageStateChangeInternal.obj
 0002:00000c78       ??_C@_0BF@FFLJKNCE@InternalSetPageState@ 0000000000006418     DxeMemEncryptSevLib:SnpPageStateChangeInternal.obj
 0002:00000c90       ??_C@_0DI@BPIDEDLF@?$CFa?3?$CFa?5Address?50x?$CFLx?5?9?50x?$CFLx?5Sta@ 0000000000006430     DxeMemEncryptSevLib:SnpPageStateChangeInternal.obj
 0002:00000cd0       ??_C@_0ED@MKGCMJG@?$CILength?5?9?51?$CJ?5?$DM?$DN?5?$CI0xFFFFFFFFFFFF@ 0000000000006470     BaseMemoryLibRepStr:CopyMemWrapper.obj
 0002:00000d20       ??_C@_0FM@IDPIEKJH@D?3?2uefi_specs_personal_collecti@ 00000000000064c0     BaseMemoryLibRepStr:CopyMemWrapper.obj
 0002:00000d80       ??_C@_0DO@MAOBOFEG@?$CILength?5?9?51?$CJ?5?$DM?$DN?5?$CI0xFFFFFFFFFFFF@ 0000000000006520     BaseMemoryLibRepStr:CopyMemWrapper.obj
 0002:00000dc0       ??_C@_0FM@DHFKCLFA@D?3?2uefi_specs_personal_collecti@ 0000000000006560     BaseMemoryLibRepStr:ZeroMemWrapper.obj
 0002:00000e20       ??_C@_0DG@EEENIGGL@Length?5?$DM?$DN?5?$CI0xFFFFFFFFFFFFFFFFUL@ 00000000000065c0     BaseMemoryLibRepStr:ZeroMemWrapper.obj
 0002:00000e58       ??_C@_0DI@DAGDPLPG@?$CILength?5?9?51?$CJ?5?$DM?$DN?5?$CI0xFFFFFFFFFFFF@ 00000000000065f8     BaseMemoryLibRepStr:SetMemWrapper.obj
 0002:00000e90       ??_C@_0FL@MFFLICHL@D?3?2uefi_specs_personal_collecti@ 0000000000006630     BaseMemoryLibRepStr:SetMemWrapper.obj
 0002:00000ef0       ??_C@_0BF@NJNGJMPC@List?5?$CB?$DN?5?$CI?$CIvoid?5?$CK?$CJ?50?$CJ@ 0000000000006690     BaseLib:LinkedList.obj
 0002:00000f10       ??_C@_0EM@NCJPOFNN@D?3?2uefi_specs_personal_collecti@ 00000000000066b0     BaseLib:LinkedList.obj
 0002:00000f60       ??_C@_0CC@KDLPLAED@List?9?$DOForwardLink?5?$CB?$DN?5?$CI?$CIvoid?5?$CK?$CJ?5@ 0000000000006700     BaseLib:LinkedList.obj
 0002:00000f88       ??_C@_0BP@IJJCCMAK@List?9?$DOBackLink?5?$CB?$DN?5?$CI?$CIvoid?5?$CK?$CJ?50?$CJ@ 0000000000006728     BaseLib:LinkedList.obj
 0002:00000fa8       ??_C@_0CG@LGIALJFK@InternalBaseLibIsListValid?5?$CILis@ 0000000000006748     BaseLib:LinkedList.obj
 0002:00000fd0       ??_C@_0CC@JLDICICM@InternalBaseLibIsListValid?5?$CILis@ 0000000000006770     BaseLib:LinkedList.obj
 0002:00000ff8       ??_C@_0BF@NMBJJECB@?$CBIsListEmpty?5?$CIEntry?$CJ@ 0000000000006798     BaseLib:LinkedList.obj
 0002:00001010       ??_C@_0L@MEMPDLHB@Count?5?$DM?564@ 00000000000067b0     BaseLib:RShiftU64.obj
 0002:00001020       ??_C@_0EL@BPCLAPLB@D?3?2uefi_specs_personal_collecti@ 00000000000067c0     BaseLib:RShiftU64.obj
 0002:00001070       ??_C@_0BH@LKMBFCBF@Format?5?$CB?$DN?5?$CI?$CIvoid?5?$CK?$CJ?50?$CJ@ 0000000000006810     BaseDebugLibSerialPort:DebugLib.obj
 0002:00001090       ??_C@_0FJ@BNNHJMAJ@D?3?2uefi_specs_personal_collecti@ 0000000000006830     BaseDebugLibSerialPort:DebugLib.obj
 0002:000010f0       ??_C@_0BI@NOCKJDBJ@ASSERT?5?$FL?$CFa?$FN?5?$CFa?$CI?$CFd?$CJ?3?5?$CFa?6@ 0000000000006890     BaseDebugLibSerialPort:DebugLib.obj
 0002:00001108       ??_C@_0BN@COECPDCC@gImageHandle?5?$CB?$DN?5?$CI?$CIvoid?5?$CK?$CJ?50?$CJ@ 00000000000068a8     UefiBootServicesTableLib:UefiBootServicesTableLib.obj
 0002:00001130       ??_C@_0GL@PJCPJLGM@D?3?2uefi_specs_personal_collecti@ 00000000000068d0     UefiBootServicesTableLib:UefiBootServicesTableLib.obj
 0002:000011a0       ??_C@_0BE@DGNHAHIL@gST?5?$CB?$DN?5?$CI?$CIvoid?5?$CK?$CJ?50?$CJ@ 0000000000006940     UefiBootServicesTableLib:UefiBootServicesTableLib.obj
 0002:000011b8       ??_C@_0BE@BDFJLGLN@gBS?5?$CB?$DN?5?$CI?$CIvoid?5?$CK?$CJ?50?$CJ@ 0000000000006958     UefiBootServicesTableLib:UefiBootServicesTableLib.obj
 0002:000011d0       ??_C@_0BE@OBDFIHND@gRT?5?$CB?$DN?5?$CI?$CIvoid?5?$CK?$CJ?50?$CJ@ 0000000000006970     UefiRuntimeServicesTableLib:UefiRuntimeServicesTableLib.obj
 0002:000011f0       ??_C@_0HB@NCAPNEDO@D?3?2uefi_specs_personal_collecti@ 0000000000006990     UefiRuntimeServicesTableLib:UefiRuntimeServicesTableLib.obj
 0002:00001270       ??_C@_0GP@HEOOPGAM@D?3?2uefi_specs_personal_collecti@ 0000000000006a10     UefiDevicePathLibDevicePathProtocol:UefiDevicePathLib.obj
 0002:000012e0       ??_C@_0DC@CNNBPJA@mDevicePathLibDevicePathUtiliti@ 0000000000006a80     UefiDevicePathLibDevicePathProtocol:UefiDevicePathLib.obj
 0002:00001320       ??_C@_0EK@CGIIDOCH@D?3?2uefi_specs_personal_collecti@ 0000000000006ac0     DxeHobLib:HobLib.obj
 0002:00001370       ??_C@_0BJ@OBFMLLDO@mHobList?5?$CB?$DN?5?$CI?$CIvoid?5?$CK?$CJ?50?$CJ@ 0000000000006b10     DxeHobLib:HobLib.obj
 0002:00001390       ??_C@_0BJ@NOLLDKJB@HobStart?5?$CB?$DN?5?$CI?$CIvoid?5?$CK?$CJ?50?$CJ@ 0000000000006b30     DxeHobLib:HobLib.obj
 0002:000013b0       ??_C@_0BP@LHBKJBMC@PlatformInfoHob?5is?5not?5found?4?6@ 0000000000006b50     DxeAcpiTimerLib:DxeAcpiTimerLib.obj
 0002:000013d0       ??_C@_0FH@PGONMIHN@D?3?2uefi_specs_personal_collecti@ 0000000000006b70     DxeAcpiTimerLib:DxeAcpiTimerLib.obj
 0002:00001428       ??_C@_0BI@HAGPDMHJ@AcpiTimerLibConstructor@ 0000000000006bc8     DxeAcpiTimerLib:DxeAcpiTimerLib.obj
 0002:00001440       ??_C@_0CL@DGCOIACG@?$CFa?3?5Unknown?5Host?5Bridge?5Device?5@ 0000000000006be0     DxeAcpiTimerLib:DxeAcpiTimerLib.obj
 0002:00001470       ??_C@_0GA@DAOPHLCA@D?3?2uefi_specs_personal_collecti@ 0000000000006c10     MemEncryptTdxLib:MemoryEncryption.obj
 0002:000014d0       ??_C@_0BE@HOFPPHFP@SetOrClearSharedBit@ 0000000000006c70     MemEncryptTdxLib:MemoryEncryption.obj
 0002:000014f0       ??_C@_0EN@CNFACAIE@?$CFa?3?5TdVmcall?$CIMAPGPA?$CJ?5Retry?5Phys@ 0000000000006c90     MemEncryptTdxLib:MemoryEncryption.obj
 0002:00001540       ??_C@_0ID@OJKEBCDA@?$CFa?3?5TdVmcall?$CIMAPGPA?$CJ?5failed?5wit@ 0000000000006ce0     MemEncryptTdxLib:MemoryEncryption.obj
 0002:000015c8       ??_C@_0CH@BKOGEHFI@?$CFa?3?5TdVmcall?$CIMAPGPA?$CJ?5failed?5wit@ 0000000000006d68     MemEncryptTdxLib:MemoryEncryption.obj
 0002:000015f0       ??_C@_0DD@NBGAAGKB@?$CFa?3?5Failed?5to?5locate?5MemoryAcce@ 0000000000006d90     MemEncryptTdxLib:MemoryEncryption.obj
 0002:00001628       ??_C@_0CE@FCLNJGFJ@?$CFa?3?5Failed?5to?5AcceptMemory?5with@ 0000000000006dc8     MemEncryptTdxLib:MemoryEncryption.obj
 0002:00001650       ??_C@_0EE@POCGKMLA@?$CFa?3?$CFa?3?5pte?$DN0x?$CFLx?5AddressEncMask@ 0000000000006df0     MemEncryptTdxLib:MemoryEncryption.obj
 0002:00001698       ??_C@_0BJ@KBKNMJNH@SetMemorySharedOrPrivate@ 0000000000006e38     MemEncryptTdxLib:MemoryEncryption.obj
 0002:000016b8       ??_C@_0DK@FLMLOLHA@?$CFa?3?$CFa?3?5Cr3Base?$DN0x?$CFLx?5Physical?$DN0@ 0000000000006e58     MemEncryptTdxLib:MemoryEncryption.obj
 0002:00001700       ??_C@_0FA@CKPDNHA@D?3?2uefi_specs_personal_collecti@ 0000000000006ea0     AmdSvsmLib:AmdSvsmLib.obj
 0002:00001750       ??_C@_08MDEIBFAO@Validate@ 0000000000006ef0     AmdSvsmLib:AmdSvsmLib.obj
 0002:00001760       ??_C@_0L@KOBMCBEG@Invalidate@ 0000000000006f00     AmdSvsmLib:AmdSvsmLib.obj
 0002:00001770       ??_C@_0O@MOPKCFHF@BasePvalidate@ 0000000000006f10     AmdSvsmLib:AmdSvsmLib.obj
 0002:00001780       ??_C@_0DB@KKFDNHPJ@?$CFa?3?$CFa?3?5Failed?5to?5?$CFa?5address?50x?$CF@ 0000000000006f20     AmdSvsmLib:AmdSvsmLib.obj
 0002:000017c0       ??_C@_0EN@HLCGLLBG@?$CIExitInfo?4Elements?4Lower32Bits?5@ 0000000000006f60     CcExitLib:CcExitLib.obj
 0002:00001810       ??_C@_0EO@PKMHJHBC@D?3?2uefi_specs_personal_collecti@ 0000000000006fb0     CcExitLib:CcExitLib.obj
 0002:00001860       ??_C@_0CA@KLMDHBCA@Ghcb?9?$DOSaveArea?4SwExitInfo2?5?$CB?$DN?50@ 0000000000007000     CcExitLib:CcExitLib.obj
 0002:00001880       ??_C@_0DJ@EPHLDLOO@?$CILength?5?9?51?$CJ?5?$DM?$DN?5?$CI0xFFFFFFFFFFFF@ 0000000000007020     BaseCacheMaintenanceLib:X86Cache.obj
 0002:000018c0       ??_C@_0FK@NPNBOPHL@D?3?2uefi_specs_personal_collecti@ 0000000000007060     BaseCacheMaintenanceLib:X86Cache.obj
 0002:00001920       ??_C@_0CB@GEABOFIF@Failed?5call?5TDCALL_TDINFO?4?5?$CFllx@ 00000000000070c0     TdxLib:TdInfo.obj
 0002:00001950       ??_C@_0FF@GCKLFLDF@D?3?2uefi_specs_personal_collecti@ 00000000000070f0     BaseIoLibIntrinsicSev:IoLibMsc.obj
 0002:000019a8       ??_C@_0BA@HCECIDGN@?$CIPort?5?$CG?53?$CJ?5?$DN?$DN?50@ 0000000000007148     BaseIoLibIntrinsicSev:IoLibMsc.obj
 0002:000019c0       ??_C@_0FN@DOAHIAPG@D?3?2uefi_specs_personal_collecti@ 0000000000007160     BaseIoLibIntrinsicSev:IoLibInternalTdx.obj
 0002:00001a20       ??_C@_0BD@OMMAJMCK@?$CIAddress?5?$CG?53?$CJ?5?$DN?$DN?50@ 00000000000071c0     BaseIoLibIntrinsicSev:IoLibInternalTdx.obj
 0002:00001a38       ??_C@_0BH@MAAHKCPC@String?5?$CB?$DN?5?$CI?$CIvoid?5?$CK?$CJ?50?$CJ@ 00000000000071d8     BaseLib:String.obj
 0002:00001a50       ??_C@_0EI@LOLLHGDK@D?3?2uefi_specs_personal_collecti@ 00000000000071f0     BaseLib:String.obj
 0002:00001a98       ??_C@_0CC@GFNLNIOC@?$CI?$CIUINTN?$CJString?5?$CG?50x00000001?$CJ?5?$DN?$DN@ 0000000000007238     BaseLib:String.obj
 0002:00001ac0       ??_C@_0DI@MDIKFADO@Length?5?$DM?5_gPcd_FixedAtBuild_Pcd@ 0000000000007260     BaseLib:String.obj
 0002:00001b00       ??_C@_0EL@GLNKFHII@D?3?2uefi_specs_personal_collecti@ 00000000000072a0     BaseLib:Unaligned.obj
 0002:00001b50       ??_C@_0N@KGHEHMDL@Divisor?5?$CB?$DN?50@ 00000000000072f0     BaseLib:DivU64x32.obj
 0002:00001b60       ??_C@_0EM@OAPOMMAE@D?3?2uefi_specs_personal_collecti@ 0000000000007300     BaseLib:SafeString.obj
 0002:00001bb0       ??_C@_0BJ@CNKJJNE@?$CIBuffer?5?$CB?$DN?5?$CI?$CIvoid?5?$CK?$CJ?50?$CJ?$CJ@ 0000000000007350     BaseLib:SafeString.obj
 0002:00001bd0       ??_C@_0FH@MODEAFEI@D?3?2uefi_specs_personal_collecti@ 0000000000007370     BasePrintLib:PrintLibInternal.obj
 0002:00001c30       ??_C@_0EB@HDGIDCIO@?$CIBufferSize?5?$DM?$DN?5?$CI_gPcd_FixedAtBu@ 00000000000073d0     BasePrintLib:PrintLibInternal.obj
 0002:00001c78       ??_C@_0BJ@PPAKKDJG@?$CIFormat?5?$CB?$DN?5?$CI?$CIvoid?5?$CK?$CJ?50?$CJ?$CJ@ 0000000000007418     BasePrintLib:PrintLibInternal.obj
 0002:00001ca0       ??_C@_0ED@LPDDCECB@?$CIBufferSize?5?$DM?$DN?5?$CI_gPcd_FixedAtBu@ 0000000000007440     BasePrintLib:PrintLibInternal.obj
 0002:00001cf0       ??_C@_0IM@BFJJFLGB@?$CIStrnLenS?5?$CI?$CICHAR16?5?$CK?$CJFormat?0?5?$CI_@ 0000000000007490     BasePrintLib:PrintLibInternal.obj
 0002:00001d80       ??_C@_0ID@PLGJGION@?$CIAsciiStrnLenS?5?$CIFormat?0?5?$CI_gPcd_@ 0000000000007520     BasePrintLib:PrintLibInternal.obj
 0002:00001e08       ??_C@_0O@MLOLIMFM@?$DMnull?5string?$DO@ 00000000000075a8     BasePrintLib:PrintLibInternal.obj
 0002:00001e18       ??_C@_0M@BJJDNPHK@?$DMnull?5guid?$DO@ 00000000000075b8     BasePrintLib:PrintLibInternal.obj
 0002:00001e28       ??_C@_0DB@PMLHLBMO@?$CF08x?9?$CF04x?9?$CF04x?9?$CF02x?$CF02x?9?$CF02x?$CF02@ 00000000000075c8     BasePrintLib:PrintLibInternal.obj
 0002:00001e60       ??_C@_0M@LHGBCIKM@?$DMnull?5time?$DO@ 0000000000007600     BasePrintLib:PrintLibInternal.obj
 0002:00001e70       ??_C@_0BK@FCPKCIDD@?$CF02d?1?$CF02d?1?$CF04d?5?5?$CF02d?3?$CF02d@ 0000000000007610     BasePrintLib:PrintLibInternal.obj
 0002:00001e8c       ??_C@_04JIMNDDED@?$CF08X@  000000000000762c     BasePrintLib:PrintLibInternal.obj
 0002:00001e94       ??_C@_02PCIJFNDE@?$AN?6@   0000000000007634     BasePrintLib:PrintLibInternal.obj
 0002:00001e98       ??_C@_01LIIJDEN@?$AN@      0000000000007638     BasePrintLib:PrintLibInternal.obj
 0002:00001ea0       mWarningString             0000000000007640     BasePrintLib:PrintLibInternal.obj
 0002:00001f70       mErrorString               0000000000007710     BasePrintLib:PrintLibInternal.obj
 0002:00002250       mHexStr                    00000000000079f0     BasePrintLib:PrintLibInternal.obj
 0002:00002260       ??_C@_0BO@BAKALPJK@?$CI?$CIAddress?$CJ?5?$CG?5?$HO0xfffffff?$CJ?5?$DN?$DN?50@ 0000000000007a00     BasePciExpressLib:PciExpressLib.obj
 0002:00002280       ??_C@_0FJ@LPMKGGAK@D?3?2uefi_specs_personal_collecti@ 0000000000007a20     BasePciExpressLib:PciExpressLib.obj
 0002:000022e0       ??_C@_0FB@PDIKDBMH@D?3?2uefi_specs_personal_collecti@ 0000000000007a80     BasePciCf8Lib:PciCf8Lib.obj
 0002:00002338       ??_C@_0CG@EDKLCMBO@?$CI?$CIAddress?$CJ?5?$CG?5?$CI?$HO0xffff0ff?5?$HM?5?$CI3?$CJ?$CJ@ 0000000000007ad8     BasePciCf8Lib:PciCf8Lib.obj
 0002:00002360       ??_C@_0FC@MAJHMCGF@D?3?2uefi_specs_personal_collecti@ 0000000000007b00     BaseIoLibIntrinsicSev:IoLib.obj
 0002:000023c0       ??_C@_0FE@LIGPAOFO@D?3?2uefi_specs_personal_collecti@ 0000000000007b60     BaseLib:DivU64x32Remainder.obj
 0002:00002420       __xmm@000fffffc0000000000fffffc0000000 0000000000007bc0     MemEncryptTdxLib:MemoryEncryption.obj
 0002:00002484       __volatile_metadata        0000000000007c24     <linker-defined>
 0003:00000000       gPcdProtocolGuid           0000000000007dc0     IoMmuDxe:AutoGen.obj
 0003:00000010       gIoMmuAbsentProtocolGuid   0000000000007dd0     IoMmuDxe:AutoGen.obj
 0003:00000020       gUefiOvmfPkgPlatformInfoGuid 0000000000007de0     IoMmuDxe:AutoGen.obj
 0003:00000030       gEdkiiMemoryAcceptProtocolGuid 0000000000007df0     IoMmuDxe:AutoGen.obj
 0003:00000040       gEfiDevicePathUtilitiesProtocolGuid 0000000000007e00     IoMmuDxe:AutoGen.obj
 0003:00000050       gEfiHobListGuid            0000000000007e10     IoMmuDxe:AutoGen.obj
 0003:00000060       gEdkiiIoMmuProtocolGuid    0000000000007e20     IoMmuDxe:AutoGen.obj
 0003:00000070       mIoMmu                     0000000000007e30     IoMmuDxe:CcIoMmu.obj
 0003:00000140       mReservedSharedMemSupported 0000000000007f00     IoMmuDxe:CcIoMmu.obj
 0003:00000158       mPcd                       0000000000007f18     DxePcdLib:DxePcdLib.obj
 0003:000001a8       gST                        0000000000007f68     UefiBootServicesTableLib:UefiBootServicesTableLib.obj
 0003:000001b0       gBS                        0000000000007f70     UefiBootServicesTableLib:UefiBootServicesTableLib.obj
 0003:000001b8       gImageHandle               0000000000007f78     UefiBootServicesTableLib:UefiBootServicesTableLib.obj
 0003:000001c0       gRT                        0000000000007f80     UefiRuntimeServicesTableLib:UefiRuntimeServicesTableLib.obj
 0003:000001c8       mDevicePathLibDevicePathUtilities 0000000000007f88     UefiDevicePathLibDevicePathProtocol:UefiDevicePathLib.obj
 0003:000001d0       mHobList                   0000000000007f90     DxeHobLib:HobLib.obj
 0003:000001e0       mTdDataReturned            0000000000007fa0     TdxLib:TdInfo.obj
 0003:000001e8       mTdSharedPageMask          0000000000007fa8     TdxLib:TdInfo.obj
 0003:000001f0       gParity                    0000000000007fb0     PcAtSerialPortLib:SerialPortLib.obj
 0003:000001f1       gBreakSet                  0000000000007fb1     PcAtSerialPortLib:SerialPortLib.obj

 entry point at        0001:00000324

 Static symbols

 0001:0000001a       InternalMemCopyMem.0       00000000000002da     BaseMemoryLibRepStr:CopyMem.obj
 0001:0000002a       @CopyBackward              00000000000002ea     BaseMemoryLibRepStr:CopyMem.obj
 0001:00000033       @CopyBytes                 00000000000002f3     BaseMemoryLibRepStr:CopyMem.obj
 0001:00000169       TdVmCall.no_return_data    0000000000000429     BaseLib:TdVmcall.obj
 0001:000001af       AsmCpuid.0                 000000000000046f     BaseLib:CpuId.obj
 0001:000001b4       AsmCpuid.1                 0000000000000474     BaseLib:CpuId.obj
 0001:000001bb       AsmCpuid.2                 000000000000047b     BaseLib:CpuId.obj
 0001:000001c4       AsmCpuid.3                 0000000000000484     BaseLib:CpuId.obj
 0001:0000026a       PvalidateExit              000000000000052a     BaseLib:Pvalidate.obj
 0001:0000030b       TdCall.exit                00000000000005cb     BaseLib:TdCall.obj
 0001:00000ac4       IoMmuUnmapWorker           0000000000000d84 f   IoMmuDxe:CcIoMmu.obj
 0001:000010fc       IoMmuExitBoot              00000000000013bc f   IoMmuDxe:CcIoMmu.obj
 0001:00001130       IoMmuUnmapAllMappings      00000000000013f0 f   IoMmuDxe:CcIoMmu.obj
 0001:00001438       CalcuateReservedMemSize    00000000000016f8 f   IoMmuDxe:IoMmuBuffer.obj
 0001:00001638       InternalAllocateBuffer     00000000000018f8 f   IoMmuDxe:IoMmuBuffer.obj
 0001:00001ac0       ConfidentialComputingGuestHas 0000000000001d80 f   DxeMemEncryptSevLib:DxeMemEncryptSevLibInternal.obj
 0001:00001bc8       AllocatePageTableMemory    0000000000001e88 f   DxeMemEncryptSevLib:PeiDxeVirtualMemory.obj
 0001:00001c8c       Split2MPageTo4K            0000000000001f4c f   DxeMemEncryptSevLib:PeiDxeVirtualMemory.obj
 0001:00001d40       SetPageTablePoolReadOnly   0000000000002000 f   DxeMemEncryptSevLib:PeiDxeVirtualMemory.obj
 0001:00001f58       SetMemoryEncDec            0000000000002218 f   DxeMemEncryptSevLib:PeiDxeVirtualMemory.obj
 0001:00002574       PageStateChangeVmgExit     0000000000002834 f   DxeMemEncryptSevLib:SnpPageStateChangeInternal.obj
 0001:00003054       AllocatePageTableMemory    0000000000003314 f   MemEncryptTdxLib:MemoryEncryption.obj
 0001:00003118       Split2MPageTo4K            00000000000033d8 f   MemEncryptTdxLib:MemoryEncryption.obj
 0001:00003190       SetPageTablePoolReadOnly   0000000000003450 f   MemEncryptTdxLib:MemoryEncryption.obj
 0001:000033b8       SetOrClearSharedBit        0000000000003678 f   MemEncryptTdxLib:MemoryEncryption.obj
 0001:00003620       SetMemorySharedOrPrivate   00000000000038e0 f   MemEncryptTdxLib:MemoryEncryption.obj
 0001:00003a64       SnpTerminate               0000000000003d24 f   AmdSvsmLib:AmdSvsmLib.obj
 0001:00003ab0       SvsmMsrProtocol            0000000000003d70 f   AmdSvsmLib:AmdSvsmLib.obj
 0001:00003b90       SvsmPvalidate              0000000000003e50 f   AmdSvsmLib:AmdSvsmLib.obj
 0002:000004e0       mBusMasterOperationName    0000000000005c80     IoMmuDxe:CcIoMmu.obj
 0003:000000a0       mMapInfos                  0000000000007e60     IoMmuDxe:CcIoMmu.obj
 0003:000000b0       mReservedMemRanges         0000000000007e70     IoMmuDxe:IoMmuBuffer.obj
 0003:00000144       mReservedMemBitmap         0000000000007f04     IoMmuDxe:IoMmuBuffer.obj
 0003:00000148       mReservedSharedMemAddress  0000000000007f08     IoMmuDxe:IoMmuBuffer.obj
 0003:00000150       mReservedSharedMemSize     0000000000007f10     IoMmuDxe:IoMmuBuffer.obj
 0003:00000160       mSevEncryptionMaskSaved    0000000000007f20     DxeMemEncryptSevLib:DxeMemEncryptSevLibInternal.obj
 0003:00000168       mCurrentAttr               0000000000007f28     DxeMemEncryptSevLib:DxeMemEncryptSevLibInternal.obj
 0003:00000170       mSevEncryptionMask         0000000000007f30     DxeMemEncryptSevLib:DxeMemEncryptSevLibInternal.obj
 0003:00000178       mCurrentAttrRead           0000000000007f38     DxeMemEncryptSevLib:DxeMemEncryptSevLibInternal.obj
 0003:00000180       mPscBuffer                 0000000000007f40     DxeMemEncryptSevLib:PeiDxeVirtualMemory.obj
 0003:00000188       mAddressEncMaskChecked     0000000000007f48     DxeMemEncryptSevLib:PeiDxeVirtualMemory.obj
 0003:00000190       mPageTablePool             0000000000007f50     DxeMemEncryptSevLib:PeiDxeVirtualMemory.obj
 0003:00000198       mDeadLoopComparator        0000000000007f58     BaseLib:CpuDeadLoop.obj
 0003:000001a0       mCcProbeGuestType          0000000000007f60     DxeCcProbeLib:DxeCcProbeLib.obj
 0003:000001a1       mCcProbed                  0000000000007f61     DxeCcProbeLib:DxeCcProbeLib.obj
 0003:000001d8       mPageTablePool             0000000000007f98     MemEncryptTdxLib:MemoryEncryption.obj
 0003:000001f8       mAddressEncMask            0000000000007fb8     DxeMemEncryptSevLib:PeiDxeVirtualMemory.obj
 0003:00000200       mRunningOnQ35              0000000000007fc0     DxePciLibI440FxQ35:PciLib.obj
 0005:00000000       $unwind$IoRead8            0000000000008320     BaseIoLibIntrinsicSev:IoLibMsc.obj
 0005:00000000       $unwind$CpuDeadLoop        0000000000008320     BaseLib:CpuDeadLoop.obj
 0005:00000000       $unwind$GetPcdProtocol     0000000000008320     DxePcdLib:DxePcdLib.obj
 0005:00000000       $unwind$TdSharedPageMask   0000000000008320     TdxLib:TdInfo.obj
 0005:00000000       $unwind$_ModuleEntryPoint  0000000000008320     UefiDriverEntryPoint:DriverEntryPoint.obj
 0005:00000000       $unwind$FreePool           0000000000008320     UefiMemoryAllocationLib:MemoryAllocationLib.obj
 0005:00000000       $unwind$InternalGetMemEncryptionAddressMask 0000000000008320     DxeMemEncryptSevLib:PeiDxeVirtualMemory.obj
 0005:00000008       $unwind$ProcessLibraryConstructorList 0000000000008328     IoMmuDxe:AutoGen.obj
 0005:00000020       $unwind$IoMmuMap           0000000000008340     IoMmuDxe:CcIoMmu.obj
 0005:0000003c       $unwind$IoMmuUnmapWorker   000000000000835c     IoMmuDxe:CcIoMmu.obj
 0005:00000050       $unwind$IoMmuAllocateBuffer 0000000000008370     IoMmuDxe:CcIoMmu.obj
 0005:00000068       $unwind$IoMmuFreeBuffer    0000000000008388     IoMmuDxe:CcIoMmu.obj
 0005:00000080       $unwind$IoMmuSetAttribute  00000000000083a0     IoMmuDxe:CcIoMmu.obj
 0005:0000008c       $unwind$IoRead32           00000000000083ac     BaseIoLibIntrinsicSev:IoLibMsc.obj
 0005:0000008c       $unwind$IoWrite32          00000000000083ac     BaseIoLibIntrinsicSev:IoLibMsc.obj
 0005:0000008c       $unwind$SaveAndDisableInterrupts 00000000000083ac     BaseLib:Cpu.obj
 0005:0000008c       $unwind$InternalBaseLibIsListValid 00000000000083ac     BaseLib:LinkedList.obj
 0005:0000008c       $unwind$RemoveEntryList    00000000000083ac     BaseLib:LinkedList.obj
 0005:0000008c       $unwind$StrnLenS           00000000000083ac     BaseLib:SafeString.obj
 0005:0000008c       $unwind$PciExpressRead32   00000000000083ac     BasePciExpressLib:PciExpressLib.obj
 0005:0000008c       $unwind$IoMmuExitBoot      00000000000083ac     IoMmuDxe:CcIoMmu.obj
 0005:00000094       $unwind$IoMmuUnmapAllMappings 00000000000083b4     IoMmuDxe:CcIoMmu.obj
 0005:000000ac       $unwind$MmioRead32         00000000000083cc     BaseIoLibIntrinsicSev:IoLib.obj
 0005:000000ac       $unwind$TdIoRead32         00000000000083cc     BaseIoLibIntrinsicSev:IoLibInternalTdx.obj
 0005:000000ac       $unwind$TdIoWrite32        00000000000083cc     BaseIoLibIntrinsicSev:IoLibInternalTdx.obj
 0005:000000ac       $unwind$TdIoWrite8         00000000000083cc     BaseIoLibIntrinsicSev:IoLibInternalTdx.obj
 0005:000000ac       $unwind$InstallIoMmuProtocol 00000000000083cc     IoMmuDxe:CcIoMmu.obj
 0005:000000ac       $unwind$AllocatePageTableMemory 00000000000083cc     DxeMemEncryptSevLib:PeiDxeVirtualMemory.obj
 0005:000000ac       $unwind$AllocatePageTableMemory 00000000000083cc     MemEncryptTdxLib:MemoryEncryption.obj
 0005:000000b4       $unwind$IoMmuInitReservedSharedMem 00000000000083d4     IoMmuDxe:IoMmuBuffer.obj
 0005:000000cc       $unwind$InternalAllocateBuffer 00000000000083ec     IoMmuDxe:IoMmuBuffer.obj
 0005:000000e8       $unwind$InsertHeadList     0000000000008408     BaseLib:LinkedList.obj
 0005:000000e8       $unwind$RShiftU64          0000000000008408     BaseLib:RShiftU64.obj
 0005:000000e8       $unwind$AsciiStrLen        0000000000008408     BaseLib:String.obj
 0005:000000e8       $unwind$SetMem             0000000000008408     BaseMemoryLibRepStr:SetMemWrapper.obj
 0005:000000e8       $unwind$ZeroMem            0000000000008408     BaseMemoryLibRepStr:ZeroMemWrapper.obj
 0005:000000e8       $unwind$FreePages          0000000000008408     UefiMemoryAllocationLib:MemoryAllocationLib.obj
 0005:000000e8       $unwind$ConfidentialComputingGuestHas 0000000000008408     DxeMemEncryptSevLib:DxeMemEncryptSevLibInternal.obj
 0005:000000e8       $unwind$Split2MPageTo4K    0000000000008408     MemEncryptTdxLib:MemoryEncryption.obj
 0005:000000f4       $unwind$InternalAllocateAlignedPages 0000000000008414     UefiMemoryAllocationLib:MemoryAllocationLib.obj
 0005:00000104       $unwind$InternalAllocatePool 0000000000008424     UefiMemoryAllocationLib:MemoryAllocationLib.obj
 0005:0000010c       $unwind$Split2MPageTo4K    000000000000842c     DxeMemEncryptSevLib:PeiDxeVirtualMemory.obj
 0005:00000124       $unwind$SetPageTablePoolReadOnly 0000000000008444     DxeMemEncryptSevLib:PeiDxeVirtualMemory.obj
 0005:00000124       $unwind$SetPageTablePoolReadOnly 0000000000008444     MemEncryptTdxLib:MemoryEncryption.obj
 0005:00000140       $unwind$SetMemoryEncDec    0000000000008460     DxeMemEncryptSevLib:PeiDxeVirtualMemory.obj
 0005:00000158       $unwind$SnpTerminate       0000000000008478     AmdSvsmLib:AmdSvsmLib.obj
 0005:00000158       $unwind$SnpPageStateFailureTerminate 0000000000008478     DxeMemEncryptSevLib:SnpPageStateChangeInternal.obj
 0005:00000160       $unwind$PageStateChangeVmgExit 0000000000008480     DxeMemEncryptSevLib:SnpPageStateChangeInternal.obj
 0005:00000178       $unwind$InternalSetPageState 0000000000008498     DxeMemEncryptSevLib:SnpPageStateChangeInternal.obj
 0005:00000190       $unwind$CopyMem            00000000000084b0     BaseMemoryLibRepStr:CopyMemWrapper.obj
 0005:000001a4       $unwind$DebugPrint         00000000000084c4     BaseDebugLibSerialPort:DebugLib.obj
 0005:000001ac       $unwind$DebugPrintMarker   00000000000084cc     BaseDebugLibSerialPort:DebugLib.obj
 0005:000001c0       $unwind$DebugAssert        00000000000084e0     BaseDebugLibSerialPort:DebugLib.obj
 0005:000001c8       $unwind$DivU64x32Remainder 00000000000084e8     BaseLib:DivU64x32Remainder.obj
 0005:000001c8       $unwind$PciCf8Read32       00000000000084e8     BasePciCf8Lib:PciCf8Lib.obj
 0005:000001c8       $unwind$GetHobList         00000000000084e8     DxeHobLib:HobLib.obj
 0005:000001c8       $unwind$SerialPortWrite    00000000000084e8     PcAtSerialPortLib:SerialPortLib.obj
 0005:000001d8       $unwind$SetOrClearSharedBit 00000000000084f8     MemEncryptTdxLib:MemoryEncryption.obj
 0005:000001f0       $unwind$SetMemorySharedOrPrivate 0000000000008510     MemEncryptTdxLib:MemoryEncryption.obj
 0005:00000208       $unwind$SvsmMsrProtocol    0000000000008528     AmdSvsmLib:AmdSvsmLib.obj
 0005:0000021c       $unwind$SvsmPvalidate      000000000000853c     AmdSvsmLib:AmdSvsmLib.obj
 0005:00000238       $unwind$WriteBackInvalidateDataCacheRange 0000000000008558     BaseCacheMaintenanceLib:X86Cache.obj
 0005:00000248       $unwind$GetTdInfo          0000000000008568     TdxLib:TdInfo.obj
 0005:00000250       $unwind$TdIoRead8          0000000000008570     BaseIoLibIntrinsicSev:IoLibInternalTdx.obj
 0005:00000250       $unwind$BasePrintLibSPrint 0000000000008570     BasePrintLib:PrintLibInternal.obj
 0005:00000258       $unwind$CompareGuid        0000000000008578     BaseMemoryLibRepStr:MemLibGuid.obj
 0005:00000270       $unwind$AsciiSPrint        0000000000008590     BasePrintLib:PrintLib.obj
 0005:00000278       $unwind$BasePrintLibValueToString 0000000000008598     BasePrintLib:PrintLibInternal.obj
 0005:00000284       $unwind$BasePrintLibSPrintMarker 00000000000085a4     BasePrintLib:PrintLibInternal.obj
