 XhciDxe

 Timestamp is 6725e4ab (Sat Nov  2 16:36:59 2024)

 Preferred load address is 0000000000000000

 Start         Length     Name                   Class
 0001:00000000 000001d8H .text                   CODE
 0001:000001d8 0000a97fH .text$mn                CODE
 0002:00000000 00003928H .rdata                  DATA
 0002:00003928 00000038H .rdata$voltmd           DATA
 0002:00003960 00000154H .rdata$zzzdbg           DATA
 0003:00000000 000002a0H .data                   DATA
 0003:000002a0 00000080H .bss                    DATA
 0004:00000000 00000618H .pdata                  DATA
 0005:00000000 00000434H .xdata                  DATA

  Address         Publics by Value              Rva+Base               Lib:Object

 0000:00000000       __guard_iat_table          0000000000000000     <absolute>
 0000:00000000       __guard_iat_count          0000000000000000     <absolute>
 0000:00000000       __guard_longjmp_count      0000000000000000     <absolute>
 0000:00000000       __x64_code_ranges_to_entry_points_count 0000000000000000     <absolute>
 0000:00000000       __dynamic_value_reloc_table 0000000000000000     <absolute>
 0000:00000000       __hybrid_auxiliary_iat     0000000000000000     <absolute>
 0000:00000000       __hybrid_auxiliary_iat_copy 0000000000000000     <absolute>
 0000:00000000       __arm64x_redirection_metadata 0000000000000000     <absolute>
 0000:00000000       __guard_longjmp_table      0000000000000000     <absolute>
 0000:00000000       __x64_code_ranges_to_entry_points 0000000000000000     <absolute>
 0000:00000000       __AbsoluteZero             0000000000000000     <absolute>
 0000:00000000       __guard_fids_count         0000000000000000     <absolute>
 0000:00000000       __guard_check_icall_a64n_fptr 0000000000000000     <absolute>
 0000:00000000       __arm64x_extra_rfe_table   0000000000000000     <absolute>
 0000:00000000       __guard_fids_table         0000000000000000     <absolute>
 0000:00000000       __hybrid_code_map          0000000000000000     <absolute>
 0000:00000000       __arm64x_extra_rfe_table_size 0000000000000000     <absolute>
 0000:00000000       __arm64x_redirection_metadata_count 0000000000000000     <absolute>
 0000:00000000       __enclave_config           0000000000000000     <absolute>
 0000:00000000       __guard_eh_cont_table      0000000000000000     <absolute>
 0000:00000000       __guard_flags              0000000000000000     <absolute>
 0000:00000000       __hybrid_code_map_count    0000000000000000     <absolute>
 0000:00000000       __arm64x_native_entrypoint 0000000000000000     <absolute>
 0000:00000000       __guard_eh_cont_count      0000000000000000     <absolute>
 0000:00000000       __ImageBase                0000000000000000     <linker-defined>
 0001:00000000       InternalMemCopyMem         00000000000002c0     BaseMemoryLibRepStr:CopyMem.obj
 0001:00000040       InternalMemZeroMem         0000000000000300     BaseMemoryLibRepStr:ZeroMem.obj
 0001:00000060       InternalMemSetMem          0000000000000320     BaseMemoryLibRepStr:SetMem.obj
 0001:00000080       InternalMemSetMem64        0000000000000340     BaseMemoryLibRepStr:SetMem64.obj
 0001:000000a0       InternalMemSetMem32        0000000000000360     BaseMemoryLibRepStr:SetMem32.obj
 0001:000000c0       CpuPause                   0000000000000380     BaseLib:CpuPause.obj
 0001:000000d0       TdVmCall                   0000000000000390     BaseLib:TdVmcall.obj
 0001:00000150       EnableInterrupts           0000000000000410     BaseLib:EnableInterrupts.obj
 0001:00000160       DisableInterrupts          0000000000000420     BaseLib:DisableInterrupts.obj
 0001:00000170       AsmReadEflags              0000000000000430     BaseLib:ReadEflags.obj
 0001:00000180       TdCall                     0000000000000440     BaseLib:TdCall.obj
 0001:000001d8       _ModuleEntryPoint          0000000000000498 f   UefiDriverEntryPoint:DriverEntryPoint.obj
 0001:00000284       ProcessLibraryConstructorList 0000000000000544 f   XhciDxe:AutoGen.obj
 0001:00000620       XhcGetCapability           00000000000008e0 f   XhciDxe:Xhci.obj
 0001:000006f4       XhcReset                   00000000000009b4 f   XhciDxe:Xhci.obj
 0001:00000874       XhcGetState                0000000000000b34 f   XhciDxe:Xhci.obj
 0001:0000091c       XhcSetState                0000000000000bdc f   XhciDxe:Xhci.obj
 0001:00000a38       XhcGetRootHubPortStatus    0000000000000cf8 f   XhciDxe:Xhci.obj
 0001:00000c24       XhcSetRootHubPortFeature   0000000000000ee4 f   XhciDxe:Xhci.obj
 0001:00000dc4       XhcClearRootHubPortFeature 0000000000001084 f   XhciDxe:Xhci.obj
 0001:00000f10       XhcTransfer                00000000000011d0 f   XhciDxe:Xhci.obj
 0001:00001134       XhcControlTransfer         00000000000013f4 f   XhciDxe:Xhci.obj
 0001:000018d0       XhcBulkTransfer            0000000000001b90 f   XhciDxe:Xhci.obj
 0001:00001adc       XhcAsyncInterruptTransfer  0000000000001d9c f   XhciDxe:Xhci.obj
 0001:00001cdc       XhcSyncInterruptTransfer   0000000000001f9c f   XhciDxe:Xhci.obj
 0001:00001eb8       XhcIsochronousTransfer     0000000000002178 f   XhciDxe:Xhci.obj
 0001:00001eb8       XhcAsyncIsochronousTransfer 0000000000002178 f   XhciDxe:Xhci.obj
 0001:00001ec4       XhcDriverBindingSupported  0000000000002184 f   XhciDxe:Xhci.obj
 0001:00001f8c       XhcCreateUsbHc             000000000000224c f   XhciDxe:Xhci.obj
 0001:000022d0       XhcExitBootService         0000000000002590 f   XhciDxe:Xhci.obj
 0001:00002344       XhcDriverBindingStart      0000000000002604 f   XhciDxe:Xhci.obj
 0001:000026f8       XhcDriverBindingStop       00000000000029b8 f   XhciDxe:Xhci.obj
 0001:000028e0       XhcConvertTimeToTicks      0000000000002ba0 f   XhciDxe:Xhci.obj
 0001:000029fc       XhcGetElapsedTicks         0000000000002cbc f   XhciDxe:Xhci.obj
 0001:00002a54       XhcReadCapReg              0000000000002d14 f   XhciDxe:XhciReg.obj
 0001:00002ab0       XhcReadOpReg               0000000000002d70 f   XhciDxe:XhciReg.obj
 0001:00002b44       XhcWriteOpReg              0000000000002e04 f   XhciDxe:XhciReg.obj
 0001:00002bd4       XhcWriteDoorBellReg        0000000000002e94 f   XhciDxe:XhciReg.obj
 0001:00002c60       XhcReadRuntimeReg          0000000000002f20 f   XhciDxe:XhciReg.obj
 0001:00002cf0       XhcWriteRuntimeReg         0000000000002fb0 f   XhciDxe:XhciReg.obj
 0001:00002d7c       XhcReadExtCapReg           000000000000303c f   XhciDxe:XhciReg.obj
 0001:00002e0c       XhcWriteExtCapReg          00000000000030cc f   XhciDxe:XhciReg.obj
 0001:00002e98       XhcSetOpRegBit             0000000000003158 f   XhciDxe:XhciReg.obj
 0001:00002ed4       XhcWaitOpRegBit            0000000000003194 f   XhciDxe:XhciReg.obj
 0001:00002f9c       XhcClearBiosOwnership      000000000000325c f   XhciDxe:XhciReg.obj
 0001:00002fec       XhcGetCapabilityAddr       00000000000032ac f   XhciDxe:XhciReg.obj
 0001:0000303c       XhcGetSupportedProtocolCapabilityAddr 00000000000032fc f   XhciDxe:XhciReg.obj
 0001:000030b8       XhciPsivGetPsid            0000000000003378 f   XhciDxe:XhciReg.obj
 0001:0000315c       XhcCheckUsbPortSpeedUsedPsic 000000000000341c f   XhciDxe:XhciReg.obj
 0001:0000321c       XhcResetHC                 00000000000034dc f   XhciDxe:XhciReg.obj
 0001:00003328       XhcHaltHC                  00000000000035e8 f   XhciDxe:XhciReg.obj
 0001:00003374       XhcRunHC                   0000000000003634 f   XhciDxe:XhciReg.obj
 0001:000033ac       XhcCmdTransfer             000000000000366c f   XhciDxe:XhciSched.obj
 0001:00003538       XhcCreateUrb               00000000000037f8 f   XhciDxe:XhciSched.obj
 0001:00003650       XhcCreateTransferTrb       0000000000003910 f   XhciDxe:XhciSched.obj
 0001:00003b24       XhcInitSched               0000000000003de4 f   XhciDxe:XhciSched.obj
 0001:00003fb4       XhcRecoverHaltedEndpoint   0000000000004274 f   XhciDxe:XhciSched.obj
 0001:00004128       XhcDequeueTrbFromEndpoint  00000000000043e8 f   XhciDxe:XhciSched.obj
 0001:0000427c       CreateEventRing            000000000000453c f   XhciDxe:XhciSched.obj
 0001:00004448       CreateTransferRing         0000000000004708 f   XhciDxe:XhciSched.obj
 0001:0000452c       XhcFreeSched               00000000000047ec f   XhciDxe:XhciSched.obj
 0001:00004728       IsTransferRingTrb          00000000000049e8 f   XhciDxe:XhciSched.obj
 0001:000047e0       XhcCheckUrbResult          0000000000004aa0 f   XhciDxe:XhciSched.obj
 0001:00004be0       XhcExecTransfer            0000000000004ea0 f   XhciDxe:XhciSched.obj
 0001:00004d38       XhciDelAsyncIntTransfer    0000000000004ff8 f   XhciDxe:XhciSched.obj
 0001:00004df4       XhciDelAllAsyncIntTransfers 00000000000050b4 f   XhciDxe:XhciSched.obj
 0001:00004e94       XhciInsertAsyncIntTransfer 0000000000005154 f   XhciDxe:XhciSched.obj
 0001:00004f9c       XhcMonitorAsyncRequests    000000000000525c f   XhciDxe:XhciSched.obj
 0001:00005168       XhcPollPortStatusChange    0000000000005428 f   XhciDxe:XhciSched.obj
 0001:000052e0       XhcBusDevAddrToSlotId      00000000000055a0 f   XhciDxe:XhciSched.obj
 0001:0000533c       XhcRouteStringToSlotId     00000000000055fc f   XhciDxe:XhciSched.obj
 0001:00005398       XhcSyncTrsRing             0000000000005658 f   XhciDxe:XhciSched.obj
 0001:000054b0       RingIntTransferDoorBell    0000000000005770 f   XhciDxe:XhciSched.obj
 0001:00005510       XhcInitializeDeviceSlot    00000000000057d0 f   XhciDxe:XhciSched.obj
 0001:00005978       XhcInitializeDeviceSlot64  0000000000005c38 f   XhciDxe:XhciSched.obj
 0001:00005e04       XhcDisableSlotCmd          00000000000060c4 f   XhciDxe:XhciSched.obj
 0001:00005fe8       XhcDisableSlotCmd64        00000000000062a8 f   XhciDxe:XhciSched.obj
 0001:000061cc       XhcInitializeEndpointContext 000000000000648c f   XhciDxe:XhciSched.obj
 0001:000065e8       XhcInitializeEndpointContext64 00000000000068a8 f   XhciDxe:XhciSched.obj
 0001:00006a44       XhcSetConfigCmd            0000000000006d04 f   XhciDxe:XhciSched.obj
 0001:00006c24       XhcSetConfigCmd64          0000000000006ee4 f   XhciDxe:XhciSched.obj
 0001:00006e04       XhcStopEndpoint            00000000000070c4 f   XhciDxe:XhciSched.obj
 0001:00006eec       XhcSetTrDequeuePointer     00000000000071ac f   XhciDxe:XhciSched.obj
 0001:00006fd0       XhcSetInterface            0000000000007290 f   XhciDxe:XhciSched.obj
 0001:000072e8       XhcSetInterface64          00000000000075a8 f   XhciDxe:XhciSched.obj
 0001:00007600       XhcEvaluateContext         00000000000078c0 f   XhciDxe:XhciSched.obj
 0001:00007734       XhcEvaluateContext64       00000000000079f4 f   XhciDxe:XhciSched.obj
 0001:00007870       XhcConfigHubContext        0000000000007b30 f   XhciDxe:XhciSched.obj
 0001:000079c0       XhcConfigHubContext64      0000000000007c80 f   XhciDxe:XhciSched.obj
 0001:00007b10       XhciComponentNameGetDriverName 0000000000007dd0 f   XhciDxe:ComponentName.obj
 0001:00007b44       XhciComponentNameGetControllerName 0000000000007e04 f   XhciDxe:ComponentName.obj
 0001:00007c78       UsbHcAllocMemBlock         0000000000007f38 f   XhciDxe:UsbHcMem.obj
 0001:00007d7c       UsbHcFreeMemBlock          000000000000803c f   XhciDxe:UsbHcMem.obj
 0001:00007e0c       UsbHcAllocMemFromBlock     00000000000080cc f   XhciDxe:UsbHcMem.obj
 0001:00007fc8       UsbHcGetPciAddrForHostAddr 0000000000008288 f   XhciDxe:UsbHcMem.obj
 0001:00008048       UsbHcGetHostAddrForPciAddr 0000000000008308 f   XhciDxe:UsbHcMem.obj
 0001:000080bc       UsbHcAllocateMem           000000000000837c f   XhciDxe:UsbHcMem.obj
 0001:0000820c       UsbHcFreeMem               00000000000084cc f   XhciDxe:UsbHcMem.obj
 0001:0000839c       UsbHcAllocateAlignedPages  000000000000865c f   XhciDxe:UsbHcMem.obj
 0001:000085dc       UsbHcFreeAlignedPages      000000000000889c f   XhciDxe:UsbHcMem.obj
 0001:000086a8       CopyMem                    0000000000008968 f   BaseMemoryLibRepStr:CopyMemWrapper.obj
 0001:00008744       ZeroMem                    0000000000008a04 f   BaseMemoryLibRepStr:ZeroMemWrapper.obj
 0001:000087b4       InternalBaseLibIsListValid 0000000000008a74 f   BaseLib:LinkedList.obj
 0001:00008820       InsertHeadList             0000000000008ae0 f   BaseLib:LinkedList.obj
 0001:00008870       RemoveEntryList            0000000000008b30 f   BaseLib:LinkedList.obj
 0001:000088d8       RShiftU64                  0000000000008b98 f   BaseLib:RShiftU64.obj
 0001:0000891c       HighBitSet64               0000000000008bdc f   BaseLib:HighBitSet64.obj
 0001:00008960       DebugPrint                 0000000000008c20 f   BaseDebugLibSerialPort:DebugLib.obj
 0001:00008984       DebugPrintMarker           0000000000008c44 f   BaseDebugLibSerialPort:DebugLib.obj
 0001:00008a10       DebugAssert                0000000000008cd0 f   BaseDebugLibSerialPort:DebugLib.obj
 0001:00008a8c       InternalAllocatePool       0000000000008d4c f   UefiMemoryAllocationLib:MemoryAllocationLib.obj
 0001:00008abc       AllocateZeroPool           0000000000008d7c f   UefiMemoryAllocationLib:MemoryAllocationLib.obj
 0001:00008ae4       InternalAllocateCopyPool   0000000000008da4 f   UefiMemoryAllocationLib:MemoryAllocationLib.obj
 0001:00008b5c       FreePool                   0000000000008e1c f   UefiMemoryAllocationLib:MemoryAllocationLib.obj
 0001:00008ba0       IsLanguageSupported        0000000000008e60 f   UefiLib:UefiLib.obj
 0001:00008c28       LookupUnicodeString2       0000000000008ee8 f   UefiLib:UefiLib.obj
 0001:00008d1c       AddUnicodeString2          0000000000008fdc f   UefiLib:UefiLib.obj
 0001:00008ee8       GetHobList                 00000000000091a8 f   DxeHobLib:HobLib.obj
 0001:00008fc8       InternalReportStatusCode   0000000000009288 f   DxeReportStatusCodeLib:ReportStatusCodeLib.obj
 0001:0000905c       ReportStatusCodeWithDevicePath 000000000000931c f   DxeReportStatusCodeLib:ReportStatusCodeLib.obj
 0001:00009250       GetPcdProtocol             0000000000009510 f   DxePcdLib:DxePcdLib.obj
 0001:000092dc       CopyGuid                   000000000000959c f   BaseMemoryLibRepStr:MemLibGuid.obj
 0001:0000938c       CompareGuid                000000000000964c f   BaseMemoryLibRepStr:MemLibGuid.obj
 0001:00009450       StrSize                    0000000000009710 f   BaseLib:String.obj
 0001:000094d0       AsciiStrLen                0000000000009790 f   BaseLib:String.obj
 0001:0000953c       AsciiStrnCmp               00000000000097fc f   BaseLib:String.obj
 0001:00009608       DivU64x32Remainder         00000000000098c8 f   BaseLib:DivU64x32Remainder.obj
 0001:00009668       StrnLenS                   0000000000009928 f   BaseLib:SafeString.obj
 0001:000096c0       IoRead8                    0000000000009980 f   BaseIoLibIntrinsicSev:IoLibMsc.obj
 0001:000096e4       IoRead32                   00000000000099a4 f   BaseIoLibIntrinsicSev:IoLibMsc.obj
 0001:0000972c       IoWrite32                  00000000000099ec f   BaseIoLibIntrinsicSev:IoLibMsc.obj
 0001:00009758       IsTdxGuest                 0000000000009a18 f   BaseIoLibIntrinsicSev:IoLibInternalTdx.obj
 0001:00009784       TdIoRead8                  0000000000009a44 f   BaseIoLibIntrinsicSev:IoLibInternalTdx.obj
 0001:000097dc       TdIoRead32                 0000000000009a9c f   BaseIoLibIntrinsicSev:IoLibInternalTdx.obj
 0001:00009850       TdIoWrite8                 0000000000009b10 f   BaseIoLibIntrinsicSev:IoLibInternalTdx.obj
 0001:000098a0       TdIoWrite32                0000000000009b60 f   BaseIoLibIntrinsicSev:IoLibInternalTdx.obj
 0001:000098f4       AsciiSPrint                0000000000009bb4 f   BasePrintLib:PrintLib.obj
 0001:00009920       BasePrintLibFillBuffer     0000000000009be0 f   BasePrintLib:PrintLibInternal.obj
 0001:00009954       BasePrintLibValueToString  0000000000009c14 f   BasePrintLib:PrintLibInternal.obj
 0001:000099a4       BasePrintLibSPrintMarker   0000000000009c64 f   BasePrintLib:PrintLibInternal.obj
 0001:0000a8b0       BasePrintLibSPrint         000000000000ab70 f   BasePrintLib:PrintLibInternal.obj
 0001:0000a8d4       SerialPortWrite            000000000000ab94 f   PcAtSerialPortLib:SerialPortLib.obj
 0001:0000a944       PciExpressRead32           000000000000ac04 f   BasePciExpressLib:PciExpressLib.obj
 0001:0000a994       PciCf8Read32               000000000000ac54 f   BasePciCf8Lib:PciCf8Lib.obj
 0001:0000aa30       SaveAndDisableInterrupts   000000000000acf0 f   BaseLib:Cpu.obj
 0001:0000aa54       GetTdInfo                  000000000000ad14 f   TdxLib:TdInfo.obj
 0001:0000aab8       TdSharedPageMask           000000000000ad78 f   TdxLib:TdInfo.obj
 0001:0000aae4       MmioRead32                 000000000000ada4 f   BaseIoLibIntrinsicSev:IoLib.obj
 0002:00000000       ??_C@_0CB@DMEJJJHA@?6ASSERT_EFI_ERROR?5?$CIStatus?5?$DN?5?$CFr?$CJ@ 000000000000ae20     UefiDriverEntryPoint:DriverEntryPoint.obj
 0002:00000028       ??_C@_0CH@BBNBJKHK@?$CB?$CI?$CI?$CIINTN?$CJ?$CIRETURN_STATUS?$CJ?$CIStatus@ 000000000000ae48     UefiDriverEntryPoint:DriverEntryPoint.obj
 0002:00000050       ??_C@_07OIBLMLMP@XhciDxe@  000000000000ae70     XhciDxe:AutoGen.obj
 0002:00000058       ??_C@_0CE@IBFOBMLB@?6ASSERT_RETURN_ERROR?5?$CIStatus?5?$DN?5@ 000000000000ae78     XhciDxe:AutoGen.obj
 0002:00000080       ??_C@_0HM@LKIHJOPH@d?3?2uefi_specs_personal_collecti@ 000000000000aea0     XhciDxe:AutoGen.obj
 0002:00000100       ??_C@_0BF@NDBIKIKC@CR?5has?5Bad?5Signature@ 000000000000af20     XhciDxe:Xhci.obj
 0002:00000120       ??_C@_0EM@GPODMJCI@D?3?2uefi_specs_personal_collecti@ 000000000000af40     XhciDxe:Xhci.obj
 0002:00000170       ??_C@_0CH@FGBPMAO@XhcGetCapability?3?5?$CFd?5ports?0?564?5@ 000000000000af90     XhciDxe:Xhci.obj
 0002:000001a0       ??_C@_0FI@KPFBMCJM@?$CB?$CI?$CI?$CI?$CIBOOLEAN?$CJ?$CI?$CI?$CIXhcReadOpReg?5?$CI?$CI@ 000000000000afc0     XhciDxe:Xhci.obj
 0002:000001f8       ??_C@_0BF@CKEKIFLC@XhcReset?3?5status?5?$CFr?6@ 000000000000b018     XhciDxe:Xhci.obj
 0002:00000210       ??_C@_0BP@BIOJLFNJ@XhcGetState?3?5current?5state?5?$CFd?6@ 000000000000b030     XhciDxe:Xhci.obj
 0002:00000230       ??_C@_0BI@JGMNCCAD@XhcSetState?3?5status?5?$CFr?6@ 000000000000b050     XhciDxe:Xhci.obj
 0002:00000248       ??_C@_0BC@EOCICMKC@XhcUsbPortReset?$CB?6@ 000000000000b068     XhciDxe:Xhci.obj
 0002:00000260       ??_C@_0DD@MAMKFLGG@XhcSetRootHubPortFeature?5?3faile@ 000000000000b080     XhciDxe:Xhci.obj
 0002:00000298       ??_C@_0CF@OJIKONCD@XhcSetRootHubPortFeature?3?5statu@ 000000000000b0b8     XhciDxe:Xhci.obj
 0002:000002c0       ??_C@_0CH@NGFNNEDE@XhcClearRootHubPortFeature?3?5sta@ 000000000000b0e0     XhciDxe:Xhci.obj
 0002:000002e8       ??_C@_0DD@JJLMMFOK@?$CIType?5?$DN?$DN?50x01?$CJ?5?$HM?$HM?5?$CIType?5?$DN?$DN?50x02@ 000000000000b108     XhciDxe:Xhci.obj
 0002:00000320       ??_C@_0CN@NLEKAPEE@XhcTransfer?$FLType?$DN?$CFd?$FN?3?5failed?5to@ 000000000000b140     XhciDxe:Xhci.obj
 0002:00000350       ??_C@_0BE@JLAAAMID@Urb?9?$DOResult?5?$DN?$DN?50x00@ 000000000000b170     XhciDxe:Xhci.obj
 0002:00000368       ??_C@_0DN@HDEADEPJ@XhcTransfer?$FLType?$DN?$CFd?$FN?3?5pending?5U@ 000000000000b188     XhciDxe:Xhci.obj
 0002:000003a8       ??_C@_0DJ@ODNHHPNO@XhcTransfer?$FLType?$DN?$CFd?$FN?3?5XhcDequeu@ 000000000000b1c8     XhciDxe:Xhci.obj
 0002:000003e8       ??_C@_0DJ@FCPFAJGG@Status?5?$DN?$DN?5?$CI?$CIRETURN_STATUS?$CJ?$CI0x80@ 000000000000b208     XhciDxe:Xhci.obj
 0002:00000428       ??_C@_0DI@HBHCPBIG@XhcTransfer?$FLType?$DN?$CFd?$FN?3?5XhcRecove@ 000000000000b248     XhciDxe:Xhci.obj
 0002:00000460       ??_C@_0CL@KLIAKHKA@XhcControlTransfer?3?5HC?5halted?5a@ 000000000000b280     XhciDxe:Xhci.obj
 0002:00000490       ??_C@_0BF@OBJIPFIC@Data?5?$CB?$DN?5?$CI?$CIvoid?5?$CK?$CJ?50?$CJ@ 000000000000b2b0     XhciDxe:Xhci.obj
 0002:000004a8       ??_C@_0DN@IDAOKJCH@Index?5?$DM?5Xhc?9?$DOUsbDevContext?$FLSlot@ 000000000000b2c8     XhciDxe:Xhci.obj
 0002:000004e8       ??_C@_0BI@MACGCHBJ@HubDesc?9?$DONumPorts?5?$DM?$DN?515@ 000000000000b308     XhciDxe:Xhci.obj
 0002:00000500       ??_C@_0EK@OEDOEFIC@XHCI?3?5Don?8t?5support?5multi?9TT?5fe@ 000000000000b320     XhciDxe:Xhci.obj
 0002:00000550       ??_C@_0CP@CMCOCHHG@XhcControlTransfer?3?5error?5?9?5?$CFr?0@ 000000000000b370     XhciDxe:Xhci.obj
 0002:00000580       ??_C@_0BP@GPECAHON@XhcBulkTransfer?3?5HC?5is?5halted?6@ 000000000000b3a0     XhciDxe:Xhci.obj
 0002:000005a0       ??_C@_0CM@JJCBEENO@XhcBulkTransfer?3?5error?5?9?5?$CFr?0?5tr@ 000000000000b3c0     XhciDxe:Xhci.obj
 0002:000005d0       ??_C@_0EJ@ENKFODFJ@XhcAsyncInterruptTransfer?3?5remo@ 000000000000b3f0     XhciDxe:Xhci.obj
 0002:00000620       ??_C@_0CH@MGBGHFMI@XhcAsyncInterruptTransfer?3?5HC?5i@ 000000000000b440     XhciDxe:Xhci.obj
 0002:00000648       ??_C@_0CG@BKLHDDCA@EhcSyncInterruptTransfer?3?5HC?5is@ 000000000000b468     XhciDxe:Xhci.obj
 0002:00000670       ??_C@_0DF@GIECGFOO@XhcSyncInterruptTransfer?3?5error@ 000000000000b490     XhciDxe:Xhci.obj
 0002:000006a8       ??_C@_0DH@KCOJDEPJ@XhcCreateUsb3Hc?3?5Reserved?5bits?5@ 000000000000b4c8     XhciDxe:Xhci.obj
 0002:000006e0       ??_C@_0CJ@NAKNAMBC@XhcCreateUsb3Hc?3?5Capability?5len@ 000000000000b500     XhciDxe:Xhci.obj
 0002:00000710       ??_C@_0CC@NJGMILKI@XhcCreateUsb3Hc?3?5HcSParams1?50x?$CF@ 000000000000b530     XhciDxe:Xhci.obj
 0002:00000738       ??_C@_0CC@FHODIMEL@XhcCreateUsb3Hc?3?5HcSParams2?50x?$CF@ 000000000000b558     XhciDxe:Xhci.obj
 0002:00000760       ??_C@_0CB@NGEAFGBK@XhcCreateUsb3Hc?3?5HcCParams?50x?$CFx@ 000000000000b580     XhciDxe:Xhci.obj
 0002:00000788       ??_C@_0BN@OGNLEPML@XhcCreateUsb3Hc?3?5DBOff?50x?$CFx?6@ 000000000000b5a8     XhciDxe:Xhci.obj
 0002:000007a8       ??_C@_0BO@NDGKNIGO@XhcCreateUsb3Hc?3?5RTSOff?50x?$CFx?6@ 000000000000b5c8     XhciDxe:Xhci.obj
 0002:000007c8       ??_C@_0CH@JBDMKDJA@XhcCreateUsb3Hc?3?5UsbLegSupOffse@ 000000000000b5e8     XhciDxe:Xhci.obj
 0002:000007f0       ??_C@_0CJ@DPDPMGGP@XhcCreateUsb3Hc?3?5DebugCapSupOff@ 000000000000b610     XhciDxe:Xhci.obj
 0002:00000820       ??_C@_0CF@NDCMLFP@XhcCreateUsb3Hc?3?5Usb2SupOffset?5@ 000000000000b640     XhciDxe:Xhci.obj
 0002:00000848       ??_C@_0CF@IKJEAABM@XhcCreateUsb3Hc?3?5Usb3SupOffset?5@ 000000000000b668     XhciDxe:Xhci.obj
 0002:00000870       ??_C@_0DE@BCHHAKGE@XhcDriverBindingStart?3?5failed?5t@ 000000000000b690     XhciDxe:Xhci.obj
 0002:000008a8       ??_C@_0DB@HADCCEHM@XhcDriverBindingStart?3?5failed?5t@ 000000000000b6c8     XhciDxe:Xhci.obj
 0002:000008e0       ??_C@_0BG@BHFKHGBC@XhcDriverBindingStart@ 000000000000b700     XhciDxe:Xhci.obj
 0002:00000900       ??_C@_0EI@LELOCJAN@?$CFa?3?5failed?5to?5enable?564?9bit?5DMA@ 000000000000b720     XhciDxe:Xhci.obj
 0002:00000948       ??_C@_0BA@KAEOHNNN@XhcIsHalt?5?$CIXhc?$CJ@ 000000000000b768     XhciDxe:Xhci.obj
 0002:00000960       ??_C@_0EA@DJABENHA@XhcDriverBindingStart?3?5failed?5t@ 000000000000b780     XhciDxe:Xhci.obj
 0002:000009a0       ??_C@_1EK@MAGMLEIH@?$AAe?$AAX?$AAt?$AAe?$AAn?$AAs?$AAi?$AAb?$AAl?$AAe?$AA?5?$AAH?$AAo?$AAs?$AAt@ 000000000000b7c0     XhciDxe:Xhci.obj
 0002:000009ec       ??_C@_03LKLGDMJI@eng@      000000000000b80c     XhciDxe:Xhci.obj
 0002:000009f0       ??_C@_02LFNMGJAP@en@       000000000000b810     XhciDxe:Xhci.obj
 0002:000009f8       ??_C@_0DL@MDDKCLFE@XhcDriverBindingStart?3?5failed?5t@ 000000000000b818     XhciDxe:Xhci.obj
 0002:00000a38       ??_C@_0DJ@GNPBCIIG@XhcDriverBindingStart?3?5XHCI?5sta@ 000000000000b858     XhciDxe:Xhci.obj
 0002:00000a78       ??_C@_0CN@PHEIHNLM@XhcReadCapReg?3?5Pci?5Io?5read?5erro@ 000000000000b898     XhciDxe:XhciReg.obj
 0002:00000aa8       ??_C@_0BE@CHEKNMKH@Xhc?9?$DOCapLength?5?$CB?$DN?50@ 000000000000b8c8     XhciDxe:XhciReg.obj
 0002:00000ac0       ??_C@_0EP@DMDHGMNM@D?3?2uefi_specs_personal_collecti@ 000000000000b8e0     XhciDxe:XhciReg.obj
 0002:00000b10       ??_C@_0CM@JPOBFDAP@XhcReadOpReg?3?5Pci?5Io?5Read?5error@ 000000000000b930     XhciDxe:XhciReg.obj
 0002:00000b40       ??_C@_0CN@CMIJKGHO@XhcWriteOpReg?3?5Pci?5Io?5Write?5err@ 000000000000b960     XhciDxe:XhciReg.obj
 0002:00000b70       ??_C@_0BA@MBBPPMKO@Xhc?9?$DODBOff?5?$CB?$DN?50@ 000000000000b990     XhciDxe:XhciReg.obj
 0002:00000b80       ??_C@_0BB@KPINHBLN@Xhc?9?$DORTSOff?5?$CB?$DN?50@ 000000000000b9a0     XhciDxe:XhciReg.obj
 0002:00000b98       ??_C@_0DB@IFAACAHF@XhcReadRuntimeReg?3?5Pci?5Io?5Read?5@ 000000000000b9b8     XhciDxe:XhciReg.obj
 0002:00000bd0       ??_C@_0DC@EHFJCKNE@XhcWriteRuntimeReg?3?5Pci?5Io?5Writ@ 000000000000b9f0     XhciDxe:XhciReg.obj
 0002:00000c08       ??_C@_0BI@EPPCPOPC@Xhc?9?$DOExtCapRegBase?5?$CB?$DN?50@ 000000000000ba28     XhciDxe:XhciReg.obj
 0002:00000c20       ??_C@_0DA@HICKKCOD@XhcReadExtCapReg?3?5Pci?5Io?5Read?5e@ 000000000000ba40     XhciDxe:XhciReg.obj
 0002:00000c50       ??_C@_0DB@HIBCMEME@XhcWriteExtCapReg?3?5Pci?5Io?5Write@ 000000000000ba70     XhciDxe:XhciReg.obj
 0002:00000c88       ??_C@_0DD@PGCDEBND@XhcSetBiosOwnership?3?5called?5to?5@ 000000000000baa8     XhciDxe:XhciReg.obj
 0002:00000cc0       ??_C@_0DH@HBOEBBF@XhcClearBiosOwnership?3?5called?5t@ 000000000000bae0     XhciDxe:XhciReg.obj
 0002:00000cf8       ??_C@_0N@KGNPLPNA@XhcResetHC?$CB?6@ 000000000000bb18     XhciDxe:XhciReg.obj
 0002:00000d08       ??_C@_0BO@GGHOLLHH@XhcCmdTransfer?3?5HC?5is?5halted?6@ 000000000000bb28     XhciDxe:XhciSched.obj
 0002:00000d28       ??_C@_0CG@NNKNFLAA@XhcCmdTransfer?3?5failed?5to?5creat@ 000000000000bb48     XhciDxe:XhciSched.obj
 0002:00000d50       ??_C@_0DI@DLGADPCD@XhcCreateUrb?3?5XhcCreateTransfer@ 000000000000bb70     XhciDxe:XhciSched.obj
 0002:00000d88       ??_C@_08NCNAOHAD@Dci?5?$DM?532@ 000000000000bba8     XhciDxe:XhciSched.obj
 0002:00000da0       ??_C@_0FB@PJFCBOEJ@D?3?2uefi_specs_personal_collecti@ 000000000000bbc0     XhciDxe:XhciSched.obj
 0002:00000df8       ??_C@_0CO@MCFHCENI@XhcCreateTransferTrb?3?5Fail?5to?5m@ 000000000000bc18     XhciDxe:XhciSched.obj
 0002:00000e30       ??_C@_0EH@CKIEGEBP@XhcCreateTransferTrb?3?5Direction@ 000000000000bc50     XhciDxe:XhciSched.obj
 0002:00000e78       ??_C@_0BC@FEDIJHFF@?$CI?$CIBOOLEAN?$CJ?$CI0?$DN?$DN1?$CJ?$CJ@ 000000000000bc98     XhciDxe:XhciSched.obj
 0002:00000e90       ??_C@_0BM@PFLBPNJC@Not?5supported?5EPType?50x?$CFx?$CB?6@ 000000000000bcb0     XhciDxe:XhciSched.obj
 0002:00000eb0       ??_C@_0BN@IMFCFFGJ@Xhc?9?$DOMemPool?5?$CB?$DN?5?$CI?$CIvoid?5?$CK?$CJ?50?$CJ@ 000000000000bcd0     XhciDxe:XhciSched.obj
 0002:00000ed0       ??_C@_0CP@MDJOFIKN@Xhc?9?$DOMaxSlotsEn?5?$DO?$DN?51?5?$CG?$CG?5Xhc?9?$DOMa@ 000000000000bcf0     XhciDxe:XhciSched.obj
 0002:00000f00       ??_C@_0BG@OCBEGJNE@Dcbaa?5?$CB?$DN?5?$CI?$CIvoid?5?$CK?$CJ?50?$CJ@ 000000000000bd20     XhciDxe:XhciSched.obj
 0002:00000f18       ??_C@_0CA@JIDGCCG@ScratchEntryMap?5?$CB?$DN?5?$CI?$CIvoid?5?$CK?$CJ?50?$CJ@ 000000000000bd38     XhciDxe:XhciSched.obj
 0002:00000f38       ??_C@_0BN@BODOHAL@ScratchEntry?5?$CB?$DN?5?$CI?$CIvoid?5?$CK?$CJ?50?$CJ@ 000000000000bd58     XhciDxe:XhciSched.obj
 0002:00000f58       ??_C@_0BJ@EKJPGII@XhcInitSched?3DCBAA?$DN0x?$CFx?6@ 000000000000bd78     XhciDxe:XhciSched.obj
 0002:00000f78       ??_C@_0BJ@GBBOLFPK@?$CICmdRingPhy?5?$CG?50x3F?$CJ?5?$DN?$DN?50@ 000000000000bd98     XhciDxe:XhciSched.obj
 0002:00000f98       ??_C@_0DL@OBKPODJO@XhcInitSched?3?5Created?5CMD?5ring?5@ 000000000000bdb8     XhciDxe:XhciSched.obj
 0002:00000fd8       ??_C@_0CE@PFCAGJG@Recovery?5Halted?5Slot?5?$DN?5?$CFx?0Dci?5?$DN@ 000000000000bdf8     XhciDxe:XhciSched.obj
 0002:00001000       ??_C@_0DO@OBONFCJO@XhcRecoverHaltedEndpoint?3?5Reset@ 000000000000be20     XhciDxe:XhciSched.obj
 0002:00001040       ??_C@_0FB@CABAAMNN@XhcRecoverHaltedEndpoint?3?5Set?5T@ 000000000000be60     XhciDxe:XhciSched.obj
 0002:00001098       ??_C@_0BJ@KCJKKIKI@Stop?5Slot?5?$DN?5?$CFx?0Dci?5?$DN?5?$CFx?6@ 000000000000beb8     XhciDxe:XhciSched.obj
 0002:000010b8       ??_C@_0DO@BNCPJAFH@XhcDequeueTrbFromEndpoint?3?5Stop@ 000000000000bed8     XhciDxe:XhciSched.obj
 0002:00001100       ??_C@_0FD@EJEOPDIB@XhcDequeueTrbFromEndpoint?3?5Pend@ 000000000000bf20     XhciDxe:XhciSched.obj
 0002:00001160       ??_C@_0FC@PKHBNMCJ@XhcDequeueTrbFromEndpoint?3?5Set?5@ 000000000000bf80     XhciDxe:XhciSched.obj
 0002:000011b8       ??_C@_0BK@BDDHKJNJ@EventRing?5?$CB?$DN?5?$CI?$CIvoid?5?$CK?$CJ?50?$CJ@ 000000000000bfd8     XhciDxe:XhciSched.obj
 0002:000011d8       ??_C@_0BE@MKMIHFDD@Buf?5?$CB?$DN?5?$CI?$CIvoid?5?$CK?$CJ?50?$CJ@ 000000000000bff8     XhciDxe:XhciSched.obj
 0002:000011f0       ??_C@_0BJ@MDDGHBKC@?$CI?$CIUINTN?$CJBuf?5?$CG?50x3F?$CJ?5?$DN?$DN?50@ 000000000000c010     XhciDxe:XhciSched.obj
 0002:00001210       ??_C@_0CC@OFNKLLB@CheckedTrb?5?$DN?$DN?5Urb?9?$DORing?9?$DORingSe@ 000000000000c030     XhciDxe:XhciSched.obj
 0002:00001238       ??_C@_0CP@EOCOMBDJ@?$CIXhc?5?$CB?$DN?5?$CI?$CIvoid?5?$CK?$CJ?50?$CJ?$CJ?5?$CG?$CG?5?$CIUrb?5?$CB@ 000000000000c058     XhciDxe:XhciSched.obj
 0002:00001268       ??_C@_0DD@KEDAAOMP@XhcCheckUrbResult?3?5STALL_ERROR?$CB@ 000000000000c088     XhciDxe:XhciSched.obj
 0002:000012a0       ??_C@_0DE@CIPANNH@XhcCheckUrbResult?3?5BABBLE_ERROR@ 000000000000c0c0     XhciDxe:XhciSched.obj
 0002:000012d8       ??_C@_0DC@FNFPOOIH@XhcCheckUrbResult?3?5ERR_BUFFER?$CB?5@ 000000000000c0f8     XhciDxe:XhciSched.obj
 0002:00001310       ??_C@_0DJ@ELOEFPDB@XhcCheckUrbResult?3?5TRANSACTION_@ 000000000000c130     XhciDxe:XhciSched.obj
 0002:00001350       ??_C@_0CK@KKIOIFEH@XhcCheckUrbResult?3?5short?5packet@ 000000000000c170     XhciDxe:XhciSched.obj
 0002:00001380       ??_C@_0DE@DEJFHKNJ@Transfer?5Default?5Error?5Occur?$CB?5C@ 000000000000c1a0     XhciDxe:XhciSched.obj
 0002:000013b8       ??_C@_0DL@FGIPKPOL@XhciDelAsyncIntTransfer?3?5XhcDeq@ 000000000000c1d8     XhciDxe:XhciSched.obj
 0002:000013f8       ??_C@_0DP@NOHAFAKP@XhciDelAllAsyncIntTransfers?3?5Xh@ 000000000000c218     XhciDxe:XhciSched.obj
 0002:00001438       ??_C@_0BL@CLLFGMOL@XhciInsertAsyncIntTransfer@ 000000000000c258     XhciDxe:XhciSched.obj
 0002:00001458       ??_C@_0BP@GIPFFKAL@?$CFa?3?5failed?5to?5allocate?5buffer?6@ 000000000000c278     XhciDxe:XhciSched.obj
 0002:00001478       ??_C@_0BK@DOBJMDKO@?$CFa?3?5failed?5to?5create?5URB?6@ 000000000000c298     XhciDxe:XhciSched.obj
 0002:000014a0       ??_C@_0EA@LDLEFFLF@XhcMonitorAsyncRequests?3?5Fail?5t@ 000000000000c2c0     XhciDxe:XhciSched.obj
 0002:000014e0       ??_C@_0BI@NBJLCPFM@EvtRing?5?$CB?$DN?5?$CI?$CIvoid?5?$CK?$CJ?50?$CJ@ 000000000000c300     XhciDxe:XhciSched.obj
 0002:000014f8       ??_C@_0BI@EKFAKKJF@TrsRing?5?$CB?$DN?5?$CI?$CIvoid?5?$CK?$CJ?50?$CJ@ 000000000000c318     XhciDxe:XhciSched.obj
 0002:00001510       ??_C@_0BH@IPFEEL@TrsTrb?5?$CB?$DN?5?$CI?$CIvoid?5?$CK?$CJ?50?$CJ@ 000000000000c330     XhciDxe:XhciSched.obj
 0002:00001528       ??_C@_0BO@HAFAMKHF@?$CI?$CILINK_TRB?5?$CK?$CJTrsTrb?$CJ?9?$DOTC?5?$CB?$DN?50@ 000000000000c348     XhciDxe:XhciSched.obj
 0002:00001548       ??_C@_0BM@CDIMGDJI@Index?5?$CB?$DN?5TrsRing?9?$DOTrbNumber@ 000000000000c368     XhciDxe:XhciSched.obj
 0002:00001568       ??_C@_0DE@JHHHHJLN@Command?5Ring?5Control?5set?5Comman@ 000000000000c388     XhciDxe:XhciSched.obj
 0002:000015a0       ??_C@_0DK@CADNPNOG@XhcInitializeDeviceSlot?3?5Enable@ 000000000000c3c0     XhciDxe:XhciSched.obj
 0002:000015e0       ??_C@_0CC@LOEPGABN@EvtTrb?9?$DOSlotId?5?$DM?$DN?5Xhc?9?$DOMaxSlots@ 000000000000c400     XhciDxe:XhciSched.obj
 0002:00001608       ??_C@_0CO@LEFCLMMI@Enable?5Slot?5Successfully?0?5The?5S@ 000000000000c428     XhciDxe:XhciSched.obj
 0002:00001638       ??_C@_0M@EPMOJKGK@SlotId?5?$CB?$DN?50@ 000000000000c458     XhciDxe:XhciSched.obj
 0002:00001648       ??_C@_0BN@LJONCGAN@InputContext?5?$CB?$DN?5?$CI?$CIvoid?5?$CK?$CJ?50?$CJ@ 000000000000c468     XhciDxe:XhciSched.obj
 0002:00001668       ??_C@_0CC@IKCMEOJ@?$CI?$CIUINTN?$CJInputContext?5?$CG?50x3F?$CJ?5?$DN?$DN@ 000000000000c488     XhciDxe:XhciSched.obj
 0002:00001690       ??_C@_0BC@CHBJICNE@ParentSlotId?5?$CB?$DN?50@ 000000000000c4b0     XhciDxe:XhciSched.obj
 0002:000016a8       ??_C@_0BO@JLCJGJNB@OutputContext?5?$CB?$DN?5?$CI?$CIvoid?5?$CK?$CJ?50?$CJ@ 000000000000c4c8     XhciDxe:XhciSched.obj
 0002:000016c8       ??_C@_0CD@MOAPDFOE@?$CI?$CIUINTN?$CJOutputContext?5?$CG?50x3F?$CJ?5?$DN@ 000000000000c4e8     XhciDxe:XhciSched.obj
 0002:000016f0       ??_C@_0CG@DGPMFKHD@?5?5?5?5Address?5?$CFd?5assigned?5success@ 000000000000c510     XhciDxe:XhciSched.obj
 0002:00001718       ??_C@_0DM@JJFBIJNI@?5?5?5?5Slot?5?$CFd?5address?5not?5assigne@ 000000000000c538     XhciDxe:XhciSched.obj
 0002:00001758       ??_C@_0DM@BAMANABN@XhcInitializeDeviceSlot64?3?5Enab@ 000000000000c578     XhciDxe:XhciSched.obj
 0002:00001798       ??_C@_0DK@JIIELMJA@XhcDisableSlotCmd?3?5failed?5to?5di@ 000000000000c5b8     XhciDxe:XhciSched.obj
 0002:000017d8       ??_C@_0BJ@IELMHOFK@Disable?5device?5slot?5?$CFd?$CB?6@ 000000000000c5f8     XhciDxe:XhciSched.obj
 0002:000017f8       ??_C@_0DN@LLFGKFFI@XhcDisableSlotCmd?3?5Disable?5Slot@ 000000000000c618     XhciDxe:XhciSched.obj
 0002:00001838       ??_C@_0CJ@MHMJBCGE@Endpoint?$FL?$CFx?$FN?3?5Created?5BULK?5ring@ 000000000000c658     XhciDxe:XhciSched.obj
 0002:00001868       ??_C@_0CA@JCMJLNHI@Interval?5?$DO?$DN?51?5?$CG?$CG?5Interval?5?$DM?$DN?516@ 000000000000c688     XhciDxe:XhciSched.obj
 0002:00001890       ??_C@_0FH@HPACNCGL@XhcInitializeEndpointContext?3?5U@ 000000000000c6b0     XhciDxe:XhciSched.obj
 0002:000018e8       ??_C@_0O@MGEOCDF@Interval?5?$CB?$DN?50@ 000000000000c708     XhciDxe:XhciSched.obj
 0002:000018f8       ??_C@_0CI@KAJKECOE@Endpoint?$FL?$CFx?$FN?3?5Created?5INT?5ring?5@ 000000000000c718     XhciDxe:XhciSched.obj
 0002:00001920       ??_C@_0FL@JDOOOMDA@XhcInitializeEndpointContext?3?5U@ 000000000000c740     XhciDxe:XhciSched.obj
 0002:00001980       ??_C@_0FB@BBMDIGDL@XhcInitializeEndpointContext?3?5U@ 000000000000c7a0     XhciDxe:XhciSched.obj
 0002:000019d8       ??_C@_0CL@IPICMFKO@Endpoint64?$FL?$CFx?$FN?3?5Created?5BULK?5ri@ 000000000000c7f8     XhciDxe:XhciSched.obj
 0002:00001a10       ??_C@_0FJ@MNFNJDFH@XhcInitializeEndpointContext64?3@ 000000000000c830     XhciDxe:XhciSched.obj
 0002:00001a70       ??_C@_0CK@FJHLMDED@Endpoint64?$FL?$CFx?$FN?3?5Created?5INT?5rin@ 000000000000c890     XhciDxe:XhciSched.obj
 0002:00001aa0       ??_C@_0FN@EAAHNPOF@XhcInitializeEndpointContext64?3@ 000000000000c8c0     XhciDxe:XhciSched.obj
 0002:00001b00       ??_C@_0FD@NAEHMLO@XhcInitializeEndpointContext64?3@ 000000000000c920     XhciDxe:XhciSched.obj
 0002:00001b58       ??_C@_0BL@PDDKCBEA@ConfigDesc?5?$CB?$DN?5?$CI?$CIvoid?5?$CK?$CJ?50?$CJ@ 000000000000c978     XhciDxe:XhciSched.obj
 0002:00001b78       ??_C@_0BE@JMMGBODG@Configure?5Endpoint?6@ 000000000000c998     XhciDxe:XhciSched.obj
 0002:00001b90       ??_C@_0DG@CFMFCFKC@XhcSetConfigCmd?3?5Config?5Endpoin@ 000000000000c9b0     XhciDxe:XhciSched.obj
 0002:00001bc8       ??_C@_0DI@IICBKEIP@XhcSetConfigCmd64?3?5Config?5Endpo@ 000000000000c9e8     XhciDxe:XhciSched.obj
 0002:00001c00       ??_C@_0CK@PNCADFCP@XhcStopEndpoint?3?5Slot?5?$DN?50x?$CFx?0?5D@ 000000000000ca20     XhciDxe:XhciSched.obj
 0002:00001c30       ??_C@_0CA@GFFNBBID@Xhc?9?$DOPendingUrb?5?$DN?$DN?5?$CI?$CIvoid?5?$CK?$CJ?50?$CJ@ 000000000000ca50     XhciDxe:XhciSched.obj
 0002:00001c50       ??_C@_0DE@OCCMGJGC@XhcStopEndpoint?3?5Stop?5Endpoint?5@ 000000000000ca70     XhciDxe:XhciSched.obj
 0002:00001c88       ??_C@_0CL@EJPBHNPM@XhcResetEndpoint?3?5Slot?5?$DN?50x?$CFx?0?5@ 000000000000caa8     XhciDxe:XhciSched.obj
 0002:00001cb8       ??_C@_0DG@FKBCLNJC@XhcResetEndpoint?3?5Reset?5Endpoin@ 000000000000cad8     XhciDxe:XhciSched.obj
 0002:00001cf0       ??_C@_0DN@CHJAJNNB@XhcSetTrDequeuePointer?3?5Slot?5?$DN?5@ 000000000000cb10     XhciDxe:XhciSched.obj
 0002:00001d30       ??_C@_0EE@JNGMALIL@XhcSetTrDequeuePointer?3?5Set?5TR?5@ 000000000000cb50     XhciDxe:XhciSched.obj
 0002:00001d78       ??_C@_0CC@BCPPAFJF@SetInterface?3?5Configure?5Endpoin@ 000000000000cb98     XhciDxe:XhciSched.obj
 0002:00001da0       ??_C@_0DD@JHPBGJIF@SetInterface?3?5Config?5Endpoint?5F@ 000000000000cbc0     XhciDxe:XhciSched.obj
 0002:00001dd8       ??_C@_0CE@KPODALEA@SetInterface64?3?5Configure?5Endpo@ 000000000000cbf8     XhciDxe:XhciSched.obj
 0002:00001e00       ??_C@_0DF@CNIOKJGF@SetInterface64?3?5Config?5Endpoint@ 000000000000cc20     XhciDxe:XhciSched.obj
 0002:00001e38       ??_C@_0CH@FADINCIA@Xhc?9?$DOUsbDevContext?$FLSlotId?$FN?4Slot@ 000000000000cc58     XhciDxe:XhciSched.obj
 0002:00001e60       ??_C@_0BC@BAJLNKNM@Evaluate?5context?6@ 000000000000cc80     XhciDxe:XhciSched.obj
 0002:00001e78       ??_C@_0DK@HPNAHFBK@XhcEvaluateContext?3?5Evaluate?5Co@ 000000000000cc98     XhciDxe:XhciSched.obj
 0002:00001eb8       ??_C@_0DM@FDDKCCAE@XhcEvaluateContext64?3?5Evaluate?5@ 000000000000ccd8     XhciDxe:XhciSched.obj
 0002:00001ef8       ??_C@_0BM@IHAKFBIF@Configure?5Hub?5Slot?5Context?6@ 000000000000cd18     XhciDxe:XhciSched.obj
 0002:00001f18       ??_C@_0DK@NEMLNIJA@XhcConfigHubContext?3?5Config?5End@ 000000000000cd38     XhciDxe:XhciSched.obj
 0002:00001f58       ??_C@_0DM@KGFNIPFB@XhcConfigHubContext64?3?5Config?5E@ 000000000000cd78     XhciDxe:XhciSched.obj
 0002:00001f94       ??_C@_06DALJLGPG@eng?$DLen@ 000000000000cdb4     XhciDxe:ComponentName.obj
 0002:00001fa0       ??_C@_1CA@KCGHEHFE@?$AAU?$AAs?$AAb?$AA?5?$AAX?$AAh?$AAc?$AAi?$AA?5?$AAD?$AAr?$AAi?$AAv?$AAe?$AAr@ 000000000000cdc0     XhciDxe:ComponentName.obj
 0002:00001fc0       ??_C@_0FF@GFDMBHEB@D?3?2uefi_specs_personal_collecti@ 000000000000cde0     XhciDxe:ComponentName.obj
 0002:00002020       ??_C@_0FA@JJDMEDPJ@D?3?2uefi_specs_personal_collecti@ 000000000000ce40     XhciDxe:UsbHcMem.obj
 0002:00002070       ??_C@_0DC@CNNOCMEJ@?$CIPool?5?$CB?$DN?5?$CI?$CIvoid?5?$CK?$CJ?50?$CJ?$CJ?5?$CG?$CG?5?$CIBloc@ 000000000000ce90     XhciDxe:UsbHcMem.obj
 0002:000020a8       ??_C@_0BN@OMBIEECJ@?$CIBlock?5?$CB?$DN?50?$CJ?5?$CG?$CG?5?$CIUnits?5?$CB?$DN?50?$CJ@ 000000000000cec8     XhciDxe:UsbHcMem.obj
 0002:000020d0       ??_C@_0FF@OFHMFIGA@?$CB?$CI?$CIBOOLEAN?$CJ?$CI?$CI?$CIBlock?9?$DOBits?$FLByte?$FN@ 000000000000cef0     XhciDxe:UsbHcMem.obj
 0002:00002128       ??_C@_0BI@BGPKDIHO@?$CIBlock?5?$CB?$DN?5?$CI?$CIvoid?5?$CK?$CJ?50?$CJ?$CJ@ 000000000000cf48     XhciDxe:UsbHcMem.obj
 0002:00002140       ??_C@_0DC@EAPIJOJM@?$CIHead?5?$CB?$DN?5?$CI?$CIvoid?5?$CK?$CJ?50?$CJ?$CJ?5?$CG?$CG?5?$CIBloc@ 000000000000cf60     XhciDxe:UsbHcMem.obj
 0002:00002178       ??_C@_0DK@PAHHKOCO@?$CIHead?5?$CB?$DN?5?$CI?$CIvoid?5?$CK?$CJ?50?$CJ?$CJ?5?$CG?$CG?5?$CIBloc@ 000000000000cf98     XhciDxe:UsbHcMem.obj
 0002:000021b8       ??_C@_0BL@MJPAGONO@Pool?9?$DOHead?5?$CB?$DN?5?$CI?$CIvoid?5?$CK?$CJ?50?$CJ@ 000000000000cfd8     XhciDxe:UsbHcMem.obj
 0002:000021d8       ??_C@_0BF@FBEMMEEB@Head?5?$CB?$DN?5?$CI?$CIvoid?5?$CK?$CJ?50?$CJ@ 000000000000cff8     XhciDxe:UsbHcMem.obj
 0002:000021f0       ??_C@_0CM@NABJHJIO@UsbHcAllocateMem?3?5failed?5to?5all@ 000000000000d010     XhciDxe:UsbHcMem.obj
 0002:00002220       ??_C@_0FE@FKGLAPJI@?$CI?$CIBOOLEAN?$CJ?$CI?$CI?$CIBlock?9?$DOBits?$FLByte?$FN?$CJ@ 000000000000d040     XhciDxe:UsbHcMem.obj
 0002:00002278       ??_C@_0BG@MJAHJKJ@Block?5?$CB?$DN?5?$CI?$CIvoid?5?$CK?$CJ?50?$CJ@ 000000000000d098     XhciDxe:UsbHcMem.obj
 0002:00002290       ??_C@_0CD@GECBLADO@?$CIAlignment?5?$CG?5?$CIAlignment?5?9?51?$CJ?$CJ?5?$DN@ 000000000000d0b0     XhciDxe:UsbHcMem.obj
 0002:000022b8       ??_C@_0BC@BDMGDFME@RealPages?5?$DO?5Pages@ 000000000000d0d8     XhciDxe:UsbHcMem.obj
 0002:000022d0       ??_C@_0L@LBCNCHJA@Pages?5?$CB?$DN?50@ 000000000000d0f0     XhciDxe:UsbHcMem.obj
 0002:000022e0       ??_C@_0ED@MKGCMJG@?$CILength?5?9?51?$CJ?5?$DM?$DN?5?$CI0xFFFFFFFFFFFF@ 000000000000d100     BaseMemoryLibRepStr:CopyMemWrapper.obj
 0002:00002330       ??_C@_0FM@IDPIEKJH@D?3?2uefi_specs_personal_collecti@ 000000000000d150     BaseMemoryLibRepStr:CopyMemWrapper.obj
 0002:00002390       ??_C@_0DO@MAOBOFEG@?$CILength?5?9?51?$CJ?5?$DM?$DN?5?$CI0xFFFFFFFFFFFF@ 000000000000d1b0     BaseMemoryLibRepStr:CopyMemWrapper.obj
 0002:000023d0       ??_C@_0BH@IACGKAP@Buffer?5?$CB?$DN?5?$CI?$CIvoid?5?$CK?$CJ?50?$CJ@ 000000000000d1f0     BaseMemoryLibRepStr:ZeroMemWrapper.obj
 0002:000023f0       ??_C@_0FM@DHFKCLFA@D?3?2uefi_specs_personal_collecti@ 000000000000d210     BaseMemoryLibRepStr:ZeroMemWrapper.obj
 0002:00002450       ??_C@_0DG@EEENIGGL@Length?5?$DM?$DN?5?$CI0xFFFFFFFFFFFFFFFFUL@ 000000000000d270     BaseMemoryLibRepStr:ZeroMemWrapper.obj
 0002:00002488       ??_C@_0BF@NJNGJMPC@List?5?$CB?$DN?5?$CI?$CIvoid?5?$CK?$CJ?50?$CJ@ 000000000000d2a8     BaseLib:LinkedList.obj
 0002:000024a0       ??_C@_0EM@NCJPOFNN@D?3?2uefi_specs_personal_collecti@ 000000000000d2c0     BaseLib:LinkedList.obj
 0002:000024f0       ??_C@_0CC@KDLPLAED@List?9?$DOForwardLink?5?$CB?$DN?5?$CI?$CIvoid?5?$CK?$CJ?5@ 000000000000d310     BaseLib:LinkedList.obj
 0002:00002518       ??_C@_0BP@IJJCCMAK@List?9?$DOBackLink?5?$CB?$DN?5?$CI?$CIvoid?5?$CK?$CJ?50?$CJ@ 000000000000d338     BaseLib:LinkedList.obj
 0002:00002538       ??_C@_0BJ@NJABNCDK@ListHead?5?$CB?$DN?5?$CI?$CIvoid?5?$CK?$CJ?50?$CJ@ 000000000000d358     BaseLib:LinkedList.obj
 0002:00002558       ??_C@_0CG@LGIALJFK@InternalBaseLibIsListValid?5?$CILis@ 000000000000d378     BaseLib:LinkedList.obj
 0002:00002580       ??_C@_0BF@NMBJJECB@?$CBIsListEmpty?5?$CIEntry?$CJ@ 000000000000d3a0     BaseLib:LinkedList.obj
 0002:00002598       ??_C@_0N@KGHEHMDL@Divisor?5?$CB?$DN?50@ 000000000000d3b8     BaseLib:DivU64x64Remainder.obj
 0002:000025b0       ??_C@_0FE@JMCJLPOO@D?3?2uefi_specs_personal_collecti@ 000000000000d3d0     BaseLib:DivU64x64Remainder.obj
 0002:00002608       ??_C@_0L@MEMPDLHB@Count?5?$DM?564@ 000000000000d428     BaseLib:RShiftU64.obj
 0002:00002620       ??_C@_0EL@BPCLAPLB@D?3?2uefi_specs_personal_collecti@ 000000000000d440     BaseLib:RShiftU64.obj
 0002:00002670       ??_C@_0BH@LKMBFCBF@Format?5?$CB?$DN?5?$CI?$CIvoid?5?$CK?$CJ?50?$CJ@ 000000000000d490     BaseDebugLibSerialPort:DebugLib.obj
 0002:00002690       ??_C@_0FJ@BNNHJMAJ@D?3?2uefi_specs_personal_collecti@ 000000000000d4b0     BaseDebugLibSerialPort:DebugLib.obj
 0002:000026f0       ??_C@_0BI@NOCKJDBJ@ASSERT?5?$FL?$CFa?$FN?5?$CFa?$CI?$CFd?$CJ?3?5?$CFa?6@ 000000000000d510     BaseDebugLibSerialPort:DebugLib.obj
 0002:00002708       ??_C@_0BN@COECPDCC@gImageHandle?5?$CB?$DN?5?$CI?$CIvoid?5?$CK?$CJ?50?$CJ@ 000000000000d528     UefiBootServicesTableLib:UefiBootServicesTableLib.obj
 0002:00002730       ??_C@_0GL@PJCPJLGM@D?3?2uefi_specs_personal_collecti@ 000000000000d550     UefiBootServicesTableLib:UefiBootServicesTableLib.obj
 0002:000027a0       ??_C@_0BE@DGNHAHIL@gST?5?$CB?$DN?5?$CI?$CIvoid?5?$CK?$CJ?50?$CJ@ 000000000000d5c0     UefiBootServicesTableLib:UefiBootServicesTableLib.obj
 0002:000027b8       ??_C@_0BE@BDFJLGLN@gBS?5?$CB?$DN?5?$CI?$CIvoid?5?$CK?$CJ?50?$CJ@ 000000000000d5d8     UefiBootServicesTableLib:UefiBootServicesTableLib.obj
 0002:000027d0       ??_C@_0GF@KMHDEKMA@D?3?2uefi_specs_personal_collecti@ 000000000000d5f0     UefiMemoryAllocationLib:MemoryAllocationLib.obj
 0002:00002838       ??_C@_0DO@GEEICOOO@AllocationSize?5?$DM?$DN?5?$CI0xFFFFFFFFFF@ 000000000000d658     UefiMemoryAllocationLib:MemoryAllocationLib.obj
 0002:00002878       ??_C@_0BE@OBDFIHND@gRT?5?$CB?$DN?5?$CI?$CIvoid?5?$CK?$CJ?50?$CJ@ 000000000000d698     UefiRuntimeServicesTableLib:UefiRuntimeServicesTableLib.obj
 0002:00002890       ??_C@_0HB@NCAPNEDO@D?3?2uefi_specs_personal_collecti@ 000000000000d6b0     UefiRuntimeServicesTableLib:UefiRuntimeServicesTableLib.obj
 0002:00002910       ??_C@_0GP@HEOOPGAM@D?3?2uefi_specs_personal_collecti@ 000000000000d730     UefiDevicePathLibDevicePathProtocol:UefiDevicePathLib.obj
 0002:00002980       ??_C@_0DC@CNNBPJA@mDevicePathLibDevicePathUtiliti@ 000000000000d7a0     UefiDevicePathLibDevicePathProtocol:UefiDevicePathLib.obj
 0002:000029b8       ??_C@_0BL@JFODOCGB@DevicePath?5?$CB?$DN?5?$CI?$CIvoid?5?$CK?$CJ?50?$CJ@ 000000000000d7d8     UefiDevicePathLibDevicePathProtocol:UefiDevicePathLib.obj
 0002:000029e0       ??_C@_0FB@KFBGMLJM@D?3?2uefi_specs_personal_collecti@ 000000000000d800     UefiLib:UefiDriverModel.obj
 0002:00002a40       ??_C@_0EK@CGIIDOCH@D?3?2uefi_specs_personal_collecti@ 000000000000d860     DxeHobLib:HobLib.obj
 0002:00002a90       ??_C@_0BJ@OBFMLLDO@mHobList?5?$CB?$DN?5?$CI?$CIvoid?5?$CK?$CJ?50?$CJ@ 000000000000d8b0     DxeHobLib:HobLib.obj
 0002:00002ab0       ??_C@_0BJ@NOLLDKJB@HobStart?5?$CB?$DN?5?$CI?$CIvoid?5?$CK?$CJ?50?$CJ@ 000000000000d8d0     DxeHobLib:HobLib.obj
 0002:00002ad0       ??_C@_0GK@HIFHPALF@D?3?2uefi_specs_personal_collecti@ 000000000000d8f0     DxeReportStatusCodeLib:ReportStatusCodeLib.obj
 0002:00002b40       ??_C@_0BN@HMHGLLOO@ExtendedData?5?$CB?$DN?5?$CI?$CIvoid?5?$CK?$CJ?50?$CJ@ 000000000000d960     DxeReportStatusCodeLib:ReportStatusCodeLib.obj
 0002:00002b60       ??_C@_0BG@BPIKKLEE@ExtendedDataSize?5?$CB?$DN?50@ 000000000000d980     DxeReportStatusCodeLib:ReportStatusCodeLib.obj
 0002:00002b78       ??_C@_0DN@HHIHPHHB@?$CB?$CI?$CIExtendedData?5?$DN?$DN?5?$CI?$CIvoid?5?$CK?$CJ?50?$CJ@ 000000000000d998     DxeReportStatusCodeLib:ReportStatusCodeLib.obj
 0002:00002bb8       ??_C@_0DN@BBBIFINB@?$CB?$CI?$CIExtendedData?5?$CB?$DN?5?$CI?$CIvoid?5?$CK?$CJ?50?$CJ@ 000000000000d9d8     DxeReportStatusCodeLib:ReportStatusCodeLib.obj
 0002:00002bf8       ??_C@_0BP@LHBKJBMC@PlatformInfoHob?5is?5not?5found?4?6@ 000000000000da18     DxeAcpiTimerLib:DxeAcpiTimerLib.obj
 0002:00002c20       ??_C@_0FH@PGONMIHN@D?3?2uefi_specs_personal_collecti@ 000000000000da40     DxeAcpiTimerLib:DxeAcpiTimerLib.obj
 0002:00002c78       ??_C@_0BI@HAGPDMHJ@AcpiTimerLibConstructor@ 000000000000da98     DxeAcpiTimerLib:DxeAcpiTimerLib.obj
 0002:00002c90       ??_C@_0CL@DGCOIACG@?$CFa?3?5Unknown?5Host?5Bridge?5Device?5@ 000000000000dab0     DxeAcpiTimerLib:DxeAcpiTimerLib.obj
 0002:00002cc0       ??_C@_0EN@ENFGNHA@D?3?2uefi_specs_personal_collecti@ 000000000000dae0     DxePcdLib:DxePcdLib.obj
 0002:00002d10       ??_C@_0BF@OOKDELHM@mPcd?5?$CB?$DN?5?$CI?$CIvoid?5?$CK?$CJ?50?$CJ@ 000000000000db30     DxePcdLib:DxePcdLib.obj
 0002:00002d28       ??_C@_0BH@MAAHKCPC@String?5?$CB?$DN?5?$CI?$CIvoid?5?$CK?$CJ?50?$CJ@ 000000000000db48     BaseLib:String.obj
 0002:00002d40       ??_C@_0EI@LOLLHGDK@D?3?2uefi_specs_personal_collecti@ 000000000000db60     BaseLib:String.obj
 0002:00002d88       ??_C@_0CC@GFNLNIOC@?$CI?$CIUINTN?$CJString?5?$CG?50x00000001?$CJ?5?$DN?$DN@ 000000000000dba8     BaseLib:String.obj
 0002:00002db0       ??_C@_0DK@EOJCOAME@Length?5?$DM?5_gPcd_FixedAtBuild_Pcd@ 000000000000dbd0     BaseLib:String.obj
 0002:00002df0       ??_C@_0DI@MDIKFADO@Length?5?$DM?5_gPcd_FixedAtBuild_Pcd@ 000000000000dc10     BaseLib:String.obj
 0002:00002e28       ??_C@_0BL@IKFBNFIL@AsciiStrSize?5?$CIFirstString?$CJ@ 000000000000dc48     BaseLib:String.obj
 0002:00002e48       ??_C@_0BM@EDNOKLLE@AsciiStrSize?5?$CISecondString?$CJ@ 000000000000dc68     BaseLib:String.obj
 0002:00002e68       ??_C@_0DJ@JJHGIFMP@Length?5?$DM?$DN?5_gPcd_FixedAtBuild_Pc@ 000000000000dc88     BaseLib:String.obj
 0002:00002eb0       ??_C@_0EL@GLNKFHII@D?3?2uefi_specs_personal_collecti@ 000000000000dcd0     BaseLib:Unaligned.obj
 0002:00002f00       ??_C@_0FE@LIGPAOFO@D?3?2uefi_specs_personal_collecti@ 000000000000dd20     BaseLib:DivU64x32Remainder.obj
 0002:00002f60       ??_C@_0EM@OAPOMMAE@D?3?2uefi_specs_personal_collecti@ 000000000000dd80     BaseLib:SafeString.obj
 0002:00002fb0       ??_C@_0BJ@CNKJJNE@?$CIBuffer?5?$CB?$DN?5?$CI?$CIvoid?5?$CK?$CJ?50?$CJ?$CJ@ 000000000000ddd0     BaseLib:SafeString.obj
 0002:00002fd0       ??_C@_0FF@GCKLFLDF@D?3?2uefi_specs_personal_collecti@ 000000000000ddf0     BaseIoLibIntrinsicSev:IoLibMsc.obj
 0002:00003028       ??_C@_0BA@HCECIDGN@?$CIPort?5?$CG?53?$CJ?5?$DN?$DN?50@ 000000000000de48     BaseIoLibIntrinsicSev:IoLibMsc.obj
 0002:00003040       ??_C@_0FN@DOAHIAPG@D?3?2uefi_specs_personal_collecti@ 000000000000de60     BaseIoLibIntrinsicSev:IoLibInternalTdx.obj
 0002:000030a0       ??_C@_0BD@OMMAJMCK@?$CIAddress?5?$CG?53?$CJ?5?$DN?$DN?50@ 000000000000dec0     BaseIoLibIntrinsicSev:IoLibInternalTdx.obj
 0002:000030c0       ??_C@_0FH@MODEAFEI@D?3?2uefi_specs_personal_collecti@ 000000000000dee0     BasePrintLib:PrintLibInternal.obj
 0002:00003120       ??_C@_0EB@HDGIDCIO@?$CIBufferSize?5?$DM?$DN?5?$CI_gPcd_FixedAtBu@ 000000000000df40     BasePrintLib:PrintLibInternal.obj
 0002:00003168       ??_C@_0BJ@PPAKKDJG@?$CIFormat?5?$CB?$DN?5?$CI?$CIvoid?5?$CK?$CJ?50?$CJ?$CJ@ 000000000000df88     BasePrintLib:PrintLibInternal.obj
 0002:00003190       ??_C@_0ED@LPDDCECB@?$CIBufferSize?5?$DM?$DN?5?$CI_gPcd_FixedAtBu@ 000000000000dfb0     BasePrintLib:PrintLibInternal.obj
 0002:000031e0       ??_C@_0IM@BFJJFLGB@?$CIStrnLenS?5?$CI?$CICHAR16?5?$CK?$CJFormat?0?5?$CI_@ 000000000000e000     BasePrintLib:PrintLibInternal.obj
 0002:00003270       ??_C@_0ID@PLGJGION@?$CIAsciiStrnLenS?5?$CIFormat?0?5?$CI_gPcd_@ 000000000000e090     BasePrintLib:PrintLibInternal.obj
 0002:000032f8       ??_C@_0O@MLOLIMFM@?$DMnull?5string?$DO@ 000000000000e118     BasePrintLib:PrintLibInternal.obj
 0002:00003308       ??_C@_0M@BJJDNPHK@?$DMnull?5guid?$DO@ 000000000000e128     BasePrintLib:PrintLibInternal.obj
 0002:00003318       ??_C@_0DB@PMLHLBMO@?$CF08x?9?$CF04x?9?$CF04x?9?$CF02x?$CF02x?9?$CF02x?$CF02@ 000000000000e138     BasePrintLib:PrintLibInternal.obj
 0002:00003350       ??_C@_0M@LHGBCIKM@?$DMnull?5time?$DO@ 000000000000e170     BasePrintLib:PrintLibInternal.obj
 0002:00003360       ??_C@_0BK@FCPKCIDD@?$CF02d?1?$CF02d?1?$CF04d?5?5?$CF02d?3?$CF02d@ 000000000000e180     BasePrintLib:PrintLibInternal.obj
 0002:0000337c       ??_C@_04JIMNDDED@?$CF08X@  000000000000e19c     BasePrintLib:PrintLibInternal.obj
 0002:00003384       ??_C@_02PCIJFNDE@?$AN?6@   000000000000e1a4     BasePrintLib:PrintLibInternal.obj
 0002:00003388       ??_C@_01LIIJDEN@?$AN@      000000000000e1a8     BasePrintLib:PrintLibInternal.obj
 0002:00003390       mWarningString             000000000000e1b0     BasePrintLib:PrintLibInternal.obj
 0002:00003460       mErrorString               000000000000e280     BasePrintLib:PrintLibInternal.obj
 0002:00003740       mHexStr                    000000000000e560     BasePrintLib:PrintLibInternal.obj
 0002:00003750       ??_C@_0BO@BAKALPJK@?$CI?$CIAddress?$CJ?5?$CG?5?$HO0xfffffff?$CJ?5?$DN?$DN?50@ 000000000000e570     BasePciExpressLib:PciExpressLib.obj
 0002:00003770       ??_C@_0FJ@LPMKGGAK@D?3?2uefi_specs_personal_collecti@ 000000000000e590     BasePciExpressLib:PciExpressLib.obj
 0002:000037d0       ??_C@_0FB@PDIKDBMH@D?3?2uefi_specs_personal_collecti@ 000000000000e5f0     BasePciCf8Lib:PciCf8Lib.obj
 0002:00003828       ??_C@_0CG@EDKLCMBO@?$CI?$CIAddress?$CJ?5?$CG?5?$CI?$HO0xffff0ff?5?$HM?5?$CI3?$CJ?$CJ@ 000000000000e648     BasePciCf8Lib:PciCf8Lib.obj
 0002:00003850       ??_C@_0CB@GEABOFIF@Failed?5call?5TDCALL_TDINFO?4?5?$CFllx@ 000000000000e670     TdxLib:TdInfo.obj
 0002:00003880       ??_C@_0FC@MAJHMCGF@D?3?2uefi_specs_personal_collecti@ 000000000000e6a0     BaseIoLibIntrinsicSev:IoLib.obj
 0002:00003928       __volatile_metadata        000000000000e748     <linker-defined>
 0003:00000000       gEfiStatusCodeSpecificDataGuid 000000000000e8e0     XhciDxe:AutoGen.obj
 0003:00000010       gEfiStatusCodeRuntimeProtocolGuid 000000000000e8f0     XhciDxe:AutoGen.obj
 0003:00000020       gEfiComponentName2ProtocolGuid 000000000000e900     XhciDxe:AutoGen.obj
 0003:00000030       gPcdProtocolGuid           000000000000e910     XhciDxe:AutoGen.obj
 0003:00000040       gEfiUsb2HcProtocolGuid     000000000000e920     XhciDxe:AutoGen.obj
 0003:00000050       gEfiDevicePathProtocolGuid 000000000000e930     XhciDxe:AutoGen.obj
 0003:00000060       gEfiPciIoProtocolGuid      000000000000e940     XhciDxe:AutoGen.obj
 0003:00000070       gUefiOvmfPkgPlatformInfoGuid 000000000000e950     XhciDxe:AutoGen.obj
 0003:00000080       gEfiDevicePathUtilitiesProtocolGuid 000000000000e960     XhciDxe:AutoGen.obj
 0003:00000090       gEfiHobListGuid            000000000000e970     XhciDxe:AutoGen.obj
 0003:000000a0       gEfiDriverBindingProtocolGuid 000000000000e980     XhciDxe:AutoGen.obj
 0003:000000b0       gEfiEventExitBootServicesGuid 000000000000e990     XhciDxe:AutoGen.obj
 0003:000000c0       gEfiComponentNameProtocolGuid 000000000000e9a0     XhciDxe:AutoGen.obj
 0003:000000d0       gEfiCallerIdGuid           000000000000e9b0     XhciDxe:AutoGen.obj
 0003:000000e0       mUsbHubClearPortChangeMap  000000000000e9c0     XhciDxe:Xhci.obj
 0003:00000108       gXhciDriverBinding         000000000000e9e8     XhciDxe:Xhci.obj
 0003:00000140       mUsbHubPortChangeMap       000000000000ea20     XhciDxe:Xhci.obj
 0003:00000160       mUsbClearPortChangeMap     000000000000ea40     XhciDxe:Xhci.obj
 0003:00000180       mUsbPortChangeMap          000000000000ea60     XhciDxe:Xhci.obj
 0003:000001a0       gXhciUsb2HcTemplate        000000000000ea80     XhciDxe:Xhci.obj
 0003:00000210       mUsbPortStateMap           000000000000eaf0     XhciDxe:Xhci.obj
 0003:00000230       mUsbHubPortStateMap        000000000000eb10     XhciDxe:Xhci.obj
 0003:00000250       gXhciComponentName2        000000000000eb30     XhciDxe:ComponentName.obj
 0003:00000268       gXhciComponentName         000000000000eb48     XhciDxe:ComponentName.obj
 0003:00000280       mXhciDriverNameTable       000000000000eb60     XhciDxe:ComponentName.obj
 0003:000002a8       gST                        000000000000eb88     UefiBootServicesTableLib:UefiBootServicesTableLib.obj
 0003:000002b0       gBS                        000000000000eb90     UefiBootServicesTableLib:UefiBootServicesTableLib.obj
 0003:000002b8       gImageHandle               000000000000eb98     UefiBootServicesTableLib:UefiBootServicesTableLib.obj
 0003:000002c0       gRT                        000000000000eba0     UefiRuntimeServicesTableLib:UefiRuntimeServicesTableLib.obj
 0003:000002c8       mDevicePathLibDevicePathUtilities 000000000000eba8     UefiDevicePathLibDevicePathProtocol:UefiDevicePathLib.obj
 0003:000002d0       mHobList                   000000000000ebb0     DxeHobLib:HobLib.obj
 0003:000002d8       mReportStatusCodeLibStatusCodeProtocol 000000000000ebb8     DxeReportStatusCodeLib:ReportStatusCodeLib.obj
 0003:000002e0       mPcd                       000000000000ebc0     DxePcdLib:DxePcdLib.obj
 0003:000002f0       gParity                    000000000000ebd0     PcAtSerialPortLib:SerialPortLib.obj
 0003:000002f1       gBreakSet                  000000000000ebd1     PcAtSerialPortLib:SerialPortLib.obj
 0003:000002f2       mTdDataReturned            000000000000ebd2     TdxLib:TdInfo.obj
 0003:000002f8       mTdSharedPageMask          000000000000ebd8     TdxLib:TdInfo.obj

 entry point at        0001:000001d8

 Static symbols

 0001:0000001a       InternalMemCopyMem.0       00000000000002da     BaseMemoryLibRepStr:CopyMem.obj
 0001:0000002a       @CopyBackward              00000000000002ea     BaseMemoryLibRepStr:CopyMem.obj
 0001:00000033       @CopyBytes                 00000000000002f3     BaseMemoryLibRepStr:CopyMem.obj
 0001:00000129       TdVmCall.no_return_data    00000000000003e9     BaseLib:TdVmcall.obj
 0001:000001cb       TdCall.exit                000000000000048b     BaseLib:TdCall.obj
 0003:000002a0       mXhciPerformanceCounterValuesCached 000000000000eb80     XhciDxe:Xhci.obj
 0003:000002a1       mCcProbeGuestType          000000000000eb81     DxeCcProbeLib:DxeCcProbeLib.obj
 0003:000002a2       mCcProbed                  000000000000eb82     DxeCcProbeLib:DxeCcProbeLib.obj
 0003:000002e8       mDeadLoopComparator        000000000000ebc8     BaseLib:CpuDeadLoop.obj
 0003:00000300       mXhciPerformanceCounterFrequency 000000000000ebe0     XhciDxe:Xhci.obj
 0003:00000308       mXhciPerformanceCounterEndValue 000000000000ebe8     XhciDxe:Xhci.obj
 0003:00000310       mXhciPerformanceCounterStartValue 000000000000ebf0     XhciDxe:Xhci.obj
 0003:00000318       mRunningOnQ35              000000000000ebf8     DxePciLibI440FxQ35:PciLib.obj
 0003:0000031c       mAcpiTimerIoAddr           000000000000ebfc     DxeAcpiTimerLib:DxeAcpiTimerLib.obj
 0005:00000000       $unwind$_ModuleEntryPoint  000000000000f220     UefiDriverEntryPoint:DriverEntryPoint.obj
 0005:00000008       $unwind$ProcessLibraryConstructorList 000000000000f228     XhciDxe:AutoGen.obj
 0005:00000008       $unwind$LookupUnicodeString2 000000000000f228     UefiLib:UefiLib.obj
 0005:00000020       $unwind$XhcGetCapability   000000000000f240     XhciDxe:Xhci.obj
 0005:00000020       $unwind$IsTransferRingTrb  000000000000f240     XhciDxe:XhciSched.obj
 0005:00000020       $unwind$XhcCmdTransfer     000000000000f240     XhciDxe:XhciSched.obj
 0005:00000020       $unwind$XhciDelAllAsyncIntTransfers 000000000000f240     XhciDxe:XhciSched.obj
 0005:00000038       $unwind$UsbHcFreeMemBlock  000000000000f258     XhciDxe:UsbHcMem.obj
 0005:00000038       $unwind$XhcGetState        000000000000f258     XhciDxe:Xhci.obj
 0005:00000038       $unwind$XhcReset           000000000000f258     XhciDxe:Xhci.obj
 0005:00000038       $unwind$XhcSetState        000000000000f258     XhciDxe:Xhci.obj
 0005:00000038       $unwind$XhcGetCapabilityAddr 000000000000f258     XhciDxe:XhciReg.obj
 0005:00000038       $unwind$XhcSetOpRegBit     000000000000f258     XhciDxe:XhciReg.obj
 0005:00000038       $unwind$XhciDelAsyncIntTransfer 000000000000f258     XhciDxe:XhciSched.obj
 0005:00000038       $unwind$DivU64x32Remainder 000000000000f258     BaseLib:DivU64x32Remainder.obj
 0005:00000038       $unwind$AsciiStrnCmp       000000000000f258     BaseLib:String.obj
 0005:00000038       $unwind$StrSize            000000000000f258     BaseLib:String.obj
 0005:00000038       $unwind$CopyGuid           000000000000f258     BaseMemoryLibRepStr:MemLibGuid.obj
 0005:00000038       $unwind$PciCf8Read32       000000000000f258     BasePciCf8Lib:PciCf8Lib.obj
 0005:00000038       $unwind$GetHobList         000000000000f258     DxeHobLib:HobLib.obj
 0005:00000038       $unwind$IsLanguageSupported 000000000000f258     UefiLib:UefiLib.obj
 0005:00000038       $unwind$SerialPortWrite    000000000000f258     PcAtSerialPortLib:SerialPortLib.obj
 0005:00000048       $unwind$UsbHcAllocateMem   000000000000f268     XhciDxe:UsbHcMem.obj
 0005:00000048       $unwind$XhcGetRootHubPortStatus 000000000000f268     XhciDxe:Xhci.obj
 0005:00000064       $unwind$XhcSetRootHubPortFeature 000000000000f284     XhciDxe:Xhci.obj
 0005:00000064       $unwind$XhcExecTransfer    000000000000f284     XhciDxe:XhciSched.obj
 0005:00000080       $unwind$UsbHcFreeMem       000000000000f2a0     XhciDxe:UsbHcMem.obj
 0005:00000080       $unwind$XhcClearRootHubPortFeature 000000000000f2a0     XhciDxe:Xhci.obj
 0005:00000080       $unwind$XhciPsivGetPsid    000000000000f2a0     XhciDxe:XhciReg.obj
 0005:00000080       $unwind$XhcCreateUrb       000000000000f2a0     XhciDxe:XhciSched.obj
 0005:00000080       $unwind$AddUnicodeString2  000000000000f2a0     UefiLib:UefiLib.obj
 0005:00000098       $unwind$XhcTransfer        000000000000f2b8     XhciDxe:Xhci.obj
 0005:00000098       $unwind$XhciInsertAsyncIntTransfer 000000000000f2b8     XhciDxe:XhciSched.obj
 0005:000000b0       $unwind$XhcControlTransfer 000000000000f2d0     XhciDxe:Xhci.obj
 0005:000000c8       $unwind$XhcBulkTransfer    000000000000f2e8     XhciDxe:Xhci.obj
 0005:000000c8       $unwind$XhcSyncInterruptTransfer 000000000000f2e8     XhciDxe:Xhci.obj
 0005:000000e0       $unwind$XhcAsyncInterruptTransfer 000000000000f300     XhciDxe:Xhci.obj
 0005:000000fc       $unwind$XhcDriverBindingSupported 000000000000f31c     XhciDxe:Xhci.obj
 0005:0000010c       $unwind$XhcCreateUsbHc     000000000000f32c     XhciDxe:Xhci.obj
 0005:00000120       $unwind$UsbHcGetHostAddrForPciAddr 000000000000f340     XhciDxe:UsbHcMem.obj
 0005:00000120       $unwind$UsbHcGetPciAddrForHostAddr 000000000000f340     XhciDxe:UsbHcMem.obj
 0005:00000120       $unwind$XhcExitBootService 000000000000f340     XhciDxe:Xhci.obj
 0005:00000120       $unwind$InsertHeadList     000000000000f340     BaseLib:LinkedList.obj
 0005:00000120       $unwind$RShiftU64          000000000000f340     BaseLib:RShiftU64.obj
 0005:00000120       $unwind$AsciiStrLen        000000000000f340     BaseLib:String.obj
 0005:00000120       $unwind$ZeroMem            000000000000f340     BaseMemoryLibRepStr:ZeroMemWrapper.obj
 0005:00000120       $unwind$InternalAllocateCopyPool 000000000000f340     UefiMemoryAllocationLib:MemoryAllocationLib.obj
 0005:0000012c       $unwind$XhcDriverBindingStart 000000000000f34c     XhciDxe:Xhci.obj
 0005:0000013c       $unwind$XhcDriverBindingStop 000000000000f35c     XhciDxe:Xhci.obj
 0005:00000154       $unwind$UsbHcFreeAlignedPages 000000000000f374     XhciDxe:UsbHcMem.obj
 0005:00000154       $unwind$XhcConvertTimeToTicks 000000000000f374     XhciDxe:Xhci.obj
 0005:00000154       $unwind$XhcCheckUsbPortSpeedUsedPsic 000000000000f374     XhciDxe:XhciReg.obj
 0005:00000154       $unwind$XhcGetSupportedProtocolCapabilityAddr 000000000000f374     XhciDxe:XhciReg.obj
 0005:00000154       $unwind$CreateTransferRing 000000000000f374     XhciDxe:XhciSched.obj
 0005:00000154       $unwind$XhcFreeSched       000000000000f374     XhciDxe:XhciSched.obj
 0005:00000154       $unwind$XhcSyncTrsRing     000000000000f374     XhciDxe:XhciSched.obj
 0005:00000154       $unwind$CopyMem            000000000000f374     BaseMemoryLibRepStr:CopyMemWrapper.obj
 0005:00000168       $unwind$XhcGetElapsedTicks 000000000000f388     XhciDxe:Xhci.obj
 0005:00000168       $unwind$XhcClearBiosOwnership 000000000000f388     XhciDxe:XhciReg.obj
 0005:00000168       $unwind$RingIntTransferDoorBell 000000000000f388     XhciDxe:XhciSched.obj
 0005:00000168       $unwind$IoRead32           000000000000f388     BaseIoLibIntrinsicSev:IoLibMsc.obj
 0005:00000168       $unwind$IoWrite32          000000000000f388     BaseIoLibIntrinsicSev:IoLibMsc.obj
 0005:00000168       $unwind$SaveAndDisableInterrupts 000000000000f388     BaseLib:Cpu.obj
 0005:00000168       $unwind$InternalBaseLibIsListValid 000000000000f388     BaseLib:LinkedList.obj
 0005:00000168       $unwind$RemoveEntryList    000000000000f388     BaseLib:LinkedList.obj
 0005:00000168       $unwind$StrnLenS           000000000000f388     BaseLib:SafeString.obj
 0005:00000168       $unwind$PciExpressRead32   000000000000f388     BasePciExpressLib:PciExpressLib.obj
 0005:00000168       $unwind$AllocateZeroPool   000000000000f388     UefiMemoryAllocationLib:MemoryAllocationLib.obj
 0005:00000170       $unwind$XhcReadCapReg      000000000000f390     XhciDxe:XhciReg.obj
 0005:00000170       $unwind$XhcRunHC           000000000000f390     XhciDxe:XhciReg.obj
 0005:00000170       $unwind$MmioRead32         000000000000f390     BaseIoLibIntrinsicSev:IoLib.obj
 0005:00000170       $unwind$TdIoRead32         000000000000f390     BaseIoLibIntrinsicSev:IoLibInternalTdx.obj
 0005:00000170       $unwind$TdIoWrite32        000000000000f390     BaseIoLibIntrinsicSev:IoLibInternalTdx.obj
 0005:00000170       $unwind$TdIoWrite8         000000000000f390     BaseIoLibIntrinsicSev:IoLibInternalTdx.obj
 0005:00000178       $unwind$XhcHaltHC          000000000000f398     XhciDxe:XhciReg.obj
 0005:00000178       $unwind$XhcReadExtCapReg   000000000000f398     XhciDxe:XhciReg.obj
 0005:00000178       $unwind$XhcReadOpReg       000000000000f398     XhciDxe:XhciReg.obj
 0005:00000178       $unwind$XhcReadRuntimeReg  000000000000f398     XhciDxe:XhciReg.obj
 0005:00000178       $unwind$InternalReportStatusCode 000000000000f398     DxeReportStatusCodeLib:ReportStatusCodeLib.obj
 0005:00000184       $unwind$XhcWriteDoorBellReg 000000000000f3a4     XhciDxe:XhciReg.obj
 0005:00000184       $unwind$XhcWriteExtCapReg  000000000000f3a4     XhciDxe:XhciReg.obj
 0005:00000184       $unwind$XhcWriteOpReg      000000000000f3a4     XhciDxe:XhciReg.obj
 0005:00000184       $unwind$XhcWriteRuntimeReg 000000000000f3a4     XhciDxe:XhciReg.obj
 0005:00000190       $unwind$XhcWaitOpRegBit    000000000000f3b0     XhciDxe:XhciReg.obj
 0005:000001a8       $unwind$XhcResetHC         000000000000f3c8     XhciDxe:XhciReg.obj
 0005:000001b4       $unwind$XhcCreateTransferTrb 000000000000f3d4     XhciDxe:XhciSched.obj
 0005:000001c8       $unwind$XhcInitSched       000000000000f3e8     XhciDxe:XhciSched.obj
 0005:000001e0       $unwind$XhcRecoverHaltedEndpoint 000000000000f400     XhciDxe:XhciSched.obj
 0005:000001f8       $unwind$UsbHcAllocMemFromBlock 000000000000f418     XhciDxe:UsbHcMem.obj
 0005:000001f8       $unwind$XhcDequeueTrbFromEndpoint 000000000000f418     XhciDxe:XhciSched.obj
 0005:00000214       $unwind$CreateEventRing    000000000000f434     XhciDxe:XhciSched.obj
 0005:00000230       $unwind$XhcCheckUrbResult  000000000000f450     XhciDxe:XhciSched.obj
 0005:0000024c       $unwind$XhcMonitorAsyncRequests 000000000000f46c     XhciDxe:XhciSched.obj
 0005:00000264       $unwind$XhcPollPortStatusChange 000000000000f484     XhciDxe:XhciSched.obj
 0005:00000280       $unwind$XhcInitializeDeviceSlot 000000000000f4a0     XhciDxe:XhciSched.obj
 0005:00000280       $unwind$XhcInitializeDeviceSlot64 000000000000f4a0     XhciDxe:XhciSched.obj
 0005:0000029c       $unwind$XhcDisableSlotCmd  000000000000f4bc     XhciDxe:XhciSched.obj
 0005:0000029c       $unwind$XhcDisableSlotCmd64 000000000000f4bc     XhciDxe:XhciSched.obj
 0005:000002b4       $unwind$XhcInitializeEndpointContext 000000000000f4d4     XhciDxe:XhciSched.obj
 0005:000002b4       $unwind$XhcInitializeEndpointContext64 000000000000f4d4     XhciDxe:XhciSched.obj
 0005:000002cc       $unwind$XhcSetConfigCmd    000000000000f4ec     XhciDxe:XhciSched.obj
 0005:000002cc       $unwind$XhcSetConfigCmd64  000000000000f4ec     XhciDxe:XhciSched.obj
 0005:000002e4       $unwind$XhcStopEndpoint    000000000000f504     XhciDxe:XhciSched.obj
 0005:000002f8       $unwind$XhcSetTrDequeuePointer 000000000000f518     XhciDxe:XhciSched.obj
 0005:0000030c       $unwind$XhcSetInterface    000000000000f52c     XhciDxe:XhciSched.obj
 0005:0000030c       $unwind$XhcSetInterface64  000000000000f52c     XhciDxe:XhciSched.obj
 0005:00000324       $unwind$XhcEvaluateContext 000000000000f544     XhciDxe:XhciSched.obj
 0005:00000324       $unwind$XhcEvaluateContext64 000000000000f544     XhciDxe:XhciSched.obj
 0005:0000033c       $unwind$XhcConfigHubContext 000000000000f55c     XhciDxe:XhciSched.obj
 0005:0000033c       $unwind$XhcConfigHubContext64 000000000000f55c     XhciDxe:XhciSched.obj
 0005:00000354       $unwind$XhciComponentNameGetDriverName 000000000000f574     XhciDxe:ComponentName.obj
 0005:0000035c       $unwind$XhciComponentNameGetControllerName 000000000000f57c     XhciDxe:ComponentName.obj
 0005:00000370       $unwind$UsbHcAllocMemBlock 000000000000f590     XhciDxe:UsbHcMem.obj
 0005:00000380       $unwind$UsbHcAllocateAlignedPages 000000000000f5a0     XhciDxe:UsbHcMem.obj
 0005:0000039c       $unwind$DebugPrint         000000000000f5bc     BaseDebugLibSerialPort:DebugLib.obj
 0005:000003a4       $unwind$DebugPrintMarker   000000000000f5c4     BaseDebugLibSerialPort:DebugLib.obj
 0005:000003b8       $unwind$DebugAssert        000000000000f5d8     BaseDebugLibSerialPort:DebugLib.obj
 0005:000003c0       $unwind$IoRead8            000000000000f5e0     BaseIoLibIntrinsicSev:IoLibMsc.obj
 0005:000003c0       $unwind$GetPcdProtocol     000000000000f5e0     DxePcdLib:DxePcdLib.obj
 0005:000003c0       $unwind$TdSharedPageMask   000000000000f5e0     TdxLib:TdInfo.obj
 0005:000003c0       $unwind$FreePool           000000000000f5e0     UefiMemoryAllocationLib:MemoryAllocationLib.obj
 0005:000003c0       $unwind$InternalAllocatePool 000000000000f5e0     UefiMemoryAllocationLib:MemoryAllocationLib.obj
 0005:000003c8       $unwind$ReportStatusCodeWithDevicePath 000000000000f5e8     DxeReportStatusCodeLib:ReportStatusCodeLib.obj
 0005:000003dc       $unwind$CompareGuid        000000000000f5fc     BaseMemoryLibRepStr:MemLibGuid.obj
 0005:000003f4       $unwind$TdIoRead8          000000000000f614     BaseIoLibIntrinsicSev:IoLibInternalTdx.obj
 0005:000003f4       $unwind$BasePrintLibSPrint 000000000000f614     BasePrintLib:PrintLibInternal.obj
 0005:000003fc       $unwind$AsciiSPrint        000000000000f61c     BasePrintLib:PrintLib.obj
 0005:00000404       $unwind$BasePrintLibValueToString 000000000000f624     BasePrintLib:PrintLibInternal.obj
 0005:00000410       $unwind$BasePrintLibSPrintMarker 000000000000f630     BasePrintLib:PrintLibInternal.obj
 0005:0000042c       $unwind$GetTdInfo          000000000000f64c     TdxLib:TdInfo.obj
