 ReportStatusCodeRouterRuntimeDxe

 Timestamp is 6725e489 (Sat Nov  2 16:36:25 2024)

 Preferred load address is 0000000000000000

 Start         Length     Name                   Class
 0001:00000000 00000208H .text                   CODE
 0001:00000208 00002a63H .text$mn                CODE
 0002:00000000 00001578H .rdata                  DATA
 0002:00001578 00000040H .rdata$voltmd           DATA
 0002:000015b8 000001a0H .rdata$zzzdbg           DATA
 0003:00000000 00000098H .data                   DATA
 0003:00000098 00000098H .bss                    DATA
 0004:00000000 0000024cH .pdata                  DATA
 0005:00000000 0000011cH .xdata                  DATA

  Address         Publics by Value              Rva+Base               Lib:Object

 0000:00000000       __x64_code_ranges_to_entry_points_count 0000000000000000     <absolute>
 0000:00000000       __arm64x_redirection_metadata 0000000000000000     <absolute>
 0000:00000000       __guard_iat_table          0000000000000000     <absolute>
 0000:00000000       __x64_code_ranges_to_entry_points 0000000000000000     <absolute>
 0000:00000000       __guard_fids_count         0000000000000000     <absolute>
 0000:00000000       __guard_iat_count          0000000000000000     <absolute>
 0000:00000000       __guard_longjmp_count      0000000000000000     <absolute>
 0000:00000000       __dynamic_value_reloc_table 0000000000000000     <absolute>
 0000:00000000       __arm64x_extra_rfe_table   0000000000000000     <absolute>
 0000:00000000       __hybrid_code_map_count    0000000000000000     <absolute>
 0000:00000000       __hybrid_auxiliary_iat     0000000000000000     <absolute>
 0000:00000000       __hybrid_auxiliary_iat_copy 0000000000000000     <absolute>
 0000:00000000       __guard_longjmp_table      0000000000000000     <absolute>
 0000:00000000       __hybrid_code_map          0000000000000000     <absolute>
 0000:00000000       __arm64x_extra_rfe_table_size 0000000000000000     <absolute>
 0000:00000000       __AbsoluteZero             0000000000000000     <absolute>
 0000:00000000       __guard_check_icall_a64n_fptr 0000000000000000     <absolute>
 0000:00000000       __guard_fids_table         0000000000000000     <absolute>
 0000:00000000       __guard_flags              0000000000000000     <absolute>
 0000:00000000       __arm64x_native_entrypoint 0000000000000000     <absolute>
 0000:00000000       __guard_eh_cont_count      0000000000000000     <absolute>
 0000:00000000       __arm64x_redirection_metadata_count 0000000000000000     <absolute>
 0000:00000000       __enclave_config           0000000000000000     <absolute>
 0000:00000000       __guard_eh_cont_table      0000000000000000     <absolute>
 0001:00000000       InternalMemCopyMem         00000000000002c0     BaseMemoryLibRepStr:CopyMem.obj
 0001:00000040       InternalMemZeroMem         0000000000000300     BaseMemoryLibRepStr:ZeroMem.obj
 0001:00000060       CpuPause                   0000000000000320     BaseLib:CpuPause.obj
 0001:00000070       AsmCpuid                   0000000000000330     BaseLib:CpuId.obj
 0001:000000a0       InternalMemSetMem          0000000000000360     BaseMemoryLibRepStr:SetMem.obj
 0001:000000c0       InternalMemSetMem64        0000000000000380     BaseMemoryLibRepStr:SetMem64.obj
 0001:000000e0       InternalMemSetMem32        00000000000003a0     BaseMemoryLibRepStr:SetMem32.obj
 0001:00000100       TdVmCall                   00000000000003c0     BaseLib:TdVmcall.obj
 0001:00000180       EnableInterrupts           0000000000000440     BaseLib:EnableInterrupts.obj
 0001:00000190       DisableInterrupts          0000000000000450     BaseLib:DisableInterrupts.obj
 0001:000001a0       AsmReadEflags              0000000000000460     BaseLib:ReadEflags.obj
 0001:000001b0       TdCall                     0000000000000470     BaseLib:TdCall.obj
 0001:00000208       _ModuleEntryPoint          00000000000004c8 f   UefiDriverEntryPoint:DriverEntryPoint.obj
 0001:00000230       ProcessLibraryConstructorList 00000000000004f0 f   ReportStatusCodeRouterRuntimeDxe:AutoGen.obj
 0001:000006c4       ProcessLibraryDestructorList 0000000000000984 f   ReportStatusCodeRouterRuntimeDxe:AutoGen.obj
 0001:000007b0       ProcessModuleEntryPointList 0000000000000a70 f   ReportStatusCodeRouterRuntimeDxe:AutoGen.obj
 0001:00000894       RscHandlerNotification     0000000000000b54 f   ReportStatusCodeRouterRuntimeDxe:ReportStatusCodeRouterRuntimeDxe.obj
 0001:00000904       Register                   0000000000000bc4 f   ReportStatusCodeRouterRuntimeDxe:ReportStatusCodeRouterRuntimeDxe.obj
 0001:00000a54       Unregister                 0000000000000d14 f   ReportStatusCodeRouterRuntimeDxe:ReportStatusCodeRouterRuntimeDxe.obj
 0001:00000b10       ReportDispatcher           0000000000000dd0 f   ReportStatusCodeRouterRuntimeDxe:ReportStatusCodeRouterRuntimeDxe.obj
 0001:00000d80       VirtualAddressChangeCallBack 0000000000001040 f   ReportStatusCodeRouterRuntimeDxe:ReportStatusCodeRouterRuntimeDxe.obj
 0001:00000e5c       InternalBaseLibIsListValid 000000000000111c f   BaseLib:LinkedList.obj
 0001:00000ec8       InsertTailList             0000000000001188 f   BaseLib:LinkedList.obj
 0001:00000f28       GetFirstNode               00000000000011e8 f   BaseLib:LinkedList.obj
 0001:00000f60       GetNextNode                0000000000001220 f   BaseLib:LinkedList.obj
 0001:00000f9c       IsNull                     000000000000125c f   BaseLib:LinkedList.obj
 0001:00000fe8       RemoveEntryList            00000000000012a8 f   BaseLib:LinkedList.obj
 0001:00001050       CopyGuid                   0000000000001310 f   BaseMemoryLibRepStr:MemLibGuid.obj
 0001:00001100       CompareGuid                00000000000013c0 f   BaseMemoryLibRepStr:MemLibGuid.obj
 0001:000011c4       CopyMem                    0000000000001484 f   BaseMemoryLibRepStr:CopyMemWrapper.obj
 0001:00001260       ZeroMem                    0000000000001520 f   BaseMemoryLibRepStr:ZeroMemWrapper.obj
 0001:000012d0       DebugPrint                 0000000000001590 f   BaseDebugLibSerialPort:DebugLib.obj
 0001:000012f4       DebugPrintMarker           00000000000015b4 f   BaseDebugLibSerialPort:DebugLib.obj
 0001:00001380       DebugAssert                0000000000001640 f   BaseDebugLibSerialPort:DebugLib.obj
 0001:000013fc       AllocatePool               00000000000016bc f   UefiMemoryAllocationLib:MemoryAllocationLib.obj
 0001:00001434       InternalAllocateZeroPool   00000000000016f4 f   UefiMemoryAllocationLib:MemoryAllocationLib.obj
 0001:00001478       InternalReallocatePool     0000000000001738 f   UefiMemoryAllocationLib:MemoryAllocationLib.obj
 0001:000014e4       FreePool                   00000000000017a4 f   UefiMemoryAllocationLib:MemoryAllocationLib.obj
 0001:00001528       GetHobList                 00000000000017e8 f   DxeHobLib:HobLib.obj
 0001:00001608       RuntimeLibExitBootServicesEvent 00000000000018c8 f   UefiRuntimeLib:RuntimeLib.obj
 0001:00001610       RuntimeLibVirtualNotifyEvent 00000000000018d0 f   UefiRuntimeLib:RuntimeLib.obj
 0001:00001624       GetPcdProtocol             00000000000018e4 f   DxePcdLib:DxePcdLib.obj
 0001:000016b0       AsciiStrLen                0000000000001970 f   BaseLib:String.obj
 0001:0000171c       StrnLenS                   00000000000019dc f   BaseLib:SafeString.obj
 0001:00001774       IoRead8                    0000000000001a34 f   BaseIoLibIntrinsicSev:IoLibMsc.obj
 0001:00001798       IoRead32                   0000000000001a58 f   BaseIoLibIntrinsicSev:IoLibMsc.obj
 0001:000017e0       IoWrite32                  0000000000001aa0 f   BaseIoLibIntrinsicSev:IoLibMsc.obj
 0001:0000180c       IsTdxGuest                 0000000000001acc f   BaseIoLibIntrinsicSev:IoLibInternalTdx.obj
 0001:00001838       TdIoRead8                  0000000000001af8 f   BaseIoLibIntrinsicSev:IoLibInternalTdx.obj
 0001:00001890       TdIoRead32                 0000000000001b50 f   BaseIoLibIntrinsicSev:IoLibInternalTdx.obj
 0001:00001904       TdIoWrite8                 0000000000001bc4 f   BaseIoLibIntrinsicSev:IoLibInternalTdx.obj
 0001:00001954       TdIoWrite32                0000000000001c14 f   BaseIoLibIntrinsicSev:IoLibInternalTdx.obj
 0001:000019a8       SerialPortWrite            0000000000001c68 f   PcAtSerialPortLib:SerialPortLib.obj
 0001:00001a18       AsciiSPrint                0000000000001cd8 f   BasePrintLib:PrintLib.obj
 0001:00001a44       BasePrintLibFillBuffer     0000000000001d04 f   BasePrintLib:PrintLibInternal.obj
 0001:00001a78       BasePrintLibValueToString  0000000000001d38 f   BasePrintLib:PrintLibInternal.obj
 0001:00001ac8       BasePrintLibSPrintMarker   0000000000001d88 f   BasePrintLib:PrintLibInternal.obj
 0001:000029d4       BasePrintLibSPrint         0000000000002c94 f   BasePrintLib:PrintLibInternal.obj
 0001:000029f8       PciExpressRead32           0000000000002cb8 f   BasePciExpressLib:PciExpressLib.obj
 0001:00002a48       PciCf8Read32               0000000000002d08 f   BasePciCf8Lib:PciCf8Lib.obj
 0001:00002ae4       DivU64x32Remainder         0000000000002da4 f   BaseLib:DivU64x32Remainder.obj
 0001:00002b44       SaveAndDisableInterrupts   0000000000002e04 f   BaseLib:Cpu.obj
 0001:00002b68       GetTdInfo                  0000000000002e28 f   TdxLib:TdInfo.obj
 0001:00002bcc       TdSharedPageMask           0000000000002e8c f   TdxLib:TdInfo.obj
 0001:00002bf8       MmioRead32                 0000000000002eb8 f   BaseIoLibIntrinsicSev:IoLib.obj
 0002:00000000       ??_C@_0CB@DMEJJJHA@?6ASSERT_EFI_ERROR?5?$CIStatus?5?$DN?5?$CFr?$CJ@ 0000000000002f40     UefiDriverEntryPoint:DriverEntryPoint.obj
 0002:00000028       ??_C@_0CH@BBNBJKHK@?$CB?$CI?$CI?$CIINTN?$CJ?$CIRETURN_STATUS?$CJ?$CIStatus@ 0000000000002f68     UefiDriverEntryPoint:DriverEntryPoint.obj
 0002:00000050       ??_C@_0CB@PINBHLDO@ReportStatusCodeRouterRuntimeDx@ 0000000000002f90     ReportStatusCodeRouterRuntimeDxe:AutoGen.obj
 0002:00000078       ??_C@_0CE@IBFOBMLB@?6ASSERT_RETURN_ERROR?5?$CIStatus?5?$DN?5@ 0000000000002fb8     ReportStatusCodeRouterRuntimeDxe:AutoGen.obj
 0002:000000a0       ??_C@_0LB@EBCHOCNC@d?3?2uefi_specs_personal_collecti@ 0000000000002fe0     ReportStatusCodeRouterRuntimeDxe:AutoGen.obj
 0002:00000158       ??_C@_0BF@NDBIKIKC@CR?5has?5Bad?5Signature@ 0000000000003098     ReportStatusCodeRouterRuntimeDxe:ReportStatusCodeRouterRuntimeDxe.obj
 0002:00000170       ??_C@_0IE@KOPOEB@D?3?2uefi_specs_personal_collecti@ 00000000000030b0     ReportStatusCodeRouterRuntimeDxe:ReportStatusCodeRouterRuntimeDxe.obj
 0002:000001f8       ??_C@_0BO@GLGOPODC@CallbackEntry?5?$CB?$DN?5?$CI?$CIvoid?5?$CK?$CJ?50?$CJ@ 0000000000003138     ReportStatusCodeRouterRuntimeDxe:ReportStatusCodeRouterRuntimeDxe.obj
 0002:00000218       ??_C@_0BF@NJNGJMPC@List?5?$CB?$DN?5?$CI?$CIvoid?5?$CK?$CJ?50?$CJ@ 0000000000003158     BaseLib:LinkedList.obj
 0002:00000230       ??_C@_0EM@NCJPOFNN@D?3?2uefi_specs_personal_collecti@ 0000000000003170     BaseLib:LinkedList.obj
 0002:00000280       ??_C@_0CC@KDLPLAED@List?9?$DOForwardLink?5?$CB?$DN?5?$CI?$CIvoid?5?$CK?$CJ?5@ 00000000000031c0     BaseLib:LinkedList.obj
 0002:000002a8       ??_C@_0BP@IJJCCMAK@List?9?$DOBackLink?5?$CB?$DN?5?$CI?$CIvoid?5?$CK?$CJ?50?$CJ@ 00000000000031e8     BaseLib:LinkedList.obj
 0002:000002c8       ??_C@_0CG@LGIALJFK@InternalBaseLibIsListValid?5?$CILis@ 0000000000003208     BaseLib:LinkedList.obj
 0002:000002f0       ??_C@_0CC@JLDICICM@InternalBaseLibIsListValid?5?$CILis@ 0000000000003230     BaseLib:LinkedList.obj
 0002:00000318       ??_C@_0BF@NMBJJECB@?$CBIsListEmpty?5?$CIEntry?$CJ@ 0000000000003258     BaseLib:LinkedList.obj
 0002:00000330       ??_C@_0DG@EEENIGGL@Length?5?$DM?$DN?5?$CI0xFFFFFFFFFFFFFFFFUL@ 0000000000003270     BaseMemoryLibRepStr:MemLibGuid.obj
 0002:00000370       ??_C@_0ED@MKGCMJG@?$CILength?5?9?51?$CJ?5?$DM?$DN?5?$CI0xFFFFFFFFFFFF@ 00000000000032b0     BaseMemoryLibRepStr:CopyMemWrapper.obj
 0002:000003c0       ??_C@_0FM@IDPIEKJH@D?3?2uefi_specs_personal_collecti@ 0000000000003300     BaseMemoryLibRepStr:CopyMemWrapper.obj
 0002:00000420       ??_C@_0DO@MAOBOFEG@?$CILength?5?9?51?$CJ?5?$DM?$DN?5?$CI0xFFFFFFFFFFFF@ 0000000000003360     BaseMemoryLibRepStr:CopyMemWrapper.obj
 0002:00000460       ??_C@_0BH@IACGKAP@Buffer?5?$CB?$DN?5?$CI?$CIvoid?5?$CK?$CJ?50?$CJ@ 00000000000033a0     BaseMemoryLibRepStr:ZeroMemWrapper.obj
 0002:00000480       ??_C@_0FM@DHFKCLFA@D?3?2uefi_specs_personal_collecti@ 00000000000033c0     BaseMemoryLibRepStr:ZeroMemWrapper.obj
 0002:000004e0       ??_C@_0BH@LKMBFCBF@Format?5?$CB?$DN?5?$CI?$CIvoid?5?$CK?$CJ?50?$CJ@ 0000000000003420     BaseDebugLibSerialPort:DebugLib.obj
 0002:00000500       ??_C@_0FJ@BNNHJMAJ@D?3?2uefi_specs_personal_collecti@ 0000000000003440     BaseDebugLibSerialPort:DebugLib.obj
 0002:00000560       ??_C@_0BI@NOCKJDBJ@ASSERT?5?$FL?$CFa?$FN?5?$CFa?$CI?$CFd?$CJ?3?5?$CFa?6@ 00000000000034a0     BaseDebugLibSerialPort:DebugLib.obj
 0002:00000578       ??_C@_0BN@COECPDCC@gImageHandle?5?$CB?$DN?5?$CI?$CIvoid?5?$CK?$CJ?50?$CJ@ 00000000000034b8     UefiBootServicesTableLib:UefiBootServicesTableLib.obj
 0002:000005a0       ??_C@_0GL@PJCPJLGM@D?3?2uefi_specs_personal_collecti@ 00000000000034e0     UefiBootServicesTableLib:UefiBootServicesTableLib.obj
 0002:00000610       ??_C@_0BE@DGNHAHIL@gST?5?$CB?$DN?5?$CI?$CIvoid?5?$CK?$CJ?50?$CJ@ 0000000000003550     UefiBootServicesTableLib:UefiBootServicesTableLib.obj
 0002:00000628       ??_C@_0BE@BDFJLGLN@gBS?5?$CB?$DN?5?$CI?$CIvoid?5?$CK?$CJ?50?$CJ@ 0000000000003568     UefiBootServicesTableLib:UefiBootServicesTableLib.obj
 0002:00000640       ??_C@_0GF@KMHDEKMA@D?3?2uefi_specs_personal_collecti@ 0000000000003580     UefiMemoryAllocationLib:MemoryAllocationLib.obj
 0002:000006a8       ??_C@_0BE@OBDFIHND@gRT?5?$CB?$DN?5?$CI?$CIvoid?5?$CK?$CJ?50?$CJ@ 00000000000035e8     UefiRuntimeServicesTableLib:UefiRuntimeServicesTableLib.obj
 0002:000006c0       ??_C@_0HB@NCAPNEDO@D?3?2uefi_specs_personal_collecti@ 0000000000003600     UefiRuntimeServicesTableLib:UefiRuntimeServicesTableLib.obj
 0002:00000740       ??_C@_0GP@HEOOPGAM@D?3?2uefi_specs_personal_collecti@ 0000000000003680     UefiDevicePathLibDevicePathProtocol:UefiDevicePathLib.obj
 0002:000007b0       ??_C@_0DC@CNNBPJA@mDevicePathLibDevicePathUtiliti@ 00000000000036f0     UefiDevicePathLibDevicePathProtocol:UefiDevicePathLib.obj
 0002:000007f0       ??_C@_0EK@CGIIDOCH@D?3?2uefi_specs_personal_collecti@ 0000000000003730     DxeHobLib:HobLib.obj
 0002:00000840       ??_C@_0BJ@OBFMLLDO@mHobList?5?$CB?$DN?5?$CI?$CIvoid?5?$CK?$CJ?50?$CJ@ 0000000000003780     DxeHobLib:HobLib.obj
 0002:00000860       ??_C@_0BJ@NOLLDKJB@HobStart?5?$CB?$DN?5?$CI?$CIvoid?5?$CK?$CJ?50?$CJ@ 00000000000037a0     DxeHobLib:HobLib.obj
 0002:00000880       ??_C@_0BC@FEDIJHFF@?$CI?$CIBOOLEAN?$CJ?$CI0?$DN?$DN1?$CJ?$CJ@ 00000000000037c0     DxeHobLib:HobLib.obj
 0002:00000898       ??_C@_0BP@LHBKJBMC@PlatformInfoHob?5is?5not?5found?4?6@ 00000000000037d8     DxeAcpiTimerLib:DxeAcpiTimerLib.obj
 0002:000008c0       ??_C@_0FH@PGONMIHN@D?3?2uefi_specs_personal_collecti@ 0000000000003800     DxeAcpiTimerLib:DxeAcpiTimerLib.obj
 0002:00000918       ??_C@_0BI@HAGPDMHJ@AcpiTimerLibConstructor@ 0000000000003858     DxeAcpiTimerLib:DxeAcpiTimerLib.obj
 0002:00000930       ??_C@_0CL@DGCOIACG@?$CFa?3?5Unknown?5Host?5Bridge?5Device?5@ 0000000000003870     DxeAcpiTimerLib:DxeAcpiTimerLib.obj
 0002:00000960       ??_C@_0FD@PFFCCHBO@D?3?2uefi_specs_personal_collecti@ 00000000000038a0     UefiRuntimeLib:RuntimeLib.obj
 0002:000009c0       ??_C@_0EN@ENFGNHA@D?3?2uefi_specs_personal_collecti@ 0000000000003900     DxePcdLib:DxePcdLib.obj
 0002:00000a10       ??_C@_0BF@OOKDELHM@mPcd?5?$CB?$DN?5?$CI?$CIvoid?5?$CK?$CJ?50?$CJ@ 0000000000003950     DxePcdLib:DxePcdLib.obj
 0002:00000a30       ??_C@_0EL@GLNKFHII@D?3?2uefi_specs_personal_collecti@ 0000000000003970     BaseLib:Unaligned.obj
 0002:00000a80       ??_C@_0BH@MAAHKCPC@String?5?$CB?$DN?5?$CI?$CIvoid?5?$CK?$CJ?50?$CJ@ 00000000000039c0     BaseLib:String.obj
 0002:00000aa0       ??_C@_0EI@LOLLHGDK@D?3?2uefi_specs_personal_collecti@ 00000000000039e0     BaseLib:String.obj
 0002:00000ae8       ??_C@_0CC@GFNLNIOC@?$CI?$CIUINTN?$CJString?5?$CG?50x00000001?$CJ?5?$DN?$DN@ 0000000000003a28     BaseLib:String.obj
 0002:00000b10       ??_C@_0DI@MDIKFADO@Length?5?$DM?5_gPcd_FixedAtBuild_Pcd@ 0000000000003a50     BaseLib:String.obj
 0002:00000b48       ??_C@_0N@KGHEHMDL@Divisor?5?$CB?$DN?50@ 0000000000003a88     BaseLib:DivU64x32.obj
 0002:00000b60       ??_C@_0EM@OAPOMMAE@D?3?2uefi_specs_personal_collecti@ 0000000000003aa0     BaseLib:SafeString.obj
 0002:00000bb0       ??_C@_0BJ@CNKJJNE@?$CIBuffer?5?$CB?$DN?5?$CI?$CIvoid?5?$CK?$CJ?50?$CJ?$CJ@ 0000000000003af0     BaseLib:SafeString.obj
 0002:00000bd0       ??_C@_0FF@GCKLFLDF@D?3?2uefi_specs_personal_collecti@ 0000000000003b10     BaseIoLibIntrinsicSev:IoLibMsc.obj
 0002:00000c28       ??_C@_0BA@HCECIDGN@?$CIPort?5?$CG?53?$CJ?5?$DN?$DN?50@ 0000000000003b68     BaseIoLibIntrinsicSev:IoLibMsc.obj
 0002:00000c40       ??_C@_0FN@DOAHIAPG@D?3?2uefi_specs_personal_collecti@ 0000000000003b80     BaseIoLibIntrinsicSev:IoLibInternalTdx.obj
 0002:00000ca0       ??_C@_0BD@OMMAJMCK@?$CIAddress?5?$CG?53?$CJ?5?$DN?$DN?50@ 0000000000003be0     BaseIoLibIntrinsicSev:IoLibInternalTdx.obj
 0002:00000cc0       ??_C@_0FH@MODEAFEI@D?3?2uefi_specs_personal_collecti@ 0000000000003c00     BasePrintLib:PrintLibInternal.obj
 0002:00000d20       ??_C@_0EB@HDGIDCIO@?$CIBufferSize?5?$DM?$DN?5?$CI_gPcd_FixedAtBu@ 0000000000003c60     BasePrintLib:PrintLibInternal.obj
 0002:00000d68       ??_C@_0BJ@PPAKKDJG@?$CIFormat?5?$CB?$DN?5?$CI?$CIvoid?5?$CK?$CJ?50?$CJ?$CJ@ 0000000000003ca8     BasePrintLib:PrintLibInternal.obj
 0002:00000d90       ??_C@_0ED@LPDDCECB@?$CIBufferSize?5?$DM?$DN?5?$CI_gPcd_FixedAtBu@ 0000000000003cd0     BasePrintLib:PrintLibInternal.obj
 0002:00000de0       ??_C@_0IM@BFJJFLGB@?$CIStrnLenS?5?$CI?$CICHAR16?5?$CK?$CJFormat?0?5?$CI_@ 0000000000003d20     BasePrintLib:PrintLibInternal.obj
 0002:00000e70       ??_C@_0ID@PLGJGION@?$CIAsciiStrnLenS?5?$CIFormat?0?5?$CI_gPcd_@ 0000000000003db0     BasePrintLib:PrintLibInternal.obj
 0002:00000ef8       ??_C@_0O@MLOLIMFM@?$DMnull?5string?$DO@ 0000000000003e38     BasePrintLib:PrintLibInternal.obj
 0002:00000f08       ??_C@_0M@BJJDNPHK@?$DMnull?5guid?$DO@ 0000000000003e48     BasePrintLib:PrintLibInternal.obj
 0002:00000f18       ??_C@_0DB@PMLHLBMO@?$CF08x?9?$CF04x?9?$CF04x?9?$CF02x?$CF02x?9?$CF02x?$CF02@ 0000000000003e58     BasePrintLib:PrintLibInternal.obj
 0002:00000f50       ??_C@_0M@LHGBCIKM@?$DMnull?5time?$DO@ 0000000000003e90     BasePrintLib:PrintLibInternal.obj
 0002:00000f60       ??_C@_0BK@FCPKCIDD@?$CF02d?1?$CF02d?1?$CF04d?5?5?$CF02d?3?$CF02d@ 0000000000003ea0     BasePrintLib:PrintLibInternal.obj
 0002:00000f7c       ??_C@_04JIMNDDED@?$CF08X@  0000000000003ebc     BasePrintLib:PrintLibInternal.obj
 0002:00000f84       ??_C@_02PCIJFNDE@?$AN?6@   0000000000003ec4     BasePrintLib:PrintLibInternal.obj
 0002:00000f88       ??_C@_01LIIJDEN@?$AN@      0000000000003ec8     BasePrintLib:PrintLibInternal.obj
 0002:00000f90       mWarningString             0000000000003ed0     BasePrintLib:PrintLibInternal.obj
 0002:00001060       mErrorString               0000000000003fa0     BasePrintLib:PrintLibInternal.obj
 0002:00001340       mHexStr                    0000000000004280     BasePrintLib:PrintLibInternal.obj
 0002:00001350       ??_C@_0BO@BAKALPJK@?$CI?$CIAddress?$CJ?5?$CG?5?$HO0xfffffff?$CJ?5?$DN?$DN?50@ 0000000000004290     BasePciExpressLib:PciExpressLib.obj
 0002:00001370       ??_C@_0FJ@LPMKGGAK@D?3?2uefi_specs_personal_collecti@ 00000000000042b0     BasePciExpressLib:PciExpressLib.obj
 0002:000013d0       ??_C@_0FB@PDIKDBMH@D?3?2uefi_specs_personal_collecti@ 0000000000004310     BasePciCf8Lib:PciCf8Lib.obj
 0002:00001428       ??_C@_0CG@EDKLCMBO@?$CI?$CIAddress?$CJ?5?$CG?5?$CI?$HO0xffff0ff?5?$HM?5?$CI3?$CJ?$CJ@ 0000000000004368     BasePciCf8Lib:PciCf8Lib.obj
 0002:00001450       ??_C@_0FE@LIGPAOFO@D?3?2uefi_specs_personal_collecti@ 0000000000004390     BaseLib:DivU64x32Remainder.obj
 0002:000014a8       ??_C@_0CB@GEABOFIF@Failed?5call?5TDCALL_TDINFO?4?5?$CFllx@ 00000000000043e8     TdxLib:TdInfo.obj
 0002:000014d0       ??_C@_0FC@MAJHMCGF@D?3?2uefi_specs_personal_collecti@ 0000000000004410     BaseIoLibIntrinsicSev:IoLib.obj
 0002:00001578       __volatile_metadata        00000000000044b8     <linker-defined>
 0003:00000000       gEfiStatusCodeRuntimeProtocolGuid 00000000000046a0     ReportStatusCodeRouterRuntimeDxe:AutoGen.obj
 0003:00000010       gPcdProtocolGuid           00000000000046b0     ReportStatusCodeRouterRuntimeDxe:AutoGen.obj
 0003:00000020       gUefiOvmfPkgPlatformInfoGuid 00000000000046c0     ReportStatusCodeRouterRuntimeDxe:AutoGen.obj
 0003:00000030       gEfiDevicePathUtilitiesProtocolGuid 00000000000046d0     ReportStatusCodeRouterRuntimeDxe:AutoGen.obj
 0003:00000040       gEfiRscHandlerProtocolGuid 00000000000046e0     ReportStatusCodeRouterRuntimeDxe:AutoGen.obj
 0003:00000050       gEfiHobListGuid            00000000000046f0     ReportStatusCodeRouterRuntimeDxe:AutoGen.obj
 0003:00000060       gEfiEventVirtualAddressChangeGuid 0000000000004700     ReportStatusCodeRouterRuntimeDxe:AutoGen.obj
 0003:00000070       mCallbackListHead          0000000000004710     ReportStatusCodeRouterRuntimeDxe:ReportStatusCodeRouterRuntimeDxe.obj
 0003:00000080       mStatusCodeProtocol        0000000000004720     ReportStatusCodeRouterRuntimeDxe:ReportStatusCodeRouterRuntimeDxe.obj
 0003:00000088       mRscHandlerProtocol        0000000000004728     ReportStatusCodeRouterRuntimeDxe:ReportStatusCodeRouterRuntimeDxe.obj
 0003:00000098       mStatusCodeNestStatus      0000000000004738     ReportStatusCodeRouterRuntimeDxe:ReportStatusCodeRouterRuntimeDxe.obj
 0003:000000a0       mHandle                    0000000000004740     ReportStatusCodeRouterRuntimeDxe:ReportStatusCodeRouterRuntimeDxe.obj
 0003:000000a8       mVirtualAddressChangeEvent 0000000000004748     ReportStatusCodeRouterRuntimeDxe:ReportStatusCodeRouterRuntimeDxe.obj
 0003:000000b8       gST                        0000000000004758     UefiBootServicesTableLib:UefiBootServicesTableLib.obj
 0003:000000c0       gBS                        0000000000004760     UefiBootServicesTableLib:UefiBootServicesTableLib.obj
 0003:000000c8       gImageHandle               0000000000004768     UefiBootServicesTableLib:UefiBootServicesTableLib.obj
 0003:000000d0       gRT                        0000000000004770     UefiRuntimeServicesTableLib:UefiRuntimeServicesTableLib.obj
 0003:000000d8       mDevicePathLibDevicePathUtilities 0000000000004778     UefiDevicePathLibDevicePathProtocol:UefiDevicePathLib.obj
 0003:000000e0       mHobList                   0000000000004780     DxeHobLib:HobLib.obj
 0003:000000e8       mEfiAtRuntime              0000000000004788     UefiRuntimeLib:RuntimeLib.obj
 0003:000000f0       mPcd                       0000000000004790     DxePcdLib:DxePcdLib.obj
 0003:00000100       gParity                    00000000000047a0     PcAtSerialPortLib:SerialPortLib.obj
 0003:00000101       gBreakSet                  00000000000047a1     PcAtSerialPortLib:SerialPortLib.obj
 0003:00000102       mTdDataReturned            00000000000047a2     TdxLib:TdInfo.obj
 0003:00000108       mTdSharedPageMask          00000000000047a8     TdxLib:TdInfo.obj
 0003:00000118       mEfiVirtualNotifyEvent     00000000000047b8     <common>
 0003:00000120       mInternalRT                00000000000047c0     <common>
 0003:00000128       mEfiExitBootServicesEvent  00000000000047c8     <common>

 entry point at        0001:00000208

 Static symbols

 0001:0000001a       InternalMemCopyMem.0       00000000000002da     BaseMemoryLibRepStr:CopyMem.obj
 0001:0000002a       @CopyBackward              00000000000002ea     BaseMemoryLibRepStr:CopyMem.obj
 0001:00000033       @CopyBytes                 00000000000002f3     BaseMemoryLibRepStr:CopyMem.obj
 0001:0000007f       AsmCpuid.0                 000000000000033f     BaseLib:CpuId.obj
 0001:00000084       AsmCpuid.1                 0000000000000344     BaseLib:CpuId.obj
 0001:0000008b       AsmCpuid.2                 000000000000034b     BaseLib:CpuId.obj
 0001:00000094       AsmCpuid.3                 0000000000000354     BaseLib:CpuId.obj
 0001:00000159       TdVmCall.no_return_data    0000000000000419     BaseLib:TdVmcall.obj
 0001:000001fb       TdCall.exit                00000000000004bb     BaseLib:TdCall.obj
 0003:000000b0       mCcProbeGuestType          0000000000004750     DxeCcProbeLib:DxeCcProbeLib.obj
 0003:000000b1       mCcProbed                  0000000000004751     DxeCcProbeLib:DxeCcProbeLib.obj
 0003:000000f8       mDeadLoopComparator        0000000000004798     BaseLib:CpuDeadLoop.obj
 0003:00000110       mRunningOnQ35              00000000000047b0     DxePciLibI440FxQ35:PciLib.obj
 0005:00000000       $unwind$IoRead32           0000000000004a40     BaseIoLibIntrinsicSev:IoLibMsc.obj
 0005:00000000       $unwind$IoWrite32          0000000000004a40     BaseIoLibIntrinsicSev:IoLibMsc.obj
 0005:00000000       $unwind$SaveAndDisableInterrupts 0000000000004a40     BaseLib:Cpu.obj
 0005:00000000       $unwind$GetNextNode        0000000000004a40     BaseLib:LinkedList.obj
 0005:00000000       $unwind$InternalBaseLibIsListValid 0000000000004a40     BaseLib:LinkedList.obj
 0005:00000000       $unwind$RemoveEntryList    0000000000004a40     BaseLib:LinkedList.obj
 0005:00000000       $unwind$StrnLenS           0000000000004a40     BaseLib:SafeString.obj
 0005:00000000       $unwind$PciExpressRead32   0000000000004a40     BasePciExpressLib:PciExpressLib.obj
 0005:00000000       $unwind$_ModuleEntryPoint  0000000000004a40     UefiDriverEntryPoint:DriverEntryPoint.obj
 0005:00000000       $unwind$InternalAllocateZeroPool 0000000000004a40     UefiMemoryAllocationLib:MemoryAllocationLib.obj
 0005:00000008       $unwind$ProcessLibraryConstructorList 0000000000004a48     ReportStatusCodeRouterRuntimeDxe:AutoGen.obj
 0005:00000024       $unwind$ProcessLibraryDestructorList 0000000000004a64     ReportStatusCodeRouterRuntimeDxe:AutoGen.obj
 0005:00000030       $unwind$ProcessModuleEntryPointList 0000000000004a70     ReportStatusCodeRouterRuntimeDxe:AutoGen.obj
 0005:00000030       $unwind$MmioRead32         0000000000004a70     BaseIoLibIntrinsicSev:IoLib.obj
 0005:00000030       $unwind$TdIoRead32         0000000000004a70     BaseIoLibIntrinsicSev:IoLibInternalTdx.obj
 0005:00000030       $unwind$TdIoWrite32        0000000000004a70     BaseIoLibIntrinsicSev:IoLibInternalTdx.obj
 0005:00000030       $unwind$TdIoWrite8         0000000000004a70     BaseIoLibIntrinsicSev:IoLibInternalTdx.obj
 0005:00000038       $unwind$Register           0000000000004a78     ReportStatusCodeRouterRuntimeDxe:ReportStatusCodeRouterRuntimeDxe.obj
 0005:00000038       $unwind$RscHandlerNotification 0000000000004a78     ReportStatusCodeRouterRuntimeDxe:ReportStatusCodeRouterRuntimeDxe.obj
 0005:00000048       $unwind$Unregister         0000000000004a88     ReportStatusCodeRouterRuntimeDxe:ReportStatusCodeRouterRuntimeDxe.obj
 0005:00000048       $unwind$VirtualAddressChangeCallBack 0000000000004a88     ReportStatusCodeRouterRuntimeDxe:ReportStatusCodeRouterRuntimeDxe.obj
 0005:00000048       $unwind$DivU64x32Remainder 0000000000004a88     BaseLib:DivU64x32Remainder.obj
 0005:00000048       $unwind$CopyGuid           0000000000004a88     BaseMemoryLibRepStr:MemLibGuid.obj
 0005:00000048       $unwind$PciCf8Read32       0000000000004a88     BasePciCf8Lib:PciCf8Lib.obj
 0005:00000048       $unwind$GetHobList         0000000000004a88     DxeHobLib:HobLib.obj
 0005:00000048       $unwind$SerialPortWrite    0000000000004a88     PcAtSerialPortLib:SerialPortLib.obj
 0005:00000058       $unwind$ReportDispatcher   0000000000004a98     ReportStatusCodeRouterRuntimeDxe:ReportStatusCodeRouterRuntimeDxe.obj
 0005:00000070       $unwind$InsertTailList     0000000000004ab0     BaseLib:LinkedList.obj
 0005:00000070       $unwind$IsNull             0000000000004ab0     BaseLib:LinkedList.obj
 0005:00000070       $unwind$AsciiStrLen        0000000000004ab0     BaseLib:String.obj
 0005:00000070       $unwind$ZeroMem            0000000000004ab0     BaseMemoryLibRepStr:ZeroMemWrapper.obj
 0005:0000007c       $unwind$IoRead8            0000000000004abc     BaseIoLibIntrinsicSev:IoLibMsc.obj
 0005:0000007c       $unwind$GetFirstNode       0000000000004abc     BaseLib:LinkedList.obj
 0005:0000007c       $unwind$GetPcdProtocol     0000000000004abc     DxePcdLib:DxePcdLib.obj
 0005:0000007c       $unwind$TdSharedPageMask   0000000000004abc     TdxLib:TdInfo.obj
 0005:0000007c       $unwind$FreePool           0000000000004abc     UefiMemoryAllocationLib:MemoryAllocationLib.obj
 0005:00000084       $unwind$CompareGuid        0000000000004ac4     BaseMemoryLibRepStr:MemLibGuid.obj
 0005:0000009c       $unwind$CopyMem            0000000000004adc     BaseMemoryLibRepStr:CopyMemWrapper.obj
 0005:0000009c       $unwind$InternalReallocatePool 0000000000004adc     UefiMemoryAllocationLib:MemoryAllocationLib.obj
 0005:000000b0       $unwind$DebugPrint         0000000000004af0     BaseDebugLibSerialPort:DebugLib.obj
 0005:000000b8       $unwind$DebugPrintMarker   0000000000004af8     BaseDebugLibSerialPort:DebugLib.obj
 0005:000000cc       $unwind$DebugAssert        0000000000004b0c     BaseDebugLibSerialPort:DebugLib.obj
 0005:000000d4       $unwind$AllocatePool       0000000000004b14     UefiMemoryAllocationLib:MemoryAllocationLib.obj
 0005:000000dc       $unwind$TdIoRead8          0000000000004b1c     BaseIoLibIntrinsicSev:IoLibInternalTdx.obj
 0005:000000dc       $unwind$BasePrintLibSPrint 0000000000004b1c     BasePrintLib:PrintLibInternal.obj
 0005:000000e4       $unwind$AsciiSPrint        0000000000004b24     BasePrintLib:PrintLib.obj
 0005:000000ec       $unwind$BasePrintLibValueToString 0000000000004b2c     BasePrintLib:PrintLibInternal.obj
 0005:000000f8       $unwind$BasePrintLibSPrintMarker 0000000000004b38     BasePrintLib:PrintLibInternal.obj
 0005:00000114       $unwind$GetTdInfo          0000000000004b54     TdxLib:TdInfo.obj
