 SnpDxe

 Timestamp is 6725e4a3 (Sat Nov  2 16:36:51 2024)

 Preferred load address is 0000000000000000

 Start         Length     Name                   Class
 0001:00000000 000001c8H .text                   CODE
 0001:000001c8 00005934H .text$mn                CODE
 0002:00000000 000020c0H .rdata                  DATA
 0002:000020c0 00000030H .rdata$voltmd           DATA
 0002:000020f0 00000148H .rdata$zzzdbg           DATA
 0003:00000000 00000120H .data                   DATA
 0003:00000120 00000042H .bss                    DATA
 0004:00000000 00000360H .pdata                  DATA
 0005:00000000 00000240H .xdata                  DATA

  Address         Publics by Value              Rva+Base               Lib:Object

 0000:00000000       __x64_code_ranges_to_entry_points_count 0000000000000000     <absolute>
 0000:00000000       __guard_iat_table          0000000000000000     <absolute>
 0000:00000000       __guard_longjmp_table      0000000000000000     <absolute>
 0000:00000000       __x64_code_ranges_to_entry_points 0000000000000000     <absolute>
 0000:00000000       __guard_iat_count          0000000000000000     <absolute>
 0000:00000000       __guard_longjmp_count      0000000000000000     <absolute>
 0000:00000000       __guard_fids_count         0000000000000000     <absolute>
 0000:00000000       __dynamic_value_reloc_table 0000000000000000     <absolute>
 0000:00000000       __hybrid_auxiliary_iat     0000000000000000     <absolute>
 0000:00000000       __arm64x_extra_rfe_table   0000000000000000     <absolute>
 0000:00000000       __hybrid_auxiliary_iat_copy 0000000000000000     <absolute>
 0000:00000000       __hybrid_code_map_count    0000000000000000     <absolute>
 0000:00000000       __arm64x_redirection_metadata 0000000000000000     <absolute>
 0000:00000000       __hybrid_code_map          0000000000000000     <absolute>
 0000:00000000       __arm64x_extra_rfe_table_size 0000000000000000     <absolute>
 0000:00000000       __AbsoluteZero             0000000000000000     <absolute>
 0000:00000000       __guard_check_icall_a64n_fptr 0000000000000000     <absolute>
 0000:00000000       __guard_fids_table         0000000000000000     <absolute>
 0000:00000000       __guard_flags              0000000000000000     <absolute>
 0000:00000000       __guard_eh_cont_count      0000000000000000     <absolute>
 0000:00000000       __arm64x_redirection_metadata_count 0000000000000000     <absolute>
 0000:00000000       __enclave_config           0000000000000000     <absolute>
 0000:00000000       __guard_eh_cont_table      0000000000000000     <absolute>
 0000:00000000       __arm64x_native_entrypoint 0000000000000000     <absolute>
 0001:00000000       InternalMemZeroMem         00000000000002c0     BaseMemoryLibRepStr:ZeroMem.obj
 0001:00000020       InternalMemCopyMem         00000000000002e0     BaseMemoryLibRepStr:CopyMem.obj
 0001:00000060       InternalMemSetMem          0000000000000320     BaseMemoryLibRepStr:SetMem.obj
 0001:00000080       InternalMemCompareMem      0000000000000340     BaseMemoryLibRepStr:CompareMem.obj
 0001:000000a0       InternalMemSetMem64        0000000000000360     BaseMemoryLibRepStr:SetMem64.obj
 0001:000000c0       InternalMemSetMem32        0000000000000380     BaseMemoryLibRepStr:SetMem32.obj
 0001:000000e0       CpuPause                   00000000000003a0     BaseLib:CpuPause.obj
 0001:000000f0       TdVmCall                   00000000000003b0     BaseLib:TdVmcall.obj
 0001:00000170       TdCall                     0000000000000430     BaseLib:TdCall.obj
 0001:000001c8       _DriverUnloadHandler       0000000000000488 f   UefiDriverEntryPoint:DriverEntryPoint.obj
 0001:0000034c       _ModuleEntryPoint          000000000000060c f   UefiDriverEntryPoint:DriverEntryPoint.obj
 0001:00000460       ProcessLibraryConstructorList 0000000000000720 f   SnpDxe:AutoGen.obj
 0001:00000688       SnpNotifyExitBootServices  0000000000000948 f   SnpDxe:Snp.obj
 0001:000006a8       IssueHwUndiCommand         0000000000000968 f   SnpDxe:Snp.obj
 0001:000006e0       SimpleNetworkDriverSupported 00000000000009a0 f   SnpDxe:Snp.obj
 0001:0000088c       SimpleNetworkDriverStart   0000000000000b4c f   SnpDxe:Snp.obj
 0001:0000103c       SimpleNetworkDriverStop    00000000000012fc f   SnpDxe:Snp.obj
 0001:00001188       SimpleNetworkComponentNameGetDriverName 0000000000001448 f   SnpDxe:ComponentName.obj
 0001:000011bc       UpdateName                 000000000000147c f   SnpDxe:ComponentName.obj
 0001:00001328       SimpleNetworkComponentNameGetControllerName 00000000000015e8 f   SnpDxe:ComponentName.obj
 0001:0000143c       PxeReceive                 00000000000016fc f   SnpDxe:Receive.obj
 0001:00001600       SnpUndi32Receive           00000000000018c0 f   SnpDxe:Receive.obj
 0001:00001718       PxeReset                   00000000000019d8 f   SnpDxe:Reset.obj
 0001:000017d0       SnpUndi32Reset             0000000000001a90 f   SnpDxe:Reset.obj
 0001:00001888       PxeGetStnAddr              0000000000001b48 f   SnpDxe:Station_address.obj
 0001:0000199c       PxeSetStnAddr              0000000000001c5c f   SnpDxe:Station_address.obj
 0001:00001ac0       SnpUndi32StationAddress    0000000000001d80 f   SnpDxe:Station_address.obj
 0001:00001b9c       PxeStop                    0000000000001e5c f   SnpDxe:Stop.obj
 0001:00001c64       SnpUndi32Stop              0000000000001f24 f   SnpDxe:Stop.obj
 0001:00001d08       PxeIp2Mac                  0000000000001fc8 f   SnpDxe:Mcast_ip_to_mac.obj
 0001:00001e4c       SnpUndi32McastIpToMac      000000000000210c f   SnpDxe:Mcast_ip_to_mac.obj
 0001:00001f38       PxeGetStatus               00000000000021f8 f   SnpDxe:Get_status.obj
 0001:00002188       SnpUndi32GetStatus         0000000000002448 f   SnpDxe:Get_status.obj
 0001:000022b4       SnpUndi32Statistics        0000000000002574 f   SnpDxe:Statistics.obj
 0001:00002548       PxeShutdown                0000000000002808 f   SnpDxe:Shutdown.obj
 0001:00002634       SnpUndi32Shutdown          00000000000028f4 f   SnpDxe:Shutdown.obj
 0001:00002738       PxeInit                    00000000000029f8 f   SnpDxe:Initialize.obj
 0001:0000291c       SnpUndi32Initialize        0000000000002bdc f   SnpDxe:Initialize.obj
 0001:00002ad0       PxeNvDataRead              0000000000002d90 f   SnpDxe:Nvdata.obj
 0001:00002c0c       SnpUndi32NvData            0000000000002ecc f   SnpDxe:Nvdata.obj
 0001:00002d54       PxeStart                   0000000000003014 f   SnpDxe:Start.obj
 0001:00002e88       SnpUndi32Start             0000000000003148 f   SnpDxe:Start.obj
 0001:00002f68       PxeRecvFilterEnable        0000000000003228 f   SnpDxe:Receive_filters.obj
 0001:00003168       PxeRecvFilterDisable       0000000000003428 f   SnpDxe:Receive_filters.obj
 0001:00003298       PxeRecvFilterRead          0000000000003558 f   SnpDxe:Receive_filters.obj
 0001:00003440       SnpUndi32ReceiveFilters    0000000000003700 f   SnpDxe:Receive_filters.obj
 0001:000035c0       PxeFillHeader              0000000000003880 f   SnpDxe:Transmit.obj
 0001:00003734       PxeTransmit                00000000000039f4 f   SnpDxe:Transmit.obj
 0001:0000389c       SnpUndi32Transmit          0000000000003b5c f   SnpDxe:Transmit.obj
 0001:00003a14       SnpWaitForPacketNotify     0000000000003cd4 f   SnpDxe:WaitForPacket.obj
 0001:00003b08       SnpUndi32CallbackBlock     0000000000003dc8 f   SnpDxe:Callback.obj
 0001:00003bc8       SnpUndi32CallbackDelay     0000000000003e88 f   SnpDxe:Callback.obj
 0001:00003be8       SnpUndi32CallbackMemio     0000000000003ea8 f   SnpDxe:Callback.obj
 0001:00003dc0       SnpUndi32CallbackMap       0000000000004080 f   SnpDxe:Callback.obj
 0001:00003e98       SnpUndi32CallbackUnmap     0000000000004158 f   SnpDxe:Callback.obj
 0001:00003f24       SnpUndi32CallbackSync      00000000000041e4 f   SnpDxe:Callback.obj
 0001:00003f64       ZeroMem                    0000000000004224 f   BaseMemoryLibRepStr:ZeroMemWrapper.obj
 0001:00003fd4       CopyMem                    0000000000004294 f   BaseMemoryLibRepStr:CopyMemWrapper.obj
 0001:00004070       SetMem                     0000000000004330 f   BaseMemoryLibRepStr:SetMemWrapper.obj
 0001:000040cc       CompareMem                 000000000000438c f   BaseMemoryLibRepStr:CompareMemWrapper.obj
 0001:00004184       UnicodeSPrint              0000000000004444 f   BasePrintLib:PrintLib.obj
 0001:00004208       AsciiSPrint                00000000000044c8 f   BasePrintLib:PrintLib.obj
 0001:00004234       BasePrintLibFillBuffer     00000000000044f4 f   BasePrintLib:PrintLibInternal.obj
 0001:00004268       BasePrintLibValueToString  0000000000004528 f   BasePrintLib:PrintLibInternal.obj
 0001:000042d4       BasePrintLibSPrintMarker   0000000000004594 f   BasePrintLib:PrintLibInternal.obj
 0001:000051e0       BasePrintLibSPrint         00000000000054a0 f   BasePrintLib:PrintLibInternal.obj
 0001:00005204       DebugPrint                 00000000000054c4 f   BaseDebugLibSerialPort:DebugLib.obj
 0001:00005228       DebugPrintMarker           00000000000054e8 f   BaseDebugLibSerialPort:DebugLib.obj
 0001:000052b4       DebugAssert                0000000000005574 f   BaseDebugLibSerialPort:DebugLib.obj
 0001:00005330       InternalAllocatePool       00000000000055f0 f   UefiMemoryAllocationLib:MemoryAllocationLib.obj
 0001:00005360       InternalAllocateCopyPool   0000000000005620 f   UefiMemoryAllocationLib:MemoryAllocationLib.obj
 0001:000053d8       FreePool                   0000000000005698 f   UefiMemoryAllocationLib:MemoryAllocationLib.obj
 0001:0000541c       IsLanguageSupported        00000000000056dc f   UefiLib:UefiLib.obj
 0001:000054a4       LookupUnicodeString2       0000000000005764 f   UefiLib:UefiLib.obj
 0001:00005598       AddUnicodeString2          0000000000005858 f   UefiLib:UefiLib.obj
 0001:0000578c       StrnLenS                   0000000000005a4c f   BaseLib:SafeString.obj
 0001:000057e4       StrLen                     0000000000005aa4 f   BaseLib:String.obj
 0001:0000586c       AsciiStrLen                0000000000005b2c f   BaseLib:String.obj
 0001:000058d8       AsciiStrnCmp               0000000000005b98 f   BaseLib:String.obj
 0001:000059a4       SerialPortWrite            0000000000005c64 f   PcAtSerialPortLib:SerialPortLib.obj
 0001:00005a28       IsTdxGuest                 0000000000005ce8 f   BaseIoLibIntrinsicSev:IoLibInternalTdx.obj
 0001:00005a54       TdIoRead8                  0000000000005d14 f   BaseIoLibIntrinsicSev:IoLibInternalTdx.obj
 0001:00005aac       TdIoWrite8                 0000000000005d6c f   BaseIoLibIntrinsicSev:IoLibInternalTdx.obj
 0002:00000000       ??_C@_0CB@DMEJJJHA@?6ASSERT_EFI_ERROR?5?$CIStatus?5?$DN?5?$CFr?$CJ@ 0000000000005dc0     UefiDriverEntryPoint:DriverEntryPoint.obj
 0002:00000028       ??_C@_0CH@BBNBJKHK@?$CB?$CI?$CI?$CIINTN?$CJ?$CIRETURN_STATUS?$CJ?$CIStatus@ 0000000000005de8     UefiDriverEntryPoint:DriverEntryPoint.obj
 0002:00000050       ??_C@_0FP@ODLELCIC@D?3?2uefi_specs_personal_collecti@ 0000000000005e10     UefiDriverEntryPoint:DriverEntryPoint.obj
 0002:000000b0       ??_C@_06ONJMDECO@SnpDxe@   0000000000005e70     SnpDxe:AutoGen.obj
 0002:000000c0       ??_C@_0HA@HNNPAMGC@d?3?2uefi_specs_personal_collecti@ 0000000000005e80     SnpDxe:AutoGen.obj
 0002:00000130       ??_C@_0DD@HKACBHBE@?6IssueHwUndiCommand?$CI?$CJ?5?9?5This?5sh@ 0000000000005ef0     SnpDxe:Snp.obj
 0002:00000168       ??_C@_0CK@LKLFDLHA@Support?$CI?$CJ?3?5Already?5Started?4?5on?5@ 0000000000005f28     SnpDxe:Snp.obj
 0002:00000198       ??_C@_0CH@MOIHENEN@Support?$CI?$CJ?3?5UNDI3?41?5found?5on?5han@ 0000000000005f58     SnpDxe:Snp.obj
 0002:000001c0       ??_C@_0CL@GKCBOKHI@?6?$CBPXE?5structure?5is?5not?5paragrap@ 0000000000005f80     SnpDxe:Snp.obj
 0002:000001f0       ??_C@_0BP@EEDPPLOA@?6?$CBPXE?5signature?5is?5not?5valid?4?6@ 0000000000005fb0     SnpDxe:Snp.obj
 0002:00000210       ??_C@_0BN@NDKHMMBD@?6?$CBPXE?4Rev?5is?5not?5supported?4?6@ 0000000000005fd0     SnpDxe:Snp.obj
 0002:00000230       ??_C@_0CC@MLAHNPKL@?6?$CBPXE?4MajorVer?5is?5not?5supported@ 0000000000005ff0     SnpDxe:Snp.obj
 0002:00000258       ??_C@_0CB@CICNKJOJ@?6?$CBPXE?4MinorVer?5is?5not?5supported@ 0000000000006018     SnpDxe:Snp.obj
 0002:00000280       ??_C@_0CE@CENCECIF@?6?$CBPXE?5S?1W?5entry?5point?5is?5not?5va@ 0000000000006040     SnpDxe:Snp.obj
 0002:000002a8       ??_C@_0BG@NOAIPPPI@?6?$CBPXE?4BusCnt?5is?5zero?4@ 0000000000006068     SnpDxe:Snp.obj
 0002:000002c0       ??_C@_0BM@HNFIGFPF@Support?$CI?$CJ?3?5supported?5on?5?$CFp?6@ 0000000000006080     SnpDxe:Snp.obj
 0002:000002e0       ??_C@_0CJ@DJGKPPOD@?6SnpNotifyNetworkInterfaceIdent@ 00000000000060a0     SnpDxe:Snp.obj
 0002:00000310       ??_C@_0BI@FMBEHHHO@Start?$CI?$CJ?3?5UNDI3?41?5found?6@ 00000000000060d0     SnpDxe:Snp.obj
 0002:00000328       ??_C@_0CA@FKHPBMLJ@?6?$CBPXE?5checksum?5is?5not?5correct?4?6@ 00000000000060e8     SnpDxe:Snp.obj
 0002:00000348       ??_C@_0DG@MCBBBEDA@?6UNDI?5does?5not?5have?5promiscuous@ 0000000000006108     SnpDxe:Snp.obj
 0002:00000380       ??_C@_0CL@EEBCPBMA@?6Could?5not?5allocate?5SNP_DRIVER?5@ 0000000000006140     SnpDxe:Snp.obj
 0002:000003b0       ??_C@_0CM@HEOHGCJM@?6Could?5not?5allocate?5CPB?5and?5DB?5@ 0000000000006170     SnpDxe:Snp.obj
 0002:000003e0       ??_C@_0BN@NIBKMAEN@?6Snp?9?$DOundi?4get_init_info?$CI?$CJ?5?5@ 00000000000061a0     SnpDxe:Snp.obj
 0002:00000400       ??_C@_0CB@LLMJHKOI@?6Snp?9?$DOundi?4init_info?$CI?$CJ?5?5?$CFxh?3?$CFxh@ 00000000000061c0     SnpDxe:Snp.obj
 0002:00000428       ??_C@_0CH@MHAFHCOP@?6Snp?9?$DOundi?4get_station_addr?$CI?$CJ?5f@ 00000000000061e8     SnpDxe:Snp.obj
 0002:00000450       ??_C@_0BF@NDBIKIKC@CR?5has?5Bad?5Signature@ 0000000000006210     SnpDxe:Snp.obj
 0002:00000470       ??_C@_0EA@HPDIKGBD@D?3?2uefi_specs_personal_collecti@ 0000000000006230     SnpDxe:Snp.obj
 0002:000004b0       ??_C@_03LKLGDMJI@eng@      0000000000006270     SnpDxe:ComponentName.obj
 0002:000004b4       ??_C@_02LFNMGJAP@en@       0000000000006274     SnpDxe:ComponentName.obj
 0002:000004b8       ??_C@_06DALJLGPG@eng?$DLen@ 0000000000006278     SnpDxe:ComponentName.obj
 0002:000004c0       ??_C@_1DO@BIKFHFAA@?$AAS?$AAi?$AAm?$AAp?$AAl?$AAe?$AA?5?$AAN?$AAe?$AAt?$AAw?$AAo?$AAr?$AAk?$AA?5@ 0000000000006280     SnpDxe:ComponentName.obj
 0002:00000500       ??_C@_1BE@DHODELAF@?$AAS?$AAN?$AAP?$AA?5?$AA?$CI?$AAM?$AAA?$AAC?$AA?$DN@ 00000000000062c0     SnpDxe:ComponentName.obj
 0002:00000518       ??_C@_1M@BJCGLODJ@?$AA?$CF?$AA0?$AA2?$AAX?$AA?9@ 00000000000062d8     SnpDxe:ComponentName.obj
 0002:00000528       ??_C@_0L@IGOCCHBG@OffSet?5?$DO?50@ 00000000000062e8     SnpDxe:ComponentName.obj
 0002:00000540       ??_C@_0EK@CAMPHEEI@D?3?2uefi_specs_personal_collecti@ 0000000000006300     SnpDxe:ComponentName.obj
 0002:0000058c       ??_C@_13DIBMAFH@?$AA?$CJ@  000000000000634c     SnpDxe:ComponentName.obj
 0002:00000590       ??_C@_0BI@BKKGPDEO@?6snp?9?$DOundi?4receive?5?$CI?$CJ?5?5@ 0000000000006350     SnpDxe:Receive.obj
 0002:000005a8       ??_C@_0CA@DNHOLMNO@?6snp?9?$DOundi?4receive?5?$CI?$CJ?5?5?$CFxh?3?$CFxh?6@ 0000000000006368     SnpDxe:Receive.obj
 0002:000005c8       ??_C@_0BP@MOABKKOP@?6snp?9?$DOundi?4receive?$CI?$CJ?5?5?$CFxh?3?$CFxh?6@ 0000000000006388     SnpDxe:Receive.obj
 0002:000005f0       ??_C@_0EE@DGCBIJOL@D?3?2uefi_specs_personal_collecti@ 00000000000063b0     SnpDxe:Receive.obj
 0002:00000638       ??_C@_0BF@BHJGCPFK@?6snp?9?$DOundi?4reset?$CI?$CJ?5?5@ 00000000000063f8     SnpDxe:Reset.obj
 0002:00000650       ??_C@_0BP@ICPEKHCF@?6snp?9?$DOundi32?4reset?$CI?$CJ?5?5?$CFxh?3?$CFxh?6@ 0000000000006410     SnpDxe:Reset.obj
 0002:00000670       ??_C@_0CP@PACIEKAH@ExtendedVerification?5?$DN?5?$CFd?5is?5no@ 0000000000006430     SnpDxe:Reset.obj
 0002:000006a0       ??_C@_0EC@IIINELEN@D?3?2uefi_specs_personal_collecti@ 0000000000006460     SnpDxe:Reset.obj
 0002:000006e8       ??_C@_0BM@FAJPPKKM@?6snp?9?$DOundi?4station_addr?$CI?$CJ?5?5@ 00000000000064a8     SnpDxe:Station_address.obj
 0002:00000708       ??_C@_0CE@FICFMNJM@?6snp?9?$DOundi?4station_addr?$CI?$CJ?5?5?$CFxh?3@ 00000000000064c8     SnpDxe:Station_address.obj
 0002:00000730       ??_C@_0EM@JAHLDKGL@D?3?2uefi_specs_personal_collecti@ 00000000000064f0     SnpDxe:Station_address.obj
 0002:00000780       ??_C@_0BE@EHOAHBC@?6snp?9?$DOundi?4stop?$CI?$CJ?5?5@ 0000000000006540     SnpDxe:Stop.obj
 0002:00000798       ??_C@_0BM@IOHLPDDM@?6snp?9?$DOundi?4stop?$CI?$CJ?5?5?$CFxh?3?$CFxh?6@ 0000000000006558     SnpDxe:Stop.obj
 0002:000007c0       ??_C@_0EB@NJHMAGLA@D?3?2uefi_specs_personal_collecti@ 0000000000006580     SnpDxe:Stop.obj
 0002:00000808       ??_C@_0BP@OKOGGHFM@?6Snp?9?$DOundi?4mcast_ip_to_mac?$CI?$CJ?5?5@ 00000000000065c8     SnpDxe:Mcast_ip_to_mac.obj
 0002:00000828       ??_C@_0CH@FPALICJG@?6Snp?9?$DOundi?4mcast_ip_to_mac?$CI?$CJ?5?5?$CF@ 00000000000065e8     SnpDxe:Mcast_ip_to_mac.obj
 0002:00000850       ??_C@_0EM@DDGKAILA@D?3?2uefi_specs_personal_collecti@ 0000000000006610     SnpDxe:Mcast_ip_to_mac.obj
 0002:000008a0       ??_C@_0BK@HBGFOPNJ@?6Snp?9?$DOundi?4get_status?$CI?$CJ?5?5@ 0000000000006660     SnpDxe:Get_status.obj
 0002:000008c0       ??_C@_0CC@MBNLNNMK@?6Snp?9?$DOundi?4get_status?$CI?$CJ?5?5?$CFxh?3?$CFx@ 0000000000006680     SnpDxe:Get_status.obj
 0002:000008f0       ??_C@_0EH@JKBDCEJF@D?3?2uefi_specs_personal_collecti@ 00000000000066b0     SnpDxe:Get_status.obj
 0002:00000940       ??_C@_0EH@EHCJNIBM@D?3?2uefi_specs_personal_collecti@ 0000000000006700     SnpDxe:Statistics.obj
 0002:00000988       ??_C@_0BK@JPABOBAK@?6snp?9?$DOundi?4statistics?$CI?$CJ?5?5@ 0000000000006748     SnpDxe:Statistics.obj
 0002:000009a8       ??_C@_0CC@BNPHODJK@?6snp?9?$DOundi?4statistics?$CI?$CJ?5?5?$CFxh?3?$CFx@ 0000000000006768     SnpDxe:Statistics.obj
 0002:000009d0       ??_C@_0BI@IABIOENH@?6snp?9?$DOundi?4shutdown?$CI?$CJ?5?5@ 0000000000006790     SnpDxe:Shutdown.obj
 0002:000009e8       ??_C@_0CA@BELOPMPA@?6snp?9?$DOundi?4shutdown?$CI?$CJ?5?5?$CFxh?3?$CFxh?6@ 00000000000067a8     SnpDxe:Shutdown.obj
 0002:00000a10       ??_C@_0EF@JOPNMMPM@D?3?2uefi_specs_personal_collecti@ 00000000000067d0     SnpDxe:Shutdown.obj
 0002:00000a58       ??_C@_0CL@JCGPCHHD@?6Snp?9?$DOPxeInit?$CI?$CJ?5?5AllocateBuffer@ 0000000000006818     SnpDxe:Initialize.obj
 0002:00000a84       ??_C@_04LKNNGBMH@Addr@     0000000000006844     SnpDxe:Initialize.obj
 0002:00000a90       ??_C@_0EH@OHLAOFHH@D?3?2uefi_specs_personal_collecti@ 0000000000006850     SnpDxe:Initialize.obj
 0002:00000ad8       ??_C@_0BK@PBEOPBDC@?6Snp?9?$DOundi?4initialize?$CI?$CJ?5?5@ 0000000000006898     SnpDxe:Initialize.obj
 0002:00000af8       ??_C@_0CC@PEANEGAJ@?6Snp?9?$DOundi?4initialize?$CI?$CJ?5?5?$CFxh?3?$CFx@ 00000000000068b8     SnpDxe:Initialize.obj
 0002:00000b20       ??_C@_0BH@FLDAFBFA@?6snp?9?$DOundi?4nvdata?5?$CI?$CJ?5?5@ 00000000000068e0     SnpDxe:Nvdata.obj
 0002:00000b38       ??_C@_0BO@NANKBAHB@?6snp?9?$DOundi?4nvdata?$CI?$CJ?5?5?$CFxh?3?$CFxh?6@ 00000000000068f8     SnpDxe:Nvdata.obj
 0002:00000b58       ??_C@_0BL@JCFOAPNO@Offset?5?$DM?5sizeof?5?$CIDb?9?$DOData?$CJ@ 0000000000006918     SnpDxe:Nvdata.obj
 0002:00000b80       ??_C@_0ED@HMCILJAB@D?3?2uefi_specs_personal_collecti@ 0000000000006940     SnpDxe:Nvdata.obj
 0002:00000bc8       ??_C@_0BF@NPAIIGEA@?6snp?9?$DOundi?4start?$CI?$CJ?5?5@ 0000000000006988     SnpDxe:Start.obj
 0002:00000be0       ??_C@_0BN@JEEHEGFF@?6snp?9?$DOundi?4start?$CI?$CJ?5?5?$CFxh?3?$CFxh?6@ 00000000000069a0     SnpDxe:Start.obj
 0002:00000c00       ??_C@_0EC@BJFADEKL@D?3?2uefi_specs_personal_collecti@ 00000000000069c0     SnpDxe:Start.obj
 0002:00000c48       ??_C@_0BP@JBFPGNDL@?6snp?9?$DOundi?4receive_filters?$CI?$CJ?5?5@ 0000000000006a08     SnpDxe:Receive_filters.obj
 0002:00000c68       ??_C@_0CH@JCJCOHBJ@?6snp?9?$DOundi?4receive_filters?$CI?$CJ?5?5?$CF@ 0000000000006a28     SnpDxe:Receive_filters.obj
 0002:00000c90       ??_C@_0EM@EJCBEMFN@D?3?2uefi_specs_personal_collecti@ 0000000000006a50     SnpDxe:Receive_filters.obj
 0002:00000ce0       ??_C@_0BL@GBDGACCI@?6Snp?9?$DOundi?4fill_header?$CI?$CJ?5?5@ 0000000000006aa0     SnpDxe:Transmit.obj
 0002:00000d00       ??_C@_0CD@HKJHODBC@?6Snp?9?$DOundi?4fill_header?$CI?$CJ?5?5?$CFxh?3?$CF@ 0000000000006ac0     SnpDxe:Transmit.obj
 0002:00000d28       ??_C@_0BI@CICKKDEJ@?6Snp?9?$DOundi?4transmit?$CI?$CJ?5?5@ 0000000000006ae8     SnpDxe:Transmit.obj
 0002:00000d40       ??_C@_0BI@ELGADJFF@?6Snp?9?$DOCdb?4OpCode?5?5?$DN?$DN?5?$CFx@ 0000000000006b00     SnpDxe:Transmit.obj
 0002:00000d58       ??_C@_0BJ@EFBKIGDL@?6Snp?9?$DOCdb?4CPBaddr?5?$DN?$DN?5?$CFLX@ 0000000000006b18     SnpDxe:Transmit.obj
 0002:00000d78       ??_C@_0BJ@LJMELJJE@?6Snp?9?$DOCdb?4DBaddr?5?5?$DN?$DN?5?$CFLX@ 0000000000006b38     SnpDxe:Transmit.obj
 0002:00000d98       ??_C@_0BK@KKMNJGD@?6Cpb?9?$DOFrameAddr?5?5?5?$DN?$DN?5?$CFLX?6@ 0000000000006b58     SnpDxe:Transmit.obj
 0002:00000db8       ??_C@_0BN@JCAAFMIO@?6exit?5Snp?9?$DOundi?4transmit?$CI?$CJ?5?5@ 0000000000006b78     SnpDxe:Transmit.obj
 0002:00000dd8       ??_C@_0CA@KGPNGDDF@?6Snp?9?$DOundi?4transmit?$CI?$CJ?5?5?$CFxh?3?$CFxh?6@ 0000000000006b98     SnpDxe:Transmit.obj
 0002:00000e00       ??_C@_0EF@JENIGLJD@D?3?2uefi_specs_personal_collecti@ 0000000000006bc0     SnpDxe:Transmit.obj
 0002:00000e48       ??_C@_0BJ@PDGJMIJD@Snp?9?$DOIoBarIndex?5?$DM?50x0006@ 0000000000006c08     SnpDxe:Callback.obj
 0002:00000e70       ??_C@_0EF@JIEHGIHD@D?3?2uefi_specs_personal_collecti@ 0000000000006c30     SnpDxe:Callback.obj
 0002:00000eb8       ??_C@_0BN@KJPHILFJ@Snp?9?$DOMemoryBarIndex?5?$DM?50x0006@ 0000000000006c78     SnpDxe:Callback.obj
 0002:00000ed8       ??_C@_0BF@LOADKECJ@SNP?5maplist?5is?5FULL?6@ 0000000000006c98     SnpDxe:Callback.obj
 0002:00000ef0       ??_C@_0DA@DCLKLPJO@SNP?5could?5not?5find?5a?5mapping?0?5f@ 0000000000006cb0     SnpDxe:Callback.obj
 0002:00000f20       ??_C@_0BH@IACGKAP@Buffer?5?$CB?$DN?5?$CI?$CIvoid?5?$CK?$CJ?50?$CJ@ 0000000000006ce0     BaseMemoryLibRepStr:ZeroMemWrapper.obj
 0002:00000f40       ??_C@_0FM@DHFKCLFA@D?3?2uefi_specs_personal_collecti@ 0000000000006d00     BaseMemoryLibRepStr:ZeroMemWrapper.obj
 0002:00000fa0       ??_C@_0DG@EEENIGGL@Length?5?$DM?$DN?5?$CI0xFFFFFFFFFFFFFFFFUL@ 0000000000006d60     BaseMemoryLibRepStr:ZeroMemWrapper.obj
 0002:00000fe0       ??_C@_0ED@MKGCMJG@?$CILength?5?9?51?$CJ?5?$DM?$DN?5?$CI0xFFFFFFFFFFFF@ 0000000000006da0     BaseMemoryLibRepStr:CopyMemWrapper.obj
 0002:00001030       ??_C@_0FM@IDPIEKJH@D?3?2uefi_specs_personal_collecti@ 0000000000006df0     BaseMemoryLibRepStr:CopyMemWrapper.obj
 0002:00001090       ??_C@_0DO@MAOBOFEG@?$CILength?5?9?51?$CJ?5?$DM?$DN?5?$CI0xFFFFFFFFFFFF@ 0000000000006e50     BaseMemoryLibRepStr:CopyMemWrapper.obj
 0002:000010d0       ??_C@_0DI@DAGDPLPG@?$CILength?5?9?51?$CJ?5?$DM?$DN?5?$CI0xFFFFFFFFFFFF@ 0000000000006e90     BaseMemoryLibRepStr:SetMemWrapper.obj
 0002:00001110       ??_C@_0FL@MFFLICHL@D?3?2uefi_specs_personal_collecti@ 0000000000006ed0     BaseMemoryLibRepStr:SetMemWrapper.obj
 0002:00001170       ??_C@_0CC@JOEHDGKB@DestinationBuffer?5?$CB?$DN?5?$CI?$CIvoid?5?$CK?$CJ?5@ 0000000000006f30     BaseMemoryLibRepStr:CompareMemWrapper.obj
 0002:000011a0       ??_C@_0FP@MJKEJMKF@D?3?2uefi_specs_personal_collecti@ 0000000000006f60     BaseMemoryLibRepStr:CompareMemWrapper.obj
 0002:00001200       ??_C@_0BN@MDMCNBCC@SourceBuffer?5?$CB?$DN?5?$CI?$CIvoid?5?$CK?$CJ?50?$CJ@ 0000000000006fc0     BaseMemoryLibRepStr:CompareMemWrapper.obj
 0002:00001220       ??_C@_0CI@BGLNHBLM@?$CI?$CI?$CIUINTN?$CJ?5?$CIStartOfBuffer?$CJ?$CJ?5?$CG?50x@ 0000000000006fe0     BasePrintLib:PrintLib.obj
 0002:00001250       ??_C@_0EP@OFLCNDBG@D?3?2uefi_specs_personal_collecti@ 0000000000007010     BasePrintLib:PrintLib.obj
 0002:000012a0       ??_C@_0CH@KJLBGOBB@?$CI?$CI?$CIUINTN?$CJ?5?$CIFormatString?$CJ?$CJ?5?$CG?50x0@ 0000000000007060     BasePrintLib:PrintLib.obj
 0002:000012d0       ??_C@_0FH@MODEAFEI@D?3?2uefi_specs_personal_collecti@ 0000000000007090     BasePrintLib:PrintLibInternal.obj
 0002:00001328       ??_C@_0BJ@CNKJJNE@?$CIBuffer?5?$CB?$DN?5?$CI?$CIvoid?5?$CK?$CJ?50?$CJ?$CJ@ 00000000000070e8     BasePrintLib:PrintLibInternal.obj
 0002:00001350       ??_C@_0EB@HDGIDCIO@?$CIBufferSize?5?$DM?$DN?5?$CI_gPcd_FixedAtBu@ 0000000000007110     BasePrintLib:PrintLibInternal.obj
 0002:00001398       ??_C@_0BJ@PPAKKDJG@?$CIFormat?5?$CB?$DN?5?$CI?$CIvoid?5?$CK?$CJ?50?$CJ?$CJ@ 0000000000007158     BasePrintLib:PrintLibInternal.obj
 0002:000013c0       ??_C@_0ED@LPDDCECB@?$CIBufferSize?5?$DM?$DN?5?$CI_gPcd_FixedAtBu@ 0000000000007180     BasePrintLib:PrintLibInternal.obj
 0002:00001410       ??_C@_0IM@BFJJFLGB@?$CIStrnLenS?5?$CI?$CICHAR16?5?$CK?$CJFormat?0?5?$CI_@ 00000000000071d0     BasePrintLib:PrintLibInternal.obj
 0002:000014a0       ??_C@_0ID@PLGJGION@?$CIAsciiStrnLenS?5?$CIFormat?0?5?$CI_gPcd_@ 0000000000007260     BasePrintLib:PrintLibInternal.obj
 0002:00001528       ??_C@_0O@MLOLIMFM@?$DMnull?5string?$DO@ 00000000000072e8     BasePrintLib:PrintLibInternal.obj
 0002:00001538       ??_C@_0M@BJJDNPHK@?$DMnull?5guid?$DO@ 00000000000072f8     BasePrintLib:PrintLibInternal.obj
 0002:00001548       ??_C@_0DB@PMLHLBMO@?$CF08x?9?$CF04x?9?$CF04x?9?$CF02x?$CF02x?9?$CF02x?$CF02@ 0000000000007308     BasePrintLib:PrintLibInternal.obj
 0002:00001580       ??_C@_0M@LHGBCIKM@?$DMnull?5time?$DO@ 0000000000007340     BasePrintLib:PrintLibInternal.obj
 0002:00001590       ??_C@_0BK@FCPKCIDD@?$CF02d?1?$CF02d?1?$CF04d?5?5?$CF02d?3?$CF02d@ 0000000000007350     BasePrintLib:PrintLibInternal.obj
 0002:000015ac       ??_C@_04JIMNDDED@?$CF08X@  000000000000736c     BasePrintLib:PrintLibInternal.obj
 0002:000015b4       ??_C@_02PCIJFNDE@?$AN?6@   0000000000007374     BasePrintLib:PrintLibInternal.obj
 0002:000015b8       ??_C@_01LIIJDEN@?$AN@      0000000000007378     BasePrintLib:PrintLibInternal.obj
 0002:000015c0       mWarningString             0000000000007380     BasePrintLib:PrintLibInternal.obj
 0002:00001690       mErrorString               0000000000007450     BasePrintLib:PrintLibInternal.obj
 0002:00001970       mHexStr                    0000000000007730     BasePrintLib:PrintLibInternal.obj
 0002:00001980       ??_C@_0BH@LKMBFCBF@Format?5?$CB?$DN?5?$CI?$CIvoid?5?$CK?$CJ?50?$CJ@ 0000000000007740     BaseDebugLibSerialPort:DebugLib.obj
 0002:000019a0       ??_C@_0FJ@BNNHJMAJ@D?3?2uefi_specs_personal_collecti@ 0000000000007760     BaseDebugLibSerialPort:DebugLib.obj
 0002:00001a00       ??_C@_0BI@NOCKJDBJ@ASSERT?5?$FL?$CFa?$FN?5?$CFa?$CI?$CFd?$CJ?3?5?$CFa?6@ 00000000000077c0     BaseDebugLibSerialPort:DebugLib.obj
 0002:00001a18       ??_C@_0BN@COECPDCC@gImageHandle?5?$CB?$DN?5?$CI?$CIvoid?5?$CK?$CJ?50?$CJ@ 00000000000077d8     UefiBootServicesTableLib:UefiBootServicesTableLib.obj
 0002:00001a40       ??_C@_0GL@PJCPJLGM@D?3?2uefi_specs_personal_collecti@ 0000000000007800     UefiBootServicesTableLib:UefiBootServicesTableLib.obj
 0002:00001ab0       ??_C@_0BE@DGNHAHIL@gST?5?$CB?$DN?5?$CI?$CIvoid?5?$CK?$CJ?50?$CJ@ 0000000000007870     UefiBootServicesTableLib:UefiBootServicesTableLib.obj
 0002:00001ac8       ??_C@_0BE@BDFJLGLN@gBS?5?$CB?$DN?5?$CI?$CIvoid?5?$CK?$CJ?50?$CJ@ 0000000000007888     UefiBootServicesTableLib:UefiBootServicesTableLib.obj
 0002:00001ae0       ??_C@_0GF@KMHDEKMA@D?3?2uefi_specs_personal_collecti@ 00000000000078a0     UefiMemoryAllocationLib:MemoryAllocationLib.obj
 0002:00001b48       ??_C@_0DO@GEEICOOO@AllocationSize?5?$DM?$DN?5?$CI0xFFFFFFFFFF@ 0000000000007908     UefiMemoryAllocationLib:MemoryAllocationLib.obj
 0002:00001b90       ??_C@_0GP@HEOOPGAM@D?3?2uefi_specs_personal_collecti@ 0000000000007950     UefiDevicePathLibDevicePathProtocol:UefiDevicePathLib.obj
 0002:00001c00       ??_C@_0DC@CNNBPJA@mDevicePathLibDevicePathUtiliti@ 00000000000079c0     UefiDevicePathLibDevicePathProtocol:UefiDevicePathLib.obj
 0002:00001c38       ??_C@_0BE@OBDFIHND@gRT?5?$CB?$DN?5?$CI?$CIvoid?5?$CK?$CJ?50?$CJ@ 00000000000079f8     UefiRuntimeServicesTableLib:UefiRuntimeServicesTableLib.obj
 0002:00001c50       ??_C@_0HB@NCAPNEDO@D?3?2uefi_specs_personal_collecti@ 0000000000007a10     UefiRuntimeServicesTableLib:UefiRuntimeServicesTableLib.obj
 0002:00001cd0       ??_C@_0EJ@PPOMJLJB@D?3?2uefi_specs_personal_collecti@ 0000000000007a90     UefiLib:UefiLib.obj
 0002:00001d20       ??_C@_0BF@JGGLMCFN@Lock?5?$CB?$DN?5?$CI?$CIvoid?5?$CK?$CJ?50?$CJ@ 0000000000007ae0     UefiLib:UefiLib.obj
 0002:00001d38       ??_C@_0BO@IJOPPPFL@Lock?9?$DOLock?5?$DN?$DN?5EfiLockReleased@ 0000000000007af8     UefiLib:UefiLib.obj
 0002:00001d58       ??_C@_0BO@FHNOFLFJ@Lock?9?$DOLock?5?$DN?$DN?5EfiLockAcquired@ 0000000000007b18     UefiLib:UefiLib.obj
 0002:00001d80       ??_C@_0FB@KFBGMLJM@D?3?2uefi_specs_personal_collecti@ 0000000000007b40     UefiLib:UefiDriverModel.obj
 0002:00001de0       ??_C@_0EL@GLNKFHII@D?3?2uefi_specs_personal_collecti@ 0000000000007ba0     BaseLib:Unaligned.obj
 0002:00001e30       ??_C@_0N@KGHEHMDL@Divisor?5?$CB?$DN?50@ 0000000000007bf0     BaseLib:DivU64x32Remainder.obj
 0002:00001e40       ??_C@_0FE@LIGPAOFO@D?3?2uefi_specs_personal_collecti@ 0000000000007c00     BaseLib:DivU64x32Remainder.obj
 0002:00001e98       ??_C@_0CC@GFNLNIOC@?$CI?$CIUINTN?$CJString?5?$CG?50x00000001?$CJ?5?$DN?$DN@ 0000000000007c58     BaseLib:SafeString.obj
 0002:00001ec0       ??_C@_0EM@OAPOMMAE@D?3?2uefi_specs_personal_collecti@ 0000000000007c80     BaseLib:SafeString.obj
 0002:00001f10       ??_C@_0BH@MAAHKCPC@String?5?$CB?$DN?5?$CI?$CIvoid?5?$CK?$CJ?50?$CJ@ 0000000000007cd0     BaseLib:String.obj
 0002:00001f30       ??_C@_0EI@LOLLHGDK@D?3?2uefi_specs_personal_collecti@ 0000000000007cf0     BaseLib:String.obj
 0002:00001f78       ??_C@_0DK@EOJCOAME@Length?5?$DM?5_gPcd_FixedAtBuild_Pcd@ 0000000000007d38     BaseLib:String.obj
 0002:00001fb8       ??_C@_0DI@MDIKFADO@Length?5?$DM?5_gPcd_FixedAtBuild_Pcd@ 0000000000007d78     BaseLib:String.obj
 0002:00001ff0       ??_C@_0BL@IKFBNFIL@AsciiStrSize?5?$CIFirstString?$CJ@ 0000000000007db0     BaseLib:String.obj
 0002:00002010       ??_C@_0BM@EDNOKLLE@AsciiStrSize?5?$CISecondString?$CJ@ 0000000000007dd0     BaseLib:String.obj
 0002:00002030       ??_C@_0DJ@JJHGIFMP@Length?5?$DM?$DN?5_gPcd_FixedAtBuild_Pc@ 0000000000007df0     BaseLib:String.obj
 0002:000020c0       __volatile_metadata        0000000000007e80     <linker-defined>
 0003:00000000       gEfiLoadedImageProtocolGuid 0000000000008000     SnpDxe:AutoGen.obj
 0003:00000010       gEfiComponentName2ProtocolGuid 0000000000008010     SnpDxe:AutoGen.obj
 0003:00000020       gEfiNetworkInterfaceIdentifierProtocolGuid_31 0000000000008020     SnpDxe:AutoGen.obj
 0003:00000030       gEfiDevicePathProtocolGuid 0000000000008030     SnpDxe:AutoGen.obj
 0003:00000040       gEfiPciIoProtocolGuid      0000000000008040     SnpDxe:AutoGen.obj
 0003:00000050       gEfiSimpleNetworkProtocolGuid 0000000000008050     SnpDxe:AutoGen.obj
 0003:00000060       gEfiDevicePathUtilitiesProtocolGuid 0000000000008060     SnpDxe:AutoGen.obj
 0003:00000070       gEfiDriverBindingProtocolGuid 0000000000008070     SnpDxe:AutoGen.obj
 0003:00000080       gEfiEventExitBootServicesGuid 0000000000008080     SnpDxe:AutoGen.obj
 0003:00000090       gEfiComponentNameProtocolGuid 0000000000008090     SnpDxe:AutoGen.obj
 0003:000000a0       gSimpleNetworkDriverBinding 00000000000080a0     SnpDxe:Snp.obj
 0003:000000d0       gSimpleNetworkComponentName2 00000000000080d0     SnpDxe:ComponentName.obj
 0003:000000e8       gSimpleNetworkComponentName 00000000000080e8     SnpDxe:ComponentName.obj
 0003:00000100       mSimpleNetworkDriverNameTable 0000000000008100     SnpDxe:ComponentName.obj
 0003:00000120       gSimpleNetworkControllerNameTable 0000000000008120     SnpDxe:ComponentName.obj
 0003:00000130       gST                        0000000000008130     UefiBootServicesTableLib:UefiBootServicesTableLib.obj
 0003:00000138       gBS                        0000000000008138     UefiBootServicesTableLib:UefiBootServicesTableLib.obj
 0003:00000140       gImageHandle               0000000000008140     UefiBootServicesTableLib:UefiBootServicesTableLib.obj
 0003:00000148       mDevicePathLibDevicePathUtilities 0000000000008148     UefiDevicePathLibDevicePathProtocol:UefiDevicePathLib.obj
 0003:00000150       gRT                        0000000000008150     UefiRuntimeServicesTableLib:UefiRuntimeServicesTableLib.obj
 0003:00000160       gParity                    0000000000008160     PcAtSerialPortLib:SerialPortLib.obj
 0003:00000161       gBreakSet                  0000000000008161     PcAtSerialPortLib:SerialPortLib.obj

 entry point at        0001:0000034c

 Static symbols

 0001:0000003a       InternalMemCopyMem.0       00000000000002fa     BaseMemoryLibRepStr:CopyMem.obj
 0001:0000004a       @CopyBackward              000000000000030a     BaseMemoryLibRepStr:CopyMem.obj
 0001:00000053       @CopyBytes                 0000000000000313     BaseMemoryLibRepStr:CopyMem.obj
 0001:00000149       TdVmCall.no_return_data    0000000000000409     BaseLib:TdVmcall.obj
 0001:000001bb       TdCall.exit                000000000000047b     BaseLib:TdCall.obj
 0003:00000128       mCcProbeGuestType          0000000000008128     DxeCcProbeLib:DxeCcProbeLib.obj
 0003:00000129       mCcProbed                  0000000000008129     DxeCcProbeLib:DxeCcProbeLib.obj
 0003:00000158       mDeadLoopComparator        0000000000008158     BaseLib:CpuDeadLoop.obj
 0005:00000000       $unwind$_DriverUnloadHandler 00000000000084e0     UefiDriverEntryPoint:DriverEntryPoint.obj
 0005:00000010       $unwind$_ModuleEntryPoint  00000000000084f0     UefiDriverEntryPoint:DriverEntryPoint.obj
 0005:0000001c       $unwind$AsciiStrnCmp       00000000000084fc     BaseLib:String.obj
 0005:0000001c       $unwind$StrLen             00000000000084fc     BaseLib:String.obj
 0005:0000001c       $unwind$SetMem             00000000000084fc     BaseMemoryLibRepStr:SetMemWrapper.obj
 0005:0000001c       $unwind$BasePrintLibValueToString 00000000000084fc     BasePrintLib:PrintLibInternal.obj
 0005:0000001c       $unwind$IsLanguageSupported 00000000000084fc     UefiLib:UefiLib.obj
 0005:0000001c       $unwind$ProcessLibraryConstructorList 00000000000084fc     SnpDxe:AutoGen.obj
 0005:0000001c       $unwind$PxeRecvFilterDisable 00000000000084fc     SnpDxe:Receive_filters.obj
 0005:0000001c       $unwind$PxeReset           00000000000084fc     SnpDxe:Reset.obj
 0005:0000001c       $unwind$PxeShutdown        00000000000084fc     SnpDxe:Shutdown.obj
 0005:0000001c       $unwind$SnpUndi32Shutdown  00000000000084fc     SnpDxe:Shutdown.obj
 0005:0000001c       $unwind$SnpUndi32Start     00000000000084fc     SnpDxe:Start.obj
 0005:0000001c       $unwind$SerialPortWrite    00000000000084fc     PcAtSerialPortLib:SerialPortLib.obj
 0005:0000002c       $unwind$StrnLenS           000000000000850c     BaseLib:SafeString.obj
 0005:0000002c       $unwind$SnpUndi32CallbackBlock 000000000000850c     SnpDxe:Callback.obj
 0005:0000002c       $unwind$IssueHwUndiCommand 000000000000850c     SnpDxe:Snp.obj
 0005:0000002c       $unwind$SnpNotifyExitBootServices 000000000000850c     SnpDxe:Snp.obj
 0005:00000034       $unwind$SimpleNetworkDriverSupported 0000000000008514     SnpDxe:Snp.obj
 0005:00000048       $unwind$SimpleNetworkDriverStart 0000000000008528     SnpDxe:Snp.obj
 0005:00000060       $unwind$SimpleNetworkDriverStop 0000000000008540     SnpDxe:Snp.obj
 0005:00000070       $unwind$SimpleNetworkComponentNameGetDriverName 0000000000008550     SnpDxe:ComponentName.obj
 0005:00000078       $unwind$UpdateName         0000000000008558     SnpDxe:ComponentName.obj
 0005:0000008c       $unwind$SimpleNetworkComponentNameGetControllerName 000000000000856c     SnpDxe:ComponentName.obj
 0005:000000a0       $unwind$AddUnicodeString2  0000000000008580     UefiLib:UefiLib.obj
 0005:000000a0       $unwind$PxeReceive         0000000000008580     SnpDxe:Receive.obj
 0005:000000bc       $unwind$SnpUndi32Receive   000000000000859c     SnpDxe:Receive.obj
 0005:000000bc       $unwind$SnpUndi32Transmit  000000000000859c     SnpDxe:Transmit.obj
 0005:000000d4       $unwind$AsciiStrLen        00000000000085b4     BaseLib:String.obj
 0005:000000d4       $unwind$CompareMem         00000000000085b4     BaseMemoryLibRepStr:CompareMemWrapper.obj
 0005:000000d4       $unwind$ZeroMem            00000000000085b4     BaseMemoryLibRepStr:ZeroMemWrapper.obj
 0005:000000d4       $unwind$InternalAllocateCopyPool 00000000000085b4     UefiMemoryAllocationLib:MemoryAllocationLib.obj
 0005:000000d4       $unwind$SnpUndi32Reset     00000000000085b4     SnpDxe:Reset.obj
 0005:000000d4       $unwind$SnpUndi32Stop      00000000000085b4     SnpDxe:Stop.obj
 0005:000000e0       $unwind$CopyMem            00000000000085c0     BaseMemoryLibRepStr:CopyMemWrapper.obj
 0005:000000e0       $unwind$SnpUndi32CallbackUnmap 00000000000085c0     SnpDxe:Callback.obj
 0005:000000e0       $unwind$SnpUndi32GetStatus 00000000000085c0     SnpDxe:Get_status.obj
 0005:000000e0       $unwind$PxeStart           00000000000085c0     SnpDxe:Start.obj
 0005:000000e0       $unwind$PxeGetStnAddr      00000000000085c0     SnpDxe:Station_address.obj
 0005:000000e0       $unwind$SnpUndi32StationAddress 00000000000085c0     SnpDxe:Station_address.obj
 0005:000000e0       $unwind$PxeStop            00000000000085c0     SnpDxe:Stop.obj
 0005:000000f4       $unwind$SnpUndi32McastIpToMac 00000000000085d4     SnpDxe:Mcast_ip_to_mac.obj
 0005:000000f4       $unwind$SnpUndi32NvData    00000000000085d4     SnpDxe:Nvdata.obj
 0005:000000f4       $unwind$SnpUndi32ReceiveFilters 00000000000085d4     SnpDxe:Receive_filters.obj
 0005:000000f4       $unwind$PxeSetStnAddr      00000000000085d4     SnpDxe:Station_address.obj
 0005:000000f4       $unwind$PxeTransmit        00000000000085d4     SnpDxe:Transmit.obj
 0005:0000010c       $unwind$PxeGetStatus       00000000000085ec     SnpDxe:Get_status.obj
 0005:0000010c       $unwind$PxeIp2Mac          00000000000085ec     SnpDxe:Mcast_ip_to_mac.obj
 0005:0000010c       $unwind$PxeNvDataRead      00000000000085ec     SnpDxe:Nvdata.obj
 0005:0000010c       $unwind$PxeRecvFilterEnable 00000000000085ec     SnpDxe:Receive_filters.obj
 0005:0000010c       $unwind$SnpUndi32Statistics 00000000000085ec     SnpDxe:Statistics.obj
 0005:00000128       $unwind$PxeInit            0000000000008608     SnpDxe:Initialize.obj
 0005:0000013c       $unwind$SnpUndi32Initialize 000000000000861c     SnpDxe:Initialize.obj
 0005:00000154       $unwind$PxeRecvFilterRead  0000000000008634     SnpDxe:Receive_filters.obj
 0005:00000164       $unwind$PxeFillHeader      0000000000008644     SnpDxe:Transmit.obj
 0005:0000017c       $unwind$SnpWaitForPacketNotify 000000000000865c     SnpDxe:WaitForPacket.obj
 0005:00000198       $unwind$FreePool           0000000000008678     UefiMemoryAllocationLib:MemoryAllocationLib.obj
 0005:00000198       $unwind$InternalAllocatePool 0000000000008678     UefiMemoryAllocationLib:MemoryAllocationLib.obj
 0005:00000198       $unwind$SnpUndi32CallbackDelay 0000000000008678     SnpDxe:Callback.obj
 0005:00000198       $unwind$SnpUndi32CallbackSync 0000000000008678     SnpDxe:Callback.obj
 0005:000001a0       $unwind$SnpUndi32CallbackMemio 0000000000008680     SnpDxe:Callback.obj
 0005:000001b4       $unwind$SnpUndi32CallbackMap 0000000000008694     SnpDxe:Callback.obj
 0005:000001c4       $unwind$UnicodeSPrint      00000000000086a4     BasePrintLib:PrintLib.obj
 0005:000001d0       $unwind$AsciiSPrint        00000000000086b0     BasePrintLib:PrintLib.obj
 0005:000001d8       $unwind$BasePrintLibSPrintMarker 00000000000086b8     BasePrintLib:PrintLibInternal.obj
 0005:000001f4       $unwind$TdIoRead8          00000000000086d4     BaseIoLibIntrinsicSev:IoLibInternalTdx.obj
 0005:000001f4       $unwind$BasePrintLibSPrint 00000000000086d4     BasePrintLib:PrintLibInternal.obj
 0005:000001fc       $unwind$DebugPrint         00000000000086dc     BaseDebugLibSerialPort:DebugLib.obj
 0005:00000204       $unwind$DebugPrintMarker   00000000000086e4     BaseDebugLibSerialPort:DebugLib.obj
 0005:00000218       $unwind$DebugAssert        00000000000086f8     BaseDebugLibSerialPort:DebugLib.obj
 0005:00000220       $unwind$LookupUnicodeString2 0000000000008700     UefiLib:UefiLib.obj
 0005:00000238       $unwind$TdIoWrite8         0000000000008718     BaseIoLibIntrinsicSev:IoLibInternalTdx.obj
