 tftpDynamicCommand

 Timestamp is 6725e48c (Sat Nov  2 16:36:28 2024)

 Preferred load address is 0000000000000000

 Start         Length     Name                   Class
 0001:00000000 000001c8H .text                   CODE
 0001:000001c8 00006d34H .text$mn                CODE
 0002:00000000 0000218cH .rdata                  DATA
 0002:0000218c 00000030H .rdata$voltmd           DATA
 0002:000021bc 000001a0H .rdata$zzzdbg           DATA
 0003:00000000 000001a0H .data                   DATA
 0003:000001a0 00000118H .bss                    DATA
 0004:00000000 00000420H .pdata                  DATA
 0005:00000000 00000348H .xdata                  DATA
 0006:00000000 00000060H .rsrc$01                DATA
 0006:00000060 00001ae0H .rsrc$02                DATA

  Address         Publics by Value              Rva+Base               Lib:Object

 0000:00000000       __x64_code_ranges_to_entry_points_count 0000000000000000     <absolute>
 0000:00000000       __guard_iat_table          0000000000000000     <absolute>
 0000:00000000       __guard_longjmp_table      0000000000000000     <absolute>
 0000:00000000       __x64_code_ranges_to_entry_points 0000000000000000     <absolute>
 0000:00000000       __guard_fids_count         0000000000000000     <absolute>
 0000:00000000       __guard_iat_count          0000000000000000     <absolute>
 0000:00000000       __guard_longjmp_count      0000000000000000     <absolute>
 0000:00000000       __dynamic_value_reloc_table 0000000000000000     <absolute>
 0000:00000000       __arm64x_extra_rfe_table   0000000000000000     <absolute>
 0000:00000000       __hybrid_auxiliary_iat     0000000000000000     <absolute>
 0000:00000000       __hybrid_code_map          0000000000000000     <absolute>
 0000:00000000       __arm64x_extra_rfe_table_size 0000000000000000     <absolute>
 0000:00000000       __hybrid_auxiliary_iat_copy 0000000000000000     <absolute>
 0000:00000000       __hybrid_code_map_count    0000000000000000     <absolute>
 0000:00000000       __arm64x_redirection_metadata 0000000000000000     <absolute>
 0000:00000000       __AbsoluteZero             0000000000000000     <absolute>
 0000:00000000       __guard_check_icall_a64n_fptr 0000000000000000     <absolute>
 0000:00000000       __guard_fids_table         0000000000000000     <absolute>
 0000:00000000       __guard_flags              0000000000000000     <absolute>
 0000:00000000       __guard_eh_cont_count      0000000000000000     <absolute>
 0000:00000000       __arm64x_redirection_metadata_count 0000000000000000     <absolute>
 0000:00000000       __enclave_config           0000000000000000     <absolute>
 0000:00000000       __guard_eh_cont_table      0000000000000000     <absolute>
 0000:00000000       __arm64x_native_entrypoint 0000000000000000     <absolute>
 0001:00000000       InternalMemCopyMem         00000000000002e0     BaseMemoryLibRepStr:CopyMem.obj
 0001:00000040       InternalMemZeroMem         0000000000000320     BaseMemoryLibRepStr:ZeroMem.obj
 0001:00000060       InternalMemSetMem          0000000000000340     BaseMemoryLibRepStr:SetMem.obj
 0001:00000080       InternalMemCompareMem      0000000000000360     BaseMemoryLibRepStr:CompareMem.obj
 0001:000000a0       InternalMemSetMem64        0000000000000380     BaseMemoryLibRepStr:SetMem64.obj
 0001:000000c0       InternalMemSetMem32        00000000000003a0     BaseMemoryLibRepStr:SetMem32.obj
 0001:000000e0       CpuPause                   00000000000003c0     BaseLib:CpuPause.obj
 0001:000000f0       TdVmCall                   00000000000003d0     BaseLib:TdVmcall.obj
 0001:00000170       TdCall                     0000000000000450     BaseLib:TdCall.obj
 0001:000001c8       _DriverUnloadHandler       00000000000004a8 f   UefiDriverEntryPoint:DriverEntryPoint.obj
 0001:00000270       _ModuleEntryPoint          0000000000000550 f   UefiDriverEntryPoint:DriverEntryPoint.obj
 0001:00000308       ProcessLibraryConstructorList 00000000000005e8 f   tftpDynamicCommand:AutoGen.obj
 0001:00000678       ProcessLibraryDestructorList 0000000000000958 f   tftpDynamicCommand:AutoGen.obj
 0001:000006b8       ProcessModuleEntryPointList 0000000000000998 f   tftpDynamicCommand:AutoGen.obj
 0001:000007e0       TftpCommandHandler         0000000000000ac0 f   tftpDynamicCommand:TftpDynamicCommand.obj
 0001:000007f4       TftpCommandGetHelp         0000000000000ad4 f   tftpDynamicCommand:TftpDynamicCommand.obj
 0001:00000808       RunTftp                    0000000000000ae8 f   tftpDynamicCommand:Tftp.obj
 0001:00001814       CopyMem                    0000000000001af4 f   BaseMemoryLibRepStr:CopyMemWrapper.obj
 0001:000018b0       ZeroMem                    0000000000001b90 f   BaseMemoryLibRepStr:ZeroMemWrapper.obj
 0001:00001920       StrLen                     0000000000001c00 f   BaseLib:String.obj
 0001:000019a8       StrCmp                     0000000000001c88 f   BaseLib:String.obj
 0001:00001a50       StrnCmp                    0000000000001d30 f   BaseLib:String.obj
 0001:00001b38       StrStr                     0000000000001e18 f   BaseLib:String.obj
 0001:00001c00       AsciiStrLen                0000000000001ee0 f   BaseLib:String.obj
 0001:00001c6c       AsciiStrnCmp               0000000000001f4c f   BaseLib:String.obj
 0001:00001d38       StrnLenS                   0000000000002018 f   BaseLib:SafeString.obj
 0001:00001da0       StrCpyS                    0000000000002080 f   BaseLib:SafeString.obj
 0001:00001f44       StrCatS                    0000000000002224 f   BaseLib:SafeString.obj
 0001:0000212c       StrnCatS                   000000000000240c f   BaseLib:SafeString.obj
 0001:00002350       StrDecimalToUintnS         0000000000002630 f   BaseLib:SafeString.obj
 0001:000024b0       AsciiStrDecimalToUintnS    0000000000002790 f   BaseLib:SafeString.obj
 0001:000025c8       UnicodeStrToAsciiStrS      00000000000028a8 f   BaseLib:SafeString.obj
 0001:00002768       UnicodeVSPrint             0000000000002a48 f   BasePrintLib:PrintLib.obj
 0001:000027fc       UnicodeSPrint              0000000000002adc f   BasePrintLib:PrintLib.obj
 0001:0000281c       AsciiSPrint                0000000000002afc f   BasePrintLib:PrintLib.obj
 0001:00002848       BasePrintLibFillBuffer     0000000000002b28 f   BasePrintLib:PrintLibInternal.obj
 0001:0000287c       BasePrintLibValueToString  0000000000002b5c f   BasePrintLib:PrintLibInternal.obj
 0001:000028e8       BasePrintLibSPrintMarker   0000000000002bc8 f   BasePrintLib:PrintLibInternal.obj
 0001:00003800       BasePrintLibSPrint         0000000000003ae0 f   BasePrintLib:PrintLibInternal.obj
 0001:00003824       DebugPrint                 0000000000003b04 f   BaseDebugLibSerialPort:DebugLib.obj
 0001:00003848       DebugPrintMarker           0000000000003b28 f   BaseDebugLibSerialPort:DebugLib.obj
 0001:000038d4       DebugAssert                0000000000003bb4 f   BaseDebugLibSerialPort:DebugLib.obj
 0001:00003950       InternalAllocatePool       0000000000003c30 f   UefiMemoryAllocationLib:MemoryAllocationLib.obj
 0001:00003980       AllocateZeroPool           0000000000003c60 f   UefiMemoryAllocationLib:MemoryAllocationLib.obj
 0001:000039a8       InternalAllocateCopyPool   0000000000003c88 f   UefiMemoryAllocationLib:MemoryAllocationLib.obj
 0001:00003a20       InternalReallocatePool     0000000000003d00 f   UefiMemoryAllocationLib:MemoryAllocationLib.obj
 0001:00003a9c       FreePool                   0000000000003d7c f   UefiMemoryAllocationLib:MemoryAllocationLib.obj
 0001:00003ae0       NextDevicePathNode         0000000000003dc0 f   UefiDevicePathLibDevicePathProtocol:UefiDevicePathLib.obj
 0001:00003b50       GetBestLanguage            0000000000003e30 f   UefiLib:UefiLib.obj
 0001:00003c88       EfiOpenFileByDevicePath    0000000000003f68 f   UefiLib:UefiLib.obj
 0001:00003efc       HiiGetStringEx             00000000000041dc f   UefiHiiLib:HiiString.obj
 0001:00004120       HiiGetSupportedLanguages   0000000000004400 f   UefiHiiLib:HiiLanguage.obj
 0001:000041c4       ShellFindSE2               00000000000044a4 f   UefiShellLib:UefiShellLib.obj
 0001:00004364       ShellLibConstructorWorker  0000000000004644 f   UefiShellLib:UefiShellLib.obj
 0001:0000460c       ShellLibDestructor         00000000000048ec f   UefiShellLib:UefiShellLib.obj
 0001:00004720       ShellOpenFileByName        0000000000004a00 f   UefiShellLib:UefiShellLib.obj
 0001:00004a08       InternalShellConvertFileListType 0000000000004ce8 f   UefiShellLib:UefiShellLib.obj
 0001:00004c08       ShellOpenFileMetaArg       0000000000004ee8 f   UefiShellLib:UefiShellLib.obj
 0001:00004e48       ShellCloseFileMetaArg      0000000000005128 f   UefiShellLib:UefiShellLib.obj
 0001:00004f24       InternalIsOnCheckList      0000000000005204 f   UefiShellLib:UefiShellLib.obj
 0001:00005070       InternalCommandLineParse   0000000000005350 f   UefiShellLib:UefiShellLib.obj
 0001:00005730       ShellCommandLineFreeVarList 0000000000005a10 f   UefiShellLib:UefiShellLib.obj
 0001:0000579c       ShellCommandLineGetValue   0000000000005a7c f   UefiShellLib:UefiShellLib.obj
 0001:000058b4       ShellCommandLineGetRawValue 0000000000005b94 f   UefiShellLib:UefiShellLib.obj
 0001:00005910       ShellCopySearchAndReplace  0000000000005bf0 f   UefiShellLib:UefiShellLib.obj
 0001:00005ac0       InternalPrintTo            0000000000005da0 f   UefiShellLib:UefiShellLib.obj
 0001:00005b5c       InternalShellPrintWorker   0000000000005e3c f   UefiShellLib:UefiShellLib.obj
 0001:00005f04       ShellPrintEx               00000000000061e4 f   UefiShellLib:UefiShellLib.obj
 0001:00005f34       ShellPrintHiiEx            0000000000006214 f   UefiShellLib:UefiShellLib.obj
 0001:00005f8c       StrnCatGrow                000000000000626c f   UefiShellLib:UefiShellLib.obj
 0001:00006074       InternalShellIsHexOrDecimalNumber 0000000000006354 f   UefiShellLib:UefiShellLib.obj
 0001:0000615c       InternalShellStrHexToUint64 000000000000643c f   UefiShellLib:UefiShellLib.obj
 0001:000062d8       InternalShellStrDecimalToUint64 00000000000065b8 f   UefiShellLib:UefiShellLib.obj
 0001:000063ac       ShellConvertStringToUint64 000000000000668c f   UefiShellLib:UefiShellLib.obj
 0001:000064dc       NetLibDestroyServiceChild  00000000000067bc f   DxeNetLib:DxeNetLib.obj
 0001:00006574       NetLibStrToIp4             0000000000006854 f   DxeNetLib:DxeNetLib.obj
 0001:000066c8       CompareGuid                00000000000069a8 f   BaseMemoryLibRepStr:MemLibGuid.obj
 0001:00006750       InternalBaseLibIsListValid 0000000000006a30 f   BaseLib:LinkedList.obj
 0001:000067bc       InitializeListHead         0000000000006a9c f   BaseLib:LinkedList.obj
 0001:000067f4       InsertHeadList             0000000000006ad4 f   BaseLib:LinkedList.obj
 0001:00006844       InsertTailList             0000000000006b24 f   BaseLib:LinkedList.obj
 0001:00006898       GetFirstNode               0000000000006b78 f   BaseLib:LinkedList.obj
 0001:000068cc       GetNextNode                0000000000006bac f   BaseLib:LinkedList.obj
 0001:00006900       IsListEmpty                0000000000006be0 f   BaseLib:LinkedList.obj
 0001:00006938       IsNull                     0000000000006c18 f   BaseLib:LinkedList.obj
 0001:0000697c       RemoveEntryList            0000000000006c5c f   BaseLib:LinkedList.obj
 0001:000069c4       PathRemoveLastItem         0000000000006ca4 f   BaseLib:FilePaths.obj
 0001:00006a1c       PathCleanUpDirectories     0000000000006cfc f   BaseLib:FilePaths.obj
 0001:00006b90       SerialPortWrite            0000000000006e70 f   PcAtSerialPortLib:SerialPortLib.obj
 0001:00006c14       StringNoCaseCompare        0000000000006ef4 f   UefiSortLib:UefiSortLib.obj
 0001:00006c9c       FileHandleGetInfo          0000000000006f7c f   UefiFileHandleLib:UefiFileHandleLib.obj
 0001:00006d20       FileHandleSetInfo          0000000000007000 f   UefiFileHandleLib:UefiFileHandleLib.obj
 0001:00006d48       FileHandleRead             0000000000007028 f   UefiFileHandleLib:UefiFileHandleLib.obj
 0001:00006d5c       FileHandleWrite            000000000000703c f   UefiFileHandleLib:UefiFileHandleLib.obj
 0001:00006d70       FileHandleClose            0000000000007050 f   UefiFileHandleLib:UefiFileHandleLib.obj
 0001:00006d84       FileHandleDelete           0000000000007064 f   UefiFileHandleLib:UefiFileHandleLib.obj
 0001:00006d98       FileHandleSetPosition      0000000000007078 f   UefiFileHandleLib:UefiFileHandleLib.obj
 0001:00006dac       FileHandleGetPosition      000000000000708c f   UefiFileHandleLib:UefiFileHandleLib.obj
 0001:00006dc8       FileHandleFlush            00000000000070a8 f   UefiFileHandleLib:UefiFileHandleLib.obj
 0001:00006ddc       FileHandleGetSize          00000000000070bc f   UefiFileHandleLib:UefiFileHandleLib.obj
 0001:00006e28       IsTdxGuest                 0000000000007108 f   BaseIoLibIntrinsicSev:IoLibInternalTdx.obj
 0001:00006e54       TdIoRead8                  0000000000007134 f   BaseIoLibIntrinsicSev:IoLibInternalTdx.obj
 0001:00006eac       TdIoWrite8                 000000000000718c f   BaseIoLibIntrinsicSev:IoLibInternalTdx.obj
 0002:00000000       ??_C@_0CB@DMEJJJHA@?6ASSERT_EFI_ERROR?5?$CIStatus?5?$DN?5?$CFr?$CJ@ 00000000000071e0     UefiDriverEntryPoint:DriverEntryPoint.obj
 0002:00000028       ??_C@_0CH@BBNBJKHK@?$CB?$CI?$CI?$CIINTN?$CJ?$CIRETURN_STATUS?$CJ?$CIStatus@ 0000000000007208     UefiDriverEntryPoint:DriverEntryPoint.obj
 0002:00000050       ??_C@_0FP@ODLELCIC@D?3?2uefi_specs_personal_collecti@ 0000000000007230     UefiDriverEntryPoint:DriverEntryPoint.obj
 0002:000000b0       ??_C@_0BD@MKFKNHNH@tftpDynamicCommand@ 0000000000007290     tftpDynamicCommand:AutoGen.obj
 0002:000000d0       ??_C@_0JF@KIDGPABN@d?3?2uefi_specs_personal_collecti@ 00000000000072b0     tftpDynamicCommand:AutoGen.obj
 0002:00000168       ??_C@_19ONPPEBM@?$AAt?$AAf?$AAt?$AAp@ 0000000000007348     tftpDynamicCommand:TftpDynamicCommand.obj
 0002:00000180       ??_C@_0GI@JLGCNGII@D?3?2uefi_specs_personal_collecti@ 0000000000007360     tftpDynamicCommand:TftpDynamicCommand.obj
 0002:000001e8       ??_C@_15LDCBPADN@?$AA?9?$AAi@ 00000000000073c8     tftpDynamicCommand:Tftp.obj
 0002:000001f0       ??_C@_15IEPPAAAP@?$AA?9?$AAl@ 00000000000073d0     tftpDynamicCommand:Tftp.obj
 0002:000001f8       ??_C@_15DEDJCAKD@?$AA?9?$AAr@ 00000000000073d8     tftpDynamicCommand:Tftp.obj
 0002:00000200       ??_C@_15NMJMBAFJ@?$AA?9?$AAc@ 00000000000073e0     tftpDynamicCommand:Tftp.obj
 0002:00000208       ??_C@_15BBFCHPHP@?$AA?9?$AAt@ 00000000000073e8     tftpDynamicCommand:Tftp.obj
 0002:00000210       ??_C@_15IMIFEHMG@?$AA?9?$AAs@ 00000000000073f0     tftpDynamicCommand:Tftp.obj
 0002:00000218       ??_C@_15DOHNAJB@?$AA?9?$AAw@ 00000000000073f8     tftpDynamicCommand:Tftp.obj
 0002:00000220       ??_C@_0FK@ELGGIHJI@D?3?2uefi_specs_personal_collecti@ 0000000000007400     tftpDynamicCommand:Tftp.obj
 0002:00000280       ??_C@_0BC@FEDIJHFF@?$CI?$CIBOOLEAN?$CJ?$CI0?$DN?$DN1?$CJ?$CJ@ 0000000000007460     tftpDynamicCommand:Tftp.obj
 0002:00000298       ??_C@_0BP@DKOFHFCC@RemoteFilePath?5?$CB?$DN?5?$CI?$CIvoid?5?$CK?$CJ?50?$CJ@ 0000000000007478     tftpDynamicCommand:Tftp.obj
 0002:000002b8       ??_C@_1M@CLFCEILF@?$AAe?$AAt?$AAh?$AA?$CF?$AAd@ 0000000000007498     tftpDynamicCommand:Tftp.obj
 0002:000002c8       ??_C@_1M@JJEJLDIL@?$AAu?$AAn?$AAk?$AA?$CF?$AAd@ 00000000000074a8     tftpDynamicCommand:Tftp.obj
 0002:000002d4       ??_C@_05GHDOEBHJ@tsize@    00000000000074b4     tftpDynamicCommand:Tftp.obj
 0002:000002e0       ??_C@_07JPIGAOKK@blksize@  00000000000074c0     tftpDynamicCommand:Tftp.obj
 0002:000002e8       ??_C@_02DPKJAMEF@?$CFd@    00000000000074c8     tftpDynamicCommand:Tftp.obj
 0002:000002f0       ??_C@_0L@HMPKIDCJ@windowsize@ 00000000000074d0     tftpDynamicCommand:Tftp.obj
 0002:00000300       ??_C@_1BM@MLPEDKFL@?$AA?$CF?$AAs?$AA?5?$AA?5?$AA?5?$AA?5?$AA?5?$AA?5?$AA?5?$AA0?$AA?5?$AAK?$AAb@ 00000000000074e0     tftpDynamicCommand:Tftp.obj
 0002:0000031c       ??_C@_15GANGMFKL@?$AA?$CF?$AAs@ 00000000000074fc     tftpDynamicCommand:Tftp.obj
 0002:00000328       ??_C@_1BA@PIMHAFJC@?$AA?5?$AA?$CF?$AA7?$AAd?$AA?5?$AAK?$AAb@ 0000000000007508     tftpDynamicCommand:Tftp.obj
 0002:00000490       ??_C@_0ED@MKGCMJG@?$CILength?5?9?51?$CJ?5?$DM?$DN?5?$CI0xFFFFFFFFFFFF@ 0000000000007670     BaseMemoryLibRepStr:CopyMemWrapper.obj
 0002:000004e0       ??_C@_0FM@IDPIEKJH@D?3?2uefi_specs_personal_collecti@ 00000000000076c0     BaseMemoryLibRepStr:CopyMemWrapper.obj
 0002:00000540       ??_C@_0DO@MAOBOFEG@?$CILength?5?9?51?$CJ?5?$DM?$DN?5?$CI0xFFFFFFFFFFFF@ 0000000000007720     BaseMemoryLibRepStr:CopyMemWrapper.obj
 0002:00000580       ??_C@_0BH@IACGKAP@Buffer?5?$CB?$DN?5?$CI?$CIvoid?5?$CK?$CJ?50?$CJ@ 0000000000007760     BaseMemoryLibRepStr:ZeroMemWrapper.obj
 0002:000005a0       ??_C@_0FM@DHFKCLFA@D?3?2uefi_specs_personal_collecti@ 0000000000007780     BaseMemoryLibRepStr:ZeroMemWrapper.obj
 0002:00000600       ??_C@_0DG@EEENIGGL@Length?5?$DM?$DN?5?$CI0xFFFFFFFFFFFFFFFFUL@ 00000000000077e0     BaseMemoryLibRepStr:ZeroMemWrapper.obj
 0002:00000638       ??_C@_0BH@MAAHKCPC@String?5?$CB?$DN?5?$CI?$CIvoid?5?$CK?$CJ?50?$CJ@ 0000000000007818     BaseLib:String.obj
 0002:00000650       ??_C@_0EI@LOLLHGDK@D?3?2uefi_specs_personal_collecti@ 0000000000007830     BaseLib:String.obj
 0002:00000698       ??_C@_0CC@GFNLNIOC@?$CI?$CIUINTN?$CJString?5?$CG?50x00000001?$CJ?5?$DN?$DN@ 0000000000007878     BaseLib:String.obj
 0002:000006c0       ??_C@_0DK@EOJCOAME@Length?5?$DM?5_gPcd_FixedAtBuild_Pcd@ 00000000000078a0     BaseLib:String.obj
 0002:00000700       ??_C@_0BL@JAAMOCAJ@StrSize?5?$CIFirstString?$CJ?5?$CB?$DN?50@ 00000000000078e0     BaseLib:String.obj
 0002:00000720       ??_C@_0BM@DALBOILC@StrSize?5?$CISecondString?$CJ?5?$CB?$DN?50@ 0000000000007900     BaseLib:String.obj
 0002:00000740       ??_C@_0DL@LFIMEMJP@Length?5?$DM?$DN?5_gPcd_FixedAtBuild_Pc@ 0000000000007920     BaseLib:String.obj
 0002:00000780       ??_C@_0BG@KBNOLIGE@StrSize?5?$CIString?$CJ?5?$CB?$DN?50@ 0000000000007960     BaseLib:String.obj
 0002:00000798       ??_C@_0BM@NNBLOHJD@StrSize?5?$CISearchString?$CJ?5?$CB?$DN?50@ 0000000000007978     BaseLib:String.obj
 0002:000007b8       ??_C@_0DI@MDIKFADO@Length?5?$DM?5_gPcd_FixedAtBuild_Pcd@ 0000000000007998     BaseLib:String.obj
 0002:000007f0       ??_C@_0BL@IKFBNFIL@AsciiStrSize?5?$CIFirstString?$CJ@ 00000000000079d0     BaseLib:String.obj
 0002:00000810       ??_C@_0BM@EDNOKLLE@AsciiStrSize?5?$CISecondString?$CJ@ 00000000000079f0     BaseLib:String.obj
 0002:00000830       ??_C@_0DJ@JJHGIFMP@Length?5?$DM?$DN?5_gPcd_FixedAtBuild_Pc@ 0000000000007a10     BaseLib:String.obj
 0002:00000870       ??_C@_0BM@NLNKOJGD@Destination?5?$CB?$DN?5?$CI?$CIvoid?5?$CK?$CJ?50?$CJ@ 0000000000007a50     BaseLib:String.obj
 0002:00000890       ??_C@_0EM@OAPOMMAE@D?3?2uefi_specs_personal_collecti@ 0000000000007a70     BaseLib:SafeString.obj
 0002:000008e0       ??_C@_0CH@LALFPBMC@?$CI?$CIUINTN?$CJDestination?5?$CG?50x0000000@ 0000000000007ac0     BaseLib:SafeString.obj
 0002:00000908       ??_C@_0CC@HEBCMBPF@?$CI?$CIUINTN?$CJSource?5?$CG?50x00000001?$CJ?5?$DN?$DN@ 0000000000007ae8     BaseLib:SafeString.obj
 0002:00000930       ??_C@_0BO@ECNIOIHG@?$CIDestination?5?$CB?$DN?5?$CI?$CIvoid?5?$CK?$CJ?50?$CJ?$CJ@ 0000000000007b10     BaseLib:SafeString.obj
 0002:00000950       ??_C@_07KBGDFDAM@StrCpyS@  0000000000007b30     BaseLib:SafeString.obj
 0002:00000960       ??_C@_0EA@PDPDJJNN@?$CFa?$CI?$CFd?$CJ?5?$CFa?3?5SAFE_STRING_CONSTRAI@ 0000000000007b40     BaseLib:SafeString.obj
 0002:000009a0       ??_C@_0BJ@EAEEJIP@?$CISource?5?$CB?$DN?5?$CI?$CIvoid?5?$CK?$CJ?50?$CJ?$CJ@ 0000000000007b80     BaseLib:SafeString.obj
 0002:000009c0       ??_C@_0EA@BBALOHPI@?$CIDestMax?5?$DM?$DN?5?$CI_gPcd_FixedAtBuild@ 0000000000007ba0     BaseLib:SafeString.obj
 0002:00000a00       ??_C@_0P@PMIMLIHM@?$CIDestMax?5?$CB?$DN?50?$CJ@ 0000000000007be0     BaseLib:SafeString.obj
 0002:00000a10       ??_C@_0BG@EEGIIOKH@?$CIDestMax?5?$DO?5SourceLen?$CJ@ 0000000000007bf0     BaseLib:SafeString.obj
 0002:00000a30       ??_C@_0FH@PPBLBDBJ@InternalSafeStringNoStrOverlap?5@ 0000000000007c10     BaseLib:SafeString.obj
 0002:00000a88       ??_C@_0DP@PBOJGJC@?$CILength?5?$DM?$DN?5?$CI_gPcd_FixedAtBuild_@ 0000000000007c68     BaseLib:SafeString.obj
 0002:00000ac8       ??_C@_07EBBOPAKF@StrCatS@  0000000000007ca8     BaseLib:SafeString.obj
 0002:00000ad0       ??_C@_0P@BHOOOJPD@?$CICopyLen?5?$CB?$DN?50?$CJ@ 0000000000007cb0     BaseLib:SafeString.obj
 0002:00000ae0       ??_C@_0BG@BPGICNPK@?$CICopyLen?5?$DO?5SourceLen?$CJ@ 0000000000007cc0     BaseLib:SafeString.obj
 0002:00000af8       ??_C@_08GNJNNKEE@StrnCatS@ 0000000000007cd8     BaseLib:SafeString.obj
 0002:00000b08       ??_C@_0BJ@MBBOBCLN@?$CIString?5?$CB?$DN?5?$CI?$CIvoid?5?$CK?$CJ?50?$CJ?$CJ@ 0000000000007ce8     BaseLib:SafeString.obj
 0002:00000b28       ??_C@_0BD@NNBAKNOF@StrDecimalToUintnS@ 0000000000007d08     BaseLib:SafeString.obj
 0002:00000b40       ??_C@_0BH@JPMEDPAI@?$CIData?5?$CB?$DN?5?$CI?$CIvoid?5?$CK?$CJ?50?$CJ?$CJ@ 0000000000007d20     BaseLib:SafeString.obj
 0002:00000b60       ??_C@_0IC@CFBPEAPC@?$CIStrnLenS?5?$CIString?0?5?$CI_gPcd_Fixed@ 0000000000007d40     BaseLib:SafeString.obj
 0002:00000be8       ??_C@_0BK@PFCDEPEA@?$CIAddress?5?$CB?$DN?5?$CI?$CIvoid?5?$CK?$CJ?50?$CJ?$CJ@ 0000000000007dc8     BaseLib:SafeString.obj
 0002:00000c08       ??_C@_0BB@JCLCGCPJ@StrToIpv4Address@ 0000000000007de8     BaseLib:SafeString.obj
 0002:00000c20       ??_C@_0BJ@CNKJJNE@?$CIBuffer?5?$CB?$DN?5?$CI?$CIvoid?5?$CK?$CJ?50?$CJ?$CJ@ 0000000000007e00     BaseLib:SafeString.obj
 0002:00000c40       ??_C@_0DO@LJFOOPII@?$CIDestMax?5?$DM?$DN?5?$CI_gPcd_FixedAtBuild@ 0000000000007e20     BaseLib:SafeString.obj
 0002:00000c80       ??_C@_0BI@GIIHIIN@AsciiStrDecimalToUintnS@ 0000000000007e60     BaseLib:SafeString.obj
 0002:00000ca0       ??_C@_0ID@JMCCGBLD@?$CIAsciiStrnLenS?5?$CIString?0?5?$CI_gPcd_@ 0000000000007e80     BaseLib:SafeString.obj
 0002:00000d28       ??_C@_0BG@ECBHNCII@UnicodeStrToAsciiStrS@ 0000000000007f08     BaseLib:SafeString.obj
 0002:00000d40       ??_C@_0GH@OGMKEJDK@?$CBInternalSafeStringIsOverlap?5?$CID@ 0000000000007f20     BaseLib:SafeString.obj
 0002:00000da8       ??_C@_0BA@MFHLDCJH@?$CKSource?5?$DM?50x100@ 0000000000007f88     BaseLib:SafeString.obj
 0002:00000db8       ??_C@_0N@KGHEHMDL@Divisor?5?$CB?$DN?50@ 0000000000007f98     BaseLib:DivU64x32.obj
 0002:00000dc8       ??_C@_0CI@BGLNHBLM@?$CI?$CI?$CIUINTN?$CJ?5?$CIStartOfBuffer?$CJ?$CJ?5?$CG?50x@ 0000000000007fa8     BasePrintLib:PrintLib.obj
 0002:00000df0       ??_C@_0EP@OFLCNDBG@D?3?2uefi_specs_personal_collecti@ 0000000000007fd0     BasePrintLib:PrintLib.obj
 0002:00000e40       ??_C@_0CH@KJLBGOBB@?$CI?$CI?$CIUINTN?$CJ?5?$CIFormatString?$CJ?$CJ?5?$CG?50x0@ 0000000000008020     BasePrintLib:PrintLib.obj
 0002:00000e70       ??_C@_0FH@MODEAFEI@D?3?2uefi_specs_personal_collecti@ 0000000000008050     BasePrintLib:PrintLibInternal.obj
 0002:00000ed0       ??_C@_0EB@HDGIDCIO@?$CIBufferSize?5?$DM?$DN?5?$CI_gPcd_FixedAtBu@ 00000000000080b0     BasePrintLib:PrintLibInternal.obj
 0002:00000f18       ??_C@_0BJ@PPAKKDJG@?$CIFormat?5?$CB?$DN?5?$CI?$CIvoid?5?$CK?$CJ?50?$CJ?$CJ@ 00000000000080f8     BasePrintLib:PrintLibInternal.obj
 0002:00000f40       ??_C@_0ED@LPDDCECB@?$CIBufferSize?5?$DM?$DN?5?$CI_gPcd_FixedAtBu@ 0000000000008120     BasePrintLib:PrintLibInternal.obj
 0002:00000f90       ??_C@_0IM@BFJJFLGB@?$CIStrnLenS?5?$CI?$CICHAR16?5?$CK?$CJFormat?0?5?$CI_@ 0000000000008170     BasePrintLib:PrintLibInternal.obj
 0002:00001020       ??_C@_0ID@PLGJGION@?$CIAsciiStrnLenS?5?$CIFormat?0?5?$CI_gPcd_@ 0000000000008200     BasePrintLib:PrintLibInternal.obj
 0002:000010a8       ??_C@_0O@MLOLIMFM@?$DMnull?5string?$DO@ 0000000000008288     BasePrintLib:PrintLibInternal.obj
 0002:000010b8       ??_C@_0M@BJJDNPHK@?$DMnull?5guid?$DO@ 0000000000008298     BasePrintLib:PrintLibInternal.obj
 0002:000010c8       ??_C@_0DB@PMLHLBMO@?$CF08x?9?$CF04x?9?$CF04x?9?$CF02x?$CF02x?9?$CF02x?$CF02@ 00000000000082a8     BasePrintLib:PrintLibInternal.obj
 0002:00001100       ??_C@_0M@LHGBCIKM@?$DMnull?5time?$DO@ 00000000000082e0     BasePrintLib:PrintLibInternal.obj
 0002:00001110       ??_C@_0BK@FCPKCIDD@?$CF02d?1?$CF02d?1?$CF04d?5?5?$CF02d?3?$CF02d@ 00000000000082f0     BasePrintLib:PrintLibInternal.obj
 0002:0000112c       ??_C@_04JIMNDDED@?$CF08X@  000000000000830c     BasePrintLib:PrintLibInternal.obj
 0002:00001134       ??_C@_02PCIJFNDE@?$AN?6@   0000000000008314     BasePrintLib:PrintLibInternal.obj
 0002:00001138       ??_C@_01LIIJDEN@?$AN@      0000000000008318     BasePrintLib:PrintLibInternal.obj
 0002:00001140       mWarningString             0000000000008320     BasePrintLib:PrintLibInternal.obj
 0002:00001210       mErrorString               00000000000083f0     BasePrintLib:PrintLibInternal.obj
 0002:000014f0       mHexStr                    00000000000086d0     BasePrintLib:PrintLibInternal.obj
 0002:00001500       ??_C@_0BH@LKMBFCBF@Format?5?$CB?$DN?5?$CI?$CIvoid?5?$CK?$CJ?50?$CJ@ 00000000000086e0     BaseDebugLibSerialPort:DebugLib.obj
 0002:00001520       ??_C@_0FJ@BNNHJMAJ@D?3?2uefi_specs_personal_collecti@ 0000000000008700     BaseDebugLibSerialPort:DebugLib.obj
 0002:00001580       ??_C@_0BI@NOCKJDBJ@ASSERT?5?$FL?$CFa?$FN?5?$CFa?$CI?$CFd?$CJ?3?5?$CFa?6@ 0000000000008760     BaseDebugLibSerialPort:DebugLib.obj
 0002:00001598       ??_C@_0BN@COECPDCC@gImageHandle?5?$CB?$DN?5?$CI?$CIvoid?5?$CK?$CJ?50?$CJ@ 0000000000008778     UefiBootServicesTableLib:UefiBootServicesTableLib.obj
 0002:000015c0       ??_C@_0GL@PJCPJLGM@D?3?2uefi_specs_personal_collecti@ 00000000000087a0     UefiBootServicesTableLib:UefiBootServicesTableLib.obj
 0002:00001630       ??_C@_0BE@DGNHAHIL@gST?5?$CB?$DN?5?$CI?$CIvoid?5?$CK?$CJ?50?$CJ@ 0000000000008810     UefiBootServicesTableLib:UefiBootServicesTableLib.obj
 0002:00001648       ??_C@_0BE@BDFJLGLN@gBS?5?$CB?$DN?5?$CI?$CIvoid?5?$CK?$CJ?50?$CJ@ 0000000000008828     UefiBootServicesTableLib:UefiBootServicesTableLib.obj
 0002:00001660       ??_C@_0GF@KMHDEKMA@D?3?2uefi_specs_personal_collecti@ 0000000000008840     UefiMemoryAllocationLib:MemoryAllocationLib.obj
 0002:000016c8       ??_C@_0DO@GEEICOOO@AllocationSize?5?$DM?$DN?5?$CI0xFFFFFFFFFF@ 00000000000088a8     UefiMemoryAllocationLib:MemoryAllocationLib.obj
 0002:00001710       ??_C@_0GP@HEOOPGAM@D?3?2uefi_specs_personal_collecti@ 00000000000088f0     UefiDevicePathLibDevicePathProtocol:UefiDevicePathLib.obj
 0002:00001780       ??_C@_0DC@CNNBPJA@mDevicePathLibDevicePathUtiliti@ 0000000000008960     UefiDevicePathLibDevicePathProtocol:UefiDevicePathLib.obj
 0002:000017b8       ??_C@_0BF@CBLMFKOC@Node?5?$CB?$DN?5?$CI?$CIvoid?5?$CK?$CJ?50?$CJ@ 0000000000008998     UefiDevicePathLibDevicePathProtocol:UefiDevicePathLib.obj
 0002:000017d0       ??_C@_0BE@OBDFIHND@gRT?5?$CB?$DN?5?$CI?$CIvoid?5?$CK?$CJ?50?$CJ@ 00000000000089b0     UefiRuntimeServicesTableLib:UefiRuntimeServicesTableLib.obj
 0002:000017f0       ??_C@_0HB@NCAPNEDO@D?3?2uefi_specs_personal_collecti@ 00000000000089d0     UefiRuntimeServicesTableLib:UefiRuntimeServicesTableLib.obj
 0002:00001870       ??_C@_0GF@MFAMBDAB@D?3?2uefi_specs_personal_collecti@ 0000000000008a50     UefiHiiServicesLib:UefiHiiServicesLib.obj
 0002:000018e0       ??_C@_0EJ@PPOMJLJB@D?3?2uefi_specs_personal_collecti@ 0000000000008ac0     UefiLib:UefiLib.obj
 0002:00001930       ??_C@_0BF@OGAHIMFI@Name?5?$CB?$DN?5?$CI?$CIvoid?5?$CK?$CJ?50?$CJ@ 0000000000008b10     UefiLib:UefiLib.obj
 0002:00001948       ??_C@_0BH@FMEOEIBC@?$CKValue?5?$CB?$DN?5?$CI?$CIvoid?5?$CK?$CJ?50?$CJ@ 0000000000008b28     UefiLib:UefiLib.obj
 0002:00001960       ??_C@_0CD@OLFKAJF@SupportedLanguages?5?$CB?$DN?5?$CI?$CIvoid?5?$CK?$CJ@ 0000000000008b40     UefiLib:UefiLib.obj
 0002:00001988       ??_C@_0CG@CADOKAGM@?$CI?$CI?$CIINTN?$CJ?$CIRETURN_STATUS?$CJ?$CIStatus?$CJ@ 0000000000008b68     UefiLib:UefiLib.obj
 0002:000019b0       ??_C@_0BK@KLJHMMPJ@HiiHandle?5?$CB?$DN?5?$CI?$CIvoid?5?$CK?$CJ?50?$CJ@ 0000000000008b90     UefiHiiLib:HiiString.obj
 0002:000019d0       ??_C@_0FE@MDBONEFA@D?3?2uefi_specs_personal_collecti@ 0000000000008bb0     UefiHiiLib:HiiString.obj
 0002:00001a28       ??_C@_0O@EMMLPDMJ@StringId?5?$CB?$DN?50@ 0000000000008c08     UefiHiiLib:HiiString.obj
 0002:00001a38       ??_C@_1BK@GGGENMOA@?$AAP?$AAl?$AAa?$AAt?$AAf?$AAo?$AAr?$AAm?$AAL?$AAa?$AAn?$AAg@ 0000000000008c18     UefiHiiLib:HiiString.obj
 0002:00001a52       ??_C@_00CNPNBAHC@@         0000000000008c32     UefiHiiLib:HiiString.obj
 0002:00001a60       ??_C@_0FB@IJGKLPLP@D?3?2uefi_specs_personal_collecti@ 0000000000008c40     UefiHiiLib:HiiLib.obj
 0002:00001ac0       ??_C@_0FG@CHPJEMDC@D?3?2uefi_specs_personal_collecti@ 0000000000008ca0     UefiHiiLib:HiiLanguage.obj
 0002:00001b20       ??_C@_0FF@DKIFPHAN@D?3?2uefi_specs_personal_collecti@ 0000000000008d00     UefiShellLib:UefiShellLib.obj
 0002:00001b78       ??_C@_0BB@FIMNCDND@Status?3?50x?$CF08x?$AN?6@ 0000000000008d58     UefiShellLib:UefiShellLib.obj
 0002:00001b90       ??_C@_0BJ@BLIKFMIM@FileName?5?$CB?$DN?5?$CI?$CIvoid?5?$CK?$CJ?50?$CJ@ 0000000000008d70     UefiShellLib:UefiShellLib.obj
 0002:00001bb0       ??_C@_17CLELIOII@?$AAN?$AAU?$AAL@ 0000000000008d90     UefiShellLib:UefiShellLib.obj
 0002:00001bb8       ??_C@_19CIJIHAKK@?$AAN?$AAU?$AAL?$AAL@ 0000000000008d98     UefiShellLib:UefiShellLib.obj
 0002:00001bc8       ??_C@_0BJ@LGIAPEFG@FileInfo?5?$CB?$DN?5?$CI?$CIvoid?5?$CK?$CJ?50?$CJ@ 0000000000008da8     UefiShellLib:UefiShellLib.obj
 0002:00001be8       ??_C@_0CG@HOBDBICG@mEfiShellEnvironment2?5?$CB?$DN?5?$CI?$CIvoid@ 0000000000008dc8     UefiShellLib:UefiShellLib.obj
 0002:00001c10       ??_C@_0BJ@CEFLEMCG@FileList?5?$CB?$DN?5?$CI?$CIvoid?5?$CK?$CJ?50?$CJ@ 0000000000008df0     UefiShellLib:UefiShellLib.obj
 0002:00001c30       ??_C@_0BJ@NJABNCDK@ListHead?5?$CB?$DN?5?$CI?$CIvoid?5?$CK?$CJ?50?$CJ@ 0000000000008e10     UefiShellLib:UefiShellLib.obj
 0002:00001c50       ??_C@_0BF@NDBIKIKC@CR?5has?5Bad?5Signature@ 0000000000008e30     UefiShellLib:UefiShellLib.obj
 0002:00001c68       ??_C@_0BI@HFLLAPEM@OldInfo?5?$CB?$DN?5?$CI?$CIvoid?5?$CK?$CJ?50?$CJ@ 0000000000008e48     UefiShellLib:UefiShellLib.obj
 0002:00001c80       ??_C@_0BO@JMFHFMII@OldInfo?9?$DOInfo?5?$CB?$DN?5?$CI?$CIvoid?5?$CK?$CJ?50?$CJ@ 0000000000008e60     UefiShellLib:UefiShellLib.obj
 0002:00001ca0       ??_C@_0CC@BMDNOILF@OldInfo?9?$DOFullName?5?$CB?$DN?5?$CI?$CIvoid?5?$CK?$CJ?5@ 0000000000008e80     UefiShellLib:UefiShellLib.obj
 0002:00001cc8       ??_C@_0CC@HGDGHHKJ@OldInfo?9?$DOFileName?5?$CB?$DN?5?$CI?$CIvoid?5?$CK?$CJ?5@ 0000000000008ea8     UefiShellLib:UefiShellLib.obj
 0002:00001cf0       ??_C@_0BE@MAANAFFD@Arg?5?$CB?$DN?5?$CI?$CIvoid?5?$CK?$CJ?50?$CJ@ 0000000000008ed0     UefiShellLib:UefiShellLib.obj
 0002:00001d08       ??_C@_0BF@DFKBEABN@Type?5?$CB?$DN?5?$CI?$CIvoid?5?$CK?$CJ?50?$CJ@ 0000000000008ee8     UefiShellLib:UefiShellLib.obj
 0002:00001d20       ??_C@_15FNEHKAED@?$AA?9?$AA?$DP@ 0000000000008f00     UefiShellLib:UefiShellLib.obj
 0002:00001d28       ??_C@_15GECAHHDM@?$AA?9?$AAb@ 0000000000008f08     UefiShellLib:UefiShellLib.obj
 0002:00001d30       ??_C@_0BF@FMENHPJH@Argv?5?$CB?$DN?5?$CI?$CIvoid?5?$CK?$CJ?50?$CJ@ 0000000000008f10     UefiShellLib:UefiShellLib.obj
 0002:00001d48       ??_C@_0BC@DHCAIFAM@GetItemValue?5?$DN?$DN?50@ 0000000000008f28     UefiShellLib:UefiShellLib.obj
 0002:00001d5c       ??_C@_13HOIJIPNN@?$AA?5@   0000000000008f3c     UefiShellLib:UefiShellLib.obj
 0002:00001d60       ??_C@_0CD@OLNJGJNE@mEfiShellInterface?5?$CB?$DN?5?$CI?$CIvoid?5?$CK?$CJ@ 0000000000008f40     UefiShellLib:UefiShellLib.obj
 0002:00001d88       ??_C@_17HOBPHCP@?$AA?$CF?$AA?$CF?$AAN@ 0000000000008f68     UefiShellLib:UefiShellLib.obj
 0002:00001d90       ??_C@_15GCJHOFNH@?$AA?$CF?$AAN@ 0000000000008f70     UefiShellLib:UefiShellLib.obj
 0002:00001d98       ??_C@_17NAOAHACO@?$AA?$CF?$AA?$CF?$AAE@ 0000000000008f78     UefiShellLib:UefiShellLib.obj
 0002:00001da0       ??_C@_15LFJGGCNG@?$AA?$CF?$AAE@ 0000000000008f80     UefiShellLib:UefiShellLib.obj
 0002:00001da8       ??_C@_17CCIKKIPD@?$AA?$CF?$AA?$CF?$AAH@ 0000000000008f88     UefiShellLib:UefiShellLib.obj
 0002:00001db0       ??_C@_15EHPMLKAL@?$AA?$CF?$AAH@ 0000000000008f90     UefiShellLib:UefiShellLib.obj
 0002:00001db8       ??_C@_17ENDHEIJH@?$AA?$CF?$AA?$CF?$AAB@ 0000000000008f98     UefiShellLib:UefiShellLib.obj
 0002:00001dc0       ??_C@_15CIEBFKGP@?$AA?$CF?$AAB@ 0000000000008fa0     UefiShellLib:UefiShellLib.obj
 0002:00001dc8       ??_C@_17JCEMIIFP@?$AA?$CF?$AA?$CF?$AAV@ 0000000000008fa8     UefiShellLib:UefiShellLib.obj
 0002:00001dd0       ??_C@_15PHDKJKKH@?$AA?$CF?$AAV@ 0000000000008fb0     UefiShellLib:UefiShellLib.obj
 0002:00001dd8       ??_C@_13EJFHHPOP@?$AA?$CF@ 0000000000008fb8     UefiShellLib:UefiShellLib.obj
 0002:00001de0       ??_C@_0BB@PMNGACIB@CurrentSize?5?$CB?$DN?50@ 0000000000008fc0     UefiShellLib:UefiShellLib.obj
 0002:00001df8       ??_C@_0CF@PEEFMLCB@DestinationStartSize?5?$DM?$DN?5?$CKCurren@ 0000000000008fd8     UefiShellLib:UefiShellLib.obj
 0002:00001e20       ??_C@_15OEMMNBIC@?$AA0?$AAx@ 0000000000009000     UefiShellLib:UefiShellLib.obj
 0002:00001e28       ??_C@_15EEPOHOLM@?$AA0?$AAX@ 0000000000009008     UefiShellLib:UefiShellLib.obj
 0002:00001e30       ??_C@_0FB@OIFABBKD@D?3?2uefi_specs_personal_collecti@ 0000000000009010     DxeNetLib:DxeNetLib.obj
 0002:00001e90       ??_C@_0EG@FMMHPKDI@?$CIServiceBindingGuid?5?$CB?$DN?5?$CI?$CIvoid?5?$CK@ 0000000000009070     DxeNetLib:DxeNetLib.obj
 0002:00001ed8       ??_C@_0CD@PCCGAHJM@ServiceBindingGuid?5?$CB?$DN?5?$CI?$CIvoid?5?$CK?$CJ@ 00000000000090b8     DxeNetLib:DxeNetLib.obj
 0002:00001f00       ??_C@_0EL@GLNKFHII@D?3?2uefi_specs_personal_collecti@ 00000000000090e0     BaseLib:Unaligned.obj
 0002:00001f50       ??_C@_0FE@LIGPAOFO@D?3?2uefi_specs_personal_collecti@ 0000000000009130     BaseLib:DivU64x32Remainder.obj
 0002:00001fa8       ??_C@_0BF@NJNGJMPC@List?5?$CB?$DN?5?$CI?$CIvoid?5?$CK?$CJ?50?$CJ@ 0000000000009188     BaseLib:LinkedList.obj
 0002:00001fc0       ??_C@_0EM@NCJPOFNN@D?3?2uefi_specs_personal_collecti@ 00000000000091a0     BaseLib:LinkedList.obj
 0002:00002010       ??_C@_0CC@KDLPLAED@List?9?$DOForwardLink?5?$CB?$DN?5?$CI?$CIvoid?5?$CK?$CJ?5@ 00000000000091f0     BaseLib:LinkedList.obj
 0002:00002038       ??_C@_0BP@IJJCCMAK@List?9?$DOBackLink?5?$CB?$DN?5?$CI?$CIvoid?5?$CK?$CJ?50?$CJ@ 0000000000009218     BaseLib:LinkedList.obj
 0002:00002058       ??_C@_0CG@LGIALJFK@InternalBaseLibIsListValid?5?$CILis@ 0000000000009238     BaseLib:LinkedList.obj
 0002:00002080       ??_C@_0CC@JLDICICM@InternalBaseLibIsListValid?5?$CILis@ 0000000000009260     BaseLib:LinkedList.obj
 0002:000020a8       ??_C@_0BF@NMBJJECB@?$CBIsListEmpty?5?$CIEntry?$CJ@ 0000000000009288     BaseLib:LinkedList.obj
 0002:000020c0       ??_C@_15LEKKCGMK@?$AA?2?$AA?2@ 00000000000092a0     BaseLib:FilePaths.obj
 0002:000020c8       ??_C@_17CECJBCED@?$AA?2?$AA?4?$AA?2@ 00000000000092a8     BaseLib:FilePaths.obj
 0002:000020d0       ??_C@_15HFJMEONN@?$AA?2?$AA?4@ 00000000000092b0     BaseLib:FilePaths.obj
 0002:000020d8       ??_C@_17OFBPHKFE@?$AA?2?$AA?4?$AA?4@ 00000000000092b8     BaseLib:FilePaths.obj
 0002:000020e0       ??_C@_0FH@OPABPOLM@D?3?2uefi_specs_personal_collecti@ 00000000000092c0     UefiSortLib:UefiSortLib.obj
 0002:0000218c       __volatile_metadata        000000000000936c     <linker-defined>
 0003:00000000       gEfiLoadedImageProtocolGuid 0000000000009540     tftpDynamicCommand:AutoGen.obj
 0003:00000010       gEfiGlobalVariableGuid     0000000000009550     tftpDynamicCommand:AutoGen.obj
 0003:00000020       gEfiUnicodeCollation2ProtocolGuid 0000000000009560     tftpDynamicCommand:AutoGen.obj
 0003:00000030       gEfiMtftp4ProtocolGuid     0000000000009570     tftpDynamicCommand:AutoGen.obj
 0003:00000040       gEfiHiiPackageListProtocolGuid 0000000000009580     tftpDynamicCommand:AutoGen.obj
 0003:00000050       gEfiShellDynamicCommandProtocolGuid 0000000000009590     tftpDynamicCommand:AutoGen.obj
 0003:00000060       gEfiShellEnvironment2ExtGuid 00000000000095a0     tftpDynamicCommand:AutoGen.obj
 0003:00000070       gEfiFileInfoGuid           00000000000095b0     tftpDynamicCommand:AutoGen.obj
 0003:00000080       gEfiHiiConfigRoutingProtocolGuid 00000000000095c0     tftpDynamicCommand:AutoGen.obj
 0003:00000090       gEfiHiiImageProtocolGuid   00000000000095d0     tftpDynamicCommand:AutoGen.obj
 0003:000000a0       gEfiDevicePathUtilitiesProtocolGuid 00000000000095e0     tftpDynamicCommand:AutoGen.obj
 0003:000000b0       gEfiShellParametersProtocolGuid 00000000000095f0     tftpDynamicCommand:AutoGen.obj
 0003:000000c0       gEfiHiiDatabaseProtocolGuid 0000000000009600     tftpDynamicCommand:AutoGen.obj
 0003:000000d0       gEfiSimpleFileSystemProtocolGuid 0000000000009610     tftpDynamicCommand:AutoGen.obj
 0003:000000e0       gEfiHiiStringProtocolGuid  0000000000009620     tftpDynamicCommand:AutoGen.obj
 0003:000000f0       gEfiShellEnvironment2Guid  0000000000009630     tftpDynamicCommand:AutoGen.obj
 0003:00000100       gEfiManagedNetworkServiceBindingProtocolGuid 0000000000009640     tftpDynamicCommand:AutoGen.obj
 0003:00000110       gEfiMtftp4ServiceBindingProtocolGuid 0000000000009650     tftpDynamicCommand:AutoGen.obj
 0003:00000120       gEfiShellProtocolGuid      0000000000009660     tftpDynamicCommand:AutoGen.obj
 0003:00000130       gEfiManagedNetworkProtocolGuid 0000000000009670     tftpDynamicCommand:AutoGen.obj
 0003:00000140       gEfiShellInterfaceGuid     0000000000009680     tftpDynamicCommand:AutoGen.obj
 0003:00000150       gEfiHiiFontProtocolGuid    0000000000009690     tftpDynamicCommand:AutoGen.obj
 0003:00000160       mTftpDynamicCommand        00000000000096a0     tftpDynamicCommand:TftpDynamicCommand.obj
 0003:00000178       DefaultMtftp4ConfigData    00000000000096b8     tftpDynamicCommand:Tftp.obj
 0003:000001a8       gST                        00000000000096e8     UefiBootServicesTableLib:UefiBootServicesTableLib.obj
 0003:000001b0       gBS                        00000000000096f0     UefiBootServicesTableLib:UefiBootServicesTableLib.obj
 0003:000001b8       gImageHandle               00000000000096f8     UefiBootServicesTableLib:UefiBootServicesTableLib.obj
 0003:000001c0       mDevicePathLibDevicePathUtilities 0000000000009700     UefiDevicePathLibDevicePathProtocol:UefiDevicePathLib.obj
 0003:000001c8       gRT                        0000000000009708     UefiRuntimeServicesTableLib:UefiRuntimeServicesTableLib.obj
 0003:000001d0       gHiiDatabase               0000000000009710     UefiHiiServicesLib:UefiHiiServicesLib.obj
 0003:000001d8       gHiiString                 0000000000009718     UefiHiiServicesLib:UefiHiiServicesLib.obj
 0003:000001e0       gHiiFont                   0000000000009720     UefiHiiServicesLib:UefiHiiServicesLib.obj
 0003:000001e8       gHiiConfigRouting          0000000000009728     UefiHiiServicesLib:UefiHiiServicesLib.obj
 0003:000001f0       gHiiImage                  0000000000009730     UefiHiiServicesLib:UefiHiiServicesLib.obj
 0003:00000200       gParity                    0000000000009740     PcAtSerialPortLib:SerialPortLib.obj
 0003:00000201       gBreakSet                  0000000000009741     PcAtSerialPortLib:SerialPortLib.obj
 0003:00000220       FileFunctionMap            0000000000009760     <common>
 0003:00000270       mEfiShellEnvironment2      00000000000097b0     <common>
 0003:00000278       mEfiShellInterface         00000000000097b8     <common>
 0003:00000280       mUnicodeCollationProtocol  00000000000097c0     <common>
 0003:00000288       mEfiShellEnvironment2Handle 00000000000097c8     <common>
 0003:00000290       gEfiShellParametersProtocol 00000000000097d0     <common>
 0003:00000298       gEfiShellProtocol          00000000000097d8     <common>
 0003:000002a0       mLocalFilePath             00000000000097e0     <common>
 0003:000002a8       mFileHandle                00000000000097e8     <common>
 0003:000002b0       mTftpHiiHandle             00000000000097f0     <common>

 entry point at        0001:00000270

 Static symbols

 0001:0000001a       InternalMemCopyMem.0       00000000000002fa     BaseMemoryLibRepStr:CopyMem.obj
 0001:0000002a       @CopyBackward              000000000000030a     BaseMemoryLibRepStr:CopyMem.obj
 0001:00000033       @CopyBytes                 0000000000000313     BaseMemoryLibRepStr:CopyMem.obj
 0001:00000149       TdVmCall.no_return_data    0000000000000429     BaseLib:TdVmcall.obj
 0001:000001bb       TdCall.exit                000000000000049b     BaseLib:TdCall.obj
 0001:00000f7c       StringToUint16             000000000000125c f   tftpDynamicCommand:Tftp.obj
 0001:00001004       GetNicName                 00000000000012e4 f   tftpDynamicCommand:Tftp.obj
 0001:000010e0       CreateServiceChildAndOpenProtocol 00000000000013c0 f   tftpDynamicCommand:Tftp.obj
 0001:000011c8       CloseProtocolAndDestroyServiceChild 00000000000014a8 f   tftpDynamicCommand:Tftp.obj
 0001:00001220       GetFileSize                0000000000001500 f   tftpDynamicCommand:Tftp.obj
 0001:0000133c       DownloadFile               000000000000161c f   tftpDynamicCommand:Tftp.obj
 0001:00001624       CheckPacket                0000000000001904 f   tftpDynamicCommand:Tftp.obj
 0002:00000340       mTftpProgressFrame         0000000000007520     tftpDynamicCommand:Tftp.obj
 0002:000003a0       mTftpProgressDelete        0000000000007580     tftpDynamicCommand:Tftp.obj
 0002:00000410       ParamList                  00000000000075f0     tftpDynamicCommand:Tftp.obj
 0003:000001a0       mCcProbeGuestType          00000000000096e0     DxeCcProbeLib:DxeCcProbeLib.obj
 0003:000001a1       mCcProbed                  00000000000096e1     DxeCcProbeLib:DxeCcProbeLib.obj
 0003:000001f8       mDeadLoopComparator        0000000000009738     BaseLib:CpuDeadLoop.obj
 0003:00000208       mUnicodeCollation          0000000000009748     UefiSortLib:UefiSortLib.obj
 0005:00000000       $unwind$HiiGetSupportedLanguages 0000000000009c20     UefiHiiLib:HiiLanguage.obj
 0005:00000000       $unwind$StringNoCaseCompare 0000000000009c20     UefiSortLib:UefiSortLib.obj
 0005:00000000       $unwind$InsertHeadList     0000000000009c20     BaseLib:LinkedList.obj
 0005:00000000       $unwind$InsertTailList     0000000000009c20     BaseLib:LinkedList.obj
 0005:00000000       $unwind$IsNull             0000000000009c20     BaseLib:LinkedList.obj
 0005:00000000       $unwind$StrnLenS           0000000000009c20     BaseLib:SafeString.obj
 0005:00000000       $unwind$AsciiStrLen        0000000000009c20     BaseLib:String.obj
 0005:00000000       $unwind$ZeroMem            0000000000009c20     BaseMemoryLibRepStr:ZeroMemWrapper.obj
 0005:00000000       $unwind$NextDevicePathNode 0000000000009c20     UefiDevicePathLibDevicePathProtocol:UefiDevicePathLib.obj
 0005:00000000       $unwind$_DriverUnloadHandler 0000000000009c20     UefiDriverEntryPoint:DriverEntryPoint.obj
 0005:00000000       $unwind$_ModuleEntryPoint  0000000000009c20     UefiDriverEntryPoint:DriverEntryPoint.obj
 0005:00000000       $unwind$InternalAllocateCopyPool 0000000000009c20     UefiMemoryAllocationLib:MemoryAllocationLib.obj
 0005:00000000       $unwind$ShellCloseFileMetaArg 0000000000009c20     UefiShellLib:UefiShellLib.obj
 0005:00000000       $unwind$ShellLibDestructor 0000000000009c20     UefiShellLib:UefiShellLib.obj
 0005:0000000c       $unwind$ProcessLibraryConstructorList 0000000000009c2c     tftpDynamicCommand:AutoGen.obj
 0005:00000024       $unwind$FreePool           0000000000009c44     UefiMemoryAllocationLib:MemoryAllocationLib.obj
 0005:00000024       $unwind$InternalAllocatePool 0000000000009c44     UefiMemoryAllocationLib:MemoryAllocationLib.obj
 0005:00000024       $unwind$ProcessLibraryDestructorList 0000000000009c44     tftpDynamicCommand:AutoGen.obj
 0005:0000002c       $unwind$ProcessModuleEntryPointList 0000000000009c4c     tftpDynamicCommand:AutoGen.obj
 0005:00000034       $unwind$RunTftp            0000000000009c54     tftpDynamicCommand:Tftp.obj
 0005:0000004c       $unwind$StringToUint16     0000000000009c6c     tftpDynamicCommand:Tftp.obj
 0005:00000058       $unwind$GetNicName         0000000000009c78     tftpDynamicCommand:Tftp.obj
 0005:00000070       $unwind$CreateServiceChildAndOpenProtocol 0000000000009c90     tftpDynamicCommand:Tftp.obj
 0005:00000084       $unwind$AsciiStrnCmp       0000000000009ca4     BaseLib:String.obj
 0005:00000084       $unwind$StrCmp             0000000000009ca4     BaseLib:String.obj
 0005:00000084       $unwind$StrLen             0000000000009ca4     BaseLib:String.obj
 0005:00000084       $unwind$StrStr             0000000000009ca4     BaseLib:String.obj
 0005:00000084       $unwind$BasePrintLibValueToString 0000000000009ca4     BasePrintLib:PrintLibInternal.obj
 0005:00000084       $unwind$SerialPortWrite    0000000000009ca4     PcAtSerialPortLib:SerialPortLib.obj
 0005:00000084       $unwind$CloseProtocolAndDestroyServiceChild 0000000000009ca4     tftpDynamicCommand:Tftp.obj
 0005:00000084       $unwind$InternalShellStrDecimalToUint64 0000000000009ca4     UefiShellLib:UefiShellLib.obj
 0005:00000084       $unwind$InternalShellStrHexToUint64 0000000000009ca4     UefiShellLib:UefiShellLib.obj
 0005:00000084       $unwind$ShellCommandLineGetRawValue 0000000000009ca4     UefiShellLib:UefiShellLib.obj
 0005:00000094       $unwind$GetFileSize        0000000000009cb4     tftpDynamicCommand:Tftp.obj
 0005:000000ac       $unwind$DownloadFile       0000000000009ccc     tftpDynamicCommand:Tftp.obj
 0005:000000cc       $unwind$CheckPacket        0000000000009cec     tftpDynamicCommand:Tftp.obj
 0005:000000e8       $unwind$StrnCmp            0000000000009d08     BaseLib:String.obj
 0005:000000e8       $unwind$CopyMem            0000000000009d08     BaseMemoryLibRepStr:CopyMemWrapper.obj
 0005:000000e8       $unwind$CompareGuid        0000000000009d08     BaseMemoryLibRepStr:MemLibGuid.obj
 0005:000000e8       $unwind$InternalReallocatePool 0000000000009d08     UefiMemoryAllocationLib:MemoryAllocationLib.obj
 0005:000000fc       $unwind$StrCpyS            0000000000009d1c     BaseLib:SafeString.obj
 0005:000000fc       $unwind$UnicodeStrToAsciiStrS 0000000000009d1c     BaseLib:SafeString.obj
 0005:00000114       $unwind$StrCatS            0000000000009d34     BaseLib:SafeString.obj
 0005:00000130       $unwind$StrnCatS           0000000000009d50     BaseLib:SafeString.obj
 0005:00000130       $unwind$InternalShellPrintWorker 0000000000009d50     UefiShellLib:UefiShellLib.obj
 0005:0000014c       $unwind$StrDecimalToUintnS 0000000000009d6c     BaseLib:SafeString.obj
 0005:0000015c       $unwind$AsciiStrDecimalToUintnS 0000000000009d7c     BaseLib:SafeString.obj
 0005:00000164       $unwind$UnicodeVSPrint     0000000000009d84     BasePrintLib:PrintLib.obj
 0005:00000164       $unwind$ShellConvertStringToUint64 0000000000009d84     UefiShellLib:UefiShellLib.obj
 0005:00000164       $unwind$ShellOpenFileMetaArg 0000000000009d84     UefiShellLib:UefiShellLib.obj
 0005:00000178       $unwind$UnicodeSPrint      0000000000009d98     BasePrintLib:PrintLib.obj
 0005:00000178       $unwind$ShellPrintEx       0000000000009d98     UefiShellLib:UefiShellLib.obj
 0005:00000180       $unwind$AsciiSPrint        0000000000009da0     BasePrintLib:PrintLib.obj
 0005:00000188       $unwind$BasePrintLibSPrintMarker 0000000000009da8     BasePrintLib:PrintLibInternal.obj
 0005:000001a4       $unwind$TdIoRead8          0000000000009dc4     BaseIoLibIntrinsicSev:IoLibInternalTdx.obj
 0005:000001a4       $unwind$BasePrintLibSPrint 0000000000009dc4     BasePrintLib:PrintLibInternal.obj
 0005:000001ac       $unwind$DebugPrint         0000000000009dcc     BaseDebugLibSerialPort:DebugLib.obj
 0005:000001b4       $unwind$DebugPrintMarker   0000000000009dd4     BaseDebugLibSerialPort:DebugLib.obj
 0005:000001c8       $unwind$DebugAssert        0000000000009de8     BaseDebugLibSerialPort:DebugLib.obj
 0005:000001d0       $unwind$GetFirstNode       0000000000009df0     BaseLib:LinkedList.obj
 0005:000001d0       $unwind$GetNextNode        0000000000009df0     BaseLib:LinkedList.obj
 0005:000001d0       $unwind$InitializeListHead 0000000000009df0     BaseLib:LinkedList.obj
 0005:000001d0       $unwind$InternalBaseLibIsListValid 0000000000009df0     BaseLib:LinkedList.obj
 0005:000001d0       $unwind$IsListEmpty        0000000000009df0     BaseLib:LinkedList.obj
 0005:000001d0       $unwind$RemoveEntryList    0000000000009df0     BaseLib:LinkedList.obj
 0005:000001d0       $unwind$FileHandleGetSize  0000000000009df0     UefiFileHandleLib:UefiFileHandleLib.obj
 0005:000001d0       $unwind$AllocateZeroPool   0000000000009df0     UefiMemoryAllocationLib:MemoryAllocationLib.obj
 0005:000001d0       $unwind$InternalPrintTo    0000000000009df0     UefiShellLib:UefiShellLib.obj
 0005:000001d8       $unwind$GetBestLanguage    0000000000009df8     UefiLib:UefiLib.obj
 0005:000001ec       $unwind$EfiOpenFileByDevicePath 0000000000009e0c     UefiLib:UefiLib.obj
 0005:00000208       $unwind$HiiGetStringEx     0000000000009e28     UefiHiiLib:HiiString.obj
 0005:00000224       $unwind$ShellFindSE2       0000000000009e44     UefiShellLib:UefiShellLib.obj
 0005:00000238       $unwind$ShellLibConstructorWorker 0000000000009e58     UefiShellLib:UefiShellLib.obj
 0005:00000244       $unwind$ShellOpenFileByName 0000000000009e64     UefiShellLib:UefiShellLib.obj
 0005:0000025c       $unwind$InternalShellConvertFileListType 0000000000009e7c     UefiShellLib:UefiShellLib.obj
 0005:00000274       $unwind$InternalIsOnCheckList 0000000000009e94     UefiShellLib:UefiShellLib.obj
 0005:00000284       $unwind$InternalCommandLineParse 0000000000009ea4     UefiShellLib:UefiShellLib.obj
 0005:0000029c       $unwind$ShellCommandLineFreeVarList 0000000000009ebc     UefiShellLib:UefiShellLib.obj
 0005:000002a8       $unwind$ShellCommandLineGetValue 0000000000009ec8     UefiShellLib:UefiShellLib.obj
 0005:000002bc       $unwind$ShellCopySearchAndReplace 0000000000009edc     UefiShellLib:UefiShellLib.obj
 0005:000002d8       $unwind$ShellPrintHiiEx    0000000000009ef8     UefiShellLib:UefiShellLib.obj
 0005:000002e8       $unwind$PathCleanUpDirectories 0000000000009f08     BaseLib:FilePaths.obj
 0005:000002e8       $unwind$StrnCatGrow        0000000000009f08     UefiShellLib:UefiShellLib.obj
 0005:00000300       $unwind$InternalShellIsHexOrDecimalNumber 0000000000009f20     UefiShellLib:UefiShellLib.obj
 0005:0000030c       $unwind$NetLibDestroyServiceChild 0000000000009f2c     DxeNetLib:DxeNetLib.obj
 0005:00000320       $unwind$NetLibStrToIp4     0000000000009f40     DxeNetLib:DxeNetLib.obj
 0005:00000334       $unwind$FileHandleGetInfo  0000000000009f54     UefiFileHandleLib:UefiFileHandleLib.obj
 0005:00000340       $unwind$TdIoWrite8         0000000000009f60     BaseIoLibIntrinsicSev:IoLibInternalTdx.obj
 0006:00000060       $R000000                   0000000000009fe0     tftpDynamicCommandhii.lib
