 DevicePathDxe

 Timestamp is 6725e491 (Sat Nov  2 16:36:33 2024)

 Preferred load address is 0000000000000000

 Start         Length     Name                   Class
 0001:00000000 000001a8H .text                   CODE
 0001:000001a8 00008160H .text$mn                CODE
 0002:00000000 00003188H .rdata                  DATA
 0002:00003188 00000030H .rdata$voltmd           DATA
 0002:000031b8 00000168H .rdata$zzzdbg           DATA
 0003:00000000 00000650H .data                   DATA
 0003:00000650 0000002aH .bss                    DATA
 0004:00000000 00000798H .pdata                  DATA
 0005:00000000 0000040cH .xdata                  DATA

  Address         Publics by Value              Rva+Base               Lib:Object

 0000:00000000       __guard_iat_table          0000000000000000     <absolute>
 0000:00000000       __guard_longjmp_count      0000000000000000     <absolute>
 0000:00000000       __hybrid_auxiliary_iat     0000000000000000     <absolute>
 0000:00000000       __hybrid_auxiliary_iat_copy 0000000000000000     <absolute>
 0000:00000000       __guard_iat_count          0000000000000000     <absolute>
 0000:00000000       __guard_longjmp_table      0000000000000000     <absolute>
 0000:00000000       __x64_code_ranges_to_entry_points 0000000000000000     <absolute>
 0000:00000000       __guard_fids_count         0000000000000000     <absolute>
 0000:00000000       __AbsoluteZero             0000000000000000     <absolute>
 0000:00000000       __arm64x_extra_rfe_table   0000000000000000     <absolute>
 0000:00000000       __guard_check_icall_a64n_fptr 0000000000000000     <absolute>
 0000:00000000       __dynamic_value_reloc_table 0000000000000000     <absolute>
 0000:00000000       __hybrid_code_map          0000000000000000     <absolute>
 0000:00000000       __arm64x_extra_rfe_table_size 0000000000000000     <absolute>
 0000:00000000       __guard_fids_table         0000000000000000     <absolute>
 0000:00000000       __x64_code_ranges_to_entry_points_count 0000000000000000     <absolute>
 0000:00000000       __arm64x_redirection_metadata 0000000000000000     <absolute>
 0000:00000000       __arm64x_redirection_metadata_count 0000000000000000     <absolute>
 0000:00000000       __enclave_config           0000000000000000     <absolute>
 0000:00000000       __guard_flags              0000000000000000     <absolute>
 0000:00000000       __guard_eh_cont_count      0000000000000000     <absolute>
 0000:00000000       __guard_eh_cont_table      0000000000000000     <absolute>
 0000:00000000       __arm64x_native_entrypoint 0000000000000000     <absolute>
 0000:00000000       __hybrid_code_map_count    0000000000000000     <absolute>
 0001:00000000       InternalMemSetMem          00000000000002c0     BaseMemoryLibRepStr:SetMem.obj
 0001:00000020       InternalMemCopyMem         00000000000002e0     BaseMemoryLibRepStr:CopyMem.obj
 0001:00000060       InternalMemZeroMem         0000000000000320     BaseMemoryLibRepStr:ZeroMem.obj
 0001:00000080       InternalMemSetMem64        0000000000000340     BaseMemoryLibRepStr:SetMem64.obj
 0001:000000a0       InternalMemSetMem32        0000000000000360     BaseMemoryLibRepStr:SetMem32.obj
 0001:000000c0       CpuPause                   0000000000000380     BaseLib:CpuPause.obj
 0001:000000d0       TdVmCall                   0000000000000390     BaseLib:TdVmcall.obj
 0001:00000150       TdCall                     0000000000000410     BaseLib:TdCall.obj
 0001:000001a8       _ModuleEntryPoint          0000000000000468 f   UefiDriverEntryPoint:DriverEntryPoint.obj
 0001:00000210       ProcessLibraryConstructorList 00000000000004d0 f   DevicePathDxe:AutoGen.obj
 0001:00000370       DebugPrint                 0000000000000630 f   BaseDebugLibSerialPort:DebugLib.obj
 0001:00000394       DebugPrintMarker           0000000000000654 f   BaseDebugLibSerialPort:DebugLib.obj
 0001:00000420       DebugAssert                00000000000006e0 f   BaseDebugLibSerialPort:DebugLib.obj
 0001:0000049c       GetDevicePathSize          000000000000075c f   UefiDevicePathLib:UefiDevicePathLib.obj
 0001:0000051c       DuplicateDevicePath        00000000000007dc f   UefiDevicePathLib:UefiDevicePathLib.obj
 0001:00000544       AppendDevicePath           0000000000000804 f   UefiDevicePathLib:UefiDevicePathLib.obj
 0001:0000060c       AppendDevicePathNode       00000000000008cc f   UefiDevicePathLib:UefiDevicePathLib.obj
 0001:00000700       AppendDevicePathInstance   00000000000009c0 f   UefiDevicePathLib:UefiDevicePathLib.obj
 0001:00000808       GetNextDevicePathInstance  0000000000000ac8 f   UefiDevicePathLib:UefiDevicePathLib.obj
 0001:0000090c       CreateDeviceNode           0000000000000bcc f   UefiDevicePathLib:UefiDevicePathLib.obj
 0001:00000990       IsDevicePathMultiInstance  0000000000000c50 f   UefiDevicePathLib:UefiDevicePathLib.obj
 0001:00000a30       ConvertDeviceNodeToText    0000000000000cf0 f   UefiDevicePathLib:UefiDevicePathLib.obj
 0001:00000af8       ConvertDevicePathToText    0000000000000db8 f   UefiDevicePathLib:UefiDevicePathLib.obj
 0001:00000c6c       ConvertTextToDeviceNode    0000000000000f2c f   UefiDevicePathLib:UefiDevicePathLib.obj
 0001:00000c74       ConvertTextToDevicePath    0000000000000f34 f   UefiDevicePathLib:UefiDevicePathLib.obj
 0001:00000c7c       IsDevicePathValid          0000000000000f3c f   UefiDevicePathLib:DevicePathUtilities.obj
 0001:00000d30       DevicePathNodeLength       0000000000000ff0 f   UefiDevicePathLib:DevicePathUtilities.obj
 0001:00000d78       IsDevicePathEnd            0000000000001038 f   UefiDevicePathLib:DevicePathUtilities.obj
 0001:00000df0       SetDevicePathNodeLength    00000000000010b0 f   UefiDevicePathLib:DevicePathUtilities.obj
 0001:00000e70       GetNextParamStr            0000000000001130 f   UefiDevicePathLib:DevicePathFromText.obj
 0001:00000ea4       IsHexStr                   0000000000001164 f   UefiDevicePathLib:DevicePathFromText.obj
 0001:00000ef8       Strtoi                     00000000000011b8 f   UefiDevicePathLib:DevicePathFromText.obj
 0001:00000f38       Strtoi64                   00000000000011f8 f   UefiDevicePathLib:DevicePathFromText.obj
 0001:00000f68       DevPathFromTextGenericPath 0000000000001228 f   UefiDevicePathLib:DevicePathFromText.obj
 0001:00000ff8       DevPathFromTextPath        00000000000012b8 f   UefiDevicePathLib:DevicePathFromText.obj
 0001:00001024       DevPathFromTextHardwarePath 00000000000012e4 f   UefiDevicePathLib:DevicePathFromText.obj
 0001:00001030       DevPathFromTextPci         00000000000012f0 f   UefiDevicePathLib:DevicePathFromText.obj
 0001:00001098       DevPathFromTextPcCard      0000000000001358 f   UefiDevicePathLib:DevicePathFromText.obj
 0001:000010e0       DevPathFromTextMemoryMapped 00000000000013a0 f   UefiDevicePathLib:DevicePathFromText.obj
 0001:0000116c       ConvertFromTextVendor      000000000000142c f   UefiDevicePathLib:DevicePathFromText.obj
 0001:000011f8       DevPathFromTextVenHw       00000000000014b8 f   UefiDevicePathLib:DevicePathFromText.obj
 0001:00001204       DevPathFromTextCtrl        00000000000014c4 f   UefiDevicePathLib:DevicePathFromText.obj
 0001:0000124c       DevPathFromTextBmc         000000000000150c f   UefiDevicePathLib:DevicePathFromText.obj
 0001:000012d8       DevPathFromTextAcpiPath    0000000000001598 f   UefiDevicePathLib:DevicePathFromText.obj
 0001:000012e4       EisaIdFromText             00000000000015a4 f   UefiDevicePathLib:DevicePathFromText.obj
 0001:00001338       DevPathFromTextAcpi        00000000000015f8 f   UefiDevicePathLib:DevicePathFromText.obj
 0001:000013a0       ConvertFromTextAcpi        0000000000001660 f   UefiDevicePathLib:DevicePathFromText.obj
 0001:00001400       DevPathFromTextPciRoot     00000000000016c0 f   UefiDevicePathLib:DevicePathFromText.obj
 0001:0000140c       DevPathFromTextPcieRoot    00000000000016cc f   UefiDevicePathLib:DevicePathFromText.obj
 0001:00001418       DevPathFromTextFloppy      00000000000016d8 f   UefiDevicePathLib:DevicePathFromText.obj
 0001:00001424       DevPathFromTextKeyboard    00000000000016e4 f   UefiDevicePathLib:DevicePathFromText.obj
 0001:00001430       DevPathFromTextSerial      00000000000016f0 f   UefiDevicePathLib:DevicePathFromText.obj
 0001:0000143c       DevPathFromTextParallelPort 00000000000016fc f   UefiDevicePathLib:DevicePathFromText.obj
 0001:00001448       DevPathFromTextAcpiEx      0000000000001708 f   UefiDevicePathLib:DevicePathFromText.obj
 0001:0000157c       DevPathFromTextAcpiExp     000000000000183c f   UefiDevicePathLib:DevicePathFromText.obj
 0001:00001634       DevPathFromTextAcpiAdr     00000000000018f4 f   UefiDevicePathLib:DevicePathFromText.obj
 0001:00001704       DevPathFromTextMsg         00000000000019c4 f   UefiDevicePathLib:DevicePathFromText.obj
 0001:00001710       DevPathFromTextAta         00000000000019d0 f   UefiDevicePathLib:DevicePathFromText.obj
 0001:000017f8       DevPathFromTextScsi        0000000000001ab8 f   UefiDevicePathLib:DevicePathFromText.obj
 0001:00001864       DevPathFromTextFibre       0000000000001b24 f   UefiDevicePathLib:DevicePathFromText.obj
 0001:000018d4       DevPathFromTextFibreEx     0000000000001b94 f   UefiDevicePathLib:DevicePathFromText.obj
 0001:000019ec       DevPathFromText1394        0000000000001cac f   UefiDevicePathLib:DevicePathFromText.obj
 0001:00001a38       DevPathFromTextUsb         0000000000001cf8 f   UefiDevicePathLib:DevicePathFromText.obj
 0001:00001aa0       DevPathFromTextI2O         0000000000001d60 f   UefiDevicePathLib:DevicePathFromText.obj
 0001:00001ae8       DevPathFromTextInfiniband  0000000000001da8 f   UefiDevicePathLib:DevicePathFromText.obj
 0001:00001bb0       DevPathFromTextVenMsg      0000000000001e70 f   UefiDevicePathLib:DevicePathFromText.obj
 0001:00001bbc       DevPathFromTextVenPcAnsi   0000000000001e7c f   UefiDevicePathLib:DevicePathFromText.obj
 0001:00001bf0       DevPathFromTextVenVt100    0000000000001eb0 f   UefiDevicePathLib:DevicePathFromText.obj
 0001:00001c24       DevPathFromTextVenVt100Plus 0000000000001ee4 f   UefiDevicePathLib:DevicePathFromText.obj
 0001:00001c58       DevPathFromTextVenUtf8     0000000000001f18 f   UefiDevicePathLib:DevicePathFromText.obj
 0001:00001c8c       DevPathFromTextUartFlowCtrl 0000000000001f4c f   UefiDevicePathLib:DevicePathFromText.obj
 0001:00001d1c       DevPathFromTextSAS         0000000000001fdc f   UefiDevicePathLib:DevicePathFromText.obj
 0001:00001f2c       DevPathFromTextSasEx       00000000000021ec f   UefiDevicePathLib:DevicePathFromText.obj
 0001:000021e8       DevPathFromTextNVMe        00000000000024a8 f   UefiDevicePathLib:DevicePathFromText.obj
 0001:00002294       DevPathFromTextUfs         0000000000002554 f   UefiDevicePathLib:DevicePathFromText.obj
 0001:000022fc       DevPathFromTextSd          00000000000025bc f   UefiDevicePathLib:DevicePathFromText.obj
 0001:00002344       DevPathFromTextEmmc        0000000000002604 f   UefiDevicePathLib:DevicePathFromText.obj
 0001:0000238c       DevPathFromTextDebugPort   000000000000264c f   UefiDevicePathLib:DevicePathFromText.obj
 0001:000023c0       DevPathFromTextMAC         0000000000002680 f   UefiDevicePathLib:DevicePathFromText.obj
 0001:0000243c       NetworkProtocolFromText    00000000000026fc f   UefiDevicePathLib:DevicePathFromText.obj
 0001:00002490       DevPathFromTextIPv4        0000000000002750 f   UefiDevicePathLib:DevicePathFromText.obj
 0001:000025ac       DevPathFromTextIPv6        000000000000286c f   UefiDevicePathLib:DevicePathFromText.obj
 0001:000026d4       DevPathFromTextUart        0000000000002994 f   UefiDevicePathLib:DevicePathFromText.obj
 0001:00002850       ConvertFromTextUsbClass    0000000000002b10 f   UefiDevicePathLib:DevicePathFromText.obj
 0001:00002968       DevPathFromTextUsbClass    0000000000002c28 f   UefiDevicePathLib:DevicePathFromText.obj
 0001:00002988       DevPathFromTextUsbAudio    0000000000002c48 f   UefiDevicePathLib:DevicePathFromText.obj
 0001:000029a8       DevPathFromTextUsbCDCControl 0000000000002c68 f   UefiDevicePathLib:DevicePathFromText.obj
 0001:000029c8       DevPathFromTextUsbHID      0000000000002c88 f   UefiDevicePathLib:DevicePathFromText.obj
 0001:000029e8       DevPathFromTextUsbImage    0000000000002ca8 f   UefiDevicePathLib:DevicePathFromText.obj
 0001:00002a08       DevPathFromTextUsbPrinter  0000000000002cc8 f   UefiDevicePathLib:DevicePathFromText.obj
 0001:00002a28       DevPathFromTextUsbMassStorage 0000000000002ce8 f   UefiDevicePathLib:DevicePathFromText.obj
 0001:00002a48       DevPathFromTextUsbHub      0000000000002d08 f   UefiDevicePathLib:DevicePathFromText.obj
 0001:00002a68       DevPathFromTextUsbCDCData  0000000000002d28 f   UefiDevicePathLib:DevicePathFromText.obj
 0001:00002a88       DevPathFromTextUsbSmartCard 0000000000002d48 f   UefiDevicePathLib:DevicePathFromText.obj
 0001:00002aa8       DevPathFromTextUsbVideo    0000000000002d68 f   UefiDevicePathLib:DevicePathFromText.obj
 0001:00002ac8       DevPathFromTextUsbDiagnostic 0000000000002d88 f   UefiDevicePathLib:DevicePathFromText.obj
 0001:00002ae8       DevPathFromTextUsbWireless 0000000000002da8 f   UefiDevicePathLib:DevicePathFromText.obj
 0001:00002b08       DevPathFromTextUsbDeviceFirmwareUpdate 0000000000002dc8 f   UefiDevicePathLib:DevicePathFromText.obj
 0001:00002b24       DevPathFromTextUsbIrdaBridge 0000000000002de4 f   UefiDevicePathLib:DevicePathFromText.obj
 0001:00002b40       DevPathFromTextUsbTestAndMeasurement 0000000000002e00 f   UefiDevicePathLib:DevicePathFromText.obj
 0001:00002b5c       DevPathFromTextUsbWwid     0000000000002e1c f   UefiDevicePathLib:DevicePathFromText.obj
 0001:00002c40       DevPathFromTextUnit        0000000000002f00 f   UefiDevicePathLib:DevicePathFromText.obj
 0001:00002c88       DevPathFromTextiSCSI       0000000000002f48 f   UefiDevicePathLib:DevicePathFromText.obj
 0001:00002e6c       DevPathFromTextVlan        000000000000312c f   UefiDevicePathLib:DevicePathFromText.obj
 0001:00002eb4       DevPathFromTextBluetooth   0000000000003174 f   UefiDevicePathLib:DevicePathFromText.obj
 0001:00002f08       DevPathFromTextWiFi        00000000000031c8 f   UefiDevicePathLib:DevicePathFromText.obj
 0001:00002f9c       DevPathFromTextBluetoothLE 000000000000325c f   UefiDevicePathLib:DevicePathFromText.obj
 0001:00003010       DevPathFromTextDns         00000000000032d0 f   UefiDevicePathLib:DevicePathFromText.obj
 0001:00003100       DevPathFromTextUri         00000000000033c0 f   UefiDevicePathLib:DevicePathFromText.obj
 0001:00003158       DevPathFromTextMediaPath   0000000000003418 f   UefiDevicePathLib:DevicePathFromText.obj
 0001:00003164       DevPathFromTextHD          0000000000003424 f   UefiDevicePathLib:DevicePathFromText.obj
 0001:00003288       DevPathFromTextCDROM       0000000000003548 f   UefiDevicePathLib:DevicePathFromText.obj
 0001:00003314       DevPathFromTextVenMedia    00000000000035d4 f   UefiDevicePathLib:DevicePathFromText.obj
 0001:00003320       DevPathFromTextFilePath    00000000000035e0 f   UefiDevicePathLib:DevicePathFromText.obj
 0001:00003508       DevPathFromTextMedia       00000000000037c8 f   UefiDevicePathLib:DevicePathFromText.obj
 0001:00003550       DevPathFromTextFv          0000000000003810 f   UefiDevicePathLib:DevicePathFromText.obj
 0001:00003598       DevPathFromTextFvFile      0000000000003858 f   UefiDevicePathLib:DevicePathFromText.obj
 0001:000035e0       DevPathFromTextRelativeOffsetRange 00000000000038a0 f   UefiDevicePathLib:DevicePathFromText.obj
 0001:0000364c       DevPathFromTextRamDisk     000000000000390c f   UefiDevicePathLib:DevicePathFromText.obj
 0001:00003744       DevPathFromTextVirtualDisk 0000000000003a04 f   UefiDevicePathLib:DevicePathFromText.obj
 0001:00003828       DevPathFromTextVirtualCd   0000000000003ae8 f   UefiDevicePathLib:DevicePathFromText.obj
 0001:0000390c       DevPathFromTextPersistentVirtualDisk 0000000000003bcc f   UefiDevicePathLib:DevicePathFromText.obj
 0001:000039f0       DevPathFromTextPersistentVirtualCd 0000000000003cb0 f   UefiDevicePathLib:DevicePathFromText.obj
 0001:00003ad4       DevPathFromTextBbsPath     0000000000003d94 f   UefiDevicePathLib:DevicePathFromText.obj
 0001:00003ae0       DevPathFromTextBBS         0000000000003da0 f   UefiDevicePathLib:DevicePathFromText.obj
 0001:00003c34       DevPathFromTextSata        0000000000003ef4 f   UefiDevicePathLib:DevicePathFromText.obj
 0001:00003cd0       UefiDevicePathLibConvertTextToDeviceNode 0000000000003f90 f   UefiDevicePathLib:DevicePathFromText.obj
 0001:00003edc       UefiDevicePathLibConvertTextToDevicePath 000000000000419c f   UefiDevicePathLib:DevicePathFromText.obj
 0001:00004104       UefiDevicePathLibCatPrint  00000000000043c4 f   UefiDevicePathLib:DevicePathToText.obj
 0001:000041e4       DevPathToTextPci           00000000000044a4 f   UefiDevicePathLib:DevicePathToText.obj
 0001:000041fc       DevPathToTextPccard        00000000000044bc f   UefiDevicePathLib:DevicePathToText.obj
 0001:00004210       DevPathToTextMemMap        00000000000044d0 f   UefiDevicePathLib:DevicePathToText.obj
 0001:00004238       DevPathToTextVendor        00000000000044f8 f   UefiDevicePathLib:DevicePathToText.obj
 0001:00004558       DevPathToTextController    0000000000004818 f   UefiDevicePathLib:DevicePathToText.obj
 0001:00004568       DevPathToTextBmc           0000000000004828 f   UefiDevicePathLib:DevicePathToText.obj
 0001:000045c4       DevPathToTextAcpi          0000000000004884 f   UefiDevicePathLib:DevicePathToText.obj
 0001:00004654       DevPathToTextAcpiEx        0000000000004914 f   UefiDevicePathLib:DevicePathToText.obj
 0001:00004908       DevPathToTextAcpiAdr       0000000000004bc8 f   UefiDevicePathLib:DevicePathToText.obj
 0001:00004990       DevPathToTextAtapi         0000000000004c50 f   UefiDevicePathLib:DevicePathToText.obj
 0001:000049f4       DevPathToTextScsi          0000000000004cb4 f   UefiDevicePathLib:DevicePathToText.obj
 0001:00004a0c       DevPathToTextFibre         0000000000004ccc f   UefiDevicePathLib:DevicePathToText.obj
 0001:00004a20       DevPathToTextFibreEx       0000000000004ce0 f   UefiDevicePathLib:DevicePathToText.obj
 0001:00004ab8       DevPathToTextSasEx         0000000000004d78 f   UefiDevicePathLib:DevicePathToText.obj
 0001:00004c28       DevPathToTextNVMe          0000000000004ee8 f   UefiDevicePathLib:DevicePathToText.obj
 0001:00004c9c       DevPathToTextUfs           0000000000004f5c f   UefiDevicePathLib:DevicePathToText.obj
 0001:00004cb4       DevPathToTextSd            0000000000004f74 f   UefiDevicePathLib:DevicePathToText.obj
 0001:00004cc8       DevPathToTextEmmc          0000000000004f88 f   UefiDevicePathLib:DevicePathToText.obj
 0001:00004cdc       DevPathToText1394          0000000000004f9c f   UefiDevicePathLib:DevicePathToText.obj
 0001:00004cec       DevPathToTextUsb           0000000000004fac f   UefiDevicePathLib:DevicePathToText.obj
 0001:00004d04       DevPathToTextUsbWWID       0000000000004fc4 f   UefiDevicePathLib:DevicePathToText.obj
 0001:00004dc4       DevPathToTextLogicalUnit   0000000000005084 f   UefiDevicePathLib:DevicePathToText.obj
 0001:00004dd8       DevPathToTextUsbClass      0000000000005098 f   UefiDevicePathLib:DevicePathToText.obj
 0001:00004f84       DevPathToTextSata          0000000000005244 f   UefiDevicePathLib:DevicePathToText.obj
 0001:00004fac       DevPathToTextI2O           000000000000526c f   UefiDevicePathLib:DevicePathToText.obj
 0001:00004fbc       DevPathToTextMacAddr       000000000000527c f   UefiDevicePathLib:DevicePathToText.obj
 0001:00005038       CatIPv6Address             00000000000052f8 f   UefiDevicePathLib:DevicePathToText.obj
 0001:00005124       DevPathToTextIPv4          00000000000053e4 f   UefiDevicePathLib:DevicePathToText.obj
 0001:000052a8       DevPathToTextIPv6          0000000000005568 f   UefiDevicePathLib:DevicePathToText.obj
 0001:000053b0       DevPathToTextInfiniBand    0000000000005670 f   UefiDevicePathLib:DevicePathToText.obj
 0001:000053e8       DevPathToTextUart          00000000000056a8 f   UefiDevicePathLib:DevicePathToText.obj
 0001:0000550c       DevPathToTextiSCSI         00000000000057cc f   UefiDevicePathLib:DevicePathToText.obj
 0001:00005618       DevPathToTextVlan          00000000000058d8 f   UefiDevicePathLib:DevicePathToText.obj
 0001:0000562c       DevPathToTextBluetooth     00000000000058ec f   UefiDevicePathLib:DevicePathToText.obj
 0001:00005674       DevPathToTextWiFi          0000000000005934 f   UefiDevicePathLib:DevicePathToText.obj
 0001:000056b0       DevPathToTextBluetoothLE   0000000000005970 f   UefiDevicePathLib:DevicePathToText.obj
 0001:00005708       DevPathToTextDns           00000000000059c8 f   UefiDevicePathLib:DevicePathToText.obj
 0001:000057dc       DevPathToTextUri           0000000000005a9c f   UefiDevicePathLib:DevicePathToText.obj
 0001:00005870       DevPathToTextHardDrive     0000000000005b30 f   UefiDevicePathLib:DevicePathToText.obj
 0001:000058f8       DevPathToTextCDROM         0000000000005bb8 f   UefiDevicePathLib:DevicePathToText.obj
 0001:00005934       DevPathToTextFilePath      0000000000005bf4 f   UefiDevicePathLib:DevicePathToText.obj
 0001:00005944       DevPathToTextMediaProtocol 0000000000005c04 f   UefiDevicePathLib:DevicePathToText.obj
 0001:00005954       DevPathToTextFv            0000000000005c14 f   UefiDevicePathLib:DevicePathToText.obj
 0001:00005964       DevPathToTextFvFile        0000000000005c24 f   UefiDevicePathLib:DevicePathToText.obj
 0001:00005974       DevPathRelativeOffsetRange 0000000000005c34 f   UefiDevicePathLib:DevicePathToText.obj
 0001:00005988       DevPathToTextRamDisk       0000000000005c48 f   UefiDevicePathLib:DevicePathToText.obj
 0001:00005a8c       DevPathToTextBBS           0000000000005d4c f   UefiDevicePathLib:DevicePathToText.obj
 0001:00005b60       DevPathToTextEndInstance   0000000000005e20 f   UefiDevicePathLib:DevicePathToText.obj
 0001:00005b6c       DevPathToTextNodeGeneric   0000000000005e2c f   UefiDevicePathLib:DevicePathToText.obj
 0001:00005cc0       CopyMem                    0000000000005f80 f   BaseMemoryLibRepStr:CopyMemWrapper.obj
 0001:00005d5c       CopyGuid                   000000000000601c f   BaseMemoryLibRepStr:MemLibGuid.obj
 0001:00005e0c       CompareGuid                00000000000060cc f   BaseMemoryLibRepStr:MemLibGuid.obj
 0001:00005ed0       ZeroMem                    0000000000006190 f   BaseMemoryLibRepStr:ZeroMemWrapper.obj
 0001:00005f40       StrLen                     0000000000006200 f   BaseLib:String.obj
 0001:00005fc8       StrCmp                     0000000000006288 f   BaseLib:String.obj
 0001:00006070       InternalHexCharToUintn     0000000000006330 f   BaseLib:String.obj
 0001:000060a0       StrDecimalToUint64         0000000000006360 f   BaseLib:String.obj
 0001:000061c4       StrHexToUint64             0000000000006484 f   BaseLib:String.obj
 0001:00006324       AsciiStrLen                00000000000065e4 f   BaseLib:String.obj
 0001:00006390       StrnLenS                   0000000000006650 f   BaseLib:SafeString.obj
 0001:000063f8       StrDecimalToUintnS         00000000000066b8 f   BaseLib:SafeString.obj
 0001:00006558       StrHexToUintnS             0000000000006818 f   BaseLib:SafeString.obj
 0001:00006700       StrToIpv6Address           00000000000069c0 f   BaseLib:SafeString.obj
 0001:00006994       StrToIpv4Address           0000000000006c54 f   BaseLib:SafeString.obj
 0001:00006ae4       StrToGuid                  0000000000006da4 f   BaseLib:SafeString.obj
 0001:00006c90       StrHexToBytes              0000000000006f50 f   BaseLib:SafeString.obj
 0001:00006e28       UnicodeStrToAsciiStrS      00000000000070e8 f   BaseLib:SafeString.obj
 0001:00006f8c       UnicodeVSPrint             000000000000724c f   BasePrintLib:PrintLib.obj
 0001:00007020       UnicodeSPrint              00000000000072e0 f   BasePrintLib:PrintLib.obj
 0001:00007040       AsciiSPrint                0000000000007300 f   BasePrintLib:PrintLib.obj
 0001:0000706c       BasePrintLibFillBuffer     000000000000732c f   BasePrintLib:PrintLibInternal.obj
 0001:000070a0       BasePrintLibValueToString  0000000000007360 f   BasePrintLib:PrintLibInternal.obj
 0001:0000710c       BasePrintLibSPrintMarker   00000000000073cc f   BasePrintLib:PrintLibInternal.obj
 0001:00008024       BasePrintLibSPrint         00000000000082e4 f   BasePrintLib:PrintLibInternal.obj
 0001:00008048       SerialPortWrite            0000000000008308 f   PcAtSerialPortLib:SerialPortLib.obj
 0001:000080cc       InternalAllocatePool       000000000000838c f   UefiMemoryAllocationLib:MemoryAllocationLib.obj
 0001:000080fc       InternalAllocateCopyPool   00000000000083bc f   UefiMemoryAllocationLib:MemoryAllocationLib.obj
 0001:00008174       InternalReallocatePool     0000000000008434 f   UefiMemoryAllocationLib:MemoryAllocationLib.obj
 0001:000081f0       FreePool                   00000000000084b0 f   UefiMemoryAllocationLib:MemoryAllocationLib.obj
 0001:00008234       IsTdxGuest                 00000000000084f4 f   BaseIoLibIntrinsicSev:IoLibInternalTdx.obj
 0001:00008260       TdIoRead8                  0000000000008520 f   BaseIoLibIntrinsicSev:IoLibInternalTdx.obj
 0001:000082b8       TdIoWrite8                 0000000000008578 f   BaseIoLibIntrinsicSev:IoLibInternalTdx.obj
 0002:00000000       ??_C@_0CB@DMEJJJHA@?6ASSERT_EFI_ERROR?5?$CIStatus?5?$DN?5?$CFr?$CJ@ 00000000000085e0     UefiDriverEntryPoint:DriverEntryPoint.obj
 0002:00000028       ??_C@_0CH@BBNBJKHK@?$CB?$CI?$CI?$CIINTN?$CJ?$CIRETURN_STATUS?$CJ?$CIStatus@ 0000000000008608     UefiDriverEntryPoint:DriverEntryPoint.obj
 0002:00000050       ??_C@_0O@LOEPMOAC@DevicePathDxe@ 0000000000008630     DevicePathDxe:AutoGen.obj
 0002:00000060       mDevicePathToText          0000000000008640     DevicePathDxe:DevicePath.obj
 0002:00000070       mDevicePathUtilities       0000000000008650     DevicePathDxe:DevicePath.obj
 0002:000000b0       mDevicePathFromText        0000000000008690     DevicePathDxe:DevicePath.obj
 0002:000000c0       ??_C@_0BH@LKMBFCBF@Format?5?$CB?$DN?5?$CI?$CIvoid?5?$CK?$CJ?50?$CJ@ 00000000000086a0     BaseDebugLibSerialPort:DebugLib.obj
 0002:000000e0       ??_C@_0FJ@BNNHJMAJ@D?3?2uefi_specs_personal_collecti@ 00000000000086c0     BaseDebugLibSerialPort:DebugLib.obj
 0002:00000140       ??_C@_0BI@NOCKJDBJ@ASSERT?5?$FL?$CFa?$FN?5?$CFa?$CI?$CFd?$CJ?3?5?$CFa?6@ 0000000000008720     BaseDebugLibSerialPort:DebugLib.obj
 0002:00000158       ??_C@_0BH@IACGKAP@Buffer?5?$CB?$DN?5?$CI?$CIvoid?5?$CK?$CJ?50?$CJ@ 0000000000008738     BaseDebugLibSerialPort:DebugLib.obj
 0002:00000170       ??_C@_0BN@COECPDCC@gImageHandle?5?$CB?$DN?5?$CI?$CIvoid?5?$CK?$CJ?50?$CJ@ 0000000000008750     UefiBootServicesTableLib:UefiBootServicesTableLib.obj
 0002:00000190       ??_C@_0GL@PJCPJLGM@D?3?2uefi_specs_personal_collecti@ 0000000000008770     UefiBootServicesTableLib:UefiBootServicesTableLib.obj
 0002:00000200       ??_C@_0BE@DGNHAHIL@gST?5?$CB?$DN?5?$CI?$CIvoid?5?$CK?$CJ?50?$CJ@ 00000000000087e0     UefiBootServicesTableLib:UefiBootServicesTableLib.obj
 0002:00000218       ??_C@_0BE@BDFJLGLN@gBS?5?$CB?$DN?5?$CI?$CIvoid?5?$CK?$CJ?50?$CJ@ 00000000000087f8     UefiBootServicesTableLib:UefiBootServicesTableLib.obj
 0002:00000230       ??_C@_0BF@CBLMFKOC@Node?5?$CB?$DN?5?$CI?$CIvoid?5?$CK?$CJ?50?$CJ@ 0000000000008810     UefiDevicePathLib:DevicePathUtilities.obj
 0002:00000250       ??_C@_0FP@PDPDKABP@D?3?2uefi_specs_personal_collecti@ 0000000000008830     UefiDevicePathLib:DevicePathUtilities.obj
 0002:000002b0       ??_C@_0EH@ENCEEKKL@?$CILength?5?$DO?$DN?5sizeof?5?$CIEFI_DEVICE_P@ 0000000000008890     UefiDevicePathLib:DevicePathUtilities.obj
 0002:000002f8       ??_C@_0BF@MBJFHGBE@Size?5?$CB?$DN?5?$CI?$CIvoid?5?$CK?$CJ?50?$CJ@ 00000000000088d8     UefiDevicePathLib:DevicePathUtilities.obj
 0002:00000310       mUefiDevicePathLibEndDevicePath 00000000000088f0     UefiDevicePathLib:DevicePathUtilities.obj
 0002:00000318       ??_C@_0BI@MMMKPDJL@AcpiAdr?5?$CB?$DN?5?$CI?$CIvoid?5?$CK?$CJ?50?$CJ@ 00000000000088f8     UefiDevicePathLib:DevicePathFromText.obj
 0002:00000330       ??_C@_0FO@IOHINLKG@D?3?2uefi_specs_personal_collecti@ 0000000000008910     UefiDevicePathLib:DevicePathFromText.obj
 0002:00000390       ??_C@_1BA@NGCDBIG@?$AAP?$AAr?$AAi?$AAm?$AAa?$AAr?$AAy@ 0000000000008970     UefiDevicePathLib:DevicePathFromText.obj
 0002:000003a0       ??_C@_1BE@BGLPHBHD@?$AAS?$AAe?$AAc?$AAo?$AAn?$AAd?$AAa?$AAr?$AAy@ 0000000000008980     UefiDevicePathLib:DevicePathFromText.obj
 0002:000003b8       ??_C@_1O@MHJLHGPK@?$AAM?$AAa?$AAs?$AAt?$AAe?$AAr@ 0000000000008998     UefiDevicePathLib:DevicePathFromText.obj
 0002:000003c8       ??_C@_1M@MJNGBMFK@?$AAS?$AAl?$AAa?$AAv?$AAe@ 00000000000089a8     UefiDevicePathLib:DevicePathFromText.obj
 0002:000003e0       ??_C@_1BA@NAMMFHHL@?$AAX?$AAo?$AAn?$AAX?$AAo?$AAf?$AAf@ 00000000000089c0     UefiDevicePathLib:DevicePathFromText.obj
 0002:000003f0       ??_C@_1BC@MAICEHGI@?$AAH?$AAa?$AAr?$AAd?$AAw?$AAa?$AAr?$AAe@ 00000000000089d0     UefiDevicePathLib:DevicePathFromText.obj
 0002:00000410       ??_C@_1BG@FMODEGIG@?$AAN?$AAo?$AAT?$AAo?$AAp?$AAo?$AAl?$AAo?$AAg?$AAy@ 00000000000089f0     UefiDevicePathLib:DevicePathFromText.obj
 0002:00000428       ??_C@_19BPNGBNAI@?$AAS?$AAA?$AAT?$AAA@ 0000000000008a08     UefiDevicePathLib:DevicePathFromText.obj
 0002:00000438       ??_C@_17FMMIKNDG@?$AAS?$AAA?$AAS@ 0000000000008a18     UefiDevicePathLib:DevicePathFromText.obj
 0002:00000440       ??_C@_1BC@KMFBFJEN@?$AAE?$AAx?$AAt?$AAe?$AAr?$AAn?$AAa?$AAl@ 0000000000008a20     UefiDevicePathLib:DevicePathFromText.obj
 0002:00000460       ??_C@_1BC@FBOHHDN@?$AAI?$AAn?$AAt?$AAe?$AAr?$AAn?$AAa?$AAl@ 0000000000008a40     UefiDevicePathLib:DevicePathFromText.obj
 0002:00000480       ??_C@_1BC@EEIMPKHO@?$AAE?$AAx?$AAp?$AAa?$AAn?$AAd?$AAe?$AAd@ 0000000000008a60     UefiDevicePathLib:DevicePathFromText.obj
 0002:00000498       ??_C@_1O@MDCABJAO@?$AAD?$AAi?$AAr?$AAe?$AAc?$AAt@ 0000000000008a78     UefiDevicePathLib:DevicePathFromText.obj
 0002:000004a8       ??_C@_17NINPJKOM@?$AAU?$AAD?$AAP@ 0000000000008a88     UefiDevicePathLib:DevicePathFromText.obj
 0002:000004b0       ??_C@_17JHAKKMK@?$AAT?$AAC?$AAP@ 0000000000008a90     UefiDevicePathLib:DevicePathFromText.obj
 0002:000004b8       ??_C@_1O@ECDFCEKO@?$AAS?$AAt?$AAa?$AAt?$AAi?$AAc@ 0000000000008a98     UefiDevicePathLib:DevicePathFromText.obj
 0002:000004d0       ??_C@_1CO@IJAKNKHD@?$AAS?$AAt?$AAa?$AAt?$AAe?$AAl?$AAe?$AAs?$AAs?$AAA?$AAu?$AAt?$AAo?$AAC?$AAo@ 0000000000008ab0     UefiDevicePathLib:DevicePathFromText.obj
 0002:00000500       ??_C@_1BA@KDAEEGIF@?$AAD?$AAE?$AAF?$AAA?$AAU?$AAL?$AAT@ 0000000000008ae0     UefiDevicePathLib:DevicePathFromText.obj
 0002:00000510       ??_C@_13MKMNOPIJ@?$AAD@    0000000000008af0     UefiDevicePathLib:DevicePathFromText.obj
 0002:00000514       ??_C@_13JGCMLPCH@?$AA1@    0000000000008af4     UefiDevicePathLib:DevicePathFromText.obj
 0002:00000518       ??_C@_17CJOJBPKA@?$AA1?$AA?4?$AA5@ 0000000000008af8     UefiDevicePathLib:DevicePathFromText.obj
 0002:00000520       ??_C@_13IEJJBAMJ@?$AA2@    0000000000008b00     UefiDevicePathLib:DevicePathFromText.obj
 0002:00000528       ??_C@_1O@HNAACJMJ@?$AAC?$AAR?$AAC?$AA3?$AA2?$AAC@ 0000000000008b08     UefiDevicePathLib:DevicePathFromText.obj
 0002:00000538       ??_C@_19KLMLHLJG@?$AAN?$AAo?$AAn?$AAe@ 0000000000008b18     UefiDevicePathLib:DevicePathFromText.obj
 0002:00000550       ??_C@_1BC@PDNIOEEC@?$AAC?$AAH?$AAA?$AAP?$AA_?$AAU?$AAN?$AAI@ 0000000000008b30     UefiDevicePathLib:DevicePathFromText.obj
 0002:00000568       ??_C@_17LNBJLOE@?$AAM?$AAB?$AAR@ 0000000000008b48     UefiDevicePathLib:DevicePathFromText.obj
 0002:00000570       ??_C@_17PBGEHLGA@?$AAG?$AAP?$AAT@ 0000000000008b50     UefiDevicePathLib:DevicePathFromText.obj
 0002:00000578       ??_C@_1O@CLMODHEM@?$AAF?$AAl?$AAo?$AAp?$AAp?$AAy@ 0000000000008b58     UefiDevicePathLib:DevicePathFromText.obj
 0002:00000588       ??_C@_15LJEABJDH@?$AAH?$AAD@ 0000000000008b68     UefiDevicePathLib:DevicePathFromText.obj
 0002:00000590       ??_C@_1M@NEPFDHKI@?$AAC?$AAD?$AAR?$AAO?$AAM@ 0000000000008b70     UefiDevicePathLib:DevicePathFromText.obj
 0002:000005a0       ??_C@_1O@IJBLAFEH@?$AAP?$AAC?$AAM?$AAC?$AAI?$AAA@ 0000000000008b80     UefiDevicePathLib:DevicePathFromText.obj
 0002:000005b0       ??_C@_17DMBMDHNL@?$AAU?$AAS?$AAB@ 0000000000008b90     UefiDevicePathLib:DevicePathFromText.obj
 0002:000005c0       ??_C@_1BA@IFBJBPAK@?$AAN?$AAe?$AAt?$AAw?$AAo?$AAr?$AAk@ 0000000000008ba0     UefiDevicePathLib:DevicePathFromText.obj
 0002:000005d0       ??_C@_19NHABCBNP@?$AAP?$AAa?$AAt?$AAh@ 0000000000008bb0     UefiDevicePathLib:DevicePathFromText.obj
 0002:000005e0       ??_C@_1BK@PDLLBLKH@?$AAH?$AAa?$AAr?$AAd?$AAw?$AAa?$AAr?$AAe?$AAP?$AAa?$AAt?$AAh@ 0000000000008bc0     UefiDevicePathLib:DevicePathFromText.obj
 0002:00000600       ??_C@_17HLFBGCN@?$AAP?$AAc?$AAi@ 0000000000008be0     UefiDevicePathLib:DevicePathFromText.obj
 0002:00000608       ??_C@_1O@MNOBCDEF@?$AAP?$AAc?$AAC?$AAa?$AAr?$AAd@ 0000000000008be8     UefiDevicePathLib:DevicePathFromText.obj
 0002:00000618       ??_C@_1BK@OCLBCLCA@?$AAM?$AAe?$AAm?$AAo?$AAr?$AAy?$AAM?$AAa?$AAp?$AAp?$AAe?$AAd@ 0000000000008bf8     UefiDevicePathLib:DevicePathFromText.obj
 0002:00000638       ??_C@_1M@LACAKLOF@?$AAV?$AAe?$AAn?$AAH?$AAw@ 0000000000008c18     UefiDevicePathLib:DevicePathFromText.obj
 0002:00000648       ??_C@_19HGPIFADB@?$AAC?$AAt?$AAr?$AAl@ 0000000000008c28     UefiDevicePathLib:DevicePathFromText.obj
 0002:00000658       ??_C@_17MLACALGH@?$AAB?$AAM?$AAC@ 0000000000008c38     UefiDevicePathLib:DevicePathFromText.obj
 0002:00000660       ??_C@_1BC@EJFCJMMM@?$AAA?$AAc?$AAp?$AAi?$AAP?$AAa?$AAt?$AAh@ 0000000000008c40     UefiDevicePathLib:DevicePathFromText.obj
 0002:00000678       ??_C@_19HOGFOJAH@?$AAA?$AAc?$AAp?$AAi@ 0000000000008c58     UefiDevicePathLib:DevicePathFromText.obj
 0002:00000688       ??_C@_1BA@DHIPOOID@?$AAP?$AAc?$AAi?$AAR?$AAo?$AAo?$AAt@ 0000000000008c68     UefiDevicePathLib:DevicePathFromText.obj
 0002:00000698       ??_C@_1BC@CHOMCAOI@?$AAP?$AAc?$AAi?$AAe?$AAR?$AAo?$AAo?$AAt@ 0000000000008c78     UefiDevicePathLib:DevicePathFromText.obj
 0002:000006b0       ??_C@_1BC@NCPFOOPJ@?$AAK?$AAe?$AAy?$AAb?$AAo?$AAa?$AAr?$AAd@ 0000000000008c90     UefiDevicePathLib:DevicePathFromText.obj
 0002:000006c8       ??_C@_1O@EKJPAJBH@?$AAS?$AAe?$AAr?$AAi?$AAa?$AAl@ 0000000000008ca8     UefiDevicePathLib:DevicePathFromText.obj
 0002:000006d8       ??_C@_1BK@LKLOGFGG@?$AAP?$AAa?$AAr?$AAa?$AAl?$AAl?$AAe?$AAl?$AAP?$AAo?$AAr?$AAt@ 0000000000008cb8     UefiDevicePathLib:DevicePathFromText.obj
 0002:000006f8       ??_C@_1O@GFMNADOD@?$AAA?$AAc?$AAp?$AAi?$AAE?$AAx@ 0000000000008cd8     UefiDevicePathLib:DevicePathFromText.obj
 0002:00000708       ??_C@_1BA@IHGFDEME@?$AAA?$AAc?$AAp?$AAi?$AAE?$AAx?$AAp@ 0000000000008ce8     UefiDevicePathLib:DevicePathFromText.obj
 0002:00000718       ??_C@_1BA@NNDCDAFF@?$AAA?$AAc?$AAp?$AAi?$AAA?$AAd?$AAr@ 0000000000008cf8     UefiDevicePathLib:DevicePathFromText.obj
 0002:00000728       ??_C@_17DACEHHP@?$AAM?$AAs?$AAg@ 0000000000008d08     UefiDevicePathLib:DevicePathFromText.obj
 0002:00000730       ??_C@_17GMMDDNFE@?$AAA?$AAt?$AAa@ 0000000000008d10     UefiDevicePathLib:DevicePathFromText.obj
 0002:00000738       ??_C@_19NLKKMKHM@?$AAS?$AAc?$AAs?$AAi@ 0000000000008d18     UefiDevicePathLib:DevicePathFromText.obj
 0002:00000748       ??_C@_1M@KOFKAIAH@?$AAF?$AAi?$AAb?$AAr?$AAe@ 0000000000008d28     UefiDevicePathLib:DevicePathFromText.obj
 0002:00000758       ??_C@_1BA@BDOAEBJM@?$AAF?$AAi?$AAb?$AAr?$AAe?$AAE?$AAx@ 0000000000008d38     UefiDevicePathLib:DevicePathFromText.obj
 0002:00000768       ??_C@_1M@PJKPDAPK@?$AAI?$AA1?$AA3?$AA9?$AA4@ 0000000000008d48     UefiDevicePathLib:DevicePathFromText.obj
 0002:00000778       ??_C@_17CGMKBHJN@?$AAI?$AA2?$AAO@ 0000000000008d58     UefiDevicePathLib:DevicePathFromText.obj
 0002:00000780       ??_C@_1BG@LFNGJFMI@?$AAI?$AAn?$AAf?$AAi?$AAn?$AAi?$AAb?$AAa?$AAn?$AAd@ 0000000000008d60     UefiDevicePathLib:DevicePathFromText.obj
 0002:00000798       ??_C@_1O@BHINEOCB@?$AAV?$AAe?$AAn?$AAM?$AAs?$AAg@ 0000000000008d78     UefiDevicePathLib:DevicePathFromText.obj
 0002:000007a8       ??_C@_1BE@LMIDEMJL@?$AAV?$AAe?$AAn?$AAP?$AAc?$AAA?$AAn?$AAs?$AAi@ 0000000000008d88     UefiDevicePathLib:DevicePathFromText.obj
 0002:000007c0       ??_C@_1BC@JHDKFMJG@?$AAV?$AAe?$AAn?$AAV?$AAt?$AA1?$AA0?$AA0@ 0000000000008da0     UefiDevicePathLib:DevicePathFromText.obj
 0002:000007d8       ??_C@_1BK@NHGIEBMC@?$AAV?$AAe?$AAn?$AAV?$AAt?$AA1?$AA0?$AA0?$AAP?$AAl?$AAu?$AAs@ 0000000000008db8     UefiDevicePathLib:DevicePathFromText.obj
 0002:000007f8       ??_C@_1BA@NNIEKFBH@?$AAV?$AAe?$AAn?$AAU?$AAt?$AAf?$AA8@ 0000000000008dd8     UefiDevicePathLib:DevicePathFromText.obj
 0002:00000808       ??_C@_1BK@CEOAKICF@?$AAU?$AAa?$AAr?$AAt?$AAF?$AAl?$AAo?$AAw?$AAC?$AAt?$AAr?$AAl@ 0000000000008de8     UefiDevicePathLib:DevicePathFromText.obj
 0002:00000828       ??_C@_1M@CCCLFLPN@?$AAS?$AAa?$AAs?$AAE?$AAx@ 0000000000008e08     UefiDevicePathLib:DevicePathFromText.obj
 0002:00000838       ??_C@_19LAHBEEFI@?$AAN?$AAV?$AAM?$AAe@ 0000000000008e18     UefiDevicePathLib:DevicePathFromText.obj
 0002:00000848       ??_C@_17IHKCJEAJ@?$AAU?$AAF?$AAS@ 0000000000008e28     UefiDevicePathLib:DevicePathFromText.obj
 0002:00000850       ??_C@_15NAFBOLGP@?$AAS?$AAD@ 0000000000008e30     UefiDevicePathLib:DevicePathFromText.obj
 0002:00000858       ??_C@_19KDEEGBOA@?$AAe?$AAM?$AAM?$AAC@ 0000000000008e38     UefiDevicePathLib:DevicePathFromText.obj
 0002:00000868       ??_C@_1BE@BGIBNJJP@?$AAD?$AAe?$AAb?$AAu?$AAg?$AAP?$AAo?$AAr?$AAt@ 0000000000008e48     UefiDevicePathLib:DevicePathFromText.obj
 0002:00000880       ??_C@_17GFOANJLA@?$AAM?$AAA?$AAC@ 0000000000008e60     UefiDevicePathLib:DevicePathFromText.obj
 0002:00000888       ??_C@_19IJMOMJAP@?$AAI?$AAP?$AAv?$AA4@ 0000000000008e68     UefiDevicePathLib:DevicePathFromText.obj
 0002:00000898       ??_C@_19CDMHABIE@?$AAI?$AAP?$AAv?$AA6@ 0000000000008e78     UefiDevicePathLib:DevicePathFromText.obj
 0002:000008a8       ??_C@_19PNLOOBKB@?$AAU?$AAa?$AAr?$AAt@ 0000000000008e88     UefiDevicePathLib:DevicePathFromText.obj
 0002:000008b8       ??_C@_1BC@BHHGGAIE@?$AAU?$AAs?$AAb?$AAC?$AAl?$AAa?$AAs?$AAs@ 0000000000008e98     UefiDevicePathLib:DevicePathFromText.obj
 0002:000008d0       ??_C@_1BC@NAJEJDIH@?$AAU?$AAs?$AAb?$AAA?$AAu?$AAd?$AAi?$AAo@ 0000000000008eb0     UefiDevicePathLib:DevicePathFromText.obj
 0002:000008e8       ??_C@_1BM@EBMHFGAN@?$AAU?$AAs?$AAb?$AAC?$AAD?$AAC?$AAC?$AAo?$AAn?$AAt?$AAr?$AAo?$AAl@ 0000000000008ec8     UefiDevicePathLib:DevicePathFromText.obj
 0002:00000908       ??_C@_1O@MNHDOJBH@?$AAU?$AAs?$AAb?$AAH?$AAI?$AAD@ 0000000000008ee8     UefiDevicePathLib:DevicePathFromText.obj
 0002:00000918       ??_C@_1BC@PPLGKLBF@?$AAU?$AAs?$AAb?$AAI?$AAm?$AAa?$AAg?$AAe@ 0000000000008ef8     UefiDevicePathLib:DevicePathFromText.obj
 0002:00000930       ??_C@_1BG@PFAKNBDK@?$AAU?$AAs?$AAb?$AAP?$AAr?$AAi?$AAn?$AAt?$AAe?$AAr@ 0000000000008f10     UefiDevicePathLib:DevicePathFromText.obj
 0002:00000948       ??_C@_1BO@PDNPADEO@?$AAU?$AAs?$AAb?$AAM?$AAa?$AAs?$AAs?$AAS?$AAt?$AAo?$AAr?$AAa?$AAg?$AAe@ 0000000000008f28     UefiDevicePathLib:DevicePathFromText.obj
 0002:00000968       ??_C@_1O@DLJCNOCD@?$AAU?$AAs?$AAb?$AAH?$AAu?$AAb@ 0000000000008f48     UefiDevicePathLib:DevicePathFromText.obj
 0002:00000978       ??_C@_1BG@HNPFOCNE@?$AAU?$AAs?$AAb?$AAC?$AAD?$AAC?$AAD?$AAa?$AAt?$AAa@ 0000000000008f58     UefiDevicePathLib:DevicePathFromText.obj
 0002:00000990       ??_C@_1BK@COBNKHKO@?$AAU?$AAs?$AAb?$AAS?$AAm?$AAa?$AAr?$AAt?$AAC?$AAa?$AAr?$AAd@ 0000000000008f70     UefiDevicePathLib:DevicePathFromText.obj
 0002:000009b0       ??_C@_1BC@OCEEDGOJ@?$AAU?$AAs?$AAb?$AAV?$AAi?$AAd?$AAe?$AAo@ 0000000000008f90     UefiDevicePathLib:DevicePathFromText.obj
 0002:000009c8       ??_C@_1BM@LPAMJGAO@?$AAU?$AAs?$AAb?$AAD?$AAi?$AAa?$AAg?$AAn?$AAo?$AAs?$AAt?$AAi?$AAc@ 0000000000008fa8     UefiDevicePathLib:DevicePathFromText.obj
 0002:000009e8       ??_C@_1BI@FHBIGIDC@?$AAU?$AAs?$AAb?$AAW?$AAi?$AAr?$AAe?$AAl?$AAe?$AAs?$AAs@ 0000000000008fc8     UefiDevicePathLib:DevicePathFromText.obj
 0002:00000a00       ??_C@_1DA@MALGIHBH@?$AAU?$AAs?$AAb?$AAD?$AAe?$AAv?$AAi?$AAc?$AAe?$AAF?$AAi?$AAr?$AAm?$AAw?$AAa@ 0000000000008fe0     UefiDevicePathLib:DevicePathFromText.obj
 0002:00000a30       ??_C@_1BM@OGJGENB@?$AAU?$AAs?$AAb?$AAI?$AAr?$AAd?$AAa?$AAB?$AAr?$AAi?$AAd?$AAg?$AAe@ 0000000000009010     UefiDevicePathLib:DevicePathFromText.obj
 0002:00000a50       ??_C@_1CM@FCDMDMMH@?$AAU?$AAs?$AAb?$AAT?$AAe?$AAs?$AAt?$AAA?$AAn?$AAd?$AAM?$AAe?$AAa?$AAs?$AAu@ 0000000000009030     UefiDevicePathLib:DevicePathFromText.obj
 0002:00000a80       ??_C@_1BA@JFMBPOKP@?$AAU?$AAs?$AAb?$AAW?$AAw?$AAi?$AAd@ 0000000000009060     UefiDevicePathLib:DevicePathFromText.obj
 0002:00000a90       ??_C@_19ENIPABFF@?$AAU?$AAn?$AAi?$AAt@ 0000000000009070     UefiDevicePathLib:DevicePathFromText.obj
 0002:00000aa0       ??_C@_1M@KIOGPKKC@?$AAi?$AAS?$AAC?$AAS?$AAI@ 0000000000009080     UefiDevicePathLib:DevicePathFromText.obj
 0002:00000ab0       ??_C@_19DHGKIILN@?$AAV?$AAl?$AAa?$AAn@ 0000000000009090     UefiDevicePathLib:DevicePathFromText.obj
 0002:00000ac0       ??_C@_17HMHOINNJ@?$AAD?$AAn?$AAs@ 00000000000090a0     UefiDevicePathLib:DevicePathFromText.obj
 0002:00000ac8       ??_C@_17IHNPMJHH@?$AAU?$AAr?$AAi@ 00000000000090a8     UefiDevicePathLib:DevicePathFromText.obj
 0002:00000ad0       ??_C@_1BE@DJCFELKD@?$AAB?$AAl?$AAu?$AAe?$AAt?$AAo?$AAo?$AAt?$AAh@ 00000000000090b0     UefiDevicePathLib:DevicePathFromText.obj
 0002:00000ae8       ??_C@_1M@BMGHIDNG@?$AAW?$AAi?$AA?9?$AAF?$AAi@ 00000000000090c8     UefiDevicePathLib:DevicePathFromText.obj
 0002:00000af8       ??_C@_1BI@EALHOODN@?$AAB?$AAl?$AAu?$AAe?$AAt?$AAo?$AAo?$AAt?$AAh?$AAL?$AAE@ 00000000000090d8     UefiDevicePathLib:DevicePathFromText.obj
 0002:00000b10       ??_C@_1BE@MHMKEMCG@?$AAM?$AAe?$AAd?$AAi?$AAa?$AAP?$AAa?$AAt?$AAh@ 00000000000090f0     UefiDevicePathLib:DevicePathFromText.obj
 0002:00000b28       ??_C@_1BC@GHCKDDOI@?$AAV?$AAe?$AAn?$AAM?$AAe?$AAd?$AAi?$AAa@ 0000000000009108     UefiDevicePathLib:DevicePathFromText.obj
 0002:00000b40       ??_C@_1M@OFOICAAP@?$AAM?$AAe?$AAd?$AAi?$AAa@ 0000000000009120     UefiDevicePathLib:DevicePathFromText.obj
 0002:00000b4c       ??_C@_15NJGIEIGN@?$AAF?$AAv@ 000000000000912c     UefiDevicePathLib:DevicePathFromText.obj
 0002:00000b58       ??_C@_1O@HDIGBKAM@?$AAF?$AAv?$AAF?$AAi?$AAl?$AAe@ 0000000000009138     UefiDevicePathLib:DevicePathFromText.obj
 0002:00000b68       ??_C@_1O@LMEEEHLB@?$AAO?$AAf?$AAf?$AAs?$AAe?$AAt@ 0000000000009148     UefiDevicePathLib:DevicePathFromText.obj
 0002:00000b78       ??_C@_1BA@MCPGEJDD@?$AAR?$AAa?$AAm?$AAD?$AAi?$AAs?$AAk@ 0000000000009158     UefiDevicePathLib:DevicePathFromText.obj
 0002:00000b88       ??_C@_1BI@DOBDENMH@?$AAV?$AAi?$AAr?$AAt?$AAu?$AAa?$AAl?$AAD?$AAi?$AAs?$AAk@ 0000000000009168     UefiDevicePathLib:DevicePathFromText.obj
 0002:00000ba0       ??_C@_1BE@INMIBDPL@?$AAV?$AAi?$AAr?$AAt?$AAu?$AAa?$AAl?$AAC?$AAD@ 0000000000009180     UefiDevicePathLib:DevicePathFromText.obj
 0002:00000bb8       ??_C@_1CM@HJNDDJNG@?$AAP?$AAe?$AAr?$AAs?$AAi?$AAs?$AAt?$AAe?$AAn?$AAt?$AAV?$AAi?$AAr?$AAt?$AAu@ 0000000000009198     UefiDevicePathLib:DevicePathFromText.obj
 0002:00000be8       ??_C@_1CI@NFGDEDCN@?$AAP?$AAe?$AAr?$AAs?$AAi?$AAs?$AAt?$AAe?$AAn?$AAt?$AAV?$AAi?$AAr?$AAt?$AAu@ 00000000000091c8     UefiDevicePathLib:DevicePathFromText.obj
 0002:00000c10       ??_C@_1BA@EPIJMJOF@?$AAB?$AAb?$AAs?$AAP?$AAa?$AAt?$AAh@ 00000000000091f0     UefiDevicePathLib:DevicePathFromText.obj
 0002:00000c20       ??_C@_17GKENOOCN@?$AAB?$AAB?$AAS@ 0000000000009200     UefiDevicePathLib:DevicePathFromText.obj
 0002:00000c28       ??_C@_19EBDONFFG@?$AAS?$AAa?$AAt?$AAa@ 0000000000009208     UefiDevicePathLib:DevicePathFromText.obj
 0002:00000c38       ??_C@_0BO@BBJIABON@DeviceNodeStr?5?$CB?$DN?5?$CI?$CIvoid?5?$CK?$CJ?50?$CJ@ 0000000000009218     UefiDevicePathLib:DevicePathFromText.obj
 0002:00000c58       ??_C@_0BL@JFODOCGB@DevicePath?5?$CB?$DN?5?$CI?$CIvoid?5?$CK?$CJ?50?$CJ@ 0000000000009238     UefiDevicePathLib:DevicePathFromText.obj
 0002:00000c78       ??_C@_0BL@PENJEDLL@DeviceNode?5?$CB?$DN?5?$CI?$CIvoid?5?$CK?$CJ?50?$CJ@ 0000000000009258     UefiDevicePathLib:DevicePathFromText.obj
 0002:00000c98       ??_C@_0BJ@NNFHKMPH@Str?9?$DOStr?5?$CB?$DN?5?$CI?$CIvoid?5?$CK?$CJ?50?$CJ@ 0000000000009278     UefiDevicePathLib:DevicePathToText.obj
 0002:00000cc0       ??_C@_0FM@EGMJDLDF@D?3?2uefi_specs_personal_collecti@ 00000000000092a0     UefiDevicePathLib:DevicePathToText.obj
 0002:00000d20       ??_C@_1BO@OAGLMPIF@?$AAP?$AAc?$AAi?$AA?$CI?$AA0?$AAx?$AA?$CF?$AAx?$AA?0?$AA0?$AAx?$AA?$CF?$AAx?$AA?$CJ@ 0000000000009300     UefiDevicePathLib:DevicePathToText.obj
 0002:00000d40       ??_C@_1BK@KCEBDNMK@?$AAP?$AAc?$AAC?$AAa?$AAr?$AAd?$AA?$CI?$AA0?$AAx?$AA?$CF?$AAx?$AA?$CJ@ 0000000000009320     UefiDevicePathLib:DevicePathToText.obj
 0002:00000d60       ??_C@_1DO@IFCJNKPC@?$AAM?$AAe?$AAm?$AAo?$AAr?$AAy?$AAM?$AAa?$AAp?$AAp?$AAe?$AAd?$AA?$CI?$AA0?$AAx@ 0000000000009340     UefiDevicePathLib:DevicePathToText.obj
 0002:00000da0       ??_C@_15FLNOEOHI@?$AAH?$AAw@ 0000000000009380     UefiDevicePathLib:DevicePathToText.obj
 0002:00000da8       ??_C@_1BI@PHHNEBMB@?$AAV?$AAe?$AAn?$AAP?$AAc?$AAA?$AAn?$AAs?$AAi?$AA?$CI?$AA?$CJ@ 0000000000009388     UefiDevicePathLib:DevicePathToText.obj
 0002:00000dc0       ??_C@_1BG@IAIKNGNN@?$AAV?$AAe?$AAn?$AAV?$AAt?$AA1?$AA0?$AA0?$AA?$CI?$AA?$CJ@ 00000000000093a0     UefiDevicePathLib:DevicePathToText.obj
 0002:00000dd8       ??_C@_1BO@COEKAAEN@?$AAV?$AAe?$AAn?$AAV?$AAt?$AA1?$AA0?$AA0?$AAP?$AAl?$AAu?$AAs?$AA?$CI?$AA?$CJ@ 00000000000093b8     UefiDevicePathLib:DevicePathToText.obj
 0002:00000df8       ??_C@_1BE@IDDFGEGE@?$AAV?$AAe?$AAn?$AAU?$AAt?$AAf?$AA8?$AA?$CI?$AA?$CJ@ 00000000000093d8     UefiDevicePathLib:DevicePathToText.obj
 0002:00000e10       ??_C@_1CC@FKEHNDLA@?$AAU?$AAa?$AAr?$AAt?$AAF?$AAl?$AAo?$AAw?$AAC?$AAt?$AAr?$AAl?$AA?$CI?$AA?$CF?$AAs@ 00000000000093f0     UefiDevicePathLib:DevicePathToText.obj
 0002:00000e38       ??_C@_1CM@MBOKCKGI@?$AAS?$AAA?$AAS?$AA?$CI?$AA0?$AAx?$AA?$CF?$AAl?$AAx?$AA?0?$AA0?$AAx?$AA?$CF?$AAl?$AAx@ 0000000000009418     UefiDevicePathLib:DevicePathToText.obj
 0002:00000e68       ??_C@_1CE@FDCOMKL@?$AAN?$AAo?$AAT?$AAo?$AAp?$AAo?$AAl?$AAo?$AAg?$AAy?$AA?0?$AA0?$AA?0?$AA0?$AA?0@ 0000000000009448     UefiDevicePathLib:DevicePathToText.obj
 0002:00000e90       ??_C@_1BE@MLBJKAMN@?$AA?$CF?$AAs?$AA?0?$AA?$CF?$AAs?$AA?0?$AA?$CF?$AAs?$AA?0@ 0000000000009470     UefiDevicePathLib:DevicePathToText.obj
 0002:00000ea4       ??_C@_15KAKDEJHH@?$AA0?$AA?0@ 0000000000009484     UefiDevicePathLib:DevicePathToText.obj
 0002:00000eb0       ??_C@_1M@MJJODJOA@?$AA0?$AAx?$AA?$CF?$AAx?$AA?0@ 0000000000009490     UefiDevicePathLib:DevicePathToText.obj
 0002:00000ec0       ??_C@_1BI@EOONELPP@?$AA0?$AAx?$AA?$CF?$AAx?$AA?0?$AA0?$AA?0?$AA0?$AA?0?$AA0?$AA?0@ 00000000000094a0     UefiDevicePathLib:DevicePathToText.obj
 0002:00000ed8       ??_C@_1M@POEAMJNC@?$AA0?$AAx?$AA?$CF?$AAx?$AA?$CJ@ 00000000000094b8     UefiDevicePathLib:DevicePathToText.obj
 0002:00000ee8       ??_C@_1BI@IHPCIEPJ@?$AAD?$AAe?$AAb?$AAu?$AAg?$AAP?$AAo?$AAr?$AAt?$AA?$CI?$AA?$CJ@ 00000000000094c8     UefiDevicePathLib:DevicePathToText.obj
 0002:00000f00       ??_C@_13HGPDMIBE@?$AA?$DP@ 00000000000094e0     UefiDevicePathLib:DevicePathToText.obj
 0002:00000f08       ??_C@_1BC@EAAHJKNI@?$AAV?$AAe?$AAn?$AA?$CF?$AAs?$AA?$CI?$AA?$CF?$AAg@ 00000000000094e8     UefiDevicePathLib:DevicePathToText.obj
 0002:00000f1c       ??_C@_13DEFPDAGF@?$AA?0@   00000000000094fc     UefiDevicePathLib:DevicePathToText.obj
 0002:00000f20       ??_C@_19NHPFCCLF@?$AA?$CF?$AA0?$AA2?$AAx@ 0000000000009500     UefiDevicePathLib:DevicePathToText.obj
 0002:00000f2c       ??_C@_13DIBMAFH@?$AA?$CJ@  000000000000950c     UefiDevicePathLib:DevicePathToText.obj
 0002:00000f30       ??_C@_1BG@PDEHEHNB@?$AAC?$AAt?$AAr?$AAl?$AA?$CI?$AA0?$AAx?$AA?$CF?$AAx?$AA?$CJ@ 0000000000009510     UefiDevicePathLib:DevicePathToText.obj
 0002:00000f48       ??_C@_1CA@OCDNKJMI@?$AAB?$AAM?$AAC?$AA?$CI?$AA0?$AAx?$AA?$CF?$AAx?$AA?0?$AA0?$AAx?$AA?$CF?$AAl?$AAx?$AA?$CJ@ 0000000000009528     UefiDevicePathLib:DevicePathToText.obj
 0002:00000f68       ??_C@_1BM@LLBDFMIK@?$AAP?$AAc?$AAi?$AAR?$AAo?$AAo?$AAt?$AA?$CI?$AA0?$AAx?$AA?$CF?$AAx?$AA?$CJ@ 0000000000009548     UefiDevicePathLib:DevicePathToText.obj
 0002:00000f88       ??_C@_1BO@IHBMGOPI@?$AAP?$AAc?$AAi?$AAe?$AAR?$AAo?$AAo?$AAt?$AA?$CI?$AA0?$AAx?$AA?$CF?$AAx?$AA?$CJ@ 0000000000009568     UefiDevicePathLib:DevicePathToText.obj
 0002:00000fa8       ??_C@_1BK@NGLNBACO@?$AAF?$AAl?$AAo?$AAp?$AAp?$AAy?$AA?$CI?$AA0?$AAx?$AA?$CF?$AAx?$AA?$CJ@ 0000000000009588     UefiDevicePathLib:DevicePathToText.obj
 0002:00000fc8       ??_C@_1BO@OEKEOEOK@?$AAK?$AAe?$AAy?$AAb?$AAo?$AAa?$AAr?$AAd?$AA?$CI?$AA0?$AAx?$AA?$CF?$AAx?$AA?$CJ@ 00000000000095a8     UefiDevicePathLib:DevicePathToText.obj
 0002:00000fe8       ??_C@_1BK@PMIGPGKH@?$AAS?$AAe?$AAr?$AAi?$AAa?$AAl?$AA?$CI?$AA0?$AAx?$AA?$CF?$AAx?$AA?$CJ@ 00000000000095c8     UefiDevicePathLib:DevicePathToText.obj
 0002:00001008       ??_C@_1CG@CPMOJELH@?$AAP?$AAa?$AAr?$AAa?$AAl?$AAl?$AAe?$AAl?$AAP?$AAo?$AAr?$AAt?$AA?$CI?$AA0?$AAx@ 00000000000095e8     UefiDevicePathLib:DevicePathToText.obj
 0002:00001030       ??_C@_1CG@JCMCADBM@?$AAA?$AAc?$AAp?$AAi?$AA?$CI?$AAP?$AAN?$AAP?$AA?$CF?$AA0?$AA4?$AAx?$AA?0?$AA0?$AAx@ 0000000000009610     UefiDevicePathLib:DevicePathToText.obj
 0002:00001058       ??_C@_1CE@CLIAMHCD@?$AAA?$AAc?$AAp?$AAi?$AA?$CI?$AA0?$AAx?$AA?$CF?$AA0?$AA8?$AAx?$AA?0?$AA0?$AAx?$AA?$CF@ 0000000000009638     UefiDevicePathLib:DevicePathToText.obj
 0002:00001080       ??_C@_1BI@IBECIOLF@?$AAP?$AAc?$AAi?$AAR?$AAo?$AAo?$AAt?$AA?$CI?$AA?$CF?$AAa?$AA?$CJ@ 0000000000009660     UefiDevicePathLib:DevicePathToText.obj
 0002:00001098       ??_C@_1BK@HOGBDMPI@?$AAP?$AAc?$AAi?$AAe?$AAR?$AAo?$AAo?$AAt?$AA?$CI?$AA?$CF?$AAa?$AA?$CJ@ 0000000000009678     UefiDevicePathLib:DevicePathToText.obj
 0002:000010b8       ??_C@_1BG@BGLICHDL@?$AA?$CF?$AAc?$AA?$CF?$AAc?$AA?$CF?$AAc?$AA?$CF?$AA0?$AA4?$AAX@ 0000000000009698     UefiDevicePathLib:DevicePathToText.obj
 0002:000010d0       ??_C@_1CC@CMCFGMM@?$AAA?$AAc?$AAp?$AAi?$AAE?$AAx?$AAp?$AA?$CI?$AA?$CF?$AAs?$AA?0?$AA0?$AA?0?$AA?$CF?$AAa@ 00000000000096b0     UefiDevicePathLib:DevicePathToText.obj
 0002:000010f8       ??_C@_1CE@CGEKHGFF@?$AAA?$AAc?$AAp?$AAi?$AAE?$AAx?$AAp?$AA?$CI?$AA?$CF?$AAs?$AA?0?$AA?$CF?$AAs?$AA?0?$AA?$CF@ 00000000000096d8     UefiDevicePathLib:DevicePathToText.obj
 0002:00001120       ??_C@_1BG@EEDCOCH@?$AAA?$AAc?$AAp?$AAi?$AAE?$AAx?$AA?$CI?$AA?$CF?$AAa?$AA?0@ 0000000000009700     UefiDevicePathLib:DevicePathToText.obj
 0002:00001138       ??_C@_1BG@EKFNINLH@?$AAA?$AAc?$AAp?$AAi?$AAE?$AAx?$AA?$CI?$AA?$CF?$AAs?$AA?0@ 0000000000009718     UefiDevicePathLib:DevicePathToText.obj
 0002:00001150       ??_C@_17CAHIANN@?$AA?$CF?$AAa?$AA?0@ 0000000000009730     UefiDevicePathLib:DevicePathToText.obj
 0002:00001158       ??_C@_17EMBJCDEN@?$AA?$CF?$AAs?$AA?0@ 0000000000009738     UefiDevicePathLib:DevicePathToText.obj
 0002:00001160       ??_C@_17DFNJHAOP@?$AA?$CF?$AAa?$AA?$CJ@ 0000000000009740     UefiDevicePathLib:DevicePathToText.obj
 0002:00001168       ??_C@_1DI@HGKBPPFE@?$AAA?$AAc?$AAp?$AAi?$AAE?$AAx?$AA?$CI?$AA?$CF?$AAs?$AA?0?$AA?$CF?$AAs?$AA?0?$AA0?$AAx@ 0000000000009748     UefiDevicePathLib:DevicePathToText.obj
 0002:000011a0       ??_C@_1BK@IMGBACLG@?$AAA?$AAc?$AAp?$AAi?$AAA?$AAd?$AAr?$AA?$CI?$AA0?$AAx?$AA?$CF?$AAx@ 0000000000009780     UefiDevicePathLib:DevicePathToText.obj
 0002:000011c0       ??_C@_1M@HHLNLLAC@?$AA?0?$AA0?$AAx?$AA?$CF?$AAx@ 00000000000097a0     UefiDevicePathLib:DevicePathToText.obj
 0002:000011d0       ??_C@_1BE@HBALDGNG@?$AAA?$AAt?$AAa?$AA?$CI?$AA0?$AAx?$AA?$CF?$AAx?$AA?$CJ@ 00000000000097b0     UefiDevicePathLib:DevicePathToText.obj
 0002:000011e8       ??_C@_1CA@EFDNFHKP@?$AAA?$AAt?$AAa?$AA?$CI?$AA?$CF?$AAs?$AA?0?$AA?$CF?$AAs?$AA?0?$AA0?$AAx?$AA?$CF?$AAx?$AA?$CJ@ 00000000000097c8     UefiDevicePathLib:DevicePathToText.obj
 0002:00001208       ??_C@_1CA@JGIMMJKB@?$AAS?$AAc?$AAs?$AAi?$AA?$CI?$AA0?$AAx?$AA?$CF?$AAx?$AA?0?$AA0?$AAx?$AA?$CF?$AAx?$AA?$CJ@ 00000000000097e8     UefiDevicePathLib:DevicePathToText.obj
 0002:00001228       ??_C@_1CG@OFFLOOAD@?$AAF?$AAi?$AAb?$AAr?$AAe?$AA?$CI?$AA0?$AAx?$AA?$CF?$AAl?$AAx?$AA?0?$AA0?$AAx?$AA?$CF@ 0000000000009808     UefiDevicePathLib:DevicePathToText.obj
 0002:00001250       ??_C@_1BG@EHEKANON@?$AAF?$AAi?$AAb?$AAr?$AAe?$AAE?$AAx?$AA?$CI?$AA0?$AAx@ 0000000000009830     UefiDevicePathLib:DevicePathToText.obj
 0002:00001268       ??_C@_17JOPFNIFB@?$AA?0?$AA0?$AAx@ 0000000000009848     UefiDevicePathLib:DevicePathToText.obj
 0002:00001270       ??_C@_1BC@CKFHLIJB@?$AAS?$AAa?$AAs?$AAE?$AAx?$AA?$CI?$AA0?$AAx@ 0000000000009850     UefiDevicePathLib:DevicePathToText.obj
 0002:00001288       ??_C@_1O@IEGBGPLN@?$AA?0?$AA0?$AAx?$AA?$CF?$AAx?$AA?0@ 0000000000009868     UefiDevicePathLib:DevicePathToText.obj
 0002:00001298       ??_C@_1CC@FKOFEPIC@?$AAN?$AAo?$AAT?$AAo?$AAp?$AAo?$AAl?$AAo?$AAg?$AAy?$AA?0?$AA0?$AA?0?$AA0?$AA?0@ 0000000000009878     UefiDevicePathLib:DevicePathToText.obj
 0002:000012bc       ??_C@_13COJANIEC@?$AA0@    000000000000989c     UefiDevicePathLib:DevicePathToText.obj
 0002:000012c0       ??_C@_19PCNJIDGC@?$AA0?$AAx?$AA?$CF?$AAx@ 00000000000098a0     UefiDevicePathLib:DevicePathToText.obj
 0002:000012d0       ??_C@_1BG@JCDPLMKI@?$AA0?$AAx?$AA?$CF?$AAx?$AA?0?$AA0?$AA?0?$AA0?$AA?0?$AA0@ 00000000000098b0     UefiDevicePathLib:DevicePathToText.obj
 0002:000012f0       ??_C@_1GG@KPIKGINP@?$AAN?$AAV?$AAM?$AAe?$AA?$CI?$AA0?$AAx?$AA?$CF?$AAx?$AA?0?$AA?$CF?$AA0?$AA2?$AAx?$AA?9@ 00000000000098d0     UefiDevicePathLib:DevicePathToText.obj
 0002:00001358       ??_C@_1BO@HJLBIHHO@?$AAU?$AAF?$AAS?$AA?$CI?$AA0?$AAx?$AA?$CF?$AAx?$AA?0?$AA0?$AAx?$AA?$CF?$AAx?$AA?$CJ@ 0000000000009938     UefiDevicePathLib:DevicePathToText.obj
 0002:00001378       ??_C@_1BC@JIFEONHJ@?$AAS?$AAD?$AA?$CI?$AA0?$AAx?$AA?$CF?$AAx?$AA?$CJ@ 0000000000009958     UefiDevicePathLib:DevicePathToText.obj
 0002:00001390       ??_C@_1BG@BHOAMFEP@?$AAe?$AAM?$AAM?$AAC?$AA?$CI?$AA0?$AAx?$AA?$CF?$AAx?$AA?$CJ@ 0000000000009970     UefiDevicePathLib:DevicePathToText.obj
 0002:000013a8       ??_C@_1BM@OFMOJDLM@?$AAI?$AA1?$AA3?$AA9?$AA4?$AA?$CI?$AA?$CF?$AA0?$AA1?$AA6?$AAl?$AAx?$AA?$CJ@ 0000000000009988     UefiDevicePathLib:DevicePathToText.obj
 0002:000013c8       ??_C@_1BO@CIMDKCCI@?$AAU?$AAS?$AAB?$AA?$CI?$AA0?$AAx?$AA?$CF?$AAx?$AA?0?$AA0?$AAx?$AA?$CF?$AAx?$AA?$CJ@ 00000000000099a8     UefiDevicePathLib:DevicePathToText.obj
 0002:000013e8       ??_C@_0BH@GADOMDOK@NewStr?5?$CB?$DN?5?$CI?$CIvoid?5?$CK?$CJ?50?$CJ@ 00000000000099c8     UefiDevicePathLib:DevicePathToText.obj
 0002:00001400       ??_C@_1DK@IPDOPIPA@?$AAU?$AAs?$AAb?$AAW?$AAw?$AAi?$AAd?$AA?$CI?$AA0?$AAx?$AA?$CF?$AAx?$AA?0?$AA0?$AAx@ 00000000000099e0     UefiDevicePathLib:DevicePathToText.obj
 0002:00001440       ??_C@_1BG@NJNCNCKM@?$AAU?$AAn?$AAi?$AAt?$AA?$CI?$AA0?$AAx?$AA?$CF?$AAx?$AA?$CJ@ 0000000000009a20     UefiDevicePathLib:DevicePathToText.obj
 0002:00001458       ??_C@_1CM@JDEAFCK@?$AA?$CI?$AA0?$AAx?$AA?$CF?$AAx?$AA?0?$AA0?$AAx?$AA?$CF?$AAx?$AA?0?$AA0?$AAx?$AA?$CF?$AAx@ 0000000000009a38     UefiDevicePathLib:DevicePathToText.obj
 0002:00001490       ??_C@_1FA@DIDNHLOK@?$AAU?$AAs?$AAb?$AAD?$AAe?$AAv?$AAi?$AAc?$AAe?$AAF?$AAi?$AAr?$AAm?$AAw?$AAa@ 0000000000009a70     UefiDevicePathLib:DevicePathToText.obj
 0002:000014e0       ??_C@_1DM@JLMEALMP@?$AAU?$AAs?$AAb?$AAI?$AAr?$AAd?$AAa?$AAB?$AAr?$AAi?$AAd?$AAg?$AAe?$AA?$CI?$AA0@ 0000000000009ac0     UefiDevicePathLib:DevicePathToText.obj
 0002:00001520       ??_C@_1EM@PFIODAIB@?$AAU?$AAs?$AAb?$AAT?$AAe?$AAs?$AAt?$AAA?$AAn?$AAd?$AAM?$AAe?$AAa?$AAs?$AAu@ 0000000000009b00     UefiDevicePathLib:DevicePathToText.obj
 0002:00001570       ??_C@_1EG@NMOJJABI@?$AAU?$AAs?$AAb?$AAC?$AAl?$AAa?$AAs?$AAs?$AA?$CI?$AA0?$AAx?$AA?$CF?$AAx?$AA?0?$AA0@ 0000000000009b50     UefiDevicePathLib:DevicePathToText.obj
 0002:000015b8       ??_C@_1CK@MHLLPHIN@?$AAS?$AAa?$AAt?$AAa?$AA?$CI?$AA0?$AAx?$AA?$CF?$AAx?$AA?0?$AA0?$AAx?$AA?$CF?$AAx?$AA?0@ 0000000000009b98     UefiDevicePathLib:DevicePathToText.obj
 0002:000015e8       ??_C@_1BE@GPJMKBFH@?$AAI?$AA2?$AAO?$AA?$CI?$AA0?$AAx?$AA?$CF?$AAx?$AA?$CJ@ 0000000000009bc8     UefiDevicePathLib:DevicePathToText.obj
 0002:00001600       ??_C@_19HOEMCGPJ@?$AAM?$AAA?$AAC?$AA?$CI@ 0000000000009be0     UefiDevicePathLib:DevicePathToText.obj
 0002:00001610       ??_C@_1O@LDLPJPIP@?$AA?0?$AA0?$AAx?$AA?$CF?$AAx?$AA?$CJ@ 0000000000009bf0     UefiDevicePathLib:DevicePathToText.obj
 0002:00001620       ??_C@_1BI@FCMLLAGN@?$AA?$CF?$AAd?$AA?4?$AA?$CF?$AAd?$AA?4?$AA?$CF?$AAd?$AA?4?$AA?$CF?$AAd@ 0000000000009c00     UefiDevicePathLib:DevicePathToText.obj
 0002:00001640       ??_C@_1JA@HKGNNMMG@?$AA?$CF?$AA0?$AA2?$AAx?$AA?$CF?$AA0?$AA2?$AAx?$AA?3?$AA?$CF?$AA0?$AA2?$AAx?$AA?$CF?$AA0@ 0000000000009c20     UefiDevicePathLib:DevicePathToText.obj
 0002:000016d0       ??_C@_1M@KGGIME@?$AAI?$AAP?$AAv?$AA4?$AA?$CI@ 0000000000009cb0     UefiDevicePathLib:DevicePathToText.obj
 0002:000016e0       ??_C@_19DDJNJOGL@?$AAD?$AAH?$AAC?$AAP@ 0000000000009cc0     UefiDevicePathLib:DevicePathToText.obj
 0002:000016f0       ??_C@_19JPNAHHAM@?$AA?0?$AA?$CF?$AAs?$AA?0@ 0000000000009cd0     UefiDevicePathLib:DevicePathToText.obj
 0002:00001700       ??_C@_1M@ENGOMJMP@?$AAI?$AAP?$AAv?$AA6?$AA?$CI@ 0000000000009ce0     UefiDevicePathLib:DevicePathToText.obj
 0002:00001710       ??_C@_1BC@CMHMGCCH@?$AA?0?$AAS?$AAt?$AAa?$AAt?$AAi?$AAc?$AA?0@ 0000000000009cf0     UefiDevicePathLib:DevicePathToText.obj
 0002:00001728       ??_C@_1DC@LOFPJEEL@?$AA?0?$AAS?$AAt?$AAa?$AAt?$AAe?$AAl?$AAe?$AAs?$AAs?$AAA?$AAu?$AAt?$AAo?$AAC@ 0000000000009d08     UefiDevicePathLib:DevicePathToText.obj
 0002:00001760       ??_C@_1DA@HMGEOIF@?$AA?0?$AAS?$AAt?$AAa?$AAt?$AAe?$AAf?$AAu?$AAl?$AAA?$AAu?$AAt?$AAo?$AAC?$AAo@ 0000000000009d40     UefiDevicePathLib:DevicePathToText.obj
 0002:00001790       ??_C@_1EM@IPHLFBGI@?$AAI?$AAn?$AAf?$AAi?$AAn?$AAi?$AAb?$AAa?$AAn?$AAd?$AA?$CI?$AA0?$AAx?$AA?$CF?$AAx@ 0000000000009d70     UefiDevicePathLib:DevicePathToText.obj
 0002:000017e0       ??_C@_1BM@EHGODEHA@?$AAU?$AAa?$AAr?$AAt?$AA?$CI?$AAD?$AAE?$AAF?$AAA?$AAU?$AAL?$AAT?$AA?0@ 0000000000009dc0     UefiDevicePathLib:DevicePathToText.obj
 0002:00001800       ??_C@_1BE@OEIOOGGH@?$AAU?$AAa?$AAr?$AAt?$AA?$CI?$AA?$CF?$AAl?$AAd?$AA?0@ 0000000000009de0     UefiDevicePathLib:DevicePathToText.obj
 0002:00001818       ??_C@_1BC@DDKPDLCJ@?$AAD?$AAE?$AAF?$AAA?$AAU?$AAL?$AAT?$AA?0@ 0000000000009df8     UefiDevicePathLib:DevicePathToText.obj
 0002:00001830       ??_C@_17FCMKBBGO@?$AA?$CF?$AAd?$AA?0@ 0000000000009e10     UefiDevicePathLib:DevicePathToText.obj
 0002:00001838       ??_C@_17EPMPCBNG@?$AA?$CF?$AAc?$AA?0@ 0000000000009e18     UefiDevicePathLib:DevicePathToText.obj
 0002:00001840       ??_C@_15HMOPGJC@?$AAD?$AA?$CJ@ 0000000000009e20     UefiDevicePathLib:DevicePathToText.obj
 0002:00001848       ??_C@_15FMCBGKOA@?$AA1?$AA?$CJ@ 0000000000009e28     UefiDevicePathLib:DevicePathToText.obj
 0002:00001850       ??_C@_19PODFHIEB@?$AA1?$AA?4?$AA5?$AA?$CJ@ 0000000000009e30     UefiDevicePathLib:DevicePathToText.obj
 0002:0000185c       ??_C@_15NKLFBIEO@?$AA2?$AA?$CJ@ 0000000000009e3c     UefiDevicePathLib:DevicePathToText.obj
 0002:00001864       ??_C@_15HEHGDBEE@?$AAx?$AA?$CJ@ 0000000000009e44     UefiDevicePathLib:DevicePathToText.obj
 0002:00001870       ??_C@_1CC@OKJDLPLB@?$AAi?$AAS?$AAC?$AAS?$AAI?$AA?$CI?$AA?$CF?$AAa?$AA?0?$AA0?$AAx?$AA?$CF?$AAx?$AA?0?$AA0@ 0000000000009e50     UefiDevicePathLib:DevicePathToText.obj
 0002:00001898       ??_C@_1BA@FMEKDPAI@?$AAC?$AAH?$AAA?$AAP?$AA_?$AAB?$AAI@ 0000000000009e78     UefiDevicePathLib:DevicePathToText.obj
 0002:000018a8       ??_C@_1BC@EFEBCBGB@?$AAr?$AAe?$AAs?$AAe?$AAr?$AAv?$AAe?$AAd@ 0000000000009e88     UefiDevicePathLib:DevicePathToText.obj
 0002:000018c0       ??_C@_17HLMHNDHP@?$AA?$CF?$AAs?$AA?$CJ@ 0000000000009ea0     UefiDevicePathLib:DevicePathToText.obj
 0002:000018c8       ??_C@_1BC@OPCHKNKH@?$AAV?$AAl?$AAa?$AAn?$AA?$CI?$AA?$CF?$AAd?$AA?$CJ@ 0000000000009ea8     UefiDevicePathLib:DevicePathToText.obj
 0002:000018e0       ??_C@_1EI@EPMFLBAJ@?$AAB?$AAl?$AAu?$AAe?$AAt?$AAo?$AAo?$AAt?$AAh?$AA?$CI?$AA?$CF?$AA0?$AA2?$AAx?$AA?$CF@ 0000000000009ec0     UefiDevicePathLib:DevicePathToText.obj
 0002:00001928       ??_C@_1BE@DKODNJMI@?$AAW?$AAi?$AA?9?$AAF?$AAi?$AA?$CI?$AA?$CF?$AAa?$AA?$CJ@ 0000000000009f08     UefiDevicePathLib:DevicePathToText.obj
 0002:00001940       ??_C@_1FK@LABBEHKJ@?$AAB?$AAl?$AAu?$AAe?$AAt?$AAo?$AAo?$AAt?$AAh?$AAL?$AAE?$AA?$CI?$AA?$CF?$AA0?$AA2@ 0000000000009f20     UefiDevicePathLib:DevicePathToText.obj
 0002:000019a0       ??_C@_19KGHFHKGE@?$AAD?$AAn?$AAs?$AA?$CI@ 0000000000009f80     UefiDevicePathLib:DevicePathToText.obj
 0002:000019b0       ??_C@_0BH@EDBFFFOA@UriStr?5?$CB?$DN?5?$CI?$CIvoid?5?$CK?$CJ?50?$CJ@ 0000000000009f90     UefiDevicePathLib:DevicePathToText.obj
 0002:000019c8       ??_C@_1BA@OMDAJDPE@?$AAU?$AAr?$AAi?$AA?$CI?$AA?$CF?$AAa?$AA?$CJ@ 0000000000009fa8     UefiDevicePathLib:DevicePathToText.obj
 0002:000019d8       ??_C@_1CC@GGNPKJFE@?$AAH?$AAD?$AA?$CI?$AA?$CF?$AAd?$AA?0?$AA?$CF?$AAs?$AA?0?$AA0?$AAx?$AA?$CF?$AA0?$AA8?$AAx@ 0000000000009fb8     UefiDevicePathLib:DevicePathToText.obj
 0002:00001a00       ??_C@_1BK@NDBPAJDF@?$AAH?$AAD?$AA?$CI?$AA?$CF?$AAd?$AA?0?$AA?$CF?$AAs?$AA?0?$AA?$CF?$AAg?$AA?0@ 0000000000009fe0     UefiDevicePathLib:DevicePathToText.obj
 0002:00001a20       ??_C@_1BI@BCKDFMFI@?$AAH?$AAD?$AA?$CI?$AA?$CF?$AAd?$AA?0?$AA?$CF?$AAd?$AA?0?$AA0?$AA?0@ 000000000000a000     UefiDevicePathLib:DevicePathToText.obj
 0002:00001a38       ??_C@_1BK@MMBDHGIK@?$AA0?$AAx?$AA?$CF?$AAl?$AAx?$AA?0?$AA0?$AAx?$AA?$CF?$AAl?$AAx?$AA?$CJ@ 000000000000a018     UefiDevicePathLib:DevicePathToText.obj
 0002:00001a58       ??_C@_1BI@EEHCFNDN@?$AAC?$AAD?$AAR?$AAO?$AAM?$AA?$CI?$AA0?$AAx?$AA?$CF?$AAx?$AA?$CJ@ 000000000000a038     UefiDevicePathLib:DevicePathToText.obj
 0002:00001a70       ??_C@_1DA@JMLBJEDN@?$AAC?$AAD?$AAR?$AAO?$AAM?$AA?$CI?$AA0?$AAx?$AA?$CF?$AAx?$AA?0?$AA0?$AAx?$AA?$CF?$AAl@ 000000000000a050     UefiDevicePathLib:DevicePathToText.obj
 0002:00001aa0       ??_C@_15GANGMFKL@?$AA?$CF?$AAs@ 000000000000a080     UefiDevicePathLib:DevicePathToText.obj
 0002:00001aa8       ??_C@_1BE@CJGJAKDA@?$AAM?$AAe?$AAd?$AAi?$AAa?$AA?$CI?$AA?$CF?$AAg?$AA?$CJ@ 000000000000a088     UefiDevicePathLib:DevicePathToText.obj
 0002:00001ac0       ??_C@_1O@HJJPOOCL@?$AAF?$AAv?$AA?$CI?$AA?$CF?$AAg?$AA?$CJ@ 000000000000a0a0     UefiDevicePathLib:DevicePathToText.obj
 0002:00001ad0       ??_C@_1BG@MHENELFF@?$AAF?$AAv?$AAF?$AAi?$AAl?$AAe?$AA?$CI?$AA?$CF?$AAg?$AA?$CJ@ 000000000000a0b0     UefiDevicePathLib:DevicePathToText.obj
 0002:00001ae8       ??_C@_1CI@FAOKAOM@?$AAO?$AAf?$AAf?$AAs?$AAe?$AAt?$AA?$CI?$AA0?$AAx?$AA?$CF?$AAl?$AAx?$AA?0?$AA0?$AAx@ 000000000000a0c8     UefiDevicePathLib:DevicePathToText.obj
 0002:00001b10       ??_C@_1DI@GJAGNPCG@?$AAV?$AAi?$AAr?$AAt?$AAu?$AAa?$AAl?$AAD?$AAi?$AAs?$AAk?$AA?$CI?$AA0?$AAx?$AA?$CF@ 000000000000a0f0     UefiDevicePathLib:DevicePathToText.obj
 0002:00001b48       ??_C@_1DE@FBEBFJJD@?$AAV?$AAi?$AAr?$AAt?$AAu?$AAa?$AAl?$AAC?$AAD?$AA?$CI?$AA0?$AAx?$AA?$CF?$AAl?$AAx@ 000000000000a128     UefiDevicePathLib:DevicePathToText.obj
 0002:00001b80       ??_C@_1EM@PFGFJDCD@?$AAP?$AAe?$AAr?$AAs?$AAi?$AAs?$AAt?$AAe?$AAn?$AAt?$AAV?$AAi?$AAr?$AAt?$AAu@ 000000000000a160     UefiDevicePathLib:DevicePathToText.obj
 0002:00001bd0       ??_C@_1EI@IJLGIAIE@?$AAP?$AAe?$AAr?$AAs?$AAi?$AAs?$AAt?$AAe?$AAn?$AAt?$AAV?$AAi?$AAr?$AAt?$AAu@ 000000000000a1b0     UefiDevicePathLib:DevicePathToText.obj
 0002:00001c18       ??_C@_1DG@IFGHOPEL@?$AAR?$AAa?$AAm?$AAD?$AAi?$AAs?$AAk?$AA?$CI?$AA0?$AAx?$AA?$CF?$AAl?$AAx?$AA?0?$AA0@ 000000000000a1f8     UefiDevicePathLib:DevicePathToText.obj
 0002:00001c50       ??_C@_1BE@EICHFCPK@?$AAB?$AAB?$AAS?$AA?$CI?$AA?$CF?$AAs?$AA?0?$AA?$CF?$AAa@ 000000000000a230     UefiDevicePathLib:DevicePathToText.obj
 0002:00001c68       ??_C@_1BI@EAEHELAJ@?$AAB?$AAB?$AAS?$AA?$CI?$AA0?$AAx?$AA?$CF?$AAx?$AA?0?$AA?$CF?$AAa@ 000000000000a248     UefiDevicePathLib:DevicePathToText.obj
 0002:00001c80       ??_C@_1BG@BNMBFAIA@?$AAP?$AAa?$AAt?$AAh?$AA?$CI?$AA?$CF?$AAd?$AA?0?$AA?$CF?$AAd@ 000000000000a260     UefiDevicePathLib:DevicePathToText.obj
 0002:00001c98       ??_C@_1M@NAHACGNB@?$AA?$CF?$AAs?$AA?$CI?$AA?$CF?$AAd@ 000000000000a278     UefiDevicePathLib:DevicePathToText.obj
 0002:00001ca8       ??_C@_0BI@JHENLKMB@Str?4Str?5?$CB?$DN?5?$CI?$CIvoid?5?$CK?$CJ?50?$CJ@ 000000000000a288     UefiDevicePathLib:DevicePathToText.obj
 0002:00001cc0       ??_C@_13CGOKJPIL@?$AA?1@   000000000000a2a0     UefiDevicePathLib:DevicePathToText.obj
 0002:00001cd0       mUefiDevicePathLibToTextTableGeneric 000000000000a2b0     UefiDevicePathLib:DevicePathToText.obj
 0002:00001d30       mUefiDevicePathLibToTextTable 000000000000a310     UefiDevicePathLib:DevicePathToText.obj
 0002:00002050       ??_C@_0ED@MKGCMJG@?$CILength?5?9?51?$CJ?5?$DM?$DN?5?$CI0xFFFFFFFFFFFF@ 000000000000a630     BaseMemoryLibRepStr:CopyMemWrapper.obj
 0002:000020a0       ??_C@_0FM@IDPIEKJH@D?3?2uefi_specs_personal_collecti@ 000000000000a680     BaseMemoryLibRepStr:CopyMemWrapper.obj
 0002:00002100       ??_C@_0DO@MAOBOFEG@?$CILength?5?9?51?$CJ?5?$DM?$DN?5?$CI0xFFFFFFFFFFFF@ 000000000000a6e0     BaseMemoryLibRepStr:CopyMemWrapper.obj
 0002:00002140       ??_C@_0DG@EEENIGGL@Length?5?$DM?$DN?5?$CI0xFFFFFFFFFFFFFFFFUL@ 000000000000a720     BaseMemoryLibRepStr:MemLibGuid.obj
 0002:00002180       ??_C@_0FM@DHFKCLFA@D?3?2uefi_specs_personal_collecti@ 000000000000a760     BaseMemoryLibRepStr:ZeroMemWrapper.obj
 0002:000021e0       ??_C@_0BH@MAAHKCPC@String?5?$CB?$DN?5?$CI?$CIvoid?5?$CK?$CJ?50?$CJ@ 000000000000a7c0     BaseLib:String.obj
 0002:00002200       ??_C@_0EI@LOLLHGDK@D?3?2uefi_specs_personal_collecti@ 000000000000a7e0     BaseLib:String.obj
 0002:00002248       ??_C@_0CC@GFNLNIOC@?$CI?$CIUINTN?$CJString?5?$CG?50x00000001?$CJ?5?$DN?$DN@ 000000000000a828     BaseLib:String.obj
 0002:00002270       ??_C@_0DK@EOJCOAME@Length?5?$DM?5_gPcd_FixedAtBuild_Pcd@ 000000000000a850     BaseLib:String.obj
 0002:000022b0       ??_C@_0BL@JAAMOCAJ@StrSize?5?$CIFirstString?$CJ?5?$CB?$DN?50@ 000000000000a890     BaseLib:String.obj
 0002:000022d0       ??_C@_0BM@DALBOILC@StrSize?5?$CISecondString?$CJ?5?$CB?$DN?50@ 000000000000a8b0     BaseLib:String.obj
 0002:000022f0       ??_C@_0DL@LFIMEMJP@Length?5?$DM?$DN?5_gPcd_FixedAtBuild_Pc@ 000000000000a8d0     BaseLib:String.obj
 0002:00002330       ??_C@_0DI@MDIKFADO@Length?5?$DM?5_gPcd_FixedAtBuild_Pcd@ 000000000000a910     BaseLib:String.obj
 0002:00002370       ??_C@_0EL@GLNKFHII@D?3?2uefi_specs_personal_collecti@ 000000000000a950     BaseLib:Unaligned.obj
 0002:000023c0       ??_C@_0EM@OAPOMMAE@D?3?2uefi_specs_personal_collecti@ 000000000000a9a0     BaseLib:SafeString.obj
 0002:00002410       ??_C@_0CH@LALFPBMC@?$CI?$CIUINTN?$CJDestination?5?$CG?50x0000000@ 000000000000a9f0     BaseLib:SafeString.obj
 0002:00002438       ??_C@_0CC@HEBCMBPF@?$CI?$CIUINTN?$CJSource?5?$CG?50x00000001?$CJ?5?$DN?$DN@ 000000000000aa18     BaseLib:SafeString.obj
 0002:00002460       ??_C@_0BO@ECNIOIHG@?$CIDestination?5?$CB?$DN?5?$CI?$CIvoid?5?$CK?$CJ?50?$CJ?$CJ@ 000000000000aa40     BaseLib:SafeString.obj
 0002:00002480       ??_C@_07KBGDFDAM@StrCpyS@  000000000000aa60     BaseLib:SafeString.obj
 0002:00002490       ??_C@_0EA@PDPDJJNN@?$CFa?$CI?$CFd?$CJ?5?$CFa?3?5SAFE_STRING_CONSTRAI@ 000000000000aa70     BaseLib:SafeString.obj
 0002:000024d0       ??_C@_0BJ@EAEEJIP@?$CISource?5?$CB?$DN?5?$CI?$CIvoid?5?$CK?$CJ?50?$CJ?$CJ@ 000000000000aab0     BaseLib:SafeString.obj
 0002:000024f0       ??_C@_0EA@BBALOHPI@?$CIDestMax?5?$DM?$DN?5?$CI_gPcd_FixedAtBuild@ 000000000000aad0     BaseLib:SafeString.obj
 0002:00002530       ??_C@_0P@PMIMLIHM@?$CIDestMax?5?$CB?$DN?50?$CJ@ 000000000000ab10     BaseLib:SafeString.obj
 0002:00002540       ??_C@_0BG@EEGIIOKH@?$CIDestMax?5?$DO?5SourceLen?$CJ@ 000000000000ab20     BaseLib:SafeString.obj
 0002:00002560       ??_C@_0FH@PPBLBDBJ@InternalSafeStringNoStrOverlap?5@ 000000000000ab40     BaseLib:SafeString.obj
 0002:000025b8       ??_C@_0DP@PBOJGJC@?$CILength?5?$DM?$DN?5?$CI_gPcd_FixedAtBuild_@ 000000000000ab98     BaseLib:SafeString.obj
 0002:000025f8       ??_C@_0BJ@MBBOBCLN@?$CIString?5?$CB?$DN?5?$CI?$CIvoid?5?$CK?$CJ?50?$CJ?$CJ@ 000000000000abd8     BaseLib:SafeString.obj
 0002:00002618       ??_C@_0BD@NNBAKNOF@StrDecimalToUintnS@ 000000000000abf8     BaseLib:SafeString.obj
 0002:00002630       ??_C@_0BH@JPMEDPAI@?$CIData?5?$CB?$DN?5?$CI?$CIvoid?5?$CK?$CJ?50?$CJ?$CJ@ 000000000000ac10     BaseLib:SafeString.obj
 0002:00002650       ??_C@_0IC@CFBPEAPC@?$CIStrnLenS?5?$CIString?0?5?$CI_gPcd_Fixed@ 000000000000ac30     BaseLib:SafeString.obj
 0002:000026d8       ??_C@_0BE@CAKPCCF@StrDecimalToUint64S@ 000000000000acb8     BaseLib:SafeString.obj
 0002:000026f0       ??_C@_0P@FDCJFGP@StrHexToUintnS@ 000000000000acd0     BaseLib:SafeString.obj
 0002:00002700       ??_C@_0BA@PLPLKCD@StrHexToUint64S@ 000000000000ace0     BaseLib:SafeString.obj
 0002:00002710       ??_C@_0BB@LMEEEKHP@StrToIpv6Address@ 000000000000acf0     BaseLib:SafeString.obj
 0002:00002728       ??_C@_0BK@PFCDEPEA@?$CIAddress?5?$CB?$DN?5?$CI?$CIvoid?5?$CK?$CJ?50?$CJ?$CJ@ 000000000000ad08     BaseLib:SafeString.obj
 0002:00002750       ??_C@_0EK@OFPBBCEA@AddressIndex?5?$CL?51?5?$DM?5?$CIsizeof?5?$CIAdd@ 000000000000ad30     BaseLib:SafeString.obj
 0002:000027a0       ??_C@_0BB@JCLCGCPJ@StrToIpv4Address@ 000000000000ad80     BaseLib:SafeString.obj
 0002:000027b8       ??_C@_09NDPBFECG@StrToGuid@ 000000000000ad98     BaseLib:SafeString.obj
 0002:000027c8       ??_C@_0BH@JHLMKECN@?$CIGuid?5?$CB?$DN?5?$CI?$CIvoid?5?$CK?$CJ?50?$CJ?$CJ@ 000000000000ada8     BaseLib:SafeString.obj
 0002:000027e0       ??_C@_0O@GDLPMLII@StrHexToBytes@ 000000000000adc0     BaseLib:SafeString.obj
 0002:000027f0       ??_C@_0BJ@CNKJJNE@?$CIBuffer?5?$CB?$DN?5?$CI?$CIvoid?5?$CK?$CJ?50?$CJ?$CJ@ 000000000000add0     BaseLib:SafeString.obj
 0002:00002810       ??_C@_0BN@ECMFIFKJ@?$CI?$CILength?5?$CG?50x00000001?$CJ?5?$DN?$DN?50?$CJ@ 000000000000adf0     BaseLib:SafeString.obj
 0002:00002830       ??_C@_0BO@HHMNFJIK@?$CIMaxBufferSize?5?$DO?$DN?5Length?5?1?52?$CJ@ 000000000000ae10     BaseLib:SafeString.obj
 0002:00002850       ??_C@_0BG@ECBHNCII@UnicodeStrToAsciiStrS@ 000000000000ae30     BaseLib:SafeString.obj
 0002:00002870       ??_C@_0GH@OGMKEJDK@?$CBInternalSafeStringIsOverlap?5?$CID@ 000000000000ae50     BaseLib:SafeString.obj
 0002:000028d8       ??_C@_0BA@MFHLDCJH@?$CKSource?5?$DM?50x100@ 000000000000aeb8     BaseLib:SafeString.obj
 0002:000028e8       ??_C@_0N@KGHEHMDL@Divisor?5?$CB?$DN?50@ 000000000000aec8     BaseLib:DivU64x32.obj
 0002:000028f8       ??_C@_0CI@BGLNHBLM@?$CI?$CI?$CIUINTN?$CJ?5?$CIStartOfBuffer?$CJ?$CJ?5?$CG?50x@ 000000000000aed8     BasePrintLib:PrintLib.obj
 0002:00002920       ??_C@_0EP@OFLCNDBG@D?3?2uefi_specs_personal_collecti@ 000000000000af00     BasePrintLib:PrintLib.obj
 0002:00002970       ??_C@_0CH@KJLBGOBB@?$CI?$CI?$CIUINTN?$CJ?5?$CIFormatString?$CJ?$CJ?5?$CG?50x0@ 000000000000af50     BasePrintLib:PrintLib.obj
 0002:000029a0       ??_C@_0FH@MODEAFEI@D?3?2uefi_specs_personal_collecti@ 000000000000af80     BasePrintLib:PrintLibInternal.obj
 0002:00002a00       ??_C@_0EB@HDGIDCIO@?$CIBufferSize?5?$DM?$DN?5?$CI_gPcd_FixedAtBu@ 000000000000afe0     BasePrintLib:PrintLibInternal.obj
 0002:00002a48       ??_C@_0BJ@PPAKKDJG@?$CIFormat?5?$CB?$DN?5?$CI?$CIvoid?5?$CK?$CJ?50?$CJ?$CJ@ 000000000000b028     BasePrintLib:PrintLibInternal.obj
 0002:00002a70       ??_C@_0ED@LPDDCECB@?$CIBufferSize?5?$DM?$DN?5?$CI_gPcd_FixedAtBu@ 000000000000b050     BasePrintLib:PrintLibInternal.obj
 0002:00002ac0       ??_C@_0IM@BFJJFLGB@?$CIStrnLenS?5?$CI?$CICHAR16?5?$CK?$CJFormat?0?5?$CI_@ 000000000000b0a0     BasePrintLib:PrintLibInternal.obj
 0002:00002b50       ??_C@_0ID@PLGJGION@?$CIAsciiStrnLenS?5?$CIFormat?0?5?$CI_gPcd_@ 000000000000b130     BasePrintLib:PrintLibInternal.obj
 0002:00002bd8       ??_C@_0O@MLOLIMFM@?$DMnull?5string?$DO@ 000000000000b1b8     BasePrintLib:PrintLibInternal.obj
 0002:00002be8       ??_C@_0M@BJJDNPHK@?$DMnull?5guid?$DO@ 000000000000b1c8     BasePrintLib:PrintLibInternal.obj
 0002:00002bf8       ??_C@_0DB@PMLHLBMO@?$CF08x?9?$CF04x?9?$CF04x?9?$CF02x?$CF02x?9?$CF02x?$CF02@ 000000000000b1d8     BasePrintLib:PrintLibInternal.obj
 0002:00002c30       ??_C@_0M@LHGBCIKM@?$DMnull?5time?$DO@ 000000000000b210     BasePrintLib:PrintLibInternal.obj
 0002:00002c40       ??_C@_0BK@FCPKCIDD@?$CF02d?1?$CF02d?1?$CF04d?5?5?$CF02d?3?$CF02d@ 000000000000b220     BasePrintLib:PrintLibInternal.obj
 0002:00002c5c       ??_C@_04JIMNDDED@?$CF08X@  000000000000b23c     BasePrintLib:PrintLibInternal.obj
 0002:00002c64       ??_C@_02PCIJFNDE@?$AN?6@   000000000000b244     BasePrintLib:PrintLibInternal.obj
 0002:00002c68       ??_C@_01LIIJDEN@?$AN@      000000000000b248     BasePrintLib:PrintLibInternal.obj
 0002:00002c70       mWarningString             000000000000b250     BasePrintLib:PrintLibInternal.obj
 0002:00002d40       mErrorString               000000000000b320     BasePrintLib:PrintLibInternal.obj
 0002:00003020       mHexStr                    000000000000b600     BasePrintLib:PrintLibInternal.obj
 0002:00003030       ??_C@_0GF@KMHDEKMA@D?3?2uefi_specs_personal_collecti@ 000000000000b610     UefiMemoryAllocationLib:MemoryAllocationLib.obj
 0002:00003098       ??_C@_0DO@GEEICOOO@AllocationSize?5?$DM?$DN?5?$CI0xFFFFFFFFFF@ 000000000000b678     UefiMemoryAllocationLib:MemoryAllocationLib.obj
 0002:000030e0       ??_C@_0FE@LIGPAOFO@D?3?2uefi_specs_personal_collecti@ 000000000000b6c0     BaseLib:DivU64x32Remainder.obj
 0002:00003188       __volatile_metadata        000000000000b768     <linker-defined>
 0003:00000000       gEfiVirtualCdGuid          000000000000b900     DevicePathDxe:AutoGen.obj
 0003:00000010       gEfiPersistentVirtualDiskGuid 000000000000b910     DevicePathDxe:AutoGen.obj
 0003:00000020       gEfiVTUTF8Guid             000000000000b920     DevicePathDxe:AutoGen.obj
 0003:00000030       gEfiUartDevicePathGuid     000000000000b930     DevicePathDxe:AutoGen.obj
 0003:00000040       gEfiVT100Guid              000000000000b940     DevicePathDxe:AutoGen.obj
 0003:00000050       gEfiDevicePathToTextProtocolGuid 000000000000b950     DevicePathDxe:AutoGen.obj
 0003:00000060       gEfiDevicePathUtilitiesProtocolGuid 000000000000b960     DevicePathDxe:AutoGen.obj
 0003:00000070       gEfiDevicePathFromTextProtocolGuid 000000000000b970     DevicePathDxe:AutoGen.obj
 0003:00000080       gEfiVT100PlusGuid          000000000000b980     DevicePathDxe:AutoGen.obj
 0003:00000090       gEfiDebugPortProtocolGuid  000000000000b990     DevicePathDxe:AutoGen.obj
 0003:000000a0       gEfiVirtualDiskGuid        000000000000b9a0     DevicePathDxe:AutoGen.obj
 0003:000000b0       gEfiSasDevicePathGuid      000000000000b9b0     DevicePathDxe:AutoGen.obj
 0003:000000c0       gEfiPersistentVirtualCdGuid 000000000000b9c0     DevicePathDxe:AutoGen.obj
 0003:000000d0       gEfiPcAnsiGuid             000000000000b9d0     DevicePathDxe:AutoGen.obj
 0003:000000e0       mUefiDevicePathLibDevPathFromTextTable 000000000000b9e0     UefiDevicePathLib:DevicePathFromText.obj
 0003:00000658       gST                        000000000000bf58     UefiBootServicesTableLib:UefiBootServicesTableLib.obj
 0003:00000660       gBS                        000000000000bf60     UefiBootServicesTableLib:UefiBootServicesTableLib.obj
 0003:00000668       gImageHandle               000000000000bf68     UefiBootServicesTableLib:UefiBootServicesTableLib.obj
 0003:00000678       gParity                    000000000000bf78     PcAtSerialPortLib:SerialPortLib.obj
 0003:00000679       gBreakSet                  000000000000bf79     PcAtSerialPortLib:SerialPortLib.obj

 entry point at        0001:000001a8

 Static symbols

 0001:0000003a       InternalMemCopyMem.0       00000000000002fa     BaseMemoryLibRepStr:CopyMem.obj
 0001:0000004a       @CopyBackward              000000000000030a     BaseMemoryLibRepStr:CopyMem.obj
 0001:00000053       @CopyBytes                 0000000000000313     BaseMemoryLibRepStr:CopyMem.obj
 0001:00000129       TdVmCall.no_return_data    00000000000003e9     BaseLib:TdVmcall.obj
 0001:0000019b       TdCall.exit                000000000000045b     BaseLib:TdCall.obj
 0003:00000650       mCcProbeGuestType          000000000000bf50     DxeCcProbeLib:DxeCcProbeLib.obj
 0003:00000651       mCcProbed                  000000000000bf51     DxeCcProbeLib:DxeCcProbeLib.obj
 0003:00000670       mDeadLoopComparator        000000000000bf70     BaseLib:CpuDeadLoop.obj
 0005:00000000       $unwind$DevPathToTextInfiniBand 000000000000c720     UefiDevicePathLib:DevicePathToText.obj
 0005:00000000       $unwind$_ModuleEntryPoint  000000000000c720     UefiDriverEntryPoint:DriverEntryPoint.obj
 0005:00000008       $unwind$ProcessLibraryConstructorList 000000000000c728     DevicePathDxe:AutoGen.obj
 0005:00000014       $unwind$DebugPrint         000000000000c734     BaseDebugLibSerialPort:DebugLib.obj
 0005:0000001c       $unwind$DebugPrintMarker   000000000000c73c     BaseDebugLibSerialPort:DebugLib.obj
 0005:00000030       $unwind$DebugAssert        000000000000c750     BaseDebugLibSerialPort:DebugLib.obj
 0005:00000038       $unwind$StrCmp             000000000000c758     BaseLib:String.obj
 0005:00000038       $unwind$StrLen             000000000000c758     BaseLib:String.obj
 0005:00000038       $unwind$CopyGuid           000000000000c758     BaseMemoryLibRepStr:MemLibGuid.obj
 0005:00000038       $unwind$BasePrintLibValueToString 000000000000c758     BasePrintLib:PrintLibInternal.obj
 0005:00000038       $unwind$DevPathToTextAcpiAdr 000000000000c758     UefiDevicePathLib:DevicePathToText.obj
 0005:00000038       $unwind$DevPathToTextBBS   000000000000c758     UefiDevicePathLib:DevicePathToText.obj
 0005:00000038       $unwind$DevPathToTextBmc   000000000000c758     UefiDevicePathLib:DevicePathToText.obj
 0005:00000038       $unwind$DevPathToTextIPv6  000000000000c758     UefiDevicePathLib:DevicePathToText.obj
 0005:00000038       $unwind$DevPathToTextUart  000000000000c758     UefiDevicePathLib:DevicePathToText.obj
 0005:00000038       $unwind$GetDevicePathSize  000000000000c758     UefiDevicePathLib:UefiDevicePathLib.obj
 0005:00000038       $unwind$SerialPortWrite    000000000000c758     PcAtSerialPortLib:SerialPortLib.obj
 0005:00000048       $unwind$DevPathFromTextDebugPort 000000000000c768     UefiDevicePathLib:DevicePathFromText.obj
 0005:00000048       $unwind$DevPathFromTextVenPcAnsi 000000000000c768     UefiDevicePathLib:DevicePathFromText.obj
 0005:00000048       $unwind$DevPathFromTextVenUtf8 000000000000c768     UefiDevicePathLib:DevicePathFromText.obj
 0005:00000048       $unwind$DevPathFromTextVenVt100 000000000000c768     UefiDevicePathLib:DevicePathFromText.obj
 0005:00000048       $unwind$DevPathFromTextVenVt100Plus 000000000000c768     UefiDevicePathLib:DevicePathFromText.obj
 0005:00000048       $unwind$EisaIdFromText     000000000000c768     UefiDevicePathLib:DevicePathFromText.obj
 0005:00000048       $unwind$NetworkProtocolFromText 000000000000c768     UefiDevicePathLib:DevicePathFromText.obj
 0005:00000048       $unwind$Strtoi64           000000000000c768     UefiDevicePathLib:DevicePathFromText.obj
 0005:00000048       $unwind$DevicePathNodeLength 000000000000c768     UefiDevicePathLib:DevicePathUtilities.obj
 0005:00000048       $unwind$DuplicateDevicePath 000000000000c768     UefiDevicePathLib:UefiDevicePathLib.obj
 0005:00000050       $unwind$DevPathToTextNodeGeneric 000000000000c770     UefiDevicePathLib:DevicePathToText.obj
 0005:00000050       $unwind$AppendDevicePath   000000000000c770     UefiDevicePathLib:UefiDevicePathLib.obj
 0005:00000050       $unwind$CreateDeviceNode   000000000000c770     UefiDevicePathLib:UefiDevicePathLib.obj
 0005:00000050       $unwind$GetNextDevicePathInstance 000000000000c770     UefiDevicePathLib:UefiDevicePathLib.obj
 0005:00000068       $unwind$CopyMem            000000000000c788     BaseMemoryLibRepStr:CopyMemWrapper.obj
 0005:00000068       $unwind$DevPathToTextFibreEx 000000000000c788     UefiDevicePathLib:DevicePathToText.obj
 0005:00000068       $unwind$DevPathToTextMacAddr 000000000000c788     UefiDevicePathLib:DevicePathToText.obj
 0005:00000068       $unwind$DevPathToTextUri   000000000000c788     UefiDevicePathLib:DevicePathToText.obj
 0005:00000068       $unwind$IsDevicePathValid  000000000000c788     UefiDevicePathLib:DevicePathUtilities.obj
 0005:00000068       $unwind$AppendDevicePathNode 000000000000c788     UefiDevicePathLib:UefiDevicePathLib.obj
 0005:00000068       $unwind$InternalReallocatePool 000000000000c788     UefiMemoryAllocationLib:MemoryAllocationLib.obj
 0005:0000007c       $unwind$DevPathToTextiSCSI 000000000000c79c     UefiDevicePathLib:DevicePathToText.obj
 0005:0000007c       $unwind$AppendDevicePathInstance 000000000000c79c     UefiDevicePathLib:UefiDevicePathLib.obj
 0005:00000094       $unwind$StrnLenS           000000000000c7b4     BaseLib:SafeString.obj
 0005:00000094       $unwind$AsciiStrLen        000000000000c7b4     BaseLib:String.obj
 0005:00000094       $unwind$ZeroMem            000000000000c7b4     BaseMemoryLibRepStr:ZeroMemWrapper.obj
 0005:00000094       $unwind$IsDevicePathEnd    000000000000c7b4     UefiDevicePathLib:DevicePathUtilities.obj
 0005:00000094       $unwind$SetDevicePathNodeLength 000000000000c7b4     UefiDevicePathLib:DevicePathUtilities.obj
 0005:00000094       $unwind$IsDevicePathMultiInstance 000000000000c7b4     UefiDevicePathLib:UefiDevicePathLib.obj
 0005:00000094       $unwind$InternalAllocateCopyPool 000000000000c7b4     UefiMemoryAllocationLib:MemoryAllocationLib.obj
 0005:000000a0       $unwind$UnicodeStrToAsciiStrS 000000000000c7c0     BaseLib:SafeString.obj
 0005:000000a0       $unwind$ConvertDeviceNodeToText 000000000000c7c0     UefiDevicePathLib:UefiDevicePathLib.obj
 0005:000000b4       $unwind$ConvertDevicePathToText 000000000000c7d4     UefiDevicePathLib:UefiDevicePathLib.obj
 0005:000000d0       $unwind$DevPathFromTextUsbAudio 000000000000c7f0     UefiDevicePathLib:DevicePathFromText.obj
 0005:000000d0       $unwind$DevPathFromTextUsbCDCControl 000000000000c7f0     UefiDevicePathLib:DevicePathFromText.obj
 0005:000000d0       $unwind$DevPathFromTextUsbCDCData 000000000000c7f0     UefiDevicePathLib:DevicePathFromText.obj
 0005:000000d0       $unwind$DevPathFromTextUsbClass 000000000000c7f0     UefiDevicePathLib:DevicePathFromText.obj
 0005:000000d0       $unwind$DevPathFromTextUsbDeviceFirmwareUpdate 000000000000c7f0     UefiDevicePathLib:DevicePathFromText.obj
 0005:000000d0       $unwind$DevPathFromTextUsbDiagnostic 000000000000c7f0     UefiDevicePathLib:DevicePathFromText.obj
 0005:000000d0       $unwind$DevPathFromTextUsbHID 000000000000c7f0     UefiDevicePathLib:DevicePathFromText.obj
 0005:000000d0       $unwind$DevPathFromTextUsbHub 000000000000c7f0     UefiDevicePathLib:DevicePathFromText.obj
 0005:000000d0       $unwind$DevPathFromTextUsbImage 000000000000c7f0     UefiDevicePathLib:DevicePathFromText.obj
 0005:000000d0       $unwind$DevPathFromTextUsbIrdaBridge 000000000000c7f0     UefiDevicePathLib:DevicePathFromText.obj
 0005:000000d0       $unwind$DevPathFromTextUsbMassStorage 000000000000c7f0     UefiDevicePathLib:DevicePathFromText.obj
 0005:000000d0       $unwind$DevPathFromTextUsbPrinter 000000000000c7f0     UefiDevicePathLib:DevicePathFromText.obj
 0005:000000d0       $unwind$DevPathFromTextUsbSmartCard 000000000000c7f0     UefiDevicePathLib:DevicePathFromText.obj
 0005:000000d0       $unwind$DevPathFromTextUsbTestAndMeasurement 000000000000c7f0     UefiDevicePathLib:DevicePathFromText.obj
 0005:000000d0       $unwind$DevPathFromTextUsbVideo 000000000000c7f0     UefiDevicePathLib:DevicePathFromText.obj
 0005:000000d0       $unwind$DevPathFromTextUsbWireless 000000000000c7f0     UefiDevicePathLib:DevicePathFromText.obj
 0005:000000d0       $unwind$Strtoi             000000000000c7f0     UefiDevicePathLib:DevicePathFromText.obj
 0005:000000d0       $unwind$FreePool           000000000000c7f0     UefiMemoryAllocationLib:MemoryAllocationLib.obj
 0005:000000d0       $unwind$InternalAllocatePool 000000000000c7f0     UefiMemoryAllocationLib:MemoryAllocationLib.obj
 0005:000000d8       $unwind$DevPathFromTextGenericPath 000000000000c7f8     UefiDevicePathLib:DevicePathFromText.obj
 0005:000000ec       $unwind$DevPathFromTextPath 000000000000c80c     UefiDevicePathLib:DevicePathFromText.obj
 0005:000000f4       $unwind$ConvertFromTextAcpi 000000000000c814     UefiDevicePathLib:DevicePathFromText.obj
 0005:000000f4       $unwind$DevPathFromTextAcpi 000000000000c814     UefiDevicePathLib:DevicePathFromText.obj
 0005:000000f4       $unwind$DevPathFromTextBluetoothLE 000000000000c814     UefiDevicePathLib:DevicePathFromText.obj
 0005:000000f4       $unwind$DevPathFromTextBmc 000000000000c814     UefiDevicePathLib:DevicePathFromText.obj
 0005:000000f4       $unwind$DevPathFromTextFibre 000000000000c814     UefiDevicePathLib:DevicePathFromText.obj
 0005:000000f4       $unwind$DevPathFromTextMAC 000000000000c814     UefiDevicePathLib:DevicePathFromText.obj
 0005:000000f4       $unwind$DevPathFromTextPci 000000000000c814     UefiDevicePathLib:DevicePathFromText.obj
 0005:000000f4       $unwind$DevPathFromTextRelativeOffsetRange 000000000000c814     UefiDevicePathLib:DevicePathFromText.obj
 0005:000000f4       $unwind$DevPathFromTextScsi 000000000000c814     UefiDevicePathLib:DevicePathFromText.obj
 0005:000000f4       $unwind$DevPathFromTextUartFlowCtrl 000000000000c814     UefiDevicePathLib:DevicePathFromText.obj
 0005:000000f4       $unwind$DevPathFromTextUfs 000000000000c814     UefiDevicePathLib:DevicePathFromText.obj
 0005:000000f4       $unwind$DevPathFromTextUsb 000000000000c814     UefiDevicePathLib:DevicePathFromText.obj
 0005:00000104       $unwind$DevPathFromText1394 000000000000c824     UefiDevicePathLib:DevicePathFromText.obj
 0005:00000104       $unwind$DevPathFromTextBluetooth 000000000000c824     UefiDevicePathLib:DevicePathFromText.obj
 0005:00000104       $unwind$DevPathFromTextCtrl 000000000000c824     UefiDevicePathLib:DevicePathFromText.obj
 0005:00000104       $unwind$DevPathFromTextEmmc 000000000000c824     UefiDevicePathLib:DevicePathFromText.obj
 0005:00000104       $unwind$DevPathFromTextFv  000000000000c824     UefiDevicePathLib:DevicePathFromText.obj
 0005:00000104       $unwind$DevPathFromTextFvFile 000000000000c824     UefiDevicePathLib:DevicePathFromText.obj
 0005:00000104       $unwind$DevPathFromTextI2O 000000000000c824     UefiDevicePathLib:DevicePathFromText.obj
 0005:00000104       $unwind$DevPathFromTextMedia 000000000000c824     UefiDevicePathLib:DevicePathFromText.obj
 0005:00000104       $unwind$DevPathFromTextPcCard 000000000000c824     UefiDevicePathLib:DevicePathFromText.obj
 0005:00000104       $unwind$DevPathFromTextSd  000000000000c824     UefiDevicePathLib:DevicePathFromText.obj
 0005:00000104       $unwind$DevPathFromTextUnit 000000000000c824     UefiDevicePathLib:DevicePathFromText.obj
 0005:00000104       $unwind$DevPathFromTextUri 000000000000c824     UefiDevicePathLib:DevicePathFromText.obj
 0005:00000104       $unwind$DevPathFromTextVlan 000000000000c824     UefiDevicePathLib:DevicePathFromText.obj
 0005:00000110       $unwind$DevPathFromTextAcpiExp 000000000000c830     UefiDevicePathLib:DevicePathFromText.obj
 0005:00000110       $unwind$DevPathFromTextCDROM 000000000000c830     UefiDevicePathLib:DevicePathFromText.obj
 0005:00000110       $unwind$DevPathFromTextFibreEx 000000000000c830     UefiDevicePathLib:DevicePathFromText.obj
 0005:00000110       $unwind$DevPathFromTextMemoryMapped 000000000000c830     UefiDevicePathLib:DevicePathFromText.obj
 0005:00000110       $unwind$DevPathFromTextSata 000000000000c830     UefiDevicePathLib:DevicePathFromText.obj
 0005:00000124       $unwind$ConvertFromTextVendor 000000000000c844     UefiDevicePathLib:DevicePathFromText.obj
 0005:00000124       $unwind$DevPathFromTextAcpiAdr 000000000000c844     UefiDevicePathLib:DevicePathFromText.obj
 0005:00000124       $unwind$DevPathFromTextAta 000000000000c844     UefiDevicePathLib:DevicePathFromText.obj
 0005:00000138       $unwind$DevPathFromTextAcpiEx 000000000000c858     UefiDevicePathLib:DevicePathFromText.obj
 0005:00000154       $unwind$ConvertFromTextUsbClass 000000000000c874     UefiDevicePathLib:DevicePathFromText.obj
 0005:00000154       $unwind$DevPathFromTextInfiniband 000000000000c874     UefiDevicePathLib:DevicePathFromText.obj
 0005:00000154       $unwind$DevPathFromTextUsbWwid 000000000000c874     UefiDevicePathLib:DevicePathFromText.obj
 0005:0000016c       $unwind$DevPathFromTextSAS 000000000000c88c     UefiDevicePathLib:DevicePathFromText.obj
 0005:00000184       $unwind$DevPathFromTextSasEx 000000000000c8a4     UefiDevicePathLib:DevicePathFromText.obj
 0005:0000019c       $unwind$DevPathFromTextDns 000000000000c8bc     UefiDevicePathLib:DevicePathFromText.obj
 0005:0000019c       $unwind$DevPathFromTextNVMe 000000000000c8bc     UefiDevicePathLib:DevicePathFromText.obj
 0005:0000019c       $unwind$DevPathFromTextPersistentVirtualCd 000000000000c8bc     UefiDevicePathLib:DevicePathFromText.obj
 0005:0000019c       $unwind$DevPathFromTextPersistentVirtualDisk 000000000000c8bc     UefiDevicePathLib:DevicePathFromText.obj
 0005:0000019c       $unwind$DevPathFromTextVirtualCd 000000000000c8bc     UefiDevicePathLib:DevicePathFromText.obj
 0005:0000019c       $unwind$DevPathFromTextVirtualDisk 000000000000c8bc     UefiDevicePathLib:DevicePathFromText.obj
 0005:000001ac       $unwind$DevPathFromTextBBS 000000000000c8cc     UefiDevicePathLib:DevicePathFromText.obj
 0005:000001ac       $unwind$DevPathFromTextIPv4 000000000000c8cc     UefiDevicePathLib:DevicePathFromText.obj
 0005:000001ac       $unwind$DevPathFromTextIPv6 000000000000c8cc     UefiDevicePathLib:DevicePathFromText.obj
 0005:000001ac       $unwind$DevPathFromTextUart 000000000000c8cc     UefiDevicePathLib:DevicePathFromText.obj
 0005:000001c4       $unwind$DevPathFromTextiSCSI 000000000000c8e4     UefiDevicePathLib:DevicePathFromText.obj
 0005:000001dc       $unwind$DevPathFromTextWiFi 000000000000c8fc     UefiDevicePathLib:DevicePathFromText.obj
 0005:000001f0       $unwind$DevPathFromTextHD  000000000000c910     UefiDevicePathLib:DevicePathFromText.obj
 0005:00000204       $unwind$DevPathFromTextFilePath 000000000000c924     UefiDevicePathLib:DevicePathFromText.obj
 0005:0000021c       $unwind$DevPathFromTextRamDisk 000000000000c93c     UefiDevicePathLib:DevicePathFromText.obj
 0005:00000230       $unwind$UefiDevicePathLibConvertTextToDeviceNode 000000000000c950     UefiDevicePathLib:DevicePathFromText.obj
 0005:0000024c       $unwind$UefiDevicePathLibConvertTextToDevicePath 000000000000c96c     UefiDevicePathLib:DevicePathFromText.obj
 0005:00000268       $unwind$UefiDevicePathLibCatPrint 000000000000c988     UefiDevicePathLib:DevicePathToText.obj
 0005:00000274       $unwind$DevPathToTextAtapi 000000000000c994     UefiDevicePathLib:DevicePathToText.obj
 0005:00000274       $unwind$DevPathToTextCDROM 000000000000c994     UefiDevicePathLib:DevicePathToText.obj
 0005:00000274       $unwind$DevPathToTextMemMap 000000000000c994     UefiDevicePathLib:DevicePathToText.obj
 0005:00000274       $unwind$DevPathToTextSata  000000000000c994     UefiDevicePathLib:DevicePathToText.obj
 0005:0000027c       $unwind$DevPathToTextDns   000000000000c99c     UefiDevicePathLib:DevicePathToText.obj
 0005:0000027c       $unwind$DevPathToTextVendor 000000000000c99c     UefiDevicePathLib:DevicePathToText.obj
 0005:00000294       $unwind$DevPathToTextAcpiEx 000000000000c9b4     UefiDevicePathLib:DevicePathToText.obj
 0005:000002b4       $unwind$UnicodeVSPrint     000000000000c9d4     BasePrintLib:PrintLib.obj
 0005:000002b4       $unwind$DevPathToTextSasEx 000000000000c9d4     UefiDevicePathLib:DevicePathToText.obj
 0005:000002c8       $unwind$DevPathToTextNVMe  000000000000c9e8     UefiDevicePathLib:DevicePathToText.obj
 0005:000002d8       $unwind$DevPathToTextUsbWWID 000000000000c9f8     UefiDevicePathLib:DevicePathToText.obj
 0005:000002f0       $unwind$StrDecimalToUint64 000000000000ca10     BaseLib:String.obj
 0005:000002f0       $unwind$StrHexToUint64     000000000000ca10     BaseLib:String.obj
 0005:000002f0       $unwind$DevPathToTextUsbClass 000000000000ca10     UefiDevicePathLib:DevicePathToText.obj
 0005:000002fc       $unwind$CatIPv6Address     000000000000ca1c     UefiDevicePathLib:DevicePathToText.obj
 0005:00000318       $unwind$DevPathToTextIPv4  000000000000ca38     UefiDevicePathLib:DevicePathToText.obj
 0005:00000318       $unwind$DevPathToTextRamDisk 000000000000ca38     UefiDevicePathLib:DevicePathToText.obj
 0005:00000328       $unwind$DevPathToTextBluetooth 000000000000ca48     UefiDevicePathLib:DevicePathToText.obj
 0005:00000330       $unwind$DevPathToTextWiFi  000000000000ca50     UefiDevicePathLib:DevicePathToText.obj
 0005:00000338       $unwind$DevPathToTextBluetoothLE 000000000000ca58     UefiDevicePathLib:DevicePathToText.obj
 0005:00000344       $unwind$DevPathToTextHardDrive 000000000000ca64     UefiDevicePathLib:DevicePathToText.obj
 0005:00000350       $unwind$CompareGuid        000000000000ca70     BaseMemoryLibRepStr:MemLibGuid.obj
 0005:00000368       $unwind$StrDecimalToUintnS 000000000000ca88     BaseLib:SafeString.obj
 0005:00000368       $unwind$StrHexToUintnS     000000000000ca88     BaseLib:SafeString.obj
 0005:00000378       $unwind$StrToIpv6Address   000000000000ca98     BaseLib:SafeString.obj
 0005:00000390       $unwind$StrToIpv4Address   000000000000cab0     BaseLib:SafeString.obj
 0005:000003a0       $unwind$StrToGuid          000000000000cac0     BaseLib:SafeString.obj
 0005:000003b8       $unwind$StrHexToBytes      000000000000cad8     BaseLib:SafeString.obj
 0005:000003d0       $unwind$UnicodeSPrint      000000000000caf0     BasePrintLib:PrintLib.obj
 0005:000003d8       $unwind$AsciiSPrint        000000000000caf8     BasePrintLib:PrintLib.obj
 0005:000003e0       $unwind$BasePrintLibSPrintMarker 000000000000cb00     BasePrintLib:PrintLibInternal.obj
 0005:000003fc       $unwind$TdIoRead8          000000000000cb1c     BaseIoLibIntrinsicSev:IoLibInternalTdx.obj
 0005:000003fc       $unwind$BasePrintLibSPrint 000000000000cb1c     BasePrintLib:PrintLibInternal.obj
 0005:00000404       $unwind$TdIoWrite8         000000000000cb24     BaseIoLibIntrinsicSev:IoLibInternalTdx.obj
